###############################################################################
#                                                                             #
# IAR C/C++ Compiler V8.10.3.10338/W32 for 8051         08/Jun/2017  11:43:50 #
# Copyright 2004-2011 IAR Systems AB.                                         #
#                                                                             #
#    Core               =  plain                                              #
#    Code model         =  banked                                             #
#    Data model         =  large                                              #
#    Calling convention =  xdata reentrant                                    #
#    Constant location  =  data_rom                                           #
#    Dptr setup         =  1,16                                               #
#    Source file        =  E:\work\smartlight\ZigLight001\Components\hal\targ #
#                          et\CC2530EB\hal_key.c                              #
#    Command line       =  -f E:\work\smartlight\ZigLight001\Projects\zstack\ #
#                          Samples\ZigLightApp\CC2530DB\..\..\..\Tools\CC2530 #
#                          DB\f8wCoord.cfg (-DCPU32MHZ -DROOT=__near_func     #
#                          -DMAC_CFG_APP_PENDING_QUEUE=TRUE                   #
#                          -DMAC_CFG_TX_DATA_MAX=5 -DMAC_CFG_TX_MAX=8         #
#                          -DMAC_CFG_RX_MAX=5 -DZDO_COORDINATOR -DRTR_NWK)    #
#                          -f E:\work\smartlight\ZigLight001\Projects\zstack\ #
#                          Samples\ZigLightApp\CC2530DB\..\..\..\Tools\CC2530 #
#                          DB\f8wConfig.cfg (-DZIGBEEPRO -DSECURE=0           #
#                          -DZG_SECURE_DYNAMIC=0 -DREFLECTOR                  #
#                          -DDEFAULT_CHANLIST=0x00000800                      #
#                          -DZDAPP_CONFIG_PAN_ID=0xFF00                       #
#                          -DNWK_START_DELAY=100 -DEXTENDED_JOINING_RANDOM_MA #
#                          SK=0x007F -DBEACON_REQUEST_DELAY=100               #
#                          -DBEACON_REQ_DELAY_MASK=0x00FF                     #
#                          -DLINK_STATUS_JITTER_MASK=0x007F                   #
#                          -DROUTE_EXPIRY_TIME=30 -DAPSC_ACK_WAIT_DURATION_PO #
#                          LLED=3000 -DNWK_INDIRECT_MSG_TIMEOUT=7             #
#                          -DMAX_RREQ_ENTRIES=8 -DAPSC_MAX_FRAME_RETRIES=3    #
#                          -DNWK_MAX_DATA_RETRIES=2                           #
#                          -DMAX_POLL_FAILURE_RETRIES=2 -DMAX_BCAST=9         #
#                          -DAPS_MAX_GROUPS=16 -DMAX_RTG_ENTRIES=40           #
#                          -DNWK_MAX_BINDING_ENTRIES=4                        #
#                          -DMAX_BINDING_CLUSTER_IDS=4 "-DDEFAULT_KEY={0x01,  #
#                          0x03, 0x05, 0x07, 0x09, 0x0B, 0x0D, 0x0F, 0x00,    #
#                          0x02, 0x04, 0x06, 0x08, 0x0A, 0x0C, 0x0D}"         #
#                          -DMAC_MAX_FRAME_SIZE=116                           #
#                          -DZDNWKMGR_MIN_TRANSMISSIONS=20 "-DCONST=const     #
#                          __code" -DGENERIC=__generic                        #
#                          -DRFD_RCVC_ALWAYS_ON=FALSE -DPOLL_RATE=1000        #
#                          -DQUEUED_POLL_RATE=100 -DRESPONSE_POLL_RATE=100)   #
#                          -DREJOIN_POLL_RATE=440 E:\work\smartlight\ZigLight #
#                          001\Components\hal\target\CC2530EB\hal_key.c -D    #
#                          ZTOOL_P1 -D NV_RESTORE -D MWK_MANAGER -D xMT_TASK  #
#                          -D xMT_SYS_FUNC -D xMT_ZDO_FUNC -D                 #
#                          xLCD_SUPPORTED=DEBUG -lC                           #
#                          E:\work\smartlight\ZigLight001\Projects\zstack\Sam #
#                          ples\ZigLightApp\CC2530DB\CoordinatorEB\List\ -lA  #
#                          E:\work\smartlight\ZigLight001\Projects\zstack\Sam #
#                          ples\ZigLightApp\CC2530DB\CoordinatorEB\List\      #
#                          --diag_suppress Pe001,Pa010 -o                     #
#                          E:\work\smartlight\ZigLight001\Projects\zstack\Sam #
#                          ples\ZigLightApp\CC2530DB\CoordinatorEB\Obj\ -e    #
#                          --no_code_motion --debug --core=plain --dptr=16,1  #
#                          --data_model=large --code_model=banked             #
#                          --calling_convention=xdata_reentrant               #
#                          --place_constants=data_rom --nr_virtual_regs 16    #
#                          -I E:\work\smartlight\ZigLight001\Projects\zstack\ #
#                          Samples\ZigLightApp\CC2530DB\ -I                   #
#                          E:\work\smartlight\ZigLight001\Projects\zstack\Sam #
#                          ples\ZigLightApp\CC2530DB\..\Source\ -I            #
#                          E:\work\smartlight\ZigLight001\Projects\zstack\Sam #
#                          ples\ZigLightApp\CC2530DB\..\..\..\ZMain\TI2530DB\ #
#                           -I E:\work\smartlight\ZigLight001\Projects\zstack #
#                          \Samples\ZigLightApp\CC2530DB\..\..\..\..\..\Compo #
#                          nents\hal\include\ -I E:\work\smartlight\ZigLight0 #
#                          01\Projects\zstack\Samples\ZigLightApp\CC2530DB\.. #
#                          \..\..\..\..\Components\hal\target\CC2530EB\ -I    #
#                          E:\work\smartlight\ZigLight001\Projects\zstack\Sam #
#                          ples\ZigLightApp\CC2530DB\..\..\..\..\..\Component #
#                          s\mac\include\ -I E:\work\smartlight\ZigLight001\P #
#                          rojects\zstack\Samples\ZigLightApp\CC2530DB\..\..\ #
#                          ..\..\..\Components\mac\high_level\ -I             #
#                          E:\work\smartlight\ZigLight001\Projects\zstack\Sam #
#                          ples\ZigLightApp\CC2530DB\..\..\..\..\..\Component #
#                          s\mac\low_level\srf04\ -I                          #
#                          E:\work\smartlight\ZigLight001\Projects\zstack\Sam #
#                          ples\ZigLightApp\CC2530DB\..\..\..\..\..\Component #
#                          s\mac\low_level\srf04\single_chip\ -I              #
#                          E:\work\smartlight\ZigLight001\Projects\zstack\Sam #
#                          ples\ZigLightApp\CC2530DB\..\..\..\..\..\Component #
#                          s\mt\ -I E:\work\smartlight\ZigLight001\Projects\z #
#                          stack\Samples\ZigLightApp\CC2530DB\..\..\..\..\..\ #
#                          Components\osal\include\ -I                        #
#                          E:\work\smartlight\ZigLight001\Projects\zstack\Sam #
#                          ples\ZigLightApp\CC2530DB\..\..\..\..\..\Component #
#                          s\services\saddr\ -I E:\work\smartlight\ZigLight00 #
#                          1\Projects\zstack\Samples\ZigLightApp\CC2530DB\..\ #
#                          ..\..\..\..\Components\services\sdata\ -I          #
#                          E:\work\smartlight\ZigLight001\Projects\zstack\Sam #
#                          ples\ZigLightApp\CC2530DB\..\..\..\..\..\Component #
#                          s\stack\af\ -I E:\work\smartlight\ZigLight001\Proj #
#                          ects\zstack\Samples\ZigLightApp\CC2530DB\..\..\..\ #
#                          ..\..\Components\stack\nwk\ -I                     #
#                          E:\work\smartlight\ZigLight001\Projects\zstack\Sam #
#                          ples\ZigLightApp\CC2530DB\..\..\..\..\..\Component #
#                          s\stack\sapi\ -I E:\work\smartlight\ZigLight001\Pr #
#                          ojects\zstack\Samples\ZigLightApp\CC2530DB\..\..\. #
#                          .\..\..\Components\stack\sec\ -I                   #
#                          E:\work\smartlight\ZigLight001\Projects\zstack\Sam #
#                          ples\ZigLightApp\CC2530DB\..\..\..\..\..\Component #
#                          s\stack\sys\ -I E:\work\smartlight\ZigLight001\Pro #
#                          jects\zstack\Samples\ZigLightApp\CC2530DB\..\..\.. #
#                          \..\..\Components\stack\zdo\ -I                    #
#                          E:\work\smartlight\ZigLight001\Projects\zstack\Sam #
#                          ples\ZigLightApp\CC2530DB\..\..\..\..\..\Component #
#                          s\zmac\ -I E:\work\smartlight\ZigLight001\Projects #
#                          \zstack\Samples\ZigLightApp\CC2530DB\..\..\..\..\. #
#                          .\Components\zmac\f8w\ -Ohz --require_prototypes   #
#    List file          =  E:\work\smartlight\ZigLight001\Projects\zstack\Sam #
#                          ples\ZigLightApp\CC2530DB\CoordinatorEB\List\hal_k #
#                          ey.lst                                             #
#    Object file        =  E:\work\smartlight\ZigLight001\Projects\zstack\Sam #
#                          ples\ZigLightApp\CC2530DB\CoordinatorEB\Obj\hal_ke #
#                          y.r51                                              #
#                                                                             #
#                                                                             #
###############################################################################

E:\work\smartlight\ZigLight001\Components\hal\target\CC2530EB\hal_key.c
      1          /**************************************************************************************************
      2            Filename:       hal_key.c
      3            Revised:        $Date: 2010-09-15 19:02:45 -0700 (Wed, 15 Sep 2010) $
      4            Revision:       $Revision: 23815 $
      5          
      6            Description:    This file contains the interface to the HAL KEY Service.
      7          
      8          
      9            Copyright 2006-2010 Texas Instruments Incorporated. All rights reserved.
     10          
     11            IMPORTANT: Your use of this Software is limited to those specific rights
     12            granted under the terms of a software license agreement between the user
     13            who downloaded the software, his/her employer (which must be your employer)
     14            and Texas Instruments Incorporated (the "License").  You may not use this
     15            Software unless you agree to abide by the terms of the License. The License
     16            limits your use, and you acknowledge, that the Software may not be modified,
     17            copied or distributed unless embedded on a Texas Instruments microcontroller
     18            or used solely and exclusively in conjunction with a Texas Instruments radio
     19            frequency transceiver, which is integrated into your product.  Other than for
     20            the foregoing purpose, you may not use, reproduce, copy, prepare derivative
     21            works of, modify, distribute, perform, display or sell this Software and/or
     22            its documentation for any purpose.
     23          
     24            YOU FURTHER ACKNOWLEDGE AND AGREE THAT THE SOFTWARE AND DOCUMENTATION ARE
     25            PROVIDED “AS IS?WITHOUT WARRANTY OF ANY KIND, EITHER EXPRESS OR IMPLIED,
     26            INCLUDING WITHOUT LIMITATION, ANY WARRANTY OF MERCHANTABILITY, TITLE,
     27            NON-INFRINGEMENT AND FITNESS FOR A PARTICULAR PURPOSE. IN NO EVENT SHALL
     28            TEXAS INSTRUMENTS OR ITS LICENSORS BE LIABLE OR OBLIGATED UNDER CONTRACT,
     29            NEGLIGENCE, STRICT LIABILITY, CONTRIBUTION, BREACH OF WARRANTY, OR OTHER
     30            LEGAL EQUITABLE THEORY ANY DIRECT OR INDIRECT DAMAGES OR EXPENSES
     31            INCLUDING BUT NOT LIMITED TO ANY INCIDENTAL, SPECIAL, INDIRECT, PUNITIVE
     32            OR CONSEQUENTIAL DAMAGES, LOST PROFITS OR LOST DATA, COST OF PROCUREMENT
     33            OF SUBSTITUTE GOODS, TECHNOLOGY, SERVICES, OR ANY CLAIMS BY THIRD PARTIES
     34            (INCLUDING BUT NOT LIMITED TO ANY DEFENSE THEREOF), OR OTHER SIMILAR COSTS.
     35          
     36            Should you have any questions regarding your right to use this Software,
     37            contact Texas Instruments Incorporated at www.TI.com.
     38          **************************************************************************************************/
     39          /*********************************************************************
     40           NOTE: If polling is used, the hal_driver task schedules the KeyRead()
     41                 to occur every 100ms.  This should be long enough to naturally
     42                 debounce the keys.  The KeyRead() function remembers the key
     43                 state of the previous poll and will only return a non-zero
     44                 value if the key state changes.
     45          
     46           NOTE: If interrupts are used, the KeyRead() function is scheduled
     47                 25ms after the interrupt occurs by the ISR.  This delay is used
     48                 for key debouncing.  The ISR disables any further Key interrupt
     49                 until KeyRead() is executed.  KeyRead() will re-enable Key
     50                 interrupts after executing.  Unlike polling, when interrupts
     51                 are enabled, the previous key state is not remembered.  This
     52                 means that KeyRead() will return the current state of the keys
     53                 (not a change in state of the keys).
     54          
     55           NOTE: If interrupts are used, the KeyRead() fucntion is scheduled by
     56                 the ISR.  Therefore, the joystick movements will only be detected
     57                 during a pushbutton interrupt caused by S1 or the center joystick
     58                 pushbutton.
     59          
     60           NOTE: When a switch like S1 is pushed, the S1 signal goes from a normally
     61                 high state to a low state.  This transition is typically clean.  The
     62                 duration of the low state is around 200ms.  When the signal returns
     63                 to the high state, there is a high likelihood of signal bounce, which
     64                 causes a unwanted interrupts.  Normally, we would set the interrupt
     65                 edge to falling edge to generate an interrupt when S1 is pushed, but
     66                 because of the signal bounce, it is better to set the edge to rising
     67                 edge to generate an interrupt when S1 is released.  The debounce logic
     68                 can then filter out the signal bounce.  The result is that we typically
     69                 get only 1 interrupt per button push.  This mechanism is not totally
     70                 foolproof because occasionally, signal bound occurs during the falling
     71                 edge as well.  A similar mechanism is used to handle the joystick
     72                 pushbutton on the DB.  For the EB, we do not have independent control
     73                 of the interrupt edge for the S1 and center joystick pushbutton.  As
     74                 a result, only one or the other pushbuttons work reasonably well with
     75                 interrupts.  The default is the make the S1 switch on the EB work more
     76                 reliably.
     77          
     78          *********************************************************************/
     79          
     80          /**************************************************************************************************
     81           *                                            INCLUDES
     82           **************************************************************************************************/
     83          #include "hal_mcu.h"

   \                                 In  segment SFR_AN, at 0x89
   \   unsigned char volatile __sfr P0IFG
   \                     P0IFG:
   \   000000                DS 1

   \                                 In  segment SFR_AN, at 0x8b
   \   unsigned char volatile __sfr P2IFG
   \                     P2IFG:
   \   000000                DS 1

   \                                 In  segment SFR_AN, at 0x8c
   \   unsigned char volatile __sfr PICTL
   \                     PICTL:
   \   000000                DS 1

   \                                 In  segment SFR_AN, at 0x8d
   \   unsigned char volatile __sfr P1IEN
   \                     P1IEN:
   \   000000                DS 1

   \                                 In  segment SFR_AN, at 0x90
   \   union <unnamed> volatile __sfr _A_P1
   \                     _A_P1:
   \   000000                DS 1

   \                                 In  segment SFR_AN, at 0x9a
   \   unsigned char volatile __sfr IEN2
   \                     IEN2:
   \   000000                DS 1

   \                                 In  segment SFR_AN, at 0xa8
   \   union <unnamed> volatile __sfr _A_IEN0
   \                     _A_IEN0:
   \   000000                DS 1

   \                                 In  segment SFR_AN, at 0xab
   \   unsigned char volatile __sfr P0IEN
   \                     P0IEN:
   \   000000                DS 1

   \                                 In  segment SFR_AN, at 0xac
   \   unsigned char volatile __sfr P2IEN
   \                     P2IEN:
   \   000000                DS 1

   \                                 In  segment SFR_AN, at 0xb8
   \   union <unnamed> volatile __sfr _A_IEN1
   \                     _A_IEN1:
   \   000000                DS 1

   \                                 In  segment SFR_AN, at 0xc0
   \   union <unnamed> volatile __sfr _A_IRCON
   \                     _A_IRCON:
   \   000000                DS 1

   \                                 In  segment SFR_AN, at 0xe8
   \   union <unnamed> volatile __sfr _A_IRCON2
   \                     _A_IRCON2:
   \   000000                DS 1

   \                                 In  segment SFR_AN, at 0xf4
   \   unsigned char volatile __sfr P1SEL
   \                     P1SEL:
   \   000000                DS 1

   \                                 In  segment SFR_AN, at 0xfe
   \   unsigned char volatile __sfr P1DIR
   \                     P1DIR:
   \   000000                DS 1
     84          #include "hal_defs.h"
     85          #include "hal_types.h"
     86          #include "hal_board.h"
     87          #include "hal_drivers.h"
     88          #include "hal_adc.h"
     89          #include "hal_key.h"
     90          #include "osal.h"
     91          
     92          #if (defined HAL_KEY) && (HAL_KEY == TRUE)
     93          
     94          /**************************************************************************************************
     95           *                                              MACROS
     96           **************************************************************************************************/
     97          
     98          /**************************************************************************************************
     99           *                                            CONSTANTS
    100           **************************************************************************************************/
    101          #define HAL_KEY_RISING_EDGE   0
    102          #define HAL_KEY_FALLING_EDGE  1
    103          
    104          #define HAL_KEY_DEBOUNCE_VALUE  25
    105          
    106          /* CPU port interrupt */
    107          #define HAL_KEY_CPU_PORT_0_IF P0IF
    108          #define HAL_KEY_CPU_PORT_2_IF P2IF
    109          /****************byliu*****************/
    110          ///* GIZWIT CONFIG KEY is at P1.2 */
    111          //#define HAL_KEY_GIZWIT_CONFIG_PORT   P1
    112          //#define HAL_KEY_GIZWIT_CONFIG_BIT    BV(2)
    113          //#define HAL_KEY_GIZWIT_CONFIG_SEL    P1SEL
    114          //#define HAL_KEY_GIZWIT_CONFIG_DIR    P1DIR
    115          //
    116          //#define HAL_KEY_GIZWIT_CONFIG_IEN      IEN2  /* CPU interrupt mask register */
    117          //#define HAL_KEY_GIZWIT_CONFIG_IENBIT   BV(4) /* Mask bit for all of Port_1 */
    118          //#define HAL_KEY_GIZWIT_CONFIG_ICTL     P1IEN /* Port Interrupt Control register */
    119          //#define HAL_KEY_GIZWIT_CONFIG_ICTLBIT  BV(2) /* P1IEN - P1.2 enable/disable bit */
    120          //#define HAL_KEY_GIZWIT_CONFIG_PXIFG    P1IFG /* Interrupt flag at source */
    121          
    122          /* GIZWIT CONFIG KEY is at P1.0 */
    123          #define HAL_KEY_GIZWIT_CONFIG_PORT   P1
    124          #define HAL_KEY_GIZWIT_CONFIG_BIT    BV(0)
    125          #define HAL_KEY_GIZWIT_CONFIG_SEL    P1SEL
    126          #define HAL_KEY_GIZWIT_CONFIG_DIR    P1DIR
    127          
    128          #define HAL_KEY_GIZWIT_CONFIG_IEN      IEN2  /* CPU interrupt mask register */
    129          #define HAL_KEY_GIZWIT_CONFIG_IENBIT   BV(4) /* Mask bit for all of Port_1 */
    130          #define HAL_KEY_GIZWIT_CONFIG_ICTL     P1IEN /* Port Interrupt Control register */
    131          #define HAL_KEY_GIZWIT_CONFIG_ICTLBIT  BV(0) /* P1IEN - P1.0 enable/disable bit */
    132          #define HAL_KEY_GIZWIT_CONFIG_PXIFG    P1IFG /* Interrupt flag at source */
    133          /*****************end*******************/
    134          /* SW_6 is at P0.1 */
    135          #define HAL_KEY_SW_6_PORT   P0
    136          #define HAL_KEY_SW_6_BIT    BV(1)
    137          #define HAL_KEY_SW_6_SEL    P0SEL
    138          #define HAL_KEY_SW_6_DIR    P0DIR
    139          
    140          /* edge interrupt */
    141          #define HAL_KEY_SW_6_EDGEBIT  BV(0)
    142          #define HAL_KEY_SW_6_EDGE     HAL_KEY_FALLING_EDGE
    143          
    144          
    145          /* SW_6 interrupts */
    146          #define HAL_KEY_SW_6_IEN      IEN1  /* CPU interrupt mask register */
    147          #define HAL_KEY_SW_6_IENBIT   BV(5) /* Mask bit for all of Port_0 */
    148          #define HAL_KEY_SW_6_ICTL     P0IEN /* Port Interrupt Control register */
    149          #define HAL_KEY_SW_6_ICTLBIT  BV(1) /* P0IEN - P0.1 enable/disable bit */
    150          #define HAL_KEY_SW_6_PXIFG    P0IFG /* Interrupt flag at source */
    151          
    152          /* Joy stick move at P2.0 */
    153          #define HAL_KEY_JOY_MOVE_PORT   P2
    154          #define HAL_KEY_JOY_MOVE_BIT    BV(0)
    155          #define HAL_KEY_JOY_MOVE_SEL    P2SEL
    156          #define HAL_KEY_JOY_MOVE_DIR    P2DIR
    157          
    158          /* edge interrupt */
    159          #define HAL_KEY_JOY_MOVE_EDGEBIT  BV(3)
    160          #define HAL_KEY_JOY_MOVE_EDGE     HAL_KEY_FALLING_EDGE
    161          
    162          /* Joy move interrupts */
    163          #define HAL_KEY_JOY_MOVE_IEN      IEN2  /* CPU interrupt mask register */
    164          #define HAL_KEY_JOY_MOVE_IENBIT   BV(1) /* Mask bit for all of Port_2 */
    165          #define HAL_KEY_JOY_MOVE_ICTL     P2IEN /* Port Interrupt Control register */
    166          #define HAL_KEY_JOY_MOVE_ICTLBIT  BV(0) /* P2IENL - P2.0<->P2.3 enable/disable bit */
    167          #define HAL_KEY_JOY_MOVE_PXIFG    P2IFG /* Interrupt flag at source */
    168          
    169          #define HAL_KEY_JOY_CHN   HAL_ADC_CHANNEL_6
    170          
    171          
    172          /**************************************************************************************************
    173           *                                            TYPEDEFS
    174           **************************************************************************************************/
    175          
    176          
    177          /**************************************************************************************************
    178           *                                        GLOBAL VARIABLES
    179           **************************************************************************************************/

   \                                 In  segment XDATA_Z, align 1, keep-with-next
    180          static uint8 halKeySavedKeys;     /* used to store previous key state in polling mode */
   \                     halKeySavedKeys:
   \   000000                DS 1
   \   000001                REQUIRE __INIT_XDATA_Z

   \                                 In  segment XDATA_Z, align 1, keep-with-next
    181          static halKeyCBack_t pHalKeyProcessFunction;
   \                     pHalKeyProcessFunction:
   \   000000                DS 2
   \   000002                REQUIRE __INIT_XDATA_Z

   \                                 In  segment XDATA_Z, align 1, keep-with-next
    182          static uint8 HalKeyConfigured;
   \                     HalKeyConfigured:
   \   000000                DS 1
   \   000001                REQUIRE __INIT_XDATA_Z

   \                                 In  segment XDATA_Z, align 1, keep-with-next
    183          bool Hal_KeyIntEnable;            /* interrupt enable/disable flag */
   \                     Hal_KeyIntEnable:
   \   000000                DS 1
   \   000001                REQUIRE __INIT_XDATA_Z
    184          
    185          /**************************************************************************************************
    186           *                                        FUNCTIONS - Local
    187           **************************************************************************************************/
    188          void halProcessKeyInterrupt(void);
    189          uint8 halGetJoyKeyInput(void);
    190          
    191          
    192          
    193          /**************************************************************************************************
    194           *                                        FUNCTIONS - API
    195           **************************************************************************************************/
    196          
    197          
    198          /**************************************************************************************************
    199           * @fn      HalKeyInit
    200           *
    201           * @brief   Initilize Key Service
    202           *
    203           * @param   none
    204           *
    205           * @return  None
    206           **************************************************************************************************/

   \                                 In  segment BANKED_CODE, align 1, keep-with-next
    207          void HalKeyInit( void )
   \                     HalKeyInit:
    208          {
   \   000000   C082         PUSH    DPL
   \   000002   C083         PUSH    DPH
   \   000004                ; Saved register size: 2
   \   000004                ; Auto size: 0
    209            /* Initialize previous key to 0 */
    210            halKeySavedKeys = 0;
   \   000004   90....       MOV     DPTR,#halKeySavedKeys
   \   000007   E4           CLR     A
   \   000008   F0           MOVX    @DPTR,A
    211          
    212          //  HAL_KEY_SW_6_SEL &= ~(HAL_KEY_SW_6_BIT);    /* Set pin function to GPIO *///by liu
    213          //  HAL_KEY_SW_6_DIR &= ~(HAL_KEY_SW_6_BIT);    /* Set pin direction to Input *///by liu
    214          //
    215          //  HAL_KEY_JOY_MOVE_SEL &= ~(HAL_KEY_JOY_MOVE_BIT); /* Set pin function to GPIO *///by liu
    216          //  HAL_KEY_JOY_MOVE_DIR &= ~(HAL_KEY_JOY_MOVE_BIT); /* Set pin direction to Input *///by liu
    217          
    218          
    219          
    220            /****************byliu*****************/
    221            HAL_KEY_GIZWIT_CONFIG_SEL &= ~(HAL_KEY_GIZWIT_CONFIG_BIT);    /* Set pin function to GPIO */
   \   000009   53F4FE       ANL     0xf4,#0xfe
    222            HAL_KEY_GIZWIT_CONFIG_DIR &= ~(HAL_KEY_GIZWIT_CONFIG_BIT);    /* Set pin direction to Input */
   \   00000C   53FEFE       ANL     0xfe,#0xfe
    223            /*****************end*******************/
    224            /* Initialize callback function */
    225            pHalKeyProcessFunction  = NULL;
   \   00000F   90....       MOV     DPTR,#pHalKeyProcessFunction
   \   000012   F0           MOVX    @DPTR,A
   \   000013   A3           INC     DPTR
   \   000014   F0           MOVX    @DPTR,A
    226          
    227            /* Start with key is not configured */
    228            HalKeyConfigured = FALSE;
   \   000015   90....       MOV     DPTR,#HalKeyConfigured
   \   000018   F0           MOVX    @DPTR,A
    229          }
   \   000019                REQUIRE ?Subroutine0
   \   000019                REQUIRE P1SEL
   \   000019                REQUIRE P1DIR
   \   000019                ; // Fall through to label ?Subroutine0

   \                                 In  segment BANKED_CODE, align 1, keep-with-next
   \                     ?Subroutine0:
   \   000000   D083         POP     DPH
   \   000002   D082         POP     DPL
   \   000004   02....       LJMP    ?BRET
    230          
    231          
    232          /**************************************************************************************************
    233           * @fn      HalKeyConfig
    234           *
    235           * @brief   Configure the Key serivce
    236           *
    237           * @param   interruptEnable - TRUE/FALSE, enable/disable interrupt
    238           *          cback - pointer to the CallBack function
    239           *
    240           * @return  None
    241           **************************************************************************************************/

   \                                 In  segment BANKED_CODE, align 1, keep-with-next
    242          void HalKeyConfig (bool interruptEnable, halKeyCBack_t cback)
   \                     HalKeyConfig:
    243          {
   \   000000   74F7         MOV     A,#-0x9
   \   000002   12....       LCALL   ?BANKED_ENTER_XDATA
   \   000005                ; Saved register size: 9
   \   000005                ; Auto size: 0
   \   000005   E9           MOV     A,R1
    244            /* Enable/Disable Interrupt or */
    245            Hal_KeyIntEnable = interruptEnable;
   \   000006   90....       MOV     DPTR,#Hal_KeyIntEnable
   \   000009   F0           MOVX    @DPTR,A
    246          
    247            /* Register the callback fucntion */
    248            pHalKeyProcessFunction = cback;
   \   00000A   90....       MOV     DPTR,#pHalKeyProcessFunction
   \   00000D   EA           MOV     A,R2
   \   00000E   F0           MOVX    @DPTR,A
   \   00000F   A3           INC     DPTR
   \   000010   EB           MOV     A,R3
   \   000011   F0           MOVX    @DPTR,A
    249          
    250            /* Determine if interrupt is enable or not */
    251            if (Hal_KeyIntEnable)
   \   000012   90....       MOV     DPTR,#Hal_KeyIntEnable
   \   000015   E0           MOVX    A,@DPTR
   \   000016   6033         JZ      ??HalKeyConfig_0
    252            {
    253              /* Rising/Falling edge configuratinn */
    254          
    255              PICTL &= ~(HAL_KEY_SW_6_EDGEBIT);    /* Clear the edge bit */
   \   000018   538CFE       ANL     0x8c,#0xfe
    256              /* For falling edge, the bit must be set. */
    257            #if (HAL_KEY_SW_6_EDGE == HAL_KEY_FALLING_EDGE)
    258              PICTL |= HAL_KEY_SW_6_EDGEBIT;
   \   00001B   438C01       ORL     0x8c,#0x1
    259            #endif
    260          
    261          
    262              /* Interrupt configuration:
    263               * - Enable interrupt generation at the port
    264               * - Enable CPU interrupt
    265               * - Clear any pending interrupt
    266               */
    267              HAL_KEY_SW_6_ICTL |= HAL_KEY_SW_6_ICTLBIT;
   \   00001E   43AB02       ORL     0xab,#0x2
    268              HAL_KEY_SW_6_IEN |= HAL_KEY_SW_6_IENBIT;
   \   000021   D2BD         SETB    0xb8.5
    269              HAL_KEY_SW_6_PXIFG = ~(HAL_KEY_SW_6_BIT);
   \   000023   7589FD       MOV     0x89,#-0x3
    270          
    271          
    272          
    273              /* Rising/Falling edge configuratinn */
    274          
    275              HAL_KEY_JOY_MOVE_ICTL &= ~(HAL_KEY_JOY_MOVE_EDGEBIT);    /* Clear the edge bit */
   \   000026   53ACF7       ANL     0xac,#0xf7
    276              /* For falling edge, the bit must be set. */
    277            #if (HAL_KEY_JOY_MOVE_EDGE == HAL_KEY_FALLING_EDGE)
    278              HAL_KEY_JOY_MOVE_ICTL |= HAL_KEY_JOY_MOVE_EDGEBIT;
   \   000029   43AC08       ORL     0xac,#0x8
    279            #endif
    280          
    281          
    282              /* Interrupt configuration:
    283               * - Enable interrupt generation at the port
    284               * - Enable CPU interrupt
    285               * - Clear any pending interrupt
    286               */
    287              HAL_KEY_JOY_MOVE_ICTL |= HAL_KEY_JOY_MOVE_ICTLBIT;
   \   00002C   43AC01       ORL     0xac,#0x1
    288              HAL_KEY_JOY_MOVE_IEN |= HAL_KEY_JOY_MOVE_IENBIT;
   \   00002F   439A02       ORL     0x9a,#0x2
    289              HAL_KEY_JOY_MOVE_PXIFG = ~(HAL_KEY_JOY_MOVE_BIT);
   \   000032   758BFE       MOV     0x8b,#-0x2
    290          
    291          
    292              /* Do this only after the hal_key is configured - to work with sleep stuff */
    293              if (HalKeyConfigured == TRUE)
   \   000035   90....       MOV     DPTR,#HalKeyConfigured
   \   000038   E0           MOVX    A,@DPTR
   \   000039   6401         XRL     A,#0x1
   \   00003B   7020         JNZ     ??HalKeyConfig_1
    294              {
    295                osal_stop_timerEx(Hal_TaskID, HAL_KEY_EVENT);  /* Cancel polling if active */
   \   00003D                ; Setup parameters for call to function osal_stop_timerEx
   \   00003D   7A01         MOV     R2,#0x1
   \   00003F   7B00         MOV     R3,#0x0
   \   000041   90....       MOV     DPTR,#Hal_TaskID
   \   000044   E0           MOVX    A,@DPTR
   \   000045   F9           MOV     R1,A
   \   000046   12....       LCALL   ??osal_stop_timerEx?relay
   \   000049   8012         SJMP    ??HalKeyConfig_1
    296              }
    297            }
    298            else    /* Interrupts NOT enabled */
    299            {
    300          //    HAL_KEY_SW_6_ICTL &= ~(HAL_KEY_SW_6_ICTLBIT); /* don't generate interrupt *///by liu
    301          //    HAL_KEY_SW_6_IEN &= ~(HAL_KEY_SW_6_IENBIT);   /* Clear interrupt enable bit */// by liu
    302          
    303          
    304              /****************byliu*****************/
    305              HAL_KEY_GIZWIT_CONFIG_ICTL &= ~(HAL_KEY_GIZWIT_CONFIG_ICTLBIT); /* don't generate interrupt */
   \                     ??HalKeyConfig_0:
   \   00004B   538DFE       ANL     0x8d,#0xfe
    306              HAL_KEY_GIZWIT_CONFIG_IEN &= ~(HAL_KEY_GIZWIT_CONFIG_IENBIT);   /* Clear interrupt enable bit */
   \   00004E   539AEF       ANL     0x9a,#0xef
    307              /*****************end*******************/
    308              osal_set_event(Hal_TaskID, HAL_KEY_EVENT);
   \   000051                ; Setup parameters for call to function osal_set_event
   \   000051   7A01         MOV     R2,#0x1
   \   000053   7B00         MOV     R3,#0x0
   \   000055   90....       MOV     DPTR,#Hal_TaskID
   \   000058   E0           MOVX    A,@DPTR
   \   000059   F9           MOV     R1,A
   \   00005A   12....       LCALL   ??osal_set_event?relay
    309          //    osal_start_timerEx( Hal_TaskID, HAL_KEY_EVENT, 100);// by liu
    310            }
    311          
    312            /* Key now is configured */
    313            HalKeyConfigured = TRUE;
   \                     ??HalKeyConfig_1:
   \   00005D   90....       MOV     DPTR,#HalKeyConfigured
   \   000060   7401         MOV     A,#0x1
   \   000062   F0           MOVX    @DPTR,A
    314          }
   \   000063   FF           MOV     R7,A
   \   000064   02....       LJMP    ?BANKED_LEAVE_XDATA
   \   000067                REQUIRE PICTL
   \   000067                REQUIRE P0IEN
   \   000067                REQUIRE _A_IEN1
   \   000067                REQUIRE P0IFG
   \   000067                REQUIRE P2IEN
   \   000067                REQUIRE IEN2
   \   000067                REQUIRE P2IFG
   \   000067                REQUIRE P1IEN
    315          
    316          
    317          /**************************************************************************************************
    318           * @fn      HalKeyRead
    319           *
    320           * @brief   Read the current value of a key
    321           *
    322           * @param   None
    323           *
    324           * @return  keys - current keys status
    325           **************************************************************************************************/

   \                                 In  segment BANKED_CODE, align 1, keep-with-next
    326          uint8 HalKeyRead ( void )
   \                     HalKeyRead:
    327          {
   \   000000                ; Saved register size: 0
   \   000000                ; Auto size: 0
    328            uint8 keys = 0;
   \   000000   7900         MOV     R1,#0x0
    329          
    330            if (HAL_PUSH_BUTTON1())
   \   000002   A290         MOV     C,0x90.0
   \   000004   4002         JC      ??HalKeyRead_0
    331            {
    332              keys |= HAL_KEY_GIZWIT;
   \   000006   7920         MOV     R1,#0x20
    333            }
    334          
    335          //  if ((HAL_KEY_JOY_MOVE_PORT & HAL_KEY_JOY_MOVE_BIT))  /* Key is active low *///BY LIU
    336          //  {//BY LIU
    337          //    keys |= halGetJoyKeyInput();//BY LIU
    338          //  }//BY LIU
    339          
    340            return keys;
   \                     ??HalKeyRead_0:
   \   000008   02....       LJMP    ?BRET
   \   00000B                REQUIRE _A_P1
    341          }
    342          
    343          
    344          /**************************************************************************************************
    345           * @fn      HalKeyPoll
    346           *
    347           * @brief   Called by hal_driver to poll the keys
    348           *
    349           * @param   None
    350           *
    351           * @return  None
    352           **************************************************************************************************/
    353          #pragma optimize=none

   \                                 In  segment BANKED_CODE, align 1, keep-with-next
    354          void HalKeyPoll (void)
   \                     HalKeyPoll:
    355          {
   \   000000   74F7         MOV     A,#-0x9
   \   000002   12....       LCALL   ?BANKED_ENTER_XDATA
   \   000005                ; Saved register size: 9
   \   000005                ; Auto size: 0
    356            uint8 keys = 0;
   \   000005   7E00         MOV     R6,#0x0
    357          
    358          //  if ((HAL_KEY_JOY_MOVE_PORT & HAL_KEY_JOY_MOVE_BIT))  /* Key is active HIGH */// by liu
    359          //  {// by liu
    360          //    keys = halGetJoyKeyInput();// by liu
    361          //  }// by liu
    362            if (HAL_PUSH_BUTTON1())// by liu
   \   000007   A290         MOV     C,0x90.0
   \   000009   4005         JC      ??HalKeyPoll_0
    363            {// by liu
    364              keys |= HAL_KEY_GIZWIT;// by liu
   \   00000B   D3           SETB    C
   \   00000C   EE           MOV     A,R6
   \   00000D   92E5         MOV     0xE0 /* A   */.5,C
   \   00000F   FE           MOV     R6,A
    365            }// by liu
    366            /* If interrupts are not enabled, previous key status and current key status
    367             * are compared to find out if a key has changed status.
    368             */
    369            if (!Hal_KeyIntEnable)
   \                     ??HalKeyPoll_0:
   \   000010   90....       MOV     DPTR,#Hal_KeyIntEnable
   \   000013   E0           MOVX    A,@DPTR
   \   000014   7013         JNZ     ??HalKeyPoll_1
    370            {
    371              if (keys == halKeySavedKeys)
   \   000016   90....       MOV     DPTR,#halKeySavedKeys
   \   000019   E0           MOVX    A,@DPTR
   \   00001A   6E           XRL     A,R6
   \   00001B   7007         JNZ     ??HalKeyPoll_2
    372              {
    373                /* Exit - since no keys have changed */
    374                halKeySavedKeys = keys;
   \   00001D   EE           MOV     A,R6
   \   00001E   90....       MOV     DPTR,#halKeySavedKeys
   \   000021   F0           MOVX    @DPTR,A
    375                return;
   \   000022   8026         SJMP    ??HalKeyPoll_3
    376              }
    377              /* Store the current keys for comparation next time */
    378              halKeySavedKeys = keys;
   \                     ??HalKeyPoll_2:
   \   000024   EE           MOV     A,R6
   \   000025   90....       MOV     DPTR,#halKeySavedKeys
   \   000028   F0           MOVX    @DPTR,A
    379            }
    380            else
    381            {
    382              /* Key interrupt handled here */
    383            }
    384          
    385          //  if (HAL_PUSH_BUTTON1())
    386          //  {
    387          //    keys |= HAL_KEY_SW_6;
    388          //  }
    389          
    390            /* Invoke Callback if new keys were depressed */
    391            if (keys && (pHalKeyProcessFunction))
   \                     ??HalKeyPoll_1:
   \   000029   EE           MOV     A,R6
   \   00002A   601E         JZ      ??HalKeyPoll_3
   \   00002C   90....       MOV     DPTR,#pHalKeyProcessFunction
   \   00002F   E0           MOVX    A,@DPTR
   \   000030   F8           MOV     R0,A
   \   000031   A3           INC     DPTR
   \   000032   E0           MOVX    A,@DPTR
   \   000033   F9           MOV     R1,A
   \   000034   E8           MOV     A,R0
   \   000035   49           ORL     A,R1
   \   000036   6012         JZ      ??HalKeyPoll_3
    392            {
    393              (pHalKeyProcessFunction) (keys, HAL_KEY_STATE_NORMAL);
   \   000038                ; Setup parameters for indirect call
   \   000038   7A00         MOV     R2,#0x0
   \   00003A   EE           MOV     A,R6
   \   00003B   F9           MOV     R1,A
   \   00003C   90....       MOV     DPTR,#pHalKeyProcessFunction
   \   00003F   E0           MOVX    A,@DPTR
   \   000040   F8           MOV     R0,A
   \   000041   A3           INC     DPTR
   \   000042   E0           MOVX    A,@DPTR
   \   000043   F583         MOV     DPH,A
   \   000045   8882         MOV     DPL,R0
   \   000047   12....       LCALL   ?CALL_IND
    394            }
    395          }
   \                     ??HalKeyPoll_3:
   \   00004A   7F01         MOV     R7,#0x1
   \   00004C   02....       LJMP    ?BANKED_LEAVE_XDATA
   \   00004F                REQUIRE _A_P1
    396          
    397          /**************************************************************************************************
    398           * @fn      halGetJoyKeyInput
    399           *
    400           * @brief   Map the ADC value to its corresponding key.
    401           *
    402           * @param   None
    403           *
    404           * @return  keys - current joy key status
    405           **************************************************************************************************/

   \                                 In  segment BANKED_CODE, align 1, keep-with-next
    406          uint8 halGetJoyKeyInput(void)
   \                     halGetJoyKeyInput:
    407          {
   \   000000   74F7         MOV     A,#-0x9
   \   000002   12....       LCALL   ?BANKED_ENTER_XDATA
   \   000005                ; Saved register size: 9
   \   000005                ; Auto size: 0
    408            /* The joystick control is encoded as an analog voltage.
    409             * Read the JOY_LEVEL analog value and map it to joy movement.
    410             */
    411            uint8 adc;
    412            uint8 ksave0 = 0;
   \   000005   7E00         MOV     R6,#0x0
    413            uint8 ksave1;
    414          
    415            /* Keep on reading the ADC until two consecutive key decisions are the same. */
    416            do
    417            {
    418              ksave1 = ksave0;    /* save previouse key reading */
   \                     ??halGetJoyKeyInput_0:
   \   000007   EE           MOV     A,R6
   \   000008   FF           MOV     R7,A
    419          
    420              adc = HalAdcRead (HAL_KEY_JOY_CHN, HAL_ADC_RESOLUTION_8);
   \   000009                ; Setup parameters for call to function HalAdcRead
   \   000009   7A01         MOV     R2,#0x1
   \   00000B   7906         MOV     R1,#0x6
   \   00000D   12....       LCALL   ??HalAdcRead?relay
   \   000010   EA           MOV     A,R2
   \   000011   F8           MOV     R0,A
    421          
    422              if ((adc >= 2) && (adc <= 38))
   \   000012   74FE         MOV     A,#-0x2
   \   000014   28           ADD     A,R0
   \   000015   C3           CLR     C
   \   000016   9425         SUBB    A,#0x25
   \   000018   5005         JNC     ??halGetJoyKeyInput_1
    423              {
    424                 ksave0 |= HAL_KEY_UP;
   \   00001A   EE           MOV     A,R6
   \   00001B   D2E0         SETB    0xE0 /* A   */.0
   \   00001D   8032         SJMP    ??halGetJoyKeyInput_2
    425              }
    426              else if ((adc >= 74) && (adc <= 88))
   \                     ??halGetJoyKeyInput_1:
   \   00001F   74B6         MOV     A,#-0x4a
   \   000021   28           ADD     A,R0
   \   000022   C3           CLR     C
   \   000023   940F         SUBB    A,#0xf
   \   000025   5005         JNC     ??halGetJoyKeyInput_3
    427              {
    428                ksave0 |= HAL_KEY_RIGHT;
   \   000027   EE           MOV     A,R6
   \   000028   D2E1         SETB    0xE0 /* A   */.1
   \   00002A   8025         SJMP    ??halGetJoyKeyInput_2
    429              }
    430              else if ((adc >= 60) && (adc <= 73))
   \                     ??halGetJoyKeyInput_3:
   \   00002C   74C4         MOV     A,#-0x3c
   \   00002E   28           ADD     A,R0
   \   00002F   C3           CLR     C
   \   000030   940E         SUBB    A,#0xe
   \   000032   5005         JNC     ??halGetJoyKeyInput_4
    431              {
    432                ksave0 |= HAL_KEY_LEFT;
   \   000034   EE           MOV     A,R6
   \   000035   D2E3         SETB    0xE0 /* A   */.3
   \   000037   8018         SJMP    ??halGetJoyKeyInput_2
    433              }
    434              else if ((adc >= 39) && (adc <= 59))
   \                     ??halGetJoyKeyInput_4:
   \   000039   74D9         MOV     A,#-0x27
   \   00003B   28           ADD     A,R0
   \   00003C   C3           CLR     C
   \   00003D   9415         SUBB    A,#0x15
   \   00003F   5005         JNC     ??halGetJoyKeyInput_5
    435              {
    436                ksave0 |= HAL_KEY_DOWN;
   \   000041   EE           MOV     A,R6
   \   000042   D2E4         SETB    0xE0 /* A   */.4
   \   000044   800B         SJMP    ??halGetJoyKeyInput_2
    437              }
    438              else if ((adc >= 89) && (adc <= 100))
   \                     ??halGetJoyKeyInput_5:
   \   000046   74A7         MOV     A,#-0x59
   \   000048   28           ADD     A,R0
   \   000049   C3           CLR     C
   \   00004A   940C         SUBB    A,#0xc
   \   00004C   5004         JNC     ??halGetJoyKeyInput_6
    439              {
    440                ksave0 |= HAL_KEY_CENTER;
   \   00004E   EE           MOV     A,R6
   \   00004F   D2E2         SETB    0xE0 /* A   */.2
   \                     ??halGetJoyKeyInput_2:
   \   000051   FE           MOV     R6,A
    441              }
    442            } while (ksave0 != ksave1);
   \                     ??halGetJoyKeyInput_6:
   \   000052   EF           MOV     A,R7
   \   000053   6E           XRL     A,R6
   \   000054   70B1         JNZ     ??halGetJoyKeyInput_0
    443          
    444            return ksave0;
   \   000056   EE           MOV     A,R6
   \   000057   F9           MOV     R1,A
   \   000058   7F01         MOV     R7,#0x1
   \   00005A   02....       LJMP    ?BANKED_LEAVE_XDATA
    445          }
    446          
    447          
    448          
    449          
    450          
    451          /**************************************************************************************************
    452           * @fn      halProcessKeyInterrupt
    453           *
    454           * @brief   Checks to see if it's a valid key interrupt, saves interrupt driven key states for
    455           *          processing by HalKeyRead(), and debounces keys by scheduling HalKeyRead() 25ms later.
    456           *
    457           * @param
    458           *
    459           * @return
    460           **************************************************************************************************/

   \                                 In  segment BANKED_CODE, align 1, keep-with-next
    461          void halProcessKeyInterrupt (void)
   \                     halProcessKeyInterrupt:
    462          {
   \   000000   C082         PUSH    DPL
   \   000002   C083         PUSH    DPH
   \   000004                ; Saved register size: 2
   \   000004                ; Auto size: 0
    463            bool valid=FALSE;
   \   000004   7800         MOV     R0,#0x0
    464          
    465            if (HAL_KEY_SW_6_PXIFG & HAL_KEY_SW_6_BIT)  /* Interrupt Flag has been set */
   \   000006   E589         MOV     A,0x89
   \   000008   A2E1         MOV     C,0xE0 /* A   */.1
   \   00000A   5004         JNC     ??halProcessKeyInterrupt_0
    466            {
    467              HAL_KEY_SW_6_PXIFG = ~(HAL_KEY_SW_6_BIT); /* Clear Interrupt Flag */
   \   00000C   7589FD       MOV     0x89,#-0x3
    468              valid = TRUE;
   \   00000F   08           INC     R0
    469            }
    470          
    471            if (HAL_KEY_JOY_MOVE_PXIFG & HAL_KEY_JOY_MOVE_BIT)  /* Interrupt Flag has been set */
   \                     ??halProcessKeyInterrupt_0:
   \   000010   E58B         MOV     A,0x8b
   \   000012   A2E0         MOV     C,0xE0 /* A   */.0
   \   000014   5005         JNC     ??halProcessKeyInterrupt_1
    472            {
    473              HAL_KEY_JOY_MOVE_PXIFG = ~(HAL_KEY_JOY_MOVE_BIT); /* Clear Interrupt Flag */
   \   000016   758BFE       MOV     0x8b,#-0x2
    474              valid = TRUE;
   \   000019   8005         SJMP    ??halProcessKeyInterrupt_2
    475            }
    476          
    477            if (valid)
   \                     ??halProcessKeyInterrupt_1:
   \   00001B   E8           MOV     A,R0
   \   00001C   A2E0         MOV     C,0xE0 /* A   */.0
   \   00001E   5010         JNC     ??halProcessKeyInterrupt_3
    478            {
    479              osal_start_timerEx (Hal_TaskID, HAL_KEY_EVENT, HAL_KEY_DEBOUNCE_VALUE);
   \                     ??halProcessKeyInterrupt_2:
   \   000020                ; Setup parameters for call to function osal_start_timerEx
   \   000020   7C19         MOV     R4,#0x19
   \   000022   7D00         MOV     R5,#0x0
   \   000024   7A01         MOV     R2,#0x1
   \   000026   7B00         MOV     R3,#0x0
   \   000028   90....       MOV     DPTR,#Hal_TaskID
   \   00002B   E0           MOVX    A,@DPTR
   \   00002C   F9           MOV     R1,A
   \   00002D   12....       LCALL   ??osal_start_timerEx?relay
    480            }
    481          }
   \                     ??halProcessKeyInterrupt_3:
   \   000030   02....       LJMP    ?Subroutine0 & 0xFFFF
   \   000033                REQUIRE P0IFG
   \   000033                REQUIRE P2IFG
    482          
    483          /**************************************************************************************************
    484           * @fn      HalKeyEnterSleep
    485           *
    486           * @brief  - Get called to enter sleep mode
    487           *
    488           * @param
    489           *
    490           * @return
    491           **************************************************************************************************/

   \                                 In  segment BANKED_CODE, align 1, keep-with-next
    492          void HalKeyEnterSleep ( void )
   \                     HalKeyEnterSleep:
    493          {
   \   000000                ; Saved register size: 0
   \   000000                ; Auto size: 0
    494          }
   \   000000   02....       LJMP    ?BRET
    495          
    496          /**************************************************************************************************
    497           * @fn      HalKeyExitSleep
    498           *
    499           * @brief   - Get called when sleep is over
    500           *
    501           * @param
    502           *
    503           * @return  - return saved keys
    504           **************************************************************************************************/

   \                                 In  segment BANKED_CODE, align 1, keep-with-next
    505          uint8 HalKeyExitSleep ( void )
   \                     HalKeyExitSleep:
    506          {
   \   000000   C082         PUSH    DPL
   \   000002   C083         PUSH    DPH
   \   000004                ; Saved register size: 2
   \   000004                ; Auto size: 0
    507            /* Wake up and read keys */
    508            return ( HalKeyRead () );
   \   000004                ; Setup parameters for call to function HalKeyRead
   \   000004   12....       LCALL   ??HalKeyRead?relay
   \   000007   02....       LJMP    ?Subroutine0 & 0xFFFF
    509          }
    510          
    511          /***************************************************************************************************
    512           *                                    INTERRUPT SERVICE ROUTINE
    513           ***************************************************************************************************/
    514          
    515          /**************************************************************************************************
    516           * @fn      halKeyPort0Isr
    517           *
    518           * @brief   Port0 ISR
    519           *
    520           * @param
    521           *
    522           * @return
    523           **************************************************************************************************/

   \                                 In  segment NEAR_CODE, align 1, keep-with-next
    524          HAL_ISR_FUNCTION( halKeyPort0Isr, P0INT_VECTOR )
   \                     halKeyPort0Isr:
    525          {
   \   000000   C0E0         PUSH    A
   \   000002   74F2         MOV     A,#-0xe
   \   000004   12....       LCALL   ?INTERRUPT_ENTER_XSP
   \   000007                ; Saved register size: 14
   \   000007                ; Auto size: 0
    526            HAL_ENTER_ISR();
   \   000007   A2AF         MOV     C,0xa8.7
   \   000009   E4           CLR     A
   \   00000A   33           RLC     A
   \   00000B   FE           MOV     R6,A
   \   00000C   D2AF         SETB    0xa8.7
    527          
    528            if (HAL_KEY_SW_6_PXIFG & HAL_KEY_SW_6_BIT)
   \   00000E   E589         MOV     A,0x89
   \   000010   A2E1         MOV     C,0xE0 /* A   */.1
   \   000012   5003         JNC     ??halKeyPort0Isr_0
    529            {
    530              halProcessKeyInterrupt();
   \   000014                ; Setup parameters for call to function halProcessKeyInterrupt
   \   000014   12....       LCALL   ??halProcessKeyInterrupt?relay
    531            }
    532          
    533            /*
    534              Clear the CPU interrupt flag for Port_0
    535              PxIFG has to be cleared before PxIF
    536            */
    537            HAL_KEY_SW_6_PXIFG = 0;
   \                     ??halKeyPort0Isr_0:
   \   000017   758900       MOV     0x89,#0x0
    538            HAL_KEY_CPU_PORT_0_IF = 0;
   \   00001A   C2C5         CLR     0xc0.5
    539            
    540            CLEAR_SLEEP_MODE();
    541            HAL_EXIT_ISR();
   \   00001C                REQUIRE ?Subroutine1
   \   00001C                REQUIRE _A_IEN0
   \   00001C                REQUIRE P0IFG
   \   00001C                REQUIRE _A_IRCON
   \   00001C                ; // Fall through to label ?Subroutine1
    542          }

   \                                 In  segment NEAR_CODE, align 1, keep-with-next
   \                     ?Subroutine1:
   \   000000   EE           MOV     A,R6
   \   000001   A2E0         MOV     C,0xE0 /* A   */.0
   \   000003   92AF         MOV     0xa8.7,C
   \   000005   7F01         MOV     R7,#0x1
   \   000007   02....       LJMP    ?INTERRUPT_LEAVE_XSP
    543          
    544          
    545          /**************************************************************************************************
    546           * @fn      halKeyPort2Isr
    547           *
    548           * @brief   Port2 ISR
    549           *
    550           * @param
    551           *
    552           * @return
    553           **************************************************************************************************/

   \                                 In  segment NEAR_CODE, align 1, keep-with-next
    554          HAL_ISR_FUNCTION( halKeyPort2Isr, P2INT_VECTOR )
   \                     halKeyPort2Isr:
    555          {
   \   000000   C0E0         PUSH    A
   \   000002   74F2         MOV     A,#-0xe
   \   000004   12....       LCALL   ?INTERRUPT_ENTER_XSP
   \   000007                ; Saved register size: 14
   \   000007                ; Auto size: 0
    556            HAL_ENTER_ISR();
   \   000007   A2AF         MOV     C,0xa8.7
   \   000009   E4           CLR     A
   \   00000A   33           RLC     A
   \   00000B   FE           MOV     R6,A
   \   00000C   D2AF         SETB    0xa8.7
    557            
    558            if (HAL_KEY_JOY_MOVE_PXIFG & HAL_KEY_JOY_MOVE_BIT)
   \   00000E   E58B         MOV     A,0x8b
   \   000010   A2E0         MOV     C,0xE0 /* A   */.0
   \   000012   5003         JNC     ??halKeyPort2Isr_0
    559            {
    560              halProcessKeyInterrupt();
   \   000014                ; Setup parameters for call to function halProcessKeyInterrupt
   \   000014   12....       LCALL   ??halProcessKeyInterrupt?relay
    561            }
    562          
    563            /*
    564              Clear the CPU interrupt flag for Port_2
    565              PxIFG has to be cleared before PxIF
    566              Notes: P2_1 and P2_2 are debug lines.
    567            */
    568            HAL_KEY_JOY_MOVE_PXIFG = 0;
   \                     ??halKeyPort2Isr_0:
   \   000017   758B00       MOV     0x8b,#0x0
    569            HAL_KEY_CPU_PORT_2_IF = 0;
   \   00001A   C2E8         CLR     0xe8.0
    570          
    571            CLEAR_SLEEP_MODE();
    572            HAL_EXIT_ISR();
   \   00001C   80..         SJMP    ?Subroutine1
   \   00001E                REQUIRE _A_IEN0
   \   00001E                REQUIRE P2IFG
   \   00001E                REQUIRE _A_IRCON2
    573          }

   \                                 In  segment INTVEC, offset 0x33, root
   \                     `??halKeyPort2Isr??INTVEC 51`:
   \   000033   02....       LJMP       (halKeyPort2Isr)

   \                                 In  segment INTVEC, offset 0x6b, root
   \                     `??halKeyPort0Isr??INTVEC 107`:
   \   00006B   02....       LJMP       (halKeyPort0Isr)

   \                                 In  segment BANK_RELAYS, align 1
   \                     ??HalKeyInit?relay:
   \   000000   12....       LCALL   ?BDISPATCH
   \   000003   ......       DC24    HalKeyInit

   \                                 In  segment BANK_RELAYS, align 1
   \                     ??HalKeyConfig?relay:
   \   000000   12....       LCALL   ?BDISPATCH
   \   000003   ......       DC24    HalKeyConfig

   \                                 In  segment BANK_RELAYS, align 1
   \                     ??HalKeyRead?relay:
   \   000000   12....       LCALL   ?BDISPATCH
   \   000003   ......       DC24    HalKeyRead

   \                                 In  segment BANK_RELAYS, align 1
   \                     ??HalKeyPoll?relay:
   \   000000   12....       LCALL   ?BDISPATCH
   \   000003   ......       DC24    HalKeyPoll

   \                                 In  segment BANK_RELAYS, align 1
   \                     ??halGetJoyKeyInput?relay:
   \   000000   12....       LCALL   ?BDISPATCH
   \   000003   ......       DC24    halGetJoyKeyInput

   \                                 In  segment BANK_RELAYS, align 1
   \                     ??halProcessKeyInterrupt?relay:
   \   000000   12....       LCALL   ?BDISPATCH
   \   000003   ......       DC24    halProcessKeyInterrupt

   \                                 In  segment BANK_RELAYS, align 1
   \                     ??HalKeyEnterSleep?relay:
   \   000000   12....       LCALL   ?BDISPATCH
   \   000003   ......       DC24    HalKeyEnterSleep

   \                                 In  segment BANK_RELAYS, align 1
   \                     ??HalKeyExitSleep?relay:
   \   000000   12....       LCALL   ?BDISPATCH
   \   000003   ......       DC24    HalKeyExitSleep
    574          
    575          #else
    576          
    577          
    578          void HalKeyInit(void){}
    579          void HalKeyConfig(bool interruptEnable, halKeyCBack_t cback){}
    580          uint8 HalKeyRead(void){ return 0;}
    581          void HalKeyPoll(void){}
    582          
    583          #endif /* HAL_KEY */
    584          
    585          
    586          
    587          
    588          
    589          /**************************************************************************************************
    590          **************************************************************************************************/
    591          
    592          
    593          

   Maximum stack usage in bytes:

     Function                    ISTACK PSTACK XSTACK
     --------                    ------ ------ ------
     HalKeyConfig                    0      0      9
       -> osal_stop_timerEx          0      0     18
       -> osal_set_event             0      0     18
     HalKeyEnterSleep                0      0      0
     HalKeyExitSleep                 2      0      0
       -> HalKeyRead                 4      0      0
     HalKeyInit                      2      0      0
     HalKeyPoll                      0      0      9
     HalKeyRead                      0      0      0
     halGetJoyKeyInput               0      0      9
       -> HalAdcRead                 0      0     18
     halKeyPort0Isr                  0      0     14
       -> halProcessKeyInterrupt     0      0     28
     halKeyPort2Isr                  0      0     14
       -> halProcessKeyInterrupt     0      0     28
     halProcessKeyInterrupt          2      0     14
       -> osal_start_timerEx         4      0      0


   Segment part sizes:

     Function/Label                 Bytes
     --------------                 -----
     P0IFG                             1
     P2IFG                             1
     PICTL                             1
     P1IEN                             1
     _A_P1                             1
     IEN2                              1
     _A_IEN0                           1
     P0IEN                             1
     P2IEN                             1
     _A_IEN1                           1
     _A_IRCON                          1
     _A_IRCON2                         1
     P1SEL                             1
     P1DIR                             1
     halKeySavedKeys                   1
     pHalKeyProcessFunction            2
     HalKeyConfigured                  1
     Hal_KeyIntEnable                  1
     HalKeyInit                       25
     ?Subroutine0                      7
     HalKeyConfig                    103
     HalKeyRead                       11
     HalKeyPoll                       79
     halGetJoyKeyInput                93
     halProcessKeyInterrupt           51
     HalKeyEnterSleep                  3
     HalKeyExitSleep                  10
     halKeyPort0Isr                   28
     ?Subroutine1                     10
     halKeyPort2Isr                   30
     ??halKeyPort2Isr??INTVEC 51       3
     ??halKeyPort0Isr??INTVEC 107      3
     ??HalKeyInit?relay                6
     ??HalKeyConfig?relay              6
     ??HalKeyRead?relay                6
     ??HalKeyPoll?relay                6
     ??halGetJoyKeyInput?relay         6
     ??halProcessKeyInterrupt?relay    6
     ??HalKeyEnterSleep?relay          6
     ??HalKeyExitSleep?relay           6

 
 382 bytes in segment BANKED_CODE
  48 bytes in segment BANK_RELAYS
   6 bytes in segment INTVEC
  68 bytes in segment NEAR_CODE
  14 bytes in segment SFR_AN
   5 bytes in segment XDATA_Z
 
 498 bytes of CODE  memory (+  6 bytes shared)
   0 bytes of DATA  memory (+ 14 bytes shared)
   5 bytes of XDATA memory

Errors: none
Warnings: none
