###############################################################################
#                                                                             #
# IAR C/C++ Compiler V8.10.3.10338/W32 for 8051         26/May/2017  16:09:55 #
# Copyright 2004-2011 IAR Systems AB.                                         #
#                                                                             #
#    Core               =  plain                                              #
#    Code model         =  banked                                             #
#    Data model         =  large                                              #
#    Calling convention =  xdata reentrant                                    #
#    Constant location  =  data_rom                                           #
#    Dptr setup         =  1,16                                               #
#    Source file        =  E:\work\smartlight\ZigLight\Projects\zstack\Sample #
#                          s\ZigLightApp\Source\List.c                        #
#    Command line       =  -f E:\work\smartlight\ZigLight\Projects\zstack\Sam #
#                          ples\ZigLightApp\CC2530DB\..\..\..\Tools\CC2530DB\ #
#                          f8wCoord.cfg (-DCPU32MHZ -DROOT=__near_func        #
#                          -DMAC_CFG_APP_PENDING_QUEUE=TRUE                   #
#                          -DMAC_CFG_TX_DATA_MAX=5 -DMAC_CFG_TX_MAX=8         #
#                          -DMAC_CFG_RX_MAX=5 -DZDO_COORDINATOR -DRTR_NWK)    #
#                          -f E:\work\smartlight\ZigLight\Projects\zstack\Sam #
#                          ples\ZigLightApp\CC2530DB\..\..\..\Tools\CC2530DB\ #
#                          f8wConfig.cfg (-DZIGBEEPRO -DSECURE=0              #
#                          -DZG_SECURE_DYNAMIC=0 -DREFLECTOR                  #
#                          -DDEFAULT_CHANLIST=0x00000800                      #
#                          -DZDAPP_CONFIG_PAN_ID=0xFF00                       #
#                          -DNWK_START_DELAY=100 -DEXTENDED_JOINING_RANDOM_MA #
#                          SK=0x007F -DBEACON_REQUEST_DELAY=100               #
#                          -DBEACON_REQ_DELAY_MASK=0x00FF                     #
#                          -DLINK_STATUS_JITTER_MASK=0x007F                   #
#                          -DROUTE_EXPIRY_TIME=30 -DAPSC_ACK_WAIT_DURATION_PO #
#                          LLED=3000 -DNWK_INDIRECT_MSG_TIMEOUT=7             #
#                          -DMAX_RREQ_ENTRIES=8 -DAPSC_MAX_FRAME_RETRIES=3    #
#                          -DNWK_MAX_DATA_RETRIES=2                           #
#                          -DMAX_POLL_FAILURE_RETRIES=2 -DMAX_BCAST=9         #
#                          -DAPS_MAX_GROUPS=16 -DMAX_RTG_ENTRIES=40           #
#                          -DNWK_MAX_BINDING_ENTRIES=4                        #
#                          -DMAX_BINDING_CLUSTER_IDS=4 "-DDEFAULT_KEY={0x01,  #
#                          0x03, 0x05, 0x07, 0x09, 0x0B, 0x0D, 0x0F, 0x00,    #
#                          0x02, 0x04, 0x06, 0x08, 0x0A, 0x0C, 0x0D}"         #
#                          -DMAC_MAX_FRAME_SIZE=116                           #
#                          -DZDNWKMGR_MIN_TRANSMISSIONS=20 "-DCONST=const     #
#                          __code" -DGENERIC=__generic                        #
#                          -DRFD_RCVC_ALWAYS_ON=FALSE -DPOLL_RATE=1000        #
#                          -DQUEUED_POLL_RATE=100 -DRESPONSE_POLL_RATE=100)   #
#                          -DREJOIN_POLL_RATE=440 E:\work\smartlight\ZigLight #
#                          \Projects\zstack\Samples\ZigLightApp\Source\List.c #
#                           -D ZTOOL_P1 -D xMT_TASK -D xMT_SYS_FUNC -D        #
#                          xMT_ZDO_FUNC -D LCD_SUPPORTED=DEBUG -D NV_RESTORE  #
#                          -lC E:\work\smartlight\ZigLight\Projects\zstack\Sa #
#                          mples\ZigLightApp\CC2530DB\CoordinatorEB\List\     #
#                          -lA E:\work\smartlight\ZigLight\Projects\zstack\Sa #
#                          mples\ZigLightApp\CC2530DB\CoordinatorEB\List\     #
#                          --diag_suppress Pe001,Pa010 -o                     #
#                          E:\work\smartlight\ZigLight\Projects\zstack\Sample #
#                          s\ZigLightApp\CC2530DB\CoordinatorEB\Obj\ -e       #
#                          --no_code_motion --debug --core=plain --dptr=16,1  #
#                          --data_model=large --code_model=banked             #
#                          --calling_convention=xdata_reentrant               #
#                          --place_constants=data_rom --nr_virtual_regs 16    #
#                          -I E:\work\smartlight\ZigLight\Projects\zstack\Sam #
#                          ples\ZigLightApp\CC2530DB\ -I                      #
#                          E:\work\smartlight\ZigLight\Projects\zstack\Sample #
#                          s\ZigLightApp\CC2530DB\..\Source\ -I               #
#                          E:\work\smartlight\ZigLight\Projects\zstack\Sample #
#                          s\ZigLightApp\CC2530DB\..\..\..\ZMain\TI2530DB\    #
#                          -I E:\work\smartlight\ZigLight\Projects\zstack\Sam #
#                          ples\ZigLightApp\CC2530DB\..\..\..\..\..\Component #
#                          s\hal\include\ -I E:\work\smartlight\ZigLight\Proj #
#                          ects\zstack\Samples\ZigLightApp\CC2530DB\..\..\..\ #
#                          ..\..\Components\hal\target\CC2530EB\ -I           #
#                          E:\work\smartlight\ZigLight\Projects\zstack\Sample #
#                          s\ZigLightApp\CC2530DB\..\..\..\..\..\Components\m #
#                          ac\include\ -I E:\work\smartlight\ZigLight\Project #
#                          s\zstack\Samples\ZigLightApp\CC2530DB\..\..\..\..\ #
#                          ..\Components\mac\high_level\ -I                   #
#                          E:\work\smartlight\ZigLight\Projects\zstack\Sample #
#                          s\ZigLightApp\CC2530DB\..\..\..\..\..\Components\m #
#                          ac\low_level\srf04\ -I E:\work\smartlight\ZigLight #
#                          \Projects\zstack\Samples\ZigLightApp\CC2530DB\..\. #
#                          .\..\..\..\Components\mac\low_level\srf04\single_c #
#                          hip\ -I E:\work\smartlight\ZigLight\Projects\zstac #
#                          k\Samples\ZigLightApp\CC2530DB\..\..\..\..\..\Comp #
#                          onents\mt\ -I E:\work\smartlight\ZigLight\Projects #
#                          \zstack\Samples\ZigLightApp\CC2530DB\..\..\..\..\. #
#                          .\Components\osal\include\ -I                      #
#                          E:\work\smartlight\ZigLight\Projects\zstack\Sample #
#                          s\ZigLightApp\CC2530DB\..\..\..\..\..\Components\s #
#                          ervices\saddr\ -I E:\work\smartlight\ZigLight\Proj #
#                          ects\zstack\Samples\ZigLightApp\CC2530DB\..\..\..\ #
#                          ..\..\Components\services\sdata\ -I                #
#                          E:\work\smartlight\ZigLight\Projects\zstack\Sample #
#                          s\ZigLightApp\CC2530DB\..\..\..\..\..\Components\s #
#                          tack\af\ -I E:\work\smartlight\ZigLight\Projects\z #
#                          stack\Samples\ZigLightApp\CC2530DB\..\..\..\..\..\ #
#                          Components\stack\nwk\ -I                           #
#                          E:\work\smartlight\ZigLight\Projects\zstack\Sample #
#                          s\ZigLightApp\CC2530DB\..\..\..\..\..\Components\s #
#                          tack\sapi\ -I E:\work\smartlight\ZigLight\Projects #
#                          \zstack\Samples\ZigLightApp\CC2530DB\..\..\..\..\. #
#                          .\Components\stack\sec\ -I                         #
#                          E:\work\smartlight\ZigLight\Projects\zstack\Sample #
#                          s\ZigLightApp\CC2530DB\..\..\..\..\..\Components\s #
#                          tack\sys\ -I E:\work\smartlight\ZigLight\Projects\ #
#                          zstack\Samples\ZigLightApp\CC2530DB\..\..\..\..\.. #
#                          \Components\stack\zdo\ -I                          #
#                          E:\work\smartlight\ZigLight\Projects\zstack\Sample #
#                          s\ZigLightApp\CC2530DB\..\..\..\..\..\Components\z #
#                          mac\ -I E:\work\smartlight\ZigLight\Projects\zstac #
#                          k\Samples\ZigLightApp\CC2530DB\..\..\..\..\..\Comp #
#                          onents\zmac\f8w\ -Ohz --require_prototypes         #
#    List file          =  E:\work\smartlight\ZigLight\Projects\zstack\Sample #
#                          s\ZigLightApp\CC2530DB\CoordinatorEB\List\List.lst #
#    Object file        =  E:\work\smartlight\ZigLight\Projects\zstack\Sample #
#                          s\ZigLightApp\CC2530DB\CoordinatorEB\Obj\List.r51  #
#                                                                             #
#                                                                             #
###############################################################################

E:\work\smartlight\ZigLight\Projects\zstack\Samples\ZigLightApp\Source\List.c
      1          
      2          
      3          #include "List.h"
      4          
      5          

   \                                 In  segment BANKED_CODE, align 1, keep-with-next
      6          void InitList(LinkList *list)  
   \                     InitList:
      7          {  
   \   000000   74F7         MOV     A,#-0x9
   \   000002   12....       LCALL   ?BANKED_ENTER_XDATA
   \   000005                ; Saved register size: 9
   \   000005                ; Auto size: 0
   \   000005   EA           MOV     A,R2
   \   000006   FE           MOV     R6,A
   \   000007   EB           MOV     A,R3
   \   000008   FF           MOV     R7,A
      8              *list = (LinkList)osal_mem_alloc(sizeof(Node));  
   \   000009                ; Setup parameters for call to function osal_mem_alloc
   \   000009   7A03         MOV     R2,#0x3
   \   00000B   7B00         MOV     R3,#0x0
   \   00000D   12....       LCALL   ??osal_mem_alloc?relay
   \   000010   8E82         MOV     DPL,R6
   \   000012   8F83         MOV     DPH,R7
   \   000014   EA           MOV     A,R2
   \   000015   F0           MOVX    @DPTR,A
   \   000016   A3           INC     DPTR
   \   000017   EB           MOV     A,R3
   \   000018   12....       LCALL   ?Subroutine2 & 0xFFFF
      9              (*list)->next = NULL;  
   \                     ??CrossCallReturnLabel_0:
   \   00001B   A3           INC     DPTR
   \   00001C   E4           CLR     A
   \   00001D   F0           MOVX    @DPTR,A
   \   00001E   A3           INC     DPTR
   \   00001F   12....       LCALL   ?Subroutine2 & 0xFFFF
     10              (*list)->data = 0;  
   \                     ??CrossCallReturnLabel_1:
   \   000022   E4           CLR     A
   \   000023   F0           MOVX    @DPTR,A
     11          }  
   \   000024                REQUIRE ?Subroutine0
   \   000024                ; // Fall through to label ?Subroutine0

   \                                 In  segment BANKED_CODE, align 1, keep-with-next
   \                     ?Subroutine0:
   \   000000   7F01         MOV     R7,#0x1
   \   000002   02....       LJMP    ?BANKED_LEAVE_XDATA

   \                                 In  segment BANKED_CODE, align 1, keep-with-next
   \                     ?Subroutine2:
   \   000000   F0           MOVX    @DPTR,A
   \   000001   8E82         MOV     DPL,R6
   \   000003   8F83         MOV     DPH,R7
   \   000005   E0           MOVX    A,@DPTR
   \   000006   F8           MOV     R0,A
   \   000007   A3           INC     DPTR
   \   000008   E0           MOVX    A,@DPTR
   \   000009   F583         MOV     DPH,A
   \   00000B   8882         MOV     DPL,R0
   \   00000D   22           RET

   \                                 In  segment BANKED_CODE, align 1, keep-with-next
     12          void ListInsert(LinkList *list, uint8 i , uint8 e)//第i个元素后面插入e  
   \                     ListInsert:
     13          {     
   \   000000   74F4         MOV     A,#-0xc
   \   000002   12....       LCALL   ?BANKED_ENTER_XDATA
   \   000005                ; Saved register size: 12
   \   000005                ; Auto size: 0
   \   000005   89..         MOV     ?V0 + 0,R1
   \   000007   8C..         MOV     ?V0 + 1,R4
     14              LinkList p = *list;  
   \   000009   8A82         MOV     DPL,R2
   \   00000B   8B83         MOV     DPH,R3
   \   00000D   12....       LCALL   ??Subroutine10_0 & 0xFFFF
   \                     ??CrossCallReturnLabel_14:
   \   000010   FE           MOV     R6,A
   \   000011   E9           MOV     A,R1
   \   000012   FF           MOV     R7,A
     15                
     16              if( i == 0)  
   \   000013   E5..         MOV     A,?V0 + 0
   \   000015   702A         JNZ     ??ListInsert_0
     17                  {  
     18                      pNode q = (LinkList)osal_mem_alloc(sizeof(Node));  
   \   000017                ; Setup parameters for call to function osal_mem_alloc
   \   000017   7A03         MOV     R2,#0x3
   \   000019   7B00         MOV     R3,#0x0
   \   00001B   12....       LCALL   ??osal_mem_alloc?relay
   \   00001E   8A..         MOV     ?V0 + 2,R2
   \   000020   8B..         MOV     ?V0 + 3,R3
   \   000022   A8..         MOV     R0,?V0 + 2
   \   000024   A9..         MOV     R1,?V0 + 3
     19                      q->next = NULL;  
   \   000026   8882         MOV     DPL,R0
   \   000028   8983         MOV     DPH,R1
   \   00002A   A3           INC     DPTR
   \   00002B   E4           CLR     A
   \   00002C   F0           MOVX    @DPTR,A
   \   00002D   A3           INC     DPTR
   \   00002E   F0           MOVX    @DPTR,A
     20                      q->data = e;  
   \   00002F   8882         MOV     DPL,R0
   \   000031   8983         MOV     DPH,R1
   \   000033   E5..         MOV     A,?V0 + 1
   \   000035   F0           MOVX    @DPTR,A
     21                      p->next = q;  
   \   000036   8E82         MOV     DPL,R6
   \   000038   8F83         MOV     DPH,R7
   \   00003A   A3           INC     DPTR
   \   00003B   E8           MOV     A,R0
   \   00003C   F0           MOVX    @DPTR,A
   \   00003D   A3           INC     DPTR
   \   00003E   E9           MOV     A,R1
   \   00003F   804D         SJMP    ??ListInsert_1
     22                  }  
     23              else  
     24                  {     
     25                      pNode p = (*list)->next;  
   \                     ??ListInsert_0:
   \   000041   8A82         MOV     DPL,R2
   \   000043   8B83         MOV     DPH,R3
   \   000045   A3           INC     DPTR
   \   000046   E0           MOVX    A,@DPTR
   \   000047   F583         MOV     DPH,A
   \   000049   8882         MOV     DPL,R0
   \   00004B   12....       LCALL   ??Subroutine8_0 & 0xFFFF
     26                      uint8 j = 1;  
   \                     ??CrossCallReturnLabel_8:
   \   00004E   7801         MOV     R0,#0x1
   \   000050   8004         SJMP    ??ListInsert_2
     27            
     28                      while( p && i > j)  
     29                      {  
     30                          p = p->next;  
   \                     ??ListInsert_3:
   \   000052   12....       LCALL   ?Subroutine5 & 0xFFFF
     31                          ++j;  
   \                     ??CrossCallReturnLabel_10:
   \   000055   08           INC     R0
     32                      }  
   \                     ??ListInsert_2:
   \   000056   EE           MOV     A,R6
   \   000057   4F           ORL     A,R7
   \   000058   6006         JZ      ??ListInsert_4
   \   00005A   E8           MOV     A,R0
   \   00005B   C3           CLR     C
   \   00005C   95..         SUBB    A,?V0 + 0
   \   00005E   40F2         JC      ??ListInsert_3
     33            
     34                      pNode q = (LinkList)osal_mem_alloc(sizeof(Node));  
   \                     ??ListInsert_4:
   \   000060                ; Setup parameters for call to function osal_mem_alloc
   \   000060   7A03         MOV     R2,#0x3
   \   000062   7B00         MOV     R3,#0x0
   \   000064   12....       LCALL   ??osal_mem_alloc?relay
     35                      q->next = p->next;  
   \   000067   8E82         MOV     DPL,R6
   \   000069   8F83         MOV     DPH,R7
   \   00006B   A3           INC     DPTR
   \   00006C   A882         MOV     R0,DPL
   \   00006E   A983         MOV     R1,DPH
   \   000070   E0           MOVX    A,@DPTR
   \   000071   FC           MOV     R4,A
   \   000072   A3           INC     DPTR
   \   000073   E0           MOVX    A,@DPTR
   \   000074   FD           MOV     R5,A
   \   000075   8A82         MOV     DPL,R2
   \   000077   8B83         MOV     DPH,R3
   \   000079   A3           INC     DPTR
   \   00007A   EC           MOV     A,R4
   \   00007B   F0           MOVX    @DPTR,A
   \   00007C   A3           INC     DPTR
   \   00007D   ED           MOV     A,R5
   \   00007E   F0           MOVX    @DPTR,A
     36                      q->data = e;  
   \   00007F   8A82         MOV     DPL,R2
   \   000081   8B83         MOV     DPH,R3
   \   000083   E5..         MOV     A,?V0 + 1
   \   000085   F0           MOVX    @DPTR,A
     37                      p->next = q;  
   \   000086   8882         MOV     DPL,R0
   \   000088   8983         MOV     DPH,R1
   \   00008A   EA           MOV     A,R2
   \   00008B   F0           MOVX    @DPTR,A
   \   00008C   A3           INC     DPTR
   \   00008D   EB           MOV     A,R3
   \                     ??ListInsert_1:
   \   00008E   F0           MOVX    @DPTR,A
     38                  }  
     39                
     40          }  
   \   00008F   7F04         MOV     R7,#0x4
   \   000091   02....       LJMP    ?BANKED_LEAVE_XDATA

   \                                 In  segment BANKED_CODE, align 1, keep-with-next
   \                     ?Subroutine5:
   \   000000   8E82         MOV     DPL,R6
   \   000002   8F83         MOV     DPH,R7
   \   000004                REQUIRE ??Subroutine8_0
   \   000004                ; // Fall through to label ??Subroutine8_0

   \                                 In  segment BANKED_CODE, align 1, keep-with-next
   \                     ??Subroutine8_0:
   \   000000   A3           INC     DPTR
   \   000001                REQUIRE ??Subroutine9_0
   \   000001                ; // Fall through to label ??Subroutine9_0

   \                                 In  segment BANKED_CODE, align 1, keep-with-next
   \                     ??Subroutine9_0:
   \   000000   E0           MOVX    A,@DPTR
   \   000001   FE           MOV     R6,A
   \   000002   A3           INC     DPTR
   \   000003   E0           MOVX    A,@DPTR
   \   000004   FF           MOV     R7,A
   \   000005   22           RET

   \                                 In  segment BANKED_CODE, align 1, keep-with-next
   \                     ??Subroutine10_0:
   \   000000   E0           MOVX    A,@DPTR
   \   000001   F8           MOV     R0,A
   \   000002   A3           INC     DPTR
   \   000003   E0           MOVX    A,@DPTR
   \   000004   F9           MOV     R1,A
   \   000005   E8           MOV     A,R0
   \   000006   22           RET
     41          

   \                                 In  segment BANKED_CODE, align 1, keep-with-next
     42          void ListTraverse(LinkList list)  
   \                     ListTraverse:
     43          {  
   \   000000   C082         PUSH    DPL
   \   000002   C083         PUSH    DPH
   \   000004                ; Saved register size: 2
   \   000004                ; Auto size: 0
     44              pNode p = list;  
     45              if(p != NULL)  
   \   000004   EA           MOV     A,R2
   \   000005   4B           ORL     A,R3
   \   000006   6014         JZ      ??ListTraverse_0
     46              {  
     47                p = p->next;  
   \   000008   8A82         MOV     DPL,R2
   \   00000A   8B83         MOV     DPH,R3
     48                }  
     49              else  
     50                {  
     51                  return;
     52                }
     53                  while(p)  
     54              {  
     55          //        pruint8f("%d\t", p->data);  
     56                  p = p->next;  
   \                     ??ListTraverse_1:
   \   00000C   A3           INC     DPTR
   \   00000D   E0           MOVX    A,@DPTR
   \   00000E   F8           MOV     R0,A
   \   00000F   A3           INC     DPTR
   \   000010   E0           MOVX    A,@DPTR
   \   000011   F9           MOV     R1,A
   \   000012   8882         MOV     DPL,R0
   \   000014   8983         MOV     DPH,R1
     57              }  
   \   000016   E582         MOV     A,DPL
   \   000018   4583         ORL     A,DPH
   \   00001A   70F0         JNZ     ??ListTraverse_1
   \                     ??ListTraverse_0:
   \   00001C   80..         SJMP    ?Subroutine1
     58          }  

   \                                 In  segment BANKED_CODE, align 1, keep-with-next
   \                     ?Subroutine1:
   \   000000   D083         POP     DPH
   \   000002   D082         POP     DPL
   \   000004   02....       LJMP    ?BRET

   \                                 In  segment BANKED_CODE, align 1, keep-with-next
     59          void Recursion(LinkList list)//递归的方法逆序输出链表  
   \                     Recursion:
     60          {   
   \   000000   C082         PUSH    DPL
   \   000002   C083         PUSH    DPH
   \   000004                ; Saved register size: 2
   \   000004                ; Auto size: 0
     61              if(NULL==list)  
   \   000004   EA           MOV     A,R2
   \   000005   4B           ORL     A,R3
   \   000006   7009         JNZ     ??CrossCallReturnLabel_19
   \   000008   800D         SJMP    ??Recursion_0
     62              {   
     63                  return;  
     64              }   
     65              if(list->next!=NULL)  
     66              {  
     67               Recursion(list->next);  
   \                     ??Recursion_1:
   \   00000A   8A82         MOV     DPL,R2
   \   00000C   8B83         MOV     DPH,R3
   \   00000E   12....       LCALL   ?Subroutine7 & 0xFFFF
     68               }  
   \                     ??CrossCallReturnLabel_19:
   \   000011   12....       LCALL   ?Subroutine3 & 0xFFFF
   \                     ??CrossCallReturnLabel_15:
   \   000014   49           ORL     A,R1
   \   000015   70F3         JNZ     ??Recursion_1
   \                     ??Recursion_0:
   \   000017   80..         SJMP    ?Subroutine1
     69          //    pruint8f("%d\t",list->data);  
     70          }  

   \                                 In  segment BANKED_CODE, align 1, keep-with-next
   \                     ?Subroutine3:
   \   000000   8A82         MOV     DPL,R2
   \   000002   8B83         MOV     DPH,R3
   \   000004   A3           INC     DPTR
   \   000005                REQUIRE ??Subroutine10_0
   \   000005                ; // Fall through to label ??Subroutine10_0

   \                                 In  segment BANKED_CODE, align 1, keep-with-next
   \                     ?Subroutine7:
   \   000000   A3           INC     DPTR
   \   000001                REQUIRE ??Subroutine11_0
   \   000001                ; // Fall through to label ??Subroutine11_0

   \                                 In  segment BANKED_CODE, align 1, keep-with-next
   \                     ??Subroutine11_0:
   \   000000   E0           MOVX    A,@DPTR
   \   000001   FA           MOV     R2,A
   \   000002   A3           INC     DPTR
   \   000003   E0           MOVX    A,@DPTR
   \   000004   FB           MOV     R3,A
   \   000005   22           RET

   \                                 In  segment BANKED_CODE, align 1, keep-with-next
     71          bool ListEmpty(LinkList list)  
   \                     ListEmpty:
     72          {  
   \   000000   C082         PUSH    DPL
   \   000002   C083         PUSH    DPH
   \   000004                ; Saved register size: 2
   \   000004                ; Auto size: 0
     73              pNode p = list;  
                           ^
Warning[Pe177]: variable "p" was declared but never referenced
     74            
     75              if(NULL == list->next)  
   \   000004   12....       LCALL   ?Subroutine3 & 0xFFFF
   \                     ??CrossCallReturnLabel_16:
   \   000007   49           ORL     A,R1
   \   000008   7004         JNZ     ??ListEmpty_0
     76                  return true;  
   \   00000A   7901         MOV     R1,#0x1
   \   00000C   8002         SJMP    ??ListEmpty_1
     77              else  
     78                  return false;  
   \                     ??ListEmpty_0:
   \   00000E   7900         MOV     R1,#0x0
   \                     ??ListEmpty_1:
   \   000010                REQUIRE ?Subroutine1
   \   000010                ; // Fall through to label ?Subroutine1
     79          }  

   \                                 In  segment BANKED_CODE, align 1, keep-with-next
     80          void GetElem(LinkList list, uint8 *e, uint8 i)  
   \                     GetElem:
     81          {  
   \   000000   74F7         MOV     A,#-0x9
   \   000002   12....       LCALL   ?BANKED_ENTER_XDATA
   \   000005                ; Saved register size: 9
   \   000005                ; Auto size: 0
   \   000005   E9           MOV     A,R1
   \   000006   FE           MOV     R6,A
     82              pNode p = list;  
     83                
     84              if( i < 0 || i > ListLength(list))  
                           ^
Warning[Pe186]: pointless comparison of unsigned integer with zero

  void GetElem(LinkList list, uint8 *e, uint8 i)  
                                     ^
"E:\work\smartlight\ZigLight\Projects\zstack\Samples\ZigLightApp\Source\List.c",80  Warning[Pe550]: 
          parameter "e" was set but never used
   \   000007                ; Setup parameters for call to function ListLength
   \   000007   12....       LCALL   ??ListLength?relay
   \   00000A   E9           MOV     A,R1
   \   00000B   C3           CLR     C
   \   00000C   9E           SUBB    A,R6
   \   00000D   400A         JC      ??GetElem_0
     85                  return ;  
     86              p = p->next;  
     87              uint8 j = 1;  
   \   00000F   7801         MOV     R0,#0x1
   \   000011   8001         SJMP    ??GetElem_1
     88              while( j < i)  
     89                  {  
     90                      p = p->next;  
     91                      j++;  
   \                     ??GetElem_2:
   \   000013   08           INC     R0
     92                  }  
   \                     ??GetElem_1:
   \   000014   E8           MOV     A,R0
   \   000015   C3           CLR     C
   \   000016   9E           SUBB    A,R6
   \   000017   40FA         JC      ??GetElem_2
   \                     ??GetElem_0:
   \   000019   02....       LJMP    ?Subroutine0 & 0xFFFF
     93              e = &p->data;  
     94          }  

   \                                 In  segment BANKED_CODE, align 1, keep-with-next
     95          void ListDelete(LinkList *list, uint8 i, uint8 *e)  
   \                     ListDelete:
     96          {  
   \   000000   74F5         MOV     A,#-0xb
   \   000002   12....       LCALL   ?BANKED_ENTER_XDATA
   \   000005                ; Saved register size: 11
   \   000005                ; Auto size: 0
   \   000005   89..         MOV     ?V0 + 2,R1
   \   000007   8C..         MOV     ?V0 + 0,R4
   \   000009   8D..         MOV     ?V0 + 1,R5
     97              pNode p = *list;  
   \   00000B   8A82         MOV     DPL,R2
   \   00000D   8B83         MOV     DPH,R3
   \   00000F   12....       LCALL   ??Subroutine11_0 & 0xFFFF
   \                     ??CrossCallReturnLabel_17:
   \   000012   EA           MOV     A,R2
   \   000013   FE           MOV     R6,A
   \   000014   EB           MOV     A,R3
   \   000015   FF           MOV     R7,A
     98              if( i < 0 || i > ListLength(*list))  
                           ^
Warning[Pe186]: pointless comparison of unsigned integer with zero
   \   000016                ; Setup parameters for call to function ListLength
   \   000016   12....       LCALL   ??ListLength?relay
   \   000019   E9           MOV     A,R1
   \   00001A   C3           CLR     C
   \   00001B   95..         SUBB    A,?V0 + 2
   \   00001D   403D         JC      ??ListDelete_0
     99                  return ;  
    100              pNode q = p;  
   \   00001F   EE           MOV     A,R6
   \   000020   F8           MOV     R0,A
   \   000021   EF           MOV     A,R7
   \   000022   F9           MOV     R1,A
    101              p = q->next;  
   \   000023   8882         MOV     DPL,R0
   \   000025   8983         MOV     DPH,R1
   \   000027   12....       LCALL   ??Subroutine8_0 & 0xFFFF
    102              uint8 j = 1;  
   \                     ??CrossCallReturnLabel_9:
   \   00002A   7A01         MOV     R2,#0x1
   \   00002C   8008         SJMP    ??ListDelete_1
    103              while( j < i )  
    104                  {   q = p;  
   \                     ??ListDelete_2:
   \   00002E   EE           MOV     A,R6
   \   00002F   F8           MOV     R0,A
   \   000030   EF           MOV     A,R7
   \   000031   F9           MOV     R1,A
    105                      p = p->next;  
   \   000032   12....       LCALL   ?Subroutine5 & 0xFFFF
    106                      j++;  
   \                     ??CrossCallReturnLabel_11:
   \   000035   0A           INC     R2
    107                  }  
   \                     ??ListDelete_1:
   \   000036   EA           MOV     A,R2
   \   000037   C3           CLR     C
   \   000038   95..         SUBB    A,?V0 + 2
   \   00003A   40F2         JC      ??ListDelete_2
    108              p->data = *e;  
   \   00003C   85..82       MOV     DPL,?V0 + 0
   \   00003F   85..83       MOV     DPH,?V0 + 1
   \   000042   E0           MOVX    A,@DPTR
   \   000043   8E82         MOV     DPL,R6
   \   000045   8F83         MOV     DPH,R7
   \   000047   F0           MOVX    @DPTR,A
    109              q->next = p->next;  
   \   000048   12....       LCALL   ?Subroutine7 & 0xFFFF
   \                     ??CrossCallReturnLabel_20:
   \   00004B   8882         MOV     DPL,R0
   \   00004D   8983         MOV     DPH,R1
   \   00004F   A3           INC     DPTR
   \   000050   EA           MOV     A,R2
   \   000051   F0           MOVX    @DPTR,A
   \   000052   A3           INC     DPTR
   \   000053   EB           MOV     A,R3
   \   000054   F0           MOVX    @DPTR,A
    110              osal_mem_free(p);  
   \   000055                ; Setup parameters for call to function osal_mem_free
   \   000055   EE           MOV     A,R6
   \   000056   FA           MOV     R2,A
   \   000057   EF           MOV     A,R7
   \   000058   FB           MOV     R3,A
   \   000059   12....       LCALL   ??osal_mem_free?relay
    111                
    112            
    113                
    114          }  
   \                     ??ListDelete_0:
   \   00005C   7F03         MOV     R7,#0x3
   \   00005E   02....       LJMP    ?BANKED_LEAVE_XDATA

   \                                 In  segment BANKED_CODE, align 1, keep-with-next
    115          uint8 ListLength(LinkList list)  
   \                     ListLength:
    116          {  
   \   000000   C082         PUSH    DPL
   \   000002   C083         PUSH    DPH
   \   000004                ; Saved register size: 2
   \   000004                ; Auto size: 0
    117              pNode p = list;  
    118              uint8 i = 0;  
   \   000004   7900         MOV     R1,#0x0
    119              p = p->next;  
   \   000006   8A82         MOV     DPL,R2
   \   000008   8B83         MOV     DPH,R3
   \   00000A   12....       LCALL   ?Subroutine6 & 0xFFFF
   \                     ??CrossCallReturnLabel_4:
   \   00000D   8004         SJMP    ??ListLength_0
    120              while(p)  
    121                  {  
    122                      p = p->next;  
   \                     ??ListLength_1:
   \   00000F   12....       LCALL   ?Subroutine6 & 0xFFFF
    123                      i++;  
   \                     ??CrossCallReturnLabel_5:
   \   000012   09           INC     R1
    124                  }  
   \                     ??ListLength_0:
   \   000013   E582         MOV     A,DPL
   \   000015   4583         ORL     A,DPH
   \   000017   70F6         JNZ     ??ListLength_1
    125              return i;  
   \   000019   02....       LJMP    ?Subroutine1 & 0xFFFF
    126          }  

   \                                 In  segment BANKED_CODE, align 1, keep-with-next
   \                     ?Subroutine6:
   \   000000   A3           INC     DPTR
   \   000001   E0           MOVX    A,@DPTR
   \   000002   FA           MOV     R2,A
   \   000003   A3           INC     DPTR
   \   000004   E0           MOVX    A,@DPTR
   \   000005   FB           MOV     R3,A
   \   000006   8A82         MOV     DPL,R2
   \   000008   8B83         MOV     DPH,R3
   \   00000A   22           RET

   \                                 In  segment BANKED_CODE, align 1, keep-with-next
    127          void ClearList (LinkList *list)  
   \                     ClearList:
    128          {  
   \   000000   74F7         MOV     A,#-0x9
   \   000002   12....       LCALL   ?BANKED_ENTER_XDATA
   \   000005                ; Saved register size: 9
   \   000005                ; Auto size: 0
    129              pNode p = *list;  
   \   000005   8A82         MOV     DPL,R2
   \   000007   8B83         MOV     DPH,R3
   \   000009   12....       LCALL   ??Subroutine9_0 & 0xFFFF
    130              if( p != NULL)  
   \                     ??CrossCallReturnLabel_6:
   \   00000C   EE           MOV     A,R6
   \   00000D   4F           ORL     A,R7
   \   00000E   600C         JZ      ??ClearList_0
    131                  p = p->next;  
   \   000010   12....       LCALL   ?Subroutine5 & 0xFFFF
   \                     ??CrossCallReturnLabel_12:
   \   000013   8003         SJMP    ??CrossCallReturnLabel_2
    132              pNode q;  
    133              while( p )  
    134              {  
    135                  q = p;  
   \                     ??ClearList_1:
   \   000015   12....       LCALL   ?Subroutine4 & 0xFFFF
    136                  p = p->next;  
    137                  osal_mem_free(q);  
    138              }  
   \                     ??CrossCallReturnLabel_2:
   \   000018   EE           MOV     A,R6
   \   000019   4F           ORL     A,R7
   \   00001A   70F9         JNZ     ??ClearList_1
    139                
    140          }  
   \                     ??ClearList_0:
   \   00001C   02....       LJMP    ?Subroutine0 & 0xFFFF

   \                                 In  segment BANKED_CODE, align 1, keep-with-next
   \                     ?Subroutine4:
   \   000000   EE           MOV     A,R6
   \   000001   FA           MOV     R2,A
   \   000002   EF           MOV     A,R7
   \   000003   FB           MOV     R3,A
   \   000004   8E82         MOV     DPL,R6
   \   000006   8F83         MOV     DPH,R7
   \   000008   A3           INC     DPTR
   \   000009   E0           MOVX    A,@DPTR
   \   00000A   FE           MOV     R6,A
   \   00000B   A3           INC     DPTR
   \   00000C   E0           MOVX    A,@DPTR
   \   00000D   FF           MOV     R7,A
   \   00000E                ; Setup parameters for call to function osal_mem_free
   \   00000E                ; Setup parameters for call to function osal_mem_free
   \   00000E   12....       LCALL   ??osal_mem_free?relay
   \   000011   22           RET

   \                                 In  segment BANKED_CODE, align 1, keep-with-next
    141          void DestoryList(LinkList *list)  
   \                     DestoryList:
    142          {  
   \   000000   74F6         MOV     A,#-0xa
   \   000002   12....       LCALL   ?BANKED_ENTER_XDATA
   \   000005                ; Saved register size: 10
   \   000005                ; Auto size: 0
   \   000005   8A..         MOV     ?V0 + 0,R2
   \   000007   8B..         MOV     ?V0 + 1,R3
    143              pNode p = *list;  
   \   000009   8A82         MOV     DPL,R2
   \   00000B   8B83         MOV     DPH,R3
   \   00000D   12....       LCALL   ??Subroutine9_0 & 0xFFFF
    144              if( p != NULL)  
   \                     ??CrossCallReturnLabel_7:
   \   000010   EE           MOV     A,R6
   \   000011   4F           ORL     A,R7
   \   000012   600C         JZ      ??DestoryList_0
    145                  p = p->next;  
   \   000014   12....       LCALL   ?Subroutine5 & 0xFFFF
   \                     ??CrossCallReturnLabel_13:
   \   000017   8003         SJMP    ??CrossCallReturnLabel_3
    146              pNode q;  
    147              while( p )  
    148              {  
    149                  q = p;  
   \                     ??DestoryList_1:
   \   000019   12....       LCALL   ?Subroutine4 & 0xFFFF
    150                  p = p->next;  
    151                  osal_mem_free(q);  
    152              }  
   \                     ??CrossCallReturnLabel_3:
   \   00001C   EE           MOV     A,R6
   \   00001D   4F           ORL     A,R7
   \   00001E   70F9         JNZ     ??DestoryList_1
    153              osal_mem_free(*list);  
   \                     ??DestoryList_0:
   \   000020                ; Setup parameters for call to function osal_mem_free
   \   000020   85..82       MOV     DPL,?V0 + 0
   \   000023   85..83       MOV     DPH,?V0 + 1
   \   000026   12....       LCALL   ??Subroutine11_0 & 0xFFFF
   \                     ??CrossCallReturnLabel_18:
   \   000029   12....       LCALL   ??osal_mem_free?relay
    154          } 
   \   00002C   7F02         MOV     R7,#0x2
   \   00002E   02....       LJMP    ?BANKED_LEAVE_XDATA

   \                                 In  segment BANK_RELAYS, align 1
   \                     ??InitList?relay:
   \   000000   12....       LCALL   ?BDISPATCH
   \   000003   ......       DC24    InitList

   \                                 In  segment BANK_RELAYS, align 1
   \                     ??ListInsert?relay:
   \   000000   12....       LCALL   ?BDISPATCH
   \   000003   ......       DC24    ListInsert

   \                                 In  segment BANK_RELAYS, align 1
   \                     ??ListTraverse?relay:
   \   000000   12....       LCALL   ?BDISPATCH
   \   000003   ......       DC24    ListTraverse

   \                                 In  segment BANK_RELAYS, align 1
   \                     ??Recursion?relay:
   \   000000   12....       LCALL   ?BDISPATCH
   \   000003   ......       DC24    Recursion

   \                                 In  segment BANK_RELAYS, align 1
   \                     ??ListEmpty?relay:
   \   000000   12....       LCALL   ?BDISPATCH
   \   000003   ......       DC24    ListEmpty

   \                                 In  segment BANK_RELAYS, align 1
   \                     ??GetElem?relay:
   \   000000   12....       LCALL   ?BDISPATCH
   \   000003   ......       DC24    GetElem

   \                                 In  segment BANK_RELAYS, align 1
   \                     ??ListDelete?relay:
   \   000000   12....       LCALL   ?BDISPATCH
   \   000003   ......       DC24    ListDelete

   \                                 In  segment BANK_RELAYS, align 1
   \                     ??ListLength?relay:
   \   000000   12....       LCALL   ?BDISPATCH
   \   000003   ......       DC24    ListLength

   \                                 In  segment BANK_RELAYS, align 1
   \                     ??ClearList?relay:
   \   000000   12....       LCALL   ?BDISPATCH
   \   000003   ......       DC24    ClearList

   \                                 In  segment BANK_RELAYS, align 1
   \                     ??DestoryList?relay:
   \   000000   12....       LCALL   ?BDISPATCH
   \   000003   ......       DC24    DestoryList

   Maximum stack usage in bytes:

     Function            ISTACK PSTACK XSTACK
     --------            ------ ------ ------
     ClearList               0      0      9
       -> osal_mem_free      0      0     18
     DestoryList             0      0     10
       -> osal_mem_free      0      0     20
       -> osal_mem_free      0      0     20
     GetElem                 0      0      9
       -> ListLength         0      0     18
     InitList                0      0      9
       -> osal_mem_alloc     0      0     18
     ListDelete              1      0     11
       -> ListLength         0      0     22
       -> osal_mem_free      0      0     22
     ListEmpty               2      0      0
     ListInsert              1      0     12
       -> osal_mem_alloc     0      0     24
       -> osal_mem_alloc     0      0     24
     ListLength              2      0     11
     ListTraverse            2      0      0
     Recursion               2      0      0


   Segment part sizes:

     Function/Label       Bytes
     --------------       -----
     InitList               36
     ?Subroutine0            5
     ?Subroutine2           14
     ListInsert            148
     ?Subroutine5            4
     ??Subroutine8_0         1
     ??Subroutine9_0         6
     ??Subroutine10_0        7
     ListTraverse           30
     ?Subroutine1            7
     Recursion              25
     ?Subroutine3            5
     ?Subroutine7            1
     ??Subroutine11_0        6
     ListEmpty              16
     GetElem                28
     ListDelete             97
     ListLength             28
     ?Subroutine6           11
     ClearList              31
     ?Subroutine4           18
     DestoryList            49
     ??InitList?relay        6
     ??ListInsert?relay      6
     ??ListTraverse?relay    6
     ??Recursion?relay       6
     ??ListEmpty?relay       6
     ??GetElem?relay         6
     ??ListDelete?relay      6
     ??ListLength?relay      6
     ??ClearList?relay       6
     ??DestoryList?relay     6

 
 573 bytes in segment BANKED_CODE
  60 bytes in segment BANK_RELAYS
 
 633 bytes of CODE memory

Errors: none
Warnings: 4
