///////////////////////////////////////////////////////////////////////////////
//                                                                            /
// IAR C/C++ Compiler V8.10.3.10338/W32 for 8051        26/May/2017  16:09:55 /
// Copyright 2004-2011 IAR Systems AB.                                        /
//                                                                            /
//    Core               =  plain                                             /
//    Code model         =  banked                                            /
//    Data model         =  large                                             /
//    Calling convention =  xdata reentrant                                   /
//    Constant location  =  data_rom                                          /
//    Dptr setup         =  1,16                                              /
//    Source file        =  E:\work\smartlight\ZigLight\Projects\zstack\Sampl /
//                          es\ZigLightApp\Source\List.c                      /
//    Command line       =  -f E:\work\smartlight\ZigLight\Projects\zstack\Sa /
//                          mples\ZigLightApp\CC2530DB\..\..\..\Tools\CC2530D /
//                          B\f8wCoord.cfg (-DCPU32MHZ -DROOT=__near_func     /
//                          -DMAC_CFG_APP_PENDING_QUEUE=TRUE                  /
//                          -DMAC_CFG_TX_DATA_MAX=5 -DMAC_CFG_TX_MAX=8        /
//                          -DMAC_CFG_RX_MAX=5 -DZDO_COORDINATOR -DRTR_NWK)   /
//                          -f E:\work\smartlight\ZigLight\Projects\zstack\Sa /
//                          mples\ZigLightApp\CC2530DB\..\..\..\Tools\CC2530D /
//                          B\f8wConfig.cfg (-DZIGBEEPRO -DSECURE=0           /
//                          -DZG_SECURE_DYNAMIC=0 -DREFLECTOR                 /
//                          -DDEFAULT_CHANLIST=0x00000800                     /
//                          -DZDAPP_CONFIG_PAN_ID=0xFF00                      /
//                          -DNWK_START_DELAY=100 -DEXTENDED_JOINING_RANDOM_M /
//                          ASK=0x007F -DBEACON_REQUEST_DELAY=100             /
//                          -DBEACON_REQ_DELAY_MASK=0x00FF                    /
//                          -DLINK_STATUS_JITTER_MASK=0x007F                  /
//                          -DROUTE_EXPIRY_TIME=30 -DAPSC_ACK_WAIT_DURATION_P /
//                          OLLED=3000 -DNWK_INDIRECT_MSG_TIMEOUT=7           /
//                          -DMAX_RREQ_ENTRIES=8 -DAPSC_MAX_FRAME_RETRIES=3   /
//                          -DNWK_MAX_DATA_RETRIES=2                          /
//                          -DMAX_POLL_FAILURE_RETRIES=2 -DMAX_BCAST=9        /
//                          -DAPS_MAX_GROUPS=16 -DMAX_RTG_ENTRIES=40          /
//                          -DNWK_MAX_BINDING_ENTRIES=4                       /
//                          -DMAX_BINDING_CLUSTER_IDS=4                       /
//                          "-DDEFAULT_KEY={0x01, 0x03, 0x05, 0x07, 0x09,     /
//                          0x0B, 0x0D, 0x0F, 0x00, 0x02, 0x04, 0x06, 0x08,   /
//                          0x0A, 0x0C, 0x0D}" -DMAC_MAX_FRAME_SIZE=116       /
//                          -DZDNWKMGR_MIN_TRANSMISSIONS=20 "-DCONST=const    /
//                          __code" -DGENERIC=__generic                       /
//                          -DRFD_RCVC_ALWAYS_ON=FALSE -DPOLL_RATE=1000       /
//                          -DQUEUED_POLL_RATE=100 -DRESPONSE_POLL_RATE=100)  /
//                          -DREJOIN_POLL_RATE=440 E:\work\smartlight\ZigLigh /
//                          t\Projects\zstack\Samples\ZigLightApp\Source\List /
//                          .c -D ZTOOL_P1 -D xMT_TASK -D xMT_SYS_FUNC -D     /
//                          xMT_ZDO_FUNC -D LCD_SUPPORTED=DEBUG -D            /
//                          NV_RESTORE -lC E:\work\smartlight\ZigLight\Projec /
//                          ts\zstack\Samples\ZigLightApp\CC2530DB\Coordinato /
//                          rEB\List\ -lA E:\work\smartlight\ZigLight\Project /
//                          s\zstack\Samples\ZigLightApp\CC2530DB\Coordinator /
//                          EB\List\ --diag_suppress Pe001,Pa010 -o           /
//                          E:\work\smartlight\ZigLight\Projects\zstack\Sampl /
//                          es\ZigLightApp\CC2530DB\CoordinatorEB\Obj\ -e     /
//                          --no_code_motion --debug --core=plain             /
//                          --dptr=16,1 --data_model=large                    /
//                          --code_model=banked --calling_convention=xdata_re /
//                          entrant --place_constants=data_rom                /
//                          --nr_virtual_regs 16 -I                           /
//                          E:\work\smartlight\ZigLight\Projects\zstack\Sampl /
//                          es\ZigLightApp\CC2530DB\ -I                       /
//                          E:\work\smartlight\ZigLight\Projects\zstack\Sampl /
//                          es\ZigLightApp\CC2530DB\..\Source\ -I             /
//                          E:\work\smartlight\ZigLight\Projects\zstack\Sampl /
//                          es\ZigLightApp\CC2530DB\..\..\..\ZMain\TI2530DB\  /
//                          -I E:\work\smartlight\ZigLight\Projects\zstack\Sa /
//                          mples\ZigLightApp\CC2530DB\..\..\..\..\..\Compone /
//                          nts\hal\include\ -I E:\work\smartlight\ZigLight\P /
//                          rojects\zstack\Samples\ZigLightApp\CC2530DB\..\.. /
//                          \..\..\..\Components\hal\target\CC2530EB\ -I      /
//                          E:\work\smartlight\ZigLight\Projects\zstack\Sampl /
//                          es\ZigLightApp\CC2530DB\..\..\..\..\..\Components /
//                          \mac\include\ -I E:\work\smartlight\ZigLight\Proj /
//                          ects\zstack\Samples\ZigLightApp\CC2530DB\..\..\.. /
//                          \..\..\Components\mac\high_level\ -I              /
//                          E:\work\smartlight\ZigLight\Projects\zstack\Sampl /
//                          es\ZigLightApp\CC2530DB\..\..\..\..\..\Components /
//                          \mac\low_level\srf04\ -I                          /
//                          E:\work\smartlight\ZigLight\Projects\zstack\Sampl /
//                          es\ZigLightApp\CC2530DB\..\..\..\..\..\Components /
//                          \mac\low_level\srf04\single_chip\ -I              /
//                          E:\work\smartlight\ZigLight\Projects\zstack\Sampl /
//                          es\ZigLightApp\CC2530DB\..\..\..\..\..\Components /
//                          \mt\ -I E:\work\smartlight\ZigLight\Projects\zsta /
//                          ck\Samples\ZigLightApp\CC2530DB\..\..\..\..\..\Co /
//                          mponents\osal\include\ -I                         /
//                          E:\work\smartlight\ZigLight\Projects\zstack\Sampl /
//                          es\ZigLightApp\CC2530DB\..\..\..\..\..\Components /
//                          \services\saddr\ -I E:\work\smartlight\ZigLight\P /
//                          rojects\zstack\Samples\ZigLightApp\CC2530DB\..\.. /
//                          \..\..\..\Components\services\sdata\ -I           /
//                          E:\work\smartlight\ZigLight\Projects\zstack\Sampl /
//                          es\ZigLightApp\CC2530DB\..\..\..\..\..\Components /
//                          \stack\af\ -I E:\work\smartlight\ZigLight\Project /
//                          s\zstack\Samples\ZigLightApp\CC2530DB\..\..\..\.. /
//                          \..\Components\stack\nwk\ -I                      /
//                          E:\work\smartlight\ZigLight\Projects\zstack\Sampl /
//                          es\ZigLightApp\CC2530DB\..\..\..\..\..\Components /
//                          \stack\sapi\ -I E:\work\smartlight\ZigLight\Proje /
//                          cts\zstack\Samples\ZigLightApp\CC2530DB\..\..\..\ /
//                          ..\..\Components\stack\sec\ -I                    /
//                          E:\work\smartlight\ZigLight\Projects\zstack\Sampl /
//                          es\ZigLightApp\CC2530DB\..\..\..\..\..\Components /
//                          \stack\sys\ -I E:\work\smartlight\ZigLight\Projec /
//                          ts\zstack\Samples\ZigLightApp\CC2530DB\..\..\..\. /
//                          .\..\Components\stack\zdo\ -I                     /
//                          E:\work\smartlight\ZigLight\Projects\zstack\Sampl /
//                          es\ZigLightApp\CC2530DB\..\..\..\..\..\Components /
//                          \zmac\ -I E:\work\smartlight\ZigLight\Projects\zs /
//                          tack\Samples\ZigLightApp\CC2530DB\..\..\..\..\..\ /
//                          Components\zmac\f8w\ -Ohz --require_prototypes    /
//    List file          =  E:\work\smartlight\ZigLight\Projects\zstack\Sampl /
//                          es\ZigLightApp\CC2530DB\CoordinatorEB\List\List.s /
//                          51                                                /
//                                                                            /
//                                                                            /
///////////////////////////////////////////////////////////////////////////////

        NAME List

        RTMODEL "__SystemLibrary", "CLib"
        RTMODEL "__calling_convention", "xdata_reentrant"
        RTMODEL "__code_model", "banked"
        RTMODEL "__core", "plain"
        RTMODEL "__data_model", "large"
        RTMODEL "__dptr_size", "16"
        RTMODEL "__extended_stack", "disabled"
        RTMODEL "__location_for_constants", "data"
        RTMODEL "__number_of_dptrs", "1"
        RTMODEL "__rt_version", "1"

        RSEG DOVERLAY:DATA:NOROOT(0)
        RSEG IOVERLAY:IDATA:NOROOT(0)
        RSEG ISTACK:IDATA:NOROOT(0)
        RSEG PSTACK:XDATA:NOROOT(0)
        RSEG XSTACK:XDATA:NOROOT(0)

        EXTERN ?BANKED_ENTER_XDATA
        EXTERN ?BANKED_LEAVE_XDATA
        EXTERN ?BDISPATCH
        EXTERN ?BRET
        EXTERN ?V0

        PUBLIC ??ClearList?relay
        FUNCTION ??ClearList?relay,0203H
        PUBLIC ??DestoryList?relay
        FUNCTION ??DestoryList?relay,0203H
        PUBLIC ??GetElem?relay
        FUNCTION ??GetElem?relay,0203H
        PUBLIC ??InitList?relay
        FUNCTION ??InitList?relay,0203H
        PUBLIC ??ListDelete?relay
        FUNCTION ??ListDelete?relay,0203H
        PUBLIC ??ListEmpty?relay
        FUNCTION ??ListEmpty?relay,0203H
        PUBLIC ??ListInsert?relay
        FUNCTION ??ListInsert?relay,0203H
        PUBLIC ??ListLength?relay
        FUNCTION ??ListLength?relay,0203H
        PUBLIC ??ListTraverse?relay
        FUNCTION ??ListTraverse?relay,0203H
        PUBLIC ??Recursion?relay
        FUNCTION ??Recursion?relay,0203H
        PUBLIC ClearList
        FUNCTION ClearList,021203H
        ARGFRAME XSTACK, 0, STACK
        LOCFRAME XSTACK, 9, STACK
        PUBLIC DestoryList
        FUNCTION DestoryList,021203H
        ARGFRAME XSTACK, 0, STACK
        LOCFRAME XSTACK, 10, STACK
        PUBLIC GetElem
        FUNCTION GetElem,021203H
        ARGFRAME XSTACK, 0, STACK
        LOCFRAME XSTACK, 9, STACK
        PUBLIC InitList
        FUNCTION InitList,021203H
        ARGFRAME XSTACK, 0, STACK
        LOCFRAME XSTACK, 9, STACK
        PUBLIC ListDelete
        FUNCTION ListDelete,021203H
        ARGFRAME XSTACK, 0, STACK
        LOCFRAME ISTACK, 1, STACK
        LOCFRAME XSTACK, 11, STACK
        PUBLIC ListEmpty
        FUNCTION ListEmpty,0203H
        ARGFRAME XSTACK, 0, STACK
        LOCFRAME ISTACK, 2, STACK
        PUBLIC ListInsert
        FUNCTION ListInsert,021203H
        ARGFRAME XSTACK, 0, STACK
        LOCFRAME ISTACK, 1, STACK
        LOCFRAME XSTACK, 12, STACK
        PUBLIC ListLength
        FUNCTION ListLength,0203H
        ARGFRAME XSTACK, 11, STACK
        ARGFRAME IOVERLAY, 0, STATIC
        ARGFRAME DOVERLAY, 0, STATIC
        LOCFRAME ISTACK, 2, STACK
        PUBLIC ListTraverse
        FUNCTION ListTraverse,0203H
        ARGFRAME XSTACK, 0, STACK
        LOCFRAME ISTACK, 2, STACK
        PUBLIC Recursion
        FUNCTION Recursion,0203H
        ARGFRAME XSTACK, 0, STACK
        LOCFRAME ISTACK, 2, STACK
        
        CFI Names cfiNames0
        CFI StackFrame CFA_SP SP IDATA
        CFI StackFrame CFA_PSP16 PSP16 XDATA
        CFI StackFrame CFA_XSP16 XSP16 XDATA
        CFI StaticOverlayFrame CFA_IOVERLAY IOVERLAY
        CFI StaticOverlayFrame CFA_DOVERLAY DOVERLAY
        CFI Resource `PSW.CY`:1, `B.BR0`:1, `B.BR1`:1, `B.BR2`:1, `B.BR3`:1
        CFI Resource `B.BR4`:1, `B.BR5`:1, `B.BR6`:1, `B.BR7`:1, `VB.BR8`:1
        CFI Resource `VB.BR9`:1, `VB.BR10`:1, `VB.BR11`:1, `VB.BR12`:1
        CFI Resource `VB.BR13`:1, `VB.BR14`:1, `VB.BR15`:1, VB:8, B:8, A:8
        CFI Resource PSW:8, DPL0:8, DPH0:8, R0:8, R1:8, R2:8, R3:8, R4:8, R5:8
        CFI Resource R6:8, R7:8, V0:8, V1:8, V2:8, V3:8, V4:8, V5:8, V6:8, V7:8
        CFI Resource V8:8, V9:8, V10:8, V11:8, V12:8, V13:8, V14:8, V15:8, SP:8
        CFI Resource PSPH:8, PSPL:8, PSP16:16, XSPH:8, XSPL:8, XSP16:16
        CFI VirtualResource ?RET:24
        CFI Resource ?BRET_EXT:8
        CFI VirtualResource ?RET_HIGH:8, ?RET_LOW:8
        CFI ResourceParts PSP16 PSPH, PSPL
        CFI ResourceParts XSP16 XSPH, XSPL
        CFI ResourceParts ?RET ?BRET_EXT, ?RET_HIGH, ?RET_LOW
        CFI EndNames cfiNames0
        
        CFI Common cfiCommon0 Using cfiNames0
        CFI CodeAlign 1
        CFI DataAlign -1
        CFI ReturnAddress ?RET CODE
        CFI CFA_DOVERLAY Used
        CFI CFA_IOVERLAY Used
        CFI CFA_SP SP+-3
        CFI CFA_PSP16 PSP16+0
        CFI CFA_XSP16 XSP16+0
        CFI `PSW.CY` SameValue
        CFI `B.BR0` SameValue
        CFI `B.BR1` SameValue
        CFI `B.BR2` SameValue
        CFI `B.BR3` SameValue
        CFI `B.BR4` SameValue
        CFI `B.BR5` SameValue
        CFI `B.BR6` SameValue
        CFI `B.BR7` SameValue
        CFI `VB.BR8` SameValue
        CFI `VB.BR9` SameValue
        CFI `VB.BR10` SameValue
        CFI `VB.BR11` SameValue
        CFI `VB.BR12` SameValue
        CFI `VB.BR13` SameValue
        CFI `VB.BR14` SameValue
        CFI `VB.BR15` SameValue
        CFI VB SameValue
        CFI B Undefined
        CFI A Undefined
        CFI PSW SameValue
        CFI DPL0 SameValue
        CFI DPH0 SameValue
        CFI R0 Undefined
        CFI R1 Undefined
        CFI R2 Undefined
        CFI R3 Undefined
        CFI R4 Undefined
        CFI R5 Undefined
        CFI R6 SameValue
        CFI R7 SameValue
        CFI V0 SameValue
        CFI V1 SameValue
        CFI V2 SameValue
        CFI V3 SameValue
        CFI V4 SameValue
        CFI V5 SameValue
        CFI V6 SameValue
        CFI V7 SameValue
        CFI V8 SameValue
        CFI V9 SameValue
        CFI V10 SameValue
        CFI V11 SameValue
        CFI V12 SameValue
        CFI V13 SameValue
        CFI V14 SameValue
        CFI V15 SameValue
        CFI PSPH Undefined
        CFI PSPL Undefined
        CFI XSPH Undefined
        CFI XSPL Undefined
        CFI ?RET Concat
        CFI ?BRET_EXT Frame(CFA_SP, 3)
        CFI ?RET_HIGH Frame(CFA_SP, 2)
        CFI ?RET_LOW Frame(CFA_SP, 1)
        CFI EndCommon cfiCommon0
        
        
        CFI Common cfiCommon1 Using cfiNames0
        CFI CodeAlign 1
        CFI DataAlign -1
        CFI ReturnAddress ?RET CODE
        CFI CFA_DOVERLAY Used
        CFI CFA_IOVERLAY Used
        CFI CFA_SP SP+-2
        CFI CFA_PSP16 PSP16+0
        CFI CFA_XSP16 XSP16+0
        CFI `PSW.CY` SameValue
        CFI `B.BR0` SameValue
        CFI `B.BR1` SameValue
        CFI `B.BR2` SameValue
        CFI `B.BR3` SameValue
        CFI `B.BR4` SameValue
        CFI `B.BR5` SameValue
        CFI `B.BR6` SameValue
        CFI `B.BR7` SameValue
        CFI `VB.BR8` SameValue
        CFI `VB.BR9` SameValue
        CFI `VB.BR10` SameValue
        CFI `VB.BR11` SameValue
        CFI `VB.BR12` SameValue
        CFI `VB.BR13` SameValue
        CFI `VB.BR14` SameValue
        CFI `VB.BR15` SameValue
        CFI VB SameValue
        CFI B SameValue
        CFI A SameValue
        CFI PSW SameValue
        CFI DPL0 SameValue
        CFI DPH0 SameValue
        CFI R0 SameValue
        CFI R1 SameValue
        CFI R2 SameValue
        CFI R3 SameValue
        CFI R4 SameValue
        CFI R5 SameValue
        CFI R6 SameValue
        CFI R7 SameValue
        CFI V0 SameValue
        CFI V1 SameValue
        CFI V2 SameValue
        CFI V3 SameValue
        CFI V4 SameValue
        CFI V5 SameValue
        CFI V6 SameValue
        CFI V7 SameValue
        CFI V8 SameValue
        CFI V9 SameValue
        CFI V10 SameValue
        CFI V11 SameValue
        CFI V12 SameValue
        CFI V13 SameValue
        CFI V14 SameValue
        CFI V15 SameValue
        CFI PSPH Undefined
        CFI PSPL Undefined
        CFI XSPH Undefined
        CFI XSPL Undefined
        CFI ?RET Concat
        CFI ?BRET_EXT SameValue
        CFI ?RET_HIGH Frame(CFA_SP, 2)
        CFI ?RET_LOW Frame(CFA_SP, 1)
        CFI EndCommon cfiCommon1
        
osal_mem_alloc      SYMBOL "osal_mem_alloc"
osal_mem_free       SYMBOL "osal_mem_free"
??osal_mem_alloc?relay SYMBOL "?relay", osal_mem_alloc
??osal_mem_free?relay SYMBOL "?relay", osal_mem_free
ClearList           SYMBOL "ClearList"
??ClearList?relay   SYMBOL "?relay", ClearList
DestoryList         SYMBOL "DestoryList"
??DestoryList?relay SYMBOL "?relay", DestoryList
GetElem             SYMBOL "GetElem"
??GetElem?relay     SYMBOL "?relay", GetElem
InitList            SYMBOL "InitList"
??InitList?relay    SYMBOL "?relay", InitList
ListDelete          SYMBOL "ListDelete"
??ListDelete?relay  SYMBOL "?relay", ListDelete
ListEmpty           SYMBOL "ListEmpty"
??ListEmpty?relay   SYMBOL "?relay", ListEmpty
ListInsert          SYMBOL "ListInsert"
??ListInsert?relay  SYMBOL "?relay", ListInsert
ListLength          SYMBOL "ListLength"
??ListLength?relay  SYMBOL "?relay", ListLength
ListTraverse        SYMBOL "ListTraverse"
??ListTraverse?relay SYMBOL "?relay", ListTraverse
Recursion           SYMBOL "Recursion"
??Recursion?relay   SYMBOL "?relay", Recursion

        EXTERN osal_mem_alloc
        FUNCTION osal_mem_alloc,0202H
        ARGFRAME ISTACK, 0, STACK
        ARGFRAME PSTACK, 0, STACK
        ARGFRAME XSTACK, 12, STACK
        ARGFRAME IOVERLAY, 0, STATIC
        ARGFRAME DOVERLAY, 0, STATIC
        EXTERN osal_mem_free
        FUNCTION osal_mem_free,0202H
        ARGFRAME ISTACK, 0, STACK
        ARGFRAME PSTACK, 0, STACK
        ARGFRAME XSTACK, 11, STACK
        ARGFRAME IOVERLAY, 0, STATIC
        ARGFRAME DOVERLAY, 0, STATIC
        EXTERN ??osal_mem_alloc?relay
        FUNCTION ??osal_mem_alloc?relay,00H
        EXTERN ??osal_mem_free?relay
        FUNCTION ??osal_mem_free?relay,00H

// E:\work\smartlight\ZigLight\Projects\zstack\Samples\ZigLightApp\Source\List.c
//    1 
//    2 
//    3 #include "List.h"
//    4 
//    5 

        RSEG BANKED_CODE:CODE:NOROOT(0)
//    6 void InitList(LinkList *list)  
InitList:
        CFI Block cfiBlock0 Using cfiCommon0
        CFI Function InitList
        CODE
//    7 {  
        FUNCALL InitList, osal_mem_alloc
        LOCFRAME ISTACK, 0, STACK
        LOCFRAME PSTACK, 0, STACK
        LOCFRAME XSTACK, 9, STACK
        LOCFRAME IOVERLAY, 0, STATIC
        LOCFRAME DOVERLAY, 0, STATIC
        ARGFRAME ISTACK, 0, STACK
        ARGFRAME PSTACK, 0, STACK
        ARGFRAME XSTACK, 9, STACK
        ARGFRAME IOVERLAY, 0, STATIC
        ARGFRAME DOVERLAY, 0, STATIC
        MOV     A,#-0x9
        LCALL   ?BANKED_ENTER_XDATA
        CFI DPH0 load(1, XDATA, add(CFA_XSP16, literal(-1)))
        CFI DPL0 load(1, XDATA, add(CFA_XSP16, literal(-2)))
        CFI ?BRET_EXT load(1, XDATA, add(CFA_XSP16, literal(-3)))
        CFI ?RET_HIGH load(1, XDATA, add(CFA_XSP16, literal(-4)))
        CFI ?RET_LOW load(1, XDATA, add(CFA_XSP16, literal(-5)))
        CFI R7 load(1, XDATA, add(CFA_XSP16, literal(-6)))
        CFI V0 load(1, XDATA, add(CFA_XSP16, literal(-7)))
        CFI VB load(1, XDATA, add(CFA_XSP16, literal(-8)))
        CFI R6 load(1, XDATA, add(CFA_XSP16, literal(-9)))
        CFI CFA_SP SP+0
        CFI CFA_XSP16 add(XSP16, 9)
        ; Saved register size: 9
        ; Auto size: 0
        MOV     A,R2
        MOV     R6,A
        MOV     A,R3
        MOV     R7,A
//    8     *list = (LinkList)osal_mem_alloc(sizeof(Node));  
        ; Setup parameters for call to function osal_mem_alloc
        MOV     R2,#0x3
        MOV     R3,#0x0
        LCALL   ??osal_mem_alloc?relay
        MOV     DPL,R6
        MOV     DPH,R7
        MOV     A,R2
        MOVX    @DPTR,A
        INC     DPTR
        MOV     A,R3
        LCALL   ?Subroutine2 & 0xFFFF
//    9     (*list)->next = NULL;  
??CrossCallReturnLabel_0:
        INC     DPTR
        CLR     A
        MOVX    @DPTR,A
        INC     DPTR
        LCALL   ?Subroutine2 & 0xFFFF
//   10     (*list)->data = 0;  
??CrossCallReturnLabel_1:
        CLR     A
        MOVX    @DPTR,A
        CFI EndBlock cfiBlock0
//   11 }  
        REQUIRE ?Subroutine0
        ; // Fall through to label ?Subroutine0

        RSEG BANKED_CODE:CODE:NOROOT(0)
?Subroutine0:
        CFI Block cfiBlock1 Using cfiCommon0
        CFI NoFunction
        CFI CFA_SP SP+0
        CFI CFA_XSP16 add(XSP16, 9)
        CFI VB load(1, XDATA, add(CFA_XSP16, literal(-8)))
        CFI DPL0 load(1, XDATA, add(CFA_XSP16, literal(-2)))
        CFI DPH0 load(1, XDATA, add(CFA_XSP16, literal(-1)))
        CFI R6 load(1, XDATA, add(CFA_XSP16, literal(-9)))
        CFI R7 load(1, XDATA, add(CFA_XSP16, literal(-6)))
        CFI V0 load(1, XDATA, add(CFA_XSP16, literal(-7)))
        CFI ?BRET_EXT load(1, XDATA, add(CFA_XSP16, literal(-3)))
        CFI ?RET_HIGH load(1, XDATA, add(CFA_XSP16, literal(-4)))
        CFI ?RET_LOW load(1, XDATA, add(CFA_XSP16, literal(-5)))
        MOV     R7,#0x1
        LJMP    ?BANKED_LEAVE_XDATA
        CFI EndBlock cfiBlock1

        RSEG BANKED_CODE:CODE:NOROOT(0)
?Subroutine2:
        CFI Block cfiCond2 Using cfiCommon0
        CFI NoFunction
        CFI Conditional ??CrossCallReturnLabel_0
        CFI R6 load(1, XDATA, add(CFA_XSP16, literal(-9)))
        CFI VB load(1, XDATA, add(CFA_XSP16, literal(-8)))
        CFI V0 load(1, XDATA, add(CFA_XSP16, literal(-7)))
        CFI R7 load(1, XDATA, add(CFA_XSP16, literal(-6)))
        CFI ?RET_LOW load(1, XDATA, add(CFA_XSP16, literal(-5)))
        CFI ?RET_HIGH load(1, XDATA, add(CFA_XSP16, literal(-4)))
        CFI ?BRET_EXT load(1, XDATA, add(CFA_XSP16, literal(-3)))
        CFI DPL0 load(1, XDATA, add(CFA_XSP16, literal(-2)))
        CFI DPH0 load(1, XDATA, add(CFA_XSP16, literal(-1)))
        CFI CFA_SP SP+0
        CFI CFA_XSP16 add(XSP16, 9)
        CFI Block cfiCond3 Using cfiCommon0
        CFI (cfiCond3) NoFunction
        CFI (cfiCond3) Conditional ??CrossCallReturnLabel_1
        CFI (cfiCond3) R6 load(1, XDATA, add(CFA_XSP16, literal(-9)))
        CFI (cfiCond3) VB load(1, XDATA, add(CFA_XSP16, literal(-8)))
        CFI (cfiCond3) V0 load(1, XDATA, add(CFA_XSP16, literal(-7)))
        CFI (cfiCond3) R7 load(1, XDATA, add(CFA_XSP16, literal(-6)))
        CFI (cfiCond3) ?RET_LOW load(1, XDATA, add(CFA_XSP16, literal(-5)))
        CFI (cfiCond3) ?RET_HIGH load(1, XDATA, add(CFA_XSP16, literal(-4)))
        CFI (cfiCond3) ?BRET_EXT load(1, XDATA, add(CFA_XSP16, literal(-3)))
        CFI (cfiCond3) DPL0 load(1, XDATA, add(CFA_XSP16, literal(-2)))
        CFI (cfiCond3) DPH0 load(1, XDATA, add(CFA_XSP16, literal(-1)))
        CFI (cfiCond3) CFA_SP SP+0
        CFI (cfiCond3) CFA_XSP16 add(XSP16, 9)
        CFI Block cfiPicker4 Using cfiCommon1
        CFI (cfiPicker4) NoFunction
        CFI (cfiPicker4) Picker
        MOVX    @DPTR,A
        MOV     DPL,R6
        MOV     DPH,R7
        MOVX    A,@DPTR
        MOV     R0,A
        INC     DPTR
        MOVX    A,@DPTR
        MOV     DPH,A
        MOV     DPL,R0
        RET
        CFI EndBlock cfiCond2
        CFI EndBlock cfiCond3
        CFI EndBlock cfiPicker4

        RSEG BANKED_CODE:CODE:NOROOT(0)
//   12 void ListInsert(LinkList *list, uint8 i , uint8 e)//第i个元素后面插入e  
ListInsert:
        CFI Block cfiBlock5 Using cfiCommon0
        CFI Function ListInsert
        CODE
//   13 {     
        FUNCALL ListInsert, osal_mem_alloc
        LOCFRAME ISTACK, 0, STACK
        LOCFRAME PSTACK, 0, STACK
        LOCFRAME XSTACK, 12, STACK
        LOCFRAME IOVERLAY, 0, STATIC
        LOCFRAME DOVERLAY, 0, STATIC
        ARGFRAME ISTACK, 0, STACK
        ARGFRAME PSTACK, 0, STACK
        ARGFRAME XSTACK, 12, STACK
        ARGFRAME IOVERLAY, 0, STATIC
        ARGFRAME DOVERLAY, 0, STATIC
        FUNCALL ListInsert, osal_mem_alloc
        LOCFRAME ISTACK, 0, STACK
        LOCFRAME PSTACK, 0, STACK
        LOCFRAME XSTACK, 12, STACK
        LOCFRAME IOVERLAY, 0, STATIC
        LOCFRAME DOVERLAY, 0, STATIC
        ARGFRAME ISTACK, 0, STACK
        ARGFRAME PSTACK, 0, STACK
        ARGFRAME XSTACK, 12, STACK
        ARGFRAME IOVERLAY, 0, STATIC
        ARGFRAME DOVERLAY, 0, STATIC
        MOV     A,#-0xc
        LCALL   ?BANKED_ENTER_XDATA
        CFI DPH0 load(1, XDATA, add(CFA_XSP16, literal(-1)))
        CFI DPL0 load(1, XDATA, add(CFA_XSP16, literal(-2)))
        CFI ?BRET_EXT load(1, XDATA, add(CFA_XSP16, literal(-3)))
        CFI ?RET_HIGH load(1, XDATA, add(CFA_XSP16, literal(-4)))
        CFI ?RET_LOW load(1, XDATA, add(CFA_XSP16, literal(-5)))
        CFI R7 load(1, XDATA, add(CFA_XSP16, literal(-6)))
        CFI V3 load(1, XDATA, add(CFA_XSP16, literal(-7)))
        CFI V2 load(1, XDATA, add(CFA_XSP16, literal(-8)))
        CFI V1 load(1, XDATA, add(CFA_XSP16, literal(-9)))
        CFI V0 load(1, XDATA, add(CFA_XSP16, literal(-10)))
        CFI VB load(1, XDATA, add(CFA_XSP16, literal(-11)))
        CFI R6 load(1, XDATA, add(CFA_XSP16, literal(-12)))
        CFI CFA_SP SP+0
        CFI CFA_XSP16 add(XSP16, 12)
        ; Saved register size: 12
        ; Auto size: 0
        MOV     ?V0 + 0,R1
        MOV     ?V0 + 1,R4
//   14     LinkList p = *list;  
        MOV     DPL,R2
        MOV     DPH,R3
        LCALL   ??Subroutine10_0 & 0xFFFF
??CrossCallReturnLabel_14:
        MOV     R6,A
        MOV     A,R1
        MOV     R7,A
//   15       
//   16     if( i == 0)  
        MOV     A,?V0 + 0
        JNZ     ??ListInsert_0
//   17         {  
//   18             pNode q = (LinkList)osal_mem_alloc(sizeof(Node));  
        ; Setup parameters for call to function osal_mem_alloc
        MOV     R2,#0x3
        MOV     R3,#0x0
        LCALL   ??osal_mem_alloc?relay
        MOV     ?V0 + 2,R2
        MOV     ?V0 + 3,R3
        MOV     R0,?V0 + 2
        MOV     R1,?V0 + 3
//   19             q->next = NULL;  
        MOV     DPL,R0
        MOV     DPH,R1
        INC     DPTR
        CLR     A
        MOVX    @DPTR,A
        INC     DPTR
        MOVX    @DPTR,A
//   20             q->data = e;  
        MOV     DPL,R0
        MOV     DPH,R1
        MOV     A,?V0 + 1
        MOVX    @DPTR,A
//   21             p->next = q;  
        MOV     DPL,R6
        MOV     DPH,R7
        INC     DPTR
        MOV     A,R0
        MOVX    @DPTR,A
        INC     DPTR
        MOV     A,R1
        SJMP    ??ListInsert_1
//   22         }  
//   23     else  
//   24         {     
//   25             pNode p = (*list)->next;  
??ListInsert_0:
        MOV     DPL,R2
        MOV     DPH,R3
        INC     DPTR
        MOVX    A,@DPTR
        MOV     DPH,A
        MOV     DPL,R0
        LCALL   ??Subroutine8_0 & 0xFFFF
//   26             uint8 j = 1;  
??CrossCallReturnLabel_8:
        MOV     R0,#0x1
        SJMP    ??ListInsert_2
//   27   
//   28             while( p && i > j)  
//   29             {  
//   30                 p = p->next;  
??ListInsert_3:
        LCALL   ?Subroutine5 & 0xFFFF
//   31                 ++j;  
??CrossCallReturnLabel_10:
        INC     R0
//   32             }  
??ListInsert_2:
        MOV     A,R6
        ORL     A,R7
        JZ      ??ListInsert_4
        MOV     A,R0
        CLR     C
        SUBB    A,?V0 + 0
        JC      ??ListInsert_3
//   33   
//   34             pNode q = (LinkList)osal_mem_alloc(sizeof(Node));  
??ListInsert_4:
        ; Setup parameters for call to function osal_mem_alloc
        MOV     R2,#0x3
        MOV     R3,#0x0
        LCALL   ??osal_mem_alloc?relay
//   35             q->next = p->next;  
        MOV     DPL,R6
        MOV     DPH,R7
        INC     DPTR
        MOV     R0,DPL
        MOV     R1,DPH
        MOVX    A,@DPTR
        MOV     R4,A
        INC     DPTR
        MOVX    A,@DPTR
        MOV     R5,A
        MOV     DPL,R2
        MOV     DPH,R3
        INC     DPTR
        MOV     A,R4
        MOVX    @DPTR,A
        INC     DPTR
        MOV     A,R5
        MOVX    @DPTR,A
//   36             q->data = e;  
        MOV     DPL,R2
        MOV     DPH,R3
        MOV     A,?V0 + 1
        MOVX    @DPTR,A
//   37             p->next = q;  
        MOV     DPL,R0
        MOV     DPH,R1
        MOV     A,R2
        MOVX    @DPTR,A
        INC     DPTR
        MOV     A,R3
??ListInsert_1:
        MOVX    @DPTR,A
//   38         }  
//   39       
//   40 }  
        MOV     R7,#0x4
        LJMP    ?BANKED_LEAVE_XDATA
        CFI EndBlock cfiBlock5

        RSEG BANKED_CODE:CODE:NOROOT(0)
?Subroutine5:
        CFI Block cfiCond6 Using cfiCommon0
        CFI NoFunction
        CFI Conditional ??CrossCallReturnLabel_10
        CFI R6 load(1, XDATA, add(CFA_XSP16, literal(-12)))
        CFI VB load(1, XDATA, add(CFA_XSP16, literal(-11)))
        CFI V0 load(1, XDATA, add(CFA_XSP16, literal(-10)))
        CFI V1 load(1, XDATA, add(CFA_XSP16, literal(-9)))
        CFI V2 load(1, XDATA, add(CFA_XSP16, literal(-8)))
        CFI V3 load(1, XDATA, add(CFA_XSP16, literal(-7)))
        CFI R7 load(1, XDATA, add(CFA_XSP16, literal(-6)))
        CFI ?RET_LOW load(1, XDATA, add(CFA_XSP16, literal(-5)))
        CFI ?RET_HIGH load(1, XDATA, add(CFA_XSP16, literal(-4)))
        CFI ?BRET_EXT load(1, XDATA, add(CFA_XSP16, literal(-3)))
        CFI DPL0 load(1, XDATA, add(CFA_XSP16, literal(-2)))
        CFI DPH0 load(1, XDATA, add(CFA_XSP16, literal(-1)))
        CFI CFA_SP SP+0
        CFI CFA_XSP16 add(XSP16, 12)
        CFI Block cfiCond7 Using cfiCommon0
        CFI (cfiCond7) NoFunction
        CFI (cfiCond7) Conditional ??CrossCallReturnLabel_11
        CFI (cfiCond7) R6 load(1, XDATA, add(CFA_XSP16, literal(-11)))
        CFI (cfiCond7) VB load(1, XDATA, add(CFA_XSP16, literal(-10)))
        CFI (cfiCond7) V0 load(1, XDATA, add(CFA_XSP16, literal(-9)))
        CFI (cfiCond7) V1 load(1, XDATA, add(CFA_XSP16, literal(-8)))
        CFI (cfiCond7) V2 load(1, XDATA, add(CFA_XSP16, literal(-7)))
        CFI (cfiCond7) R7 load(1, XDATA, add(CFA_XSP16, literal(-6)))
        CFI (cfiCond7) ?RET_LOW load(1, XDATA, add(CFA_XSP16, literal(-5)))
        CFI (cfiCond7) ?RET_HIGH load(1, XDATA, add(CFA_XSP16, literal(-4)))
        CFI (cfiCond7) ?BRET_EXT load(1, XDATA, add(CFA_XSP16, literal(-3)))
        CFI (cfiCond7) DPL0 load(1, XDATA, add(CFA_XSP16, literal(-2)))
        CFI (cfiCond7) DPH0 load(1, XDATA, add(CFA_XSP16, literal(-1)))
        CFI (cfiCond7) CFA_SP SP+0
        CFI (cfiCond7) CFA_XSP16 add(XSP16, 11)
        CFI Block cfiCond8 Using cfiCommon0
        CFI (cfiCond8) NoFunction
        CFI (cfiCond8) Conditional ??CrossCallReturnLabel_12
        CFI (cfiCond8) R6 load(1, XDATA, add(CFA_XSP16, literal(-9)))
        CFI (cfiCond8) VB load(1, XDATA, add(CFA_XSP16, literal(-8)))
        CFI (cfiCond8) V0 load(1, XDATA, add(CFA_XSP16, literal(-7)))
        CFI (cfiCond8) R7 load(1, XDATA, add(CFA_XSP16, literal(-6)))
        CFI (cfiCond8) ?RET_LOW load(1, XDATA, add(CFA_XSP16, literal(-5)))
        CFI (cfiCond8) ?RET_HIGH load(1, XDATA, add(CFA_XSP16, literal(-4)))
        CFI (cfiCond8) ?BRET_EXT load(1, XDATA, add(CFA_XSP16, literal(-3)))
        CFI (cfiCond8) DPL0 load(1, XDATA, add(CFA_XSP16, literal(-2)))
        CFI (cfiCond8) DPH0 load(1, XDATA, add(CFA_XSP16, literal(-1)))
        CFI (cfiCond8) CFA_SP SP+0
        CFI (cfiCond8) CFA_XSP16 add(XSP16, 9)
        CFI Block cfiCond9 Using cfiCommon0
        CFI (cfiCond9) NoFunction
        CFI (cfiCond9) Conditional ??CrossCallReturnLabel_13
        CFI (cfiCond9) R6 load(1, XDATA, add(CFA_XSP16, literal(-10)))
        CFI (cfiCond9) VB load(1, XDATA, add(CFA_XSP16, literal(-9)))
        CFI (cfiCond9) V0 load(1, XDATA, add(CFA_XSP16, literal(-8)))
        CFI (cfiCond9) V1 load(1, XDATA, add(CFA_XSP16, literal(-7)))
        CFI (cfiCond9) R7 load(1, XDATA, add(CFA_XSP16, literal(-6)))
        CFI (cfiCond9) ?RET_LOW load(1, XDATA, add(CFA_XSP16, literal(-5)))
        CFI (cfiCond9) ?RET_HIGH load(1, XDATA, add(CFA_XSP16, literal(-4)))
        CFI (cfiCond9) ?BRET_EXT load(1, XDATA, add(CFA_XSP16, literal(-3)))
        CFI (cfiCond9) DPL0 load(1, XDATA, add(CFA_XSP16, literal(-2)))
        CFI (cfiCond9) DPH0 load(1, XDATA, add(CFA_XSP16, literal(-1)))
        CFI (cfiCond9) CFA_SP SP+0
        CFI (cfiCond9) CFA_XSP16 add(XSP16, 10)
        CFI Block cfiPicker10 Using cfiCommon1
        CFI (cfiPicker10) NoFunction
        CFI (cfiPicker10) Picker
        MOV     DPL,R6
        MOV     DPH,R7
        CFI EndBlock cfiCond6
        CFI EndBlock cfiCond7
        CFI EndBlock cfiCond8
        CFI EndBlock cfiCond9
        CFI EndBlock cfiPicker10
        REQUIRE ??Subroutine8_0
        ; // Fall through to label ??Subroutine8_0

        RSEG BANKED_CODE:CODE:NOROOT(0)
??Subroutine8_0:
        CFI Block cfiCond11 Using cfiCommon0
        CFI NoFunction
        CFI Conditional ??CrossCallReturnLabel_8
        CFI R6 load(1, XDATA, add(CFA_XSP16, literal(-12)))
        CFI VB load(1, XDATA, add(CFA_XSP16, literal(-11)))
        CFI V0 load(1, XDATA, add(CFA_XSP16, literal(-10)))
        CFI V1 load(1, XDATA, add(CFA_XSP16, literal(-9)))
        CFI V2 load(1, XDATA, add(CFA_XSP16, literal(-8)))
        CFI V3 load(1, XDATA, add(CFA_XSP16, literal(-7)))
        CFI R7 load(1, XDATA, add(CFA_XSP16, literal(-6)))
        CFI ?RET_LOW load(1, XDATA, add(CFA_XSP16, literal(-5)))
        CFI ?RET_HIGH load(1, XDATA, add(CFA_XSP16, literal(-4)))
        CFI ?BRET_EXT load(1, XDATA, add(CFA_XSP16, literal(-3)))
        CFI DPL0 load(1, XDATA, add(CFA_XSP16, literal(-2)))
        CFI DPH0 load(1, XDATA, add(CFA_XSP16, literal(-1)))
        CFI CFA_SP SP+0
        CFI CFA_XSP16 add(XSP16, 12)
        CFI Block cfiCond12 Using cfiCommon0
        CFI (cfiCond12) NoFunction
        CFI (cfiCond12) Conditional ??CrossCallReturnLabel_9
        CFI (cfiCond12) R6 load(1, XDATA, add(CFA_XSP16, literal(-11)))
        CFI (cfiCond12) VB load(1, XDATA, add(CFA_XSP16, literal(-10)))
        CFI (cfiCond12) V0 load(1, XDATA, add(CFA_XSP16, literal(-9)))
        CFI (cfiCond12) V1 load(1, XDATA, add(CFA_XSP16, literal(-8)))
        CFI (cfiCond12) V2 load(1, XDATA, add(CFA_XSP16, literal(-7)))
        CFI (cfiCond12) R7 load(1, XDATA, add(CFA_XSP16, literal(-6)))
        CFI (cfiCond12) ?RET_LOW load(1, XDATA, add(CFA_XSP16, literal(-5)))
        CFI (cfiCond12) ?RET_HIGH load(1, XDATA, add(CFA_XSP16, literal(-4)))
        CFI (cfiCond12) ?BRET_EXT load(1, XDATA, add(CFA_XSP16, literal(-3)))
        CFI (cfiCond12) DPL0 load(1, XDATA, add(CFA_XSP16, literal(-2)))
        CFI (cfiCond12) DPH0 load(1, XDATA, add(CFA_XSP16, literal(-1)))
        CFI (cfiCond12) CFA_SP SP+0
        CFI (cfiCond12) CFA_XSP16 add(XSP16, 11)
        CFI Block cfiCond13 Using cfiCommon0
        CFI (cfiCond13) NoFunction
        CFI (cfiCond13) Conditional ??CrossCallReturnLabel_10
        CFI (cfiCond13) R6 load(1, XDATA, add(CFA_XSP16, literal(-12)))
        CFI (cfiCond13) VB load(1, XDATA, add(CFA_XSP16, literal(-11)))
        CFI (cfiCond13) V0 load(1, XDATA, add(CFA_XSP16, literal(-10)))
        CFI (cfiCond13) V1 load(1, XDATA, add(CFA_XSP16, literal(-9)))
        CFI (cfiCond13) V2 load(1, XDATA, add(CFA_XSP16, literal(-8)))
        CFI (cfiCond13) V3 load(1, XDATA, add(CFA_XSP16, literal(-7)))
        CFI (cfiCond13) R7 load(1, XDATA, add(CFA_XSP16, literal(-6)))
        CFI (cfiCond13) ?RET_LOW load(1, XDATA, add(CFA_XSP16, literal(-5)))
        CFI (cfiCond13) ?RET_HIGH load(1, XDATA, add(CFA_XSP16, literal(-4)))
        CFI (cfiCond13) ?BRET_EXT load(1, XDATA, add(CFA_XSP16, literal(-3)))
        CFI (cfiCond13) DPL0 load(1, XDATA, add(CFA_XSP16, literal(-2)))
        CFI (cfiCond13) DPH0 load(1, XDATA, add(CFA_XSP16, literal(-1)))
        CFI (cfiCond13) CFA_SP SP+0
        CFI (cfiCond13) CFA_XSP16 add(XSP16, 12)
        CFI Block cfiCond14 Using cfiCommon0
        CFI (cfiCond14) NoFunction
        CFI (cfiCond14) Conditional ??CrossCallReturnLabel_11
        CFI (cfiCond14) R6 load(1, XDATA, add(CFA_XSP16, literal(-11)))
        CFI (cfiCond14) VB load(1, XDATA, add(CFA_XSP16, literal(-10)))
        CFI (cfiCond14) V0 load(1, XDATA, add(CFA_XSP16, literal(-9)))
        CFI (cfiCond14) V1 load(1, XDATA, add(CFA_XSP16, literal(-8)))
        CFI (cfiCond14) V2 load(1, XDATA, add(CFA_XSP16, literal(-7)))
        CFI (cfiCond14) R7 load(1, XDATA, add(CFA_XSP16, literal(-6)))
        CFI (cfiCond14) ?RET_LOW load(1, XDATA, add(CFA_XSP16, literal(-5)))
        CFI (cfiCond14) ?RET_HIGH load(1, XDATA, add(CFA_XSP16, literal(-4)))
        CFI (cfiCond14) ?BRET_EXT load(1, XDATA, add(CFA_XSP16, literal(-3)))
        CFI (cfiCond14) DPL0 load(1, XDATA, add(CFA_XSP16, literal(-2)))
        CFI (cfiCond14) DPH0 load(1, XDATA, add(CFA_XSP16, literal(-1)))
        CFI (cfiCond14) CFA_SP SP+0
        CFI (cfiCond14) CFA_XSP16 add(XSP16, 11)
        CFI Block cfiCond15 Using cfiCommon0
        CFI (cfiCond15) NoFunction
        CFI (cfiCond15) Conditional ??CrossCallReturnLabel_12
        CFI (cfiCond15) R6 load(1, XDATA, add(CFA_XSP16, literal(-9)))
        CFI (cfiCond15) VB load(1, XDATA, add(CFA_XSP16, literal(-8)))
        CFI (cfiCond15) V0 load(1, XDATA, add(CFA_XSP16, literal(-7)))
        CFI (cfiCond15) R7 load(1, XDATA, add(CFA_XSP16, literal(-6)))
        CFI (cfiCond15) ?RET_LOW load(1, XDATA, add(CFA_XSP16, literal(-5)))
        CFI (cfiCond15) ?RET_HIGH load(1, XDATA, add(CFA_XSP16, literal(-4)))
        CFI (cfiCond15) ?BRET_EXT load(1, XDATA, add(CFA_XSP16, literal(-3)))
        CFI (cfiCond15) DPL0 load(1, XDATA, add(CFA_XSP16, literal(-2)))
        CFI (cfiCond15) DPH0 load(1, XDATA, add(CFA_XSP16, literal(-1)))
        CFI (cfiCond15) CFA_SP SP+0
        CFI (cfiCond15) CFA_XSP16 add(XSP16, 9)
        CFI Block cfiCond16 Using cfiCommon0
        CFI (cfiCond16) NoFunction
        CFI (cfiCond16) Conditional ??CrossCallReturnLabel_13
        CFI (cfiCond16) R6 load(1, XDATA, add(CFA_XSP16, literal(-10)))
        CFI (cfiCond16) VB load(1, XDATA, add(CFA_XSP16, literal(-9)))
        CFI (cfiCond16) V0 load(1, XDATA, add(CFA_XSP16, literal(-8)))
        CFI (cfiCond16) V1 load(1, XDATA, add(CFA_XSP16, literal(-7)))
        CFI (cfiCond16) R7 load(1, XDATA, add(CFA_XSP16, literal(-6)))
        CFI (cfiCond16) ?RET_LOW load(1, XDATA, add(CFA_XSP16, literal(-5)))
        CFI (cfiCond16) ?RET_HIGH load(1, XDATA, add(CFA_XSP16, literal(-4)))
        CFI (cfiCond16) ?BRET_EXT load(1, XDATA, add(CFA_XSP16, literal(-3)))
        CFI (cfiCond16) DPL0 load(1, XDATA, add(CFA_XSP16, literal(-2)))
        CFI (cfiCond16) DPH0 load(1, XDATA, add(CFA_XSP16, literal(-1)))
        CFI (cfiCond16) CFA_SP SP+0
        CFI (cfiCond16) CFA_XSP16 add(XSP16, 10)
        CFI Block cfiPicker17 Using cfiCommon1
        CFI (cfiPicker17) NoFunction
        CFI (cfiPicker17) Picker
        INC     DPTR
        CFI EndBlock cfiCond11
        CFI EndBlock cfiCond12
        CFI EndBlock cfiCond13
        CFI EndBlock cfiCond14
        CFI EndBlock cfiCond15
        CFI EndBlock cfiCond16
        CFI EndBlock cfiPicker17
        REQUIRE ??Subroutine9_0
        ; // Fall through to label ??Subroutine9_0

        RSEG BANKED_CODE:CODE:NOROOT(0)
??Subroutine9_0:
        CFI Block cfiCond18 Using cfiCommon0
        CFI NoFunction
        CFI Conditional ??CrossCallReturnLabel_6
        CFI R6 load(1, XDATA, add(CFA_XSP16, literal(-9)))
        CFI VB load(1, XDATA, add(CFA_XSP16, literal(-8)))
        CFI V0 load(1, XDATA, add(CFA_XSP16, literal(-7)))
        CFI R7 load(1, XDATA, add(CFA_XSP16, literal(-6)))
        CFI ?RET_LOW load(1, XDATA, add(CFA_XSP16, literal(-5)))
        CFI ?RET_HIGH load(1, XDATA, add(CFA_XSP16, literal(-4)))
        CFI ?BRET_EXT load(1, XDATA, add(CFA_XSP16, literal(-3)))
        CFI DPL0 load(1, XDATA, add(CFA_XSP16, literal(-2)))
        CFI DPH0 load(1, XDATA, add(CFA_XSP16, literal(-1)))
        CFI CFA_SP SP+0
        CFI CFA_XSP16 add(XSP16, 9)
        CFI Block cfiCond19 Using cfiCommon0
        CFI (cfiCond19) NoFunction
        CFI (cfiCond19) Conditional ??CrossCallReturnLabel_7
        CFI (cfiCond19) R6 load(1, XDATA, add(CFA_XSP16, literal(-10)))
        CFI (cfiCond19) VB load(1, XDATA, add(CFA_XSP16, literal(-9)))
        CFI (cfiCond19) V0 load(1, XDATA, add(CFA_XSP16, literal(-8)))
        CFI (cfiCond19) V1 load(1, XDATA, add(CFA_XSP16, literal(-7)))
        CFI (cfiCond19) R7 load(1, XDATA, add(CFA_XSP16, literal(-6)))
        CFI (cfiCond19) ?RET_LOW load(1, XDATA, add(CFA_XSP16, literal(-5)))
        CFI (cfiCond19) ?RET_HIGH load(1, XDATA, add(CFA_XSP16, literal(-4)))
        CFI (cfiCond19) ?BRET_EXT load(1, XDATA, add(CFA_XSP16, literal(-3)))
        CFI (cfiCond19) DPL0 load(1, XDATA, add(CFA_XSP16, literal(-2)))
        CFI (cfiCond19) DPH0 load(1, XDATA, add(CFA_XSP16, literal(-1)))
        CFI (cfiCond19) CFA_SP SP+0
        CFI (cfiCond19) CFA_XSP16 add(XSP16, 10)
        CFI Block cfiCond20 Using cfiCommon0
        CFI (cfiCond20) NoFunction
        CFI (cfiCond20) Conditional ??CrossCallReturnLabel_8
        CFI (cfiCond20) R6 load(1, XDATA, add(CFA_XSP16, literal(-12)))
        CFI (cfiCond20) VB load(1, XDATA, add(CFA_XSP16, literal(-11)))
        CFI (cfiCond20) V0 load(1, XDATA, add(CFA_XSP16, literal(-10)))
        CFI (cfiCond20) V1 load(1, XDATA, add(CFA_XSP16, literal(-9)))
        CFI (cfiCond20) V2 load(1, XDATA, add(CFA_XSP16, literal(-8)))
        CFI (cfiCond20) V3 load(1, XDATA, add(CFA_XSP16, literal(-7)))
        CFI (cfiCond20) R7 load(1, XDATA, add(CFA_XSP16, literal(-6)))
        CFI (cfiCond20) ?RET_LOW load(1, XDATA, add(CFA_XSP16, literal(-5)))
        CFI (cfiCond20) ?RET_HIGH load(1, XDATA, add(CFA_XSP16, literal(-4)))
        CFI (cfiCond20) ?BRET_EXT load(1, XDATA, add(CFA_XSP16, literal(-3)))
        CFI (cfiCond20) DPL0 load(1, XDATA, add(CFA_XSP16, literal(-2)))
        CFI (cfiCond20) DPH0 load(1, XDATA, add(CFA_XSP16, literal(-1)))
        CFI (cfiCond20) CFA_SP SP+0
        CFI (cfiCond20) CFA_XSP16 add(XSP16, 12)
        CFI Block cfiCond21 Using cfiCommon0
        CFI (cfiCond21) NoFunction
        CFI (cfiCond21) Conditional ??CrossCallReturnLabel_9
        CFI (cfiCond21) R6 load(1, XDATA, add(CFA_XSP16, literal(-11)))
        CFI (cfiCond21) VB load(1, XDATA, add(CFA_XSP16, literal(-10)))
        CFI (cfiCond21) V0 load(1, XDATA, add(CFA_XSP16, literal(-9)))
        CFI (cfiCond21) V1 load(1, XDATA, add(CFA_XSP16, literal(-8)))
        CFI (cfiCond21) V2 load(1, XDATA, add(CFA_XSP16, literal(-7)))
        CFI (cfiCond21) R7 load(1, XDATA, add(CFA_XSP16, literal(-6)))
        CFI (cfiCond21) ?RET_LOW load(1, XDATA, add(CFA_XSP16, literal(-5)))
        CFI (cfiCond21) ?RET_HIGH load(1, XDATA, add(CFA_XSP16, literal(-4)))
        CFI (cfiCond21) ?BRET_EXT load(1, XDATA, add(CFA_XSP16, literal(-3)))
        CFI (cfiCond21) DPL0 load(1, XDATA, add(CFA_XSP16, literal(-2)))
        CFI (cfiCond21) DPH0 load(1, XDATA, add(CFA_XSP16, literal(-1)))
        CFI (cfiCond21) CFA_SP SP+0
        CFI (cfiCond21) CFA_XSP16 add(XSP16, 11)
        CFI Block cfiCond22 Using cfiCommon0
        CFI (cfiCond22) NoFunction
        CFI (cfiCond22) Conditional ??CrossCallReturnLabel_10
        CFI (cfiCond22) R6 load(1, XDATA, add(CFA_XSP16, literal(-12)))
        CFI (cfiCond22) VB load(1, XDATA, add(CFA_XSP16, literal(-11)))
        CFI (cfiCond22) V0 load(1, XDATA, add(CFA_XSP16, literal(-10)))
        CFI (cfiCond22) V1 load(1, XDATA, add(CFA_XSP16, literal(-9)))
        CFI (cfiCond22) V2 load(1, XDATA, add(CFA_XSP16, literal(-8)))
        CFI (cfiCond22) V3 load(1, XDATA, add(CFA_XSP16, literal(-7)))
        CFI (cfiCond22) R7 load(1, XDATA, add(CFA_XSP16, literal(-6)))
        CFI (cfiCond22) ?RET_LOW load(1, XDATA, add(CFA_XSP16, literal(-5)))
        CFI (cfiCond22) ?RET_HIGH load(1, XDATA, add(CFA_XSP16, literal(-4)))
        CFI (cfiCond22) ?BRET_EXT load(1, XDATA, add(CFA_XSP16, literal(-3)))
        CFI (cfiCond22) DPL0 load(1, XDATA, add(CFA_XSP16, literal(-2)))
        CFI (cfiCond22) DPH0 load(1, XDATA, add(CFA_XSP16, literal(-1)))
        CFI (cfiCond22) CFA_SP SP+0
        CFI (cfiCond22) CFA_XSP16 add(XSP16, 12)
        CFI Block cfiCond23 Using cfiCommon0
        CFI (cfiCond23) NoFunction
        CFI (cfiCond23) Conditional ??CrossCallReturnLabel_11
        CFI (cfiCond23) R6 load(1, XDATA, add(CFA_XSP16, literal(-11)))
        CFI (cfiCond23) VB load(1, XDATA, add(CFA_XSP16, literal(-10)))
        CFI (cfiCond23) V0 load(1, XDATA, add(CFA_XSP16, literal(-9)))
        CFI (cfiCond23) V1 load(1, XDATA, add(CFA_XSP16, literal(-8)))
        CFI (cfiCond23) V2 load(1, XDATA, add(CFA_XSP16, literal(-7)))
        CFI (cfiCond23) R7 load(1, XDATA, add(CFA_XSP16, literal(-6)))
        CFI (cfiCond23) ?RET_LOW load(1, XDATA, add(CFA_XSP16, literal(-5)))
        CFI (cfiCond23) ?RET_HIGH load(1, XDATA, add(CFA_XSP16, literal(-4)))
        CFI (cfiCond23) ?BRET_EXT load(1, XDATA, add(CFA_XSP16, literal(-3)))
        CFI (cfiCond23) DPL0 load(1, XDATA, add(CFA_XSP16, literal(-2)))
        CFI (cfiCond23) DPH0 load(1, XDATA, add(CFA_XSP16, literal(-1)))
        CFI (cfiCond23) CFA_SP SP+0
        CFI (cfiCond23) CFA_XSP16 add(XSP16, 11)
        CFI Block cfiCond24 Using cfiCommon0
        CFI (cfiCond24) NoFunction
        CFI (cfiCond24) Conditional ??CrossCallReturnLabel_12
        CFI (cfiCond24) R6 load(1, XDATA, add(CFA_XSP16, literal(-9)))
        CFI (cfiCond24) VB load(1, XDATA, add(CFA_XSP16, literal(-8)))
        CFI (cfiCond24) V0 load(1, XDATA, add(CFA_XSP16, literal(-7)))
        CFI (cfiCond24) R7 load(1, XDATA, add(CFA_XSP16, literal(-6)))
        CFI (cfiCond24) ?RET_LOW load(1, XDATA, add(CFA_XSP16, literal(-5)))
        CFI (cfiCond24) ?RET_HIGH load(1, XDATA, add(CFA_XSP16, literal(-4)))
        CFI (cfiCond24) ?BRET_EXT load(1, XDATA, add(CFA_XSP16, literal(-3)))
        CFI (cfiCond24) DPL0 load(1, XDATA, add(CFA_XSP16, literal(-2)))
        CFI (cfiCond24) DPH0 load(1, XDATA, add(CFA_XSP16, literal(-1)))
        CFI (cfiCond24) CFA_SP SP+0
        CFI (cfiCond24) CFA_XSP16 add(XSP16, 9)
        CFI Block cfiCond25 Using cfiCommon0
        CFI (cfiCond25) NoFunction
        CFI (cfiCond25) Conditional ??CrossCallReturnLabel_13
        CFI (cfiCond25) R6 load(1, XDATA, add(CFA_XSP16, literal(-10)))
        CFI (cfiCond25) VB load(1, XDATA, add(CFA_XSP16, literal(-9)))
        CFI (cfiCond25) V0 load(1, XDATA, add(CFA_XSP16, literal(-8)))
        CFI (cfiCond25) V1 load(1, XDATA, add(CFA_XSP16, literal(-7)))
        CFI (cfiCond25) R7 load(1, XDATA, add(CFA_XSP16, literal(-6)))
        CFI (cfiCond25) ?RET_LOW load(1, XDATA, add(CFA_XSP16, literal(-5)))
        CFI (cfiCond25) ?RET_HIGH load(1, XDATA, add(CFA_XSP16, literal(-4)))
        CFI (cfiCond25) ?BRET_EXT load(1, XDATA, add(CFA_XSP16, literal(-3)))
        CFI (cfiCond25) DPL0 load(1, XDATA, add(CFA_XSP16, literal(-2)))
        CFI (cfiCond25) DPH0 load(1, XDATA, add(CFA_XSP16, literal(-1)))
        CFI (cfiCond25) CFA_SP SP+0
        CFI (cfiCond25) CFA_XSP16 add(XSP16, 10)
        CFI Block cfiPicker26 Using cfiCommon1
        CFI (cfiPicker26) NoFunction
        CFI (cfiPicker26) Picker
        MOVX    A,@DPTR
        MOV     R6,A
        INC     DPTR
        MOVX    A,@DPTR
        MOV     R7,A
        RET
        CFI EndBlock cfiCond18
        CFI EndBlock cfiCond19
        CFI EndBlock cfiCond20
        CFI EndBlock cfiCond21
        CFI EndBlock cfiCond22
        CFI EndBlock cfiCond23
        CFI EndBlock cfiCond24
        CFI EndBlock cfiCond25
        CFI EndBlock cfiPicker26
//   41 

        RSEG BANKED_CODE:CODE:NOROOT(0)
//   42 void ListTraverse(LinkList list)  
ListTraverse:
        CFI Block cfiBlock27 Using cfiCommon0
        CFI Function ListTraverse
        CODE
//   43 {  
        PUSH    DPL
        CFI DPL0 Frame(CFA_SP, 4)
        CFI CFA_SP SP+-4
        PUSH    DPH
        CFI DPH0 Frame(CFA_SP, 5)
        CFI CFA_SP SP+-5
        ; Saved register size: 2
        ; Auto size: 0
//   44     pNode p = list;  
//   45     if(p != NULL)  
        MOV     A,R2
        ORL     A,R3
        JZ      ??ListTraverse_0
//   46     {  
//   47       p = p->next;  
        MOV     DPL,R2
        MOV     DPH,R3
//   48       }  
//   49     else  
//   50       {  
//   51         return;
//   52       }
//   53         while(p)  
//   54     {  
//   55 //        pruint8f("%d\t", p->data);  
//   56         p = p->next;  
??ListTraverse_1:
        INC     DPTR
        MOVX    A,@DPTR
        MOV     R0,A
        INC     DPTR
        MOVX    A,@DPTR
        MOV     R1,A
        MOV     DPL,R0
        MOV     DPH,R1
//   57     }  
        MOV     A,DPL
        ORL     A,DPH
        JNZ     ??ListTraverse_1
??ListTraverse_0:
        SJMP    ?Subroutine1
        CFI EndBlock cfiBlock27
//   58 }  

        RSEG BANKED_CODE:CODE:NOROOT(0)
//   59 void Recursion(LinkList list)//递归的方法逆序输出链表  
Recursion:
        CFI Block cfiBlock28 Using cfiCommon0
        CFI Function Recursion
        CODE
//   60 {   
        PUSH    DPL
        CFI DPL0 Frame(CFA_SP, 4)
        CFI CFA_SP SP+-4
        PUSH    DPH
        CFI DPH0 Frame(CFA_SP, 5)
        CFI CFA_SP SP+-5
        ; Saved register size: 2
        ; Auto size: 0
//   61     if(NULL==list)  
        MOV     A,R2
        ORL     A,R3
        JNZ     ??CrossCallReturnLabel_19
        SJMP    ??Recursion_0
//   62     {   
//   63         return;  
//   64     }   
//   65     if(list->next!=NULL)  
//   66     {  
//   67      Recursion(list->next);  
??Recursion_1:
        MOV     DPL,R2
        MOV     DPH,R3
        LCALL   ?Subroutine7 & 0xFFFF
//   68      }  
??CrossCallReturnLabel_19:
        LCALL   ?Subroutine3 & 0xFFFF
??CrossCallReturnLabel_15:
        ORL     A,R1
        JNZ     ??Recursion_1
??Recursion_0:
        SJMP    ?Subroutine1
        CFI EndBlock cfiBlock28
//   69 //    pruint8f("%d\t",list->data);  
//   70 }  

        RSEG BANKED_CODE:CODE:NOROOT(0)
?Subroutine3:
        CFI Block cfiCond29 Using cfiCommon0
        CFI NoFunction
        CFI Conditional ??CrossCallReturnLabel_15
        CFI DPL0 Frame(CFA_SP, 4)
        CFI DPH0 Frame(CFA_SP, 5)
        CFI CFA_SP SP+-5
        CFI Block cfiCond30 Using cfiCommon0
        CFI (cfiCond30) NoFunction
        CFI (cfiCond30) Conditional ??CrossCallReturnLabel_16
        CFI (cfiCond30) DPL0 Frame(CFA_SP, 4)
        CFI (cfiCond30) DPH0 Frame(CFA_SP, 5)
        CFI (cfiCond30) CFA_SP SP+-5
        CFI Block cfiPicker31 Using cfiCommon1
        CFI (cfiPicker31) NoFunction
        CFI (cfiPicker31) Picker
        MOV     DPL,R2
        MOV     DPH,R3
        INC     DPTR
        CFI EndBlock cfiCond29
        CFI EndBlock cfiCond30
        CFI EndBlock cfiPicker31
        REQUIRE ??Subroutine10_0
        ; // Fall through to label ??Subroutine10_0

        RSEG BANKED_CODE:CODE:NOROOT(0)
??Subroutine10_0:
        CFI Block cfiCond32 Using cfiCommon0
        CFI NoFunction
        CFI Conditional ??CrossCallReturnLabel_14
        CFI R6 load(1, XDATA, add(CFA_XSP16, literal(-12)))
        CFI VB load(1, XDATA, add(CFA_XSP16, literal(-11)))
        CFI V0 load(1, XDATA, add(CFA_XSP16, literal(-10)))
        CFI V1 load(1, XDATA, add(CFA_XSP16, literal(-9)))
        CFI V2 load(1, XDATA, add(CFA_XSP16, literal(-8)))
        CFI V3 load(1, XDATA, add(CFA_XSP16, literal(-7)))
        CFI R7 load(1, XDATA, add(CFA_XSP16, literal(-6)))
        CFI ?RET_LOW load(1, XDATA, add(CFA_XSP16, literal(-5)))
        CFI ?RET_HIGH load(1, XDATA, add(CFA_XSP16, literal(-4)))
        CFI ?BRET_EXT load(1, XDATA, add(CFA_XSP16, literal(-3)))
        CFI DPL0 load(1, XDATA, add(CFA_XSP16, literal(-2)))
        CFI DPH0 load(1, XDATA, add(CFA_XSP16, literal(-1)))
        CFI CFA_SP SP+0
        CFI CFA_XSP16 add(XSP16, 12)
        CFI Block cfiCond33 Using cfiCommon0
        CFI (cfiCond33) NoFunction
        CFI (cfiCond33) Conditional ??CrossCallReturnLabel_15
        CFI (cfiCond33) DPL0 Frame(CFA_SP, 4)
        CFI (cfiCond33) DPH0 Frame(CFA_SP, 5)
        CFI (cfiCond33) CFA_SP SP+-5
        CFI Block cfiCond34 Using cfiCommon0
        CFI (cfiCond34) NoFunction
        CFI (cfiCond34) Conditional ??CrossCallReturnLabel_16
        CFI (cfiCond34) DPL0 Frame(CFA_SP, 4)
        CFI (cfiCond34) DPH0 Frame(CFA_SP, 5)
        CFI (cfiCond34) CFA_SP SP+-5
        CFI Block cfiPicker35 Using cfiCommon1
        CFI (cfiPicker35) NoFunction
        CFI (cfiPicker35) Picker
        MOVX    A,@DPTR
        MOV     R0,A
        INC     DPTR
        MOVX    A,@DPTR
        MOV     R1,A
        MOV     A,R0
        RET
        CFI EndBlock cfiCond32
        CFI EndBlock cfiCond33
        CFI EndBlock cfiCond34
        CFI EndBlock cfiPicker35

        RSEG BANKED_CODE:CODE:NOROOT(0)
//   71 bool ListEmpty(LinkList list)  
ListEmpty:
        CFI Block cfiBlock36 Using cfiCommon0
        CFI Function ListEmpty
        CODE
//   72 {  
        PUSH    DPL
        CFI DPL0 Frame(CFA_SP, 4)
        CFI CFA_SP SP+-4
        PUSH    DPH
        CFI DPH0 Frame(CFA_SP, 5)
        CFI CFA_SP SP+-5
        ; Saved register size: 2
        ; Auto size: 0
//   73     pNode p = list;  
//   74   
//   75     if(NULL == list->next)  
        LCALL   ?Subroutine3 & 0xFFFF
??CrossCallReturnLabel_16:
        ORL     A,R1
        JNZ     ??ListEmpty_0
//   76         return true;  
        MOV     R1,#0x1
        SJMP    ??ListEmpty_1
//   77     else  
//   78         return false;  
??ListEmpty_0:
        MOV     R1,#0x0
        CFI EndBlock cfiBlock36
??ListEmpty_1:
        REQUIRE ?Subroutine1
        ; // Fall through to label ?Subroutine1
//   79 }  

        RSEG BANKED_CODE:CODE:NOROOT(0)
?Subroutine1:
        CFI Block cfiBlock37 Using cfiCommon0
        CFI NoFunction
        CFI CFA_SP SP+-5
        CFI DPL0 Frame(CFA_SP, 4)
        CFI DPH0 Frame(CFA_SP, 5)
        POP     DPH
        CFI CFA_SP SP+-4
        CFI DPH0 SameValue
        POP     DPL
        CFI CFA_SP SP+-3
        CFI DPL0 SameValue
        LJMP    ?BRET
        CFI EndBlock cfiBlock37

        RSEG BANKED_CODE:CODE:NOROOT(0)
//   80 void GetElem(LinkList list, uint8 *e, uint8 i)  
GetElem:
        CFI Block cfiBlock38 Using cfiCommon0
        CFI Function GetElem
        CODE
//   81 {  
        FUNCALL GetElem, ListLength
        LOCFRAME ISTACK, 0, STACK
        LOCFRAME PSTACK, 0, STACK
        LOCFRAME XSTACK, 9, STACK
        LOCFRAME IOVERLAY, 0, STATIC
        LOCFRAME DOVERLAY, 0, STATIC
        ARGFRAME ISTACK, 0, STACK
        ARGFRAME PSTACK, 0, STACK
        ARGFRAME XSTACK, 9, STACK
        ARGFRAME IOVERLAY, 0, STATIC
        ARGFRAME DOVERLAY, 0, STATIC
        MOV     A,#-0x9
        LCALL   ?BANKED_ENTER_XDATA
        CFI DPH0 load(1, XDATA, add(CFA_XSP16, literal(-1)))
        CFI DPL0 load(1, XDATA, add(CFA_XSP16, literal(-2)))
        CFI ?BRET_EXT load(1, XDATA, add(CFA_XSP16, literal(-3)))
        CFI ?RET_HIGH load(1, XDATA, add(CFA_XSP16, literal(-4)))
        CFI ?RET_LOW load(1, XDATA, add(CFA_XSP16, literal(-5)))
        CFI R7 load(1, XDATA, add(CFA_XSP16, literal(-6)))
        CFI V0 load(1, XDATA, add(CFA_XSP16, literal(-7)))
        CFI VB load(1, XDATA, add(CFA_XSP16, literal(-8)))
        CFI R6 load(1, XDATA, add(CFA_XSP16, literal(-9)))
        CFI CFA_SP SP+0
        CFI CFA_XSP16 add(XSP16, 9)
        ; Saved register size: 9
        ; Auto size: 0
        MOV     A,R1
        MOV     R6,A
//   82     pNode p = list;  
//   83       
//   84     if( i < 0 || i > ListLength(list))  
        ; Setup parameters for call to function ListLength
        LCALL   ??ListLength?relay
        MOV     A,R1
        CLR     C
        SUBB    A,R6
        JC      ??GetElem_0
//   85         return ;  
//   86     p = p->next;  
//   87     uint8 j = 1;  
        MOV     R0,#0x1
        SJMP    ??GetElem_1
//   88     while( j < i)  
//   89         {  
//   90             p = p->next;  
//   91             j++;  
??GetElem_2:
        INC     R0
//   92         }  
??GetElem_1:
        MOV     A,R0
        CLR     C
        SUBB    A,R6
        JC      ??GetElem_2
??GetElem_0:
        LJMP    ?Subroutine0 & 0xFFFF
        CFI EndBlock cfiBlock38
//   93     e = &p->data;  
//   94 }  

        RSEG BANKED_CODE:CODE:NOROOT(0)
//   95 void ListDelete(LinkList *list, uint8 i, uint8 *e)  
ListDelete:
        CFI Block cfiBlock39 Using cfiCommon0
        CFI Function ListDelete
        CODE
//   96 {  
        FUNCALL ListDelete, ListLength
        LOCFRAME ISTACK, 0, STACK
        LOCFRAME PSTACK, 0, STACK
        LOCFRAME XSTACK, 11, STACK
        LOCFRAME IOVERLAY, 0, STATIC
        LOCFRAME DOVERLAY, 0, STATIC
        ARGFRAME ISTACK, 0, STACK
        ARGFRAME PSTACK, 0, STACK
        ARGFRAME XSTACK, 11, STACK
        ARGFRAME IOVERLAY, 0, STATIC
        ARGFRAME DOVERLAY, 0, STATIC
        FUNCALL ListDelete, osal_mem_free
        LOCFRAME ISTACK, 0, STACK
        LOCFRAME PSTACK, 0, STACK
        LOCFRAME XSTACK, 11, STACK
        LOCFRAME IOVERLAY, 0, STATIC
        LOCFRAME DOVERLAY, 0, STATIC
        ARGFRAME ISTACK, 0, STACK
        ARGFRAME PSTACK, 0, STACK
        ARGFRAME XSTACK, 11, STACK
        ARGFRAME IOVERLAY, 0, STATIC
        ARGFRAME DOVERLAY, 0, STATIC
        MOV     A,#-0xb
        LCALL   ?BANKED_ENTER_XDATA
        CFI DPH0 load(1, XDATA, add(CFA_XSP16, literal(-1)))
        CFI DPL0 load(1, XDATA, add(CFA_XSP16, literal(-2)))
        CFI ?BRET_EXT load(1, XDATA, add(CFA_XSP16, literal(-3)))
        CFI ?RET_HIGH load(1, XDATA, add(CFA_XSP16, literal(-4)))
        CFI ?RET_LOW load(1, XDATA, add(CFA_XSP16, literal(-5)))
        CFI R7 load(1, XDATA, add(CFA_XSP16, literal(-6)))
        CFI V2 load(1, XDATA, add(CFA_XSP16, literal(-7)))
        CFI V1 load(1, XDATA, add(CFA_XSP16, literal(-8)))
        CFI V0 load(1, XDATA, add(CFA_XSP16, literal(-9)))
        CFI VB load(1, XDATA, add(CFA_XSP16, literal(-10)))
        CFI R6 load(1, XDATA, add(CFA_XSP16, literal(-11)))
        CFI CFA_SP SP+0
        CFI CFA_XSP16 add(XSP16, 11)
        ; Saved register size: 11
        ; Auto size: 0
        MOV     ?V0 + 2,R1
        MOV     ?V0 + 0,R4
        MOV     ?V0 + 1,R5
//   97     pNode p = *list;  
        MOV     DPL,R2
        MOV     DPH,R3
        LCALL   ??Subroutine11_0 & 0xFFFF
??CrossCallReturnLabel_17:
        MOV     A,R2
        MOV     R6,A
        MOV     A,R3
        MOV     R7,A
//   98     if( i < 0 || i > ListLength(*list))  
        ; Setup parameters for call to function ListLength
        LCALL   ??ListLength?relay
        MOV     A,R1
        CLR     C
        SUBB    A,?V0 + 2
        JC      ??ListDelete_0
//   99         return ;  
//  100     pNode q = p;  
        MOV     A,R6
        MOV     R0,A
        MOV     A,R7
        MOV     R1,A
//  101     p = q->next;  
        MOV     DPL,R0
        MOV     DPH,R1
        LCALL   ??Subroutine8_0 & 0xFFFF
//  102     uint8 j = 1;  
??CrossCallReturnLabel_9:
        MOV     R2,#0x1
        SJMP    ??ListDelete_1
//  103     while( j < i )  
//  104         {   q = p;  
??ListDelete_2:
        MOV     A,R6
        MOV     R0,A
        MOV     A,R7
        MOV     R1,A
//  105             p = p->next;  
        LCALL   ?Subroutine5 & 0xFFFF
//  106             j++;  
??CrossCallReturnLabel_11:
        INC     R2
//  107         }  
??ListDelete_1:
        MOV     A,R2
        CLR     C
        SUBB    A,?V0 + 2
        JC      ??ListDelete_2
//  108     p->data = *e;  
        MOV     DPL,?V0 + 0
        MOV     DPH,?V0 + 1
        MOVX    A,@DPTR
        MOV     DPL,R6
        MOV     DPH,R7
        MOVX    @DPTR,A
//  109     q->next = p->next;  
        LCALL   ?Subroutine7 & 0xFFFF
??CrossCallReturnLabel_20:
        MOV     DPL,R0
        MOV     DPH,R1
        INC     DPTR
        MOV     A,R2
        MOVX    @DPTR,A
        INC     DPTR
        MOV     A,R3
        MOVX    @DPTR,A
//  110     osal_mem_free(p);  
        ; Setup parameters for call to function osal_mem_free
        MOV     A,R6
        MOV     R2,A
        MOV     A,R7
        MOV     R3,A
        LCALL   ??osal_mem_free?relay
//  111       
//  112   
//  113       
//  114 }  
??ListDelete_0:
        MOV     R7,#0x3
        LJMP    ?BANKED_LEAVE_XDATA
        CFI EndBlock cfiBlock39

        RSEG BANKED_CODE:CODE:NOROOT(0)
//  115 uint8 ListLength(LinkList list)  
ListLength:
        CFI Block cfiBlock40 Using cfiCommon0
        CFI Function ListLength
        CODE
//  116 {  
        PUSH    DPL
        CFI DPL0 Frame(CFA_SP, 4)
        CFI CFA_SP SP+-4
        PUSH    DPH
        CFI DPH0 Frame(CFA_SP, 5)
        CFI CFA_SP SP+-5
        ; Saved register size: 2
        ; Auto size: 0
//  117     pNode p = list;  
//  118     uint8 i = 0;  
        MOV     R1,#0x0
//  119     p = p->next;  
        MOV     DPL,R2
        MOV     DPH,R3
        LCALL   ?Subroutine6 & 0xFFFF
??CrossCallReturnLabel_4:
        SJMP    ??ListLength_0
//  120     while(p)  
//  121         {  
//  122             p = p->next;  
??ListLength_1:
        LCALL   ?Subroutine6 & 0xFFFF
//  123             i++;  
??CrossCallReturnLabel_5:
        INC     R1
//  124         }  
??ListLength_0:
        MOV     A,DPL
        ORL     A,DPH
        JNZ     ??ListLength_1
//  125     return i;  
        LJMP    ?Subroutine1 & 0xFFFF
        CFI EndBlock cfiBlock40
//  126 }  

        RSEG BANKED_CODE:CODE:NOROOT(0)
?Subroutine6:
        CFI Block cfiCond41 Using cfiCommon0
        CFI NoFunction
        CFI Conditional ??CrossCallReturnLabel_4
        CFI DPL0 Frame(CFA_SP, 4)
        CFI DPH0 Frame(CFA_SP, 5)
        CFI CFA_SP SP+-5
        CFI Block cfiCond42 Using cfiCommon0
        CFI (cfiCond42) NoFunction
        CFI (cfiCond42) Conditional ??CrossCallReturnLabel_5
        CFI (cfiCond42) DPL0 Frame(CFA_SP, 4)
        CFI (cfiCond42) DPH0 Frame(CFA_SP, 5)
        CFI (cfiCond42) CFA_SP SP+-5
        CFI Block cfiPicker43 Using cfiCommon1
        CFI (cfiPicker43) NoFunction
        CFI (cfiPicker43) Picker
        INC     DPTR
        MOVX    A,@DPTR
        MOV     R2,A
        INC     DPTR
        MOVX    A,@DPTR
        MOV     R3,A
        MOV     DPL,R2
        MOV     DPH,R3
        RET
        CFI EndBlock cfiCond41
        CFI EndBlock cfiCond42
        CFI EndBlock cfiPicker43

        RSEG BANKED_CODE:CODE:NOROOT(0)
//  127 void ClearList (LinkList *list)  
ClearList:
        CFI Block cfiBlock44 Using cfiCommon0
        CFI Function ClearList
        CODE
//  128 {  
        FUNCALL ClearList, osal_mem_free
        LOCFRAME ISTACK, 0, STACK
        LOCFRAME PSTACK, 0, STACK
        LOCFRAME XSTACK, 9, STACK
        LOCFRAME IOVERLAY, 0, STATIC
        LOCFRAME DOVERLAY, 0, STATIC
        ARGFRAME ISTACK, 0, STACK
        ARGFRAME PSTACK, 0, STACK
        ARGFRAME XSTACK, 9, STACK
        ARGFRAME IOVERLAY, 0, STATIC
        ARGFRAME DOVERLAY, 0, STATIC
        MOV     A,#-0x9
        LCALL   ?BANKED_ENTER_XDATA
        CFI DPH0 load(1, XDATA, add(CFA_XSP16, literal(-1)))
        CFI DPL0 load(1, XDATA, add(CFA_XSP16, literal(-2)))
        CFI ?BRET_EXT load(1, XDATA, add(CFA_XSP16, literal(-3)))
        CFI ?RET_HIGH load(1, XDATA, add(CFA_XSP16, literal(-4)))
        CFI ?RET_LOW load(1, XDATA, add(CFA_XSP16, literal(-5)))
        CFI R7 load(1, XDATA, add(CFA_XSP16, literal(-6)))
        CFI V0 load(1, XDATA, add(CFA_XSP16, literal(-7)))
        CFI VB load(1, XDATA, add(CFA_XSP16, literal(-8)))
        CFI R6 load(1, XDATA, add(CFA_XSP16, literal(-9)))
        CFI CFA_SP SP+0
        CFI CFA_XSP16 add(XSP16, 9)
        ; Saved register size: 9
        ; Auto size: 0
//  129     pNode p = *list;  
        MOV     DPL,R2
        MOV     DPH,R3
        LCALL   ??Subroutine9_0 & 0xFFFF
//  130     if( p != NULL)  
??CrossCallReturnLabel_6:
        MOV     A,R6
        ORL     A,R7
        JZ      ??ClearList_0
//  131         p = p->next;  
        LCALL   ?Subroutine5 & 0xFFFF
??CrossCallReturnLabel_12:
        SJMP    ??CrossCallReturnLabel_2
//  132     pNode q;  
//  133     while( p )  
//  134     {  
//  135         q = p;  
??ClearList_1:
        LCALL   ?Subroutine4 & 0xFFFF
//  136         p = p->next;  
//  137         osal_mem_free(q);  
//  138     }  
??CrossCallReturnLabel_2:
        MOV     A,R6
        ORL     A,R7
        JNZ     ??ClearList_1
//  139       
//  140 }  
??ClearList_0:
        LJMP    ?Subroutine0 & 0xFFFF
        CFI EndBlock cfiBlock44

        RSEG BANKED_CODE:CODE:NOROOT(0)
//  141 void DestoryList(LinkList *list)  
DestoryList:
        CFI Block cfiBlock45 Using cfiCommon0
        CFI Function DestoryList
        CODE
//  142 {  
        FUNCALL DestoryList, osal_mem_free
        LOCFRAME ISTACK, 0, STACK
        LOCFRAME PSTACK, 0, STACK
        LOCFRAME XSTACK, 10, STACK
        LOCFRAME IOVERLAY, 0, STATIC
        LOCFRAME DOVERLAY, 0, STATIC
        ARGFRAME ISTACK, 0, STACK
        ARGFRAME PSTACK, 0, STACK
        ARGFRAME XSTACK, 10, STACK
        ARGFRAME IOVERLAY, 0, STATIC
        ARGFRAME DOVERLAY, 0, STATIC
        FUNCALL DestoryList, osal_mem_free
        LOCFRAME ISTACK, 0, STACK
        LOCFRAME PSTACK, 0, STACK
        LOCFRAME XSTACK, 10, STACK
        LOCFRAME IOVERLAY, 0, STATIC
        LOCFRAME DOVERLAY, 0, STATIC
        ARGFRAME ISTACK, 0, STACK
        ARGFRAME PSTACK, 0, STACK
        ARGFRAME XSTACK, 10, STACK
        ARGFRAME IOVERLAY, 0, STATIC
        ARGFRAME DOVERLAY, 0, STATIC
        MOV     A,#-0xa
        LCALL   ?BANKED_ENTER_XDATA
        CFI DPH0 load(1, XDATA, add(CFA_XSP16, literal(-1)))
        CFI DPL0 load(1, XDATA, add(CFA_XSP16, literal(-2)))
        CFI ?BRET_EXT load(1, XDATA, add(CFA_XSP16, literal(-3)))
        CFI ?RET_HIGH load(1, XDATA, add(CFA_XSP16, literal(-4)))
        CFI ?RET_LOW load(1, XDATA, add(CFA_XSP16, literal(-5)))
        CFI R7 load(1, XDATA, add(CFA_XSP16, literal(-6)))
        CFI V1 load(1, XDATA, add(CFA_XSP16, literal(-7)))
        CFI V0 load(1, XDATA, add(CFA_XSP16, literal(-8)))
        CFI VB load(1, XDATA, add(CFA_XSP16, literal(-9)))
        CFI R6 load(1, XDATA, add(CFA_XSP16, literal(-10)))
        CFI CFA_SP SP+0
        CFI CFA_XSP16 add(XSP16, 10)
        ; Saved register size: 10
        ; Auto size: 0
        MOV     ?V0 + 0,R2
        MOV     ?V0 + 1,R3
//  143     pNode p = *list;  
        MOV     DPL,R2
        MOV     DPH,R3
        LCALL   ??Subroutine9_0 & 0xFFFF
//  144     if( p != NULL)  
??CrossCallReturnLabel_7:
        MOV     A,R6
        ORL     A,R7
        JZ      ??DestoryList_0
//  145         p = p->next;  
        LCALL   ?Subroutine5 & 0xFFFF
??CrossCallReturnLabel_13:
        SJMP    ??CrossCallReturnLabel_3
//  146     pNode q;  
//  147     while( p )  
//  148     {  
//  149         q = p;  
??DestoryList_1:
        LCALL   ?Subroutine4 & 0xFFFF
//  150         p = p->next;  
//  151         osal_mem_free(q);  
//  152     }  
??CrossCallReturnLabel_3:
        MOV     A,R6
        ORL     A,R7
        JNZ     ??DestoryList_1
//  153     osal_mem_free(*list);  
??DestoryList_0:
        ; Setup parameters for call to function osal_mem_free
        MOV     DPL,?V0 + 0
        MOV     DPH,?V0 + 1
        LCALL   ??Subroutine11_0 & 0xFFFF
??CrossCallReturnLabel_18:
        LCALL   ??osal_mem_free?relay
//  154 } 
        MOV     R7,#0x2
        LJMP    ?BANKED_LEAVE_XDATA
        CFI EndBlock cfiBlock45

        RSEG BANKED_CODE:CODE:NOROOT(0)
?Subroutine7:
        CFI Block cfiCond46 Using cfiCommon0
        CFI NoFunction
        CFI Conditional ??CrossCallReturnLabel_19
        CFI DPL0 Frame(CFA_SP, 4)
        CFI DPH0 Frame(CFA_SP, 5)
        CFI CFA_SP SP+-5
        CFI Block cfiCond47 Using cfiCommon0
        CFI (cfiCond47) NoFunction
        CFI (cfiCond47) Conditional ??CrossCallReturnLabel_20
        CFI (cfiCond47) R6 load(1, XDATA, add(CFA_XSP16, literal(-11)))
        CFI (cfiCond47) VB load(1, XDATA, add(CFA_XSP16, literal(-10)))
        CFI (cfiCond47) V0 load(1, XDATA, add(CFA_XSP16, literal(-9)))
        CFI (cfiCond47) V1 load(1, XDATA, add(CFA_XSP16, literal(-8)))
        CFI (cfiCond47) V2 load(1, XDATA, add(CFA_XSP16, literal(-7)))
        CFI (cfiCond47) R7 load(1, XDATA, add(CFA_XSP16, literal(-6)))
        CFI (cfiCond47) ?RET_LOW load(1, XDATA, add(CFA_XSP16, literal(-5)))
        CFI (cfiCond47) ?RET_HIGH load(1, XDATA, add(CFA_XSP16, literal(-4)))
        CFI (cfiCond47) ?BRET_EXT load(1, XDATA, add(CFA_XSP16, literal(-3)))
        CFI (cfiCond47) DPL0 load(1, XDATA, add(CFA_XSP16, literal(-2)))
        CFI (cfiCond47) DPH0 load(1, XDATA, add(CFA_XSP16, literal(-1)))
        CFI (cfiCond47) CFA_SP SP+0
        CFI (cfiCond47) CFA_XSP16 add(XSP16, 11)
        CFI Block cfiPicker48 Using cfiCommon1
        CFI (cfiPicker48) NoFunction
        CFI (cfiPicker48) Picker
        INC     DPTR
        CFI EndBlock cfiCond46
        CFI EndBlock cfiCond47
        CFI EndBlock cfiPicker48
        REQUIRE ??Subroutine11_0
        ; // Fall through to label ??Subroutine11_0

        RSEG BANKED_CODE:CODE:NOROOT(0)
??Subroutine11_0:
        CFI Block cfiCond49 Using cfiCommon0
        CFI NoFunction
        CFI Conditional ??CrossCallReturnLabel_17
        CFI R6 load(1, XDATA, add(CFA_XSP16, literal(-11)))
        CFI VB load(1, XDATA, add(CFA_XSP16, literal(-10)))
        CFI V0 load(1, XDATA, add(CFA_XSP16, literal(-9)))
        CFI V1 load(1, XDATA, add(CFA_XSP16, literal(-8)))
        CFI V2 load(1, XDATA, add(CFA_XSP16, literal(-7)))
        CFI R7 load(1, XDATA, add(CFA_XSP16, literal(-6)))
        CFI ?RET_LOW load(1, XDATA, add(CFA_XSP16, literal(-5)))
        CFI ?RET_HIGH load(1, XDATA, add(CFA_XSP16, literal(-4)))
        CFI ?BRET_EXT load(1, XDATA, add(CFA_XSP16, literal(-3)))
        CFI DPL0 load(1, XDATA, add(CFA_XSP16, literal(-2)))
        CFI DPH0 load(1, XDATA, add(CFA_XSP16, literal(-1)))
        CFI CFA_SP SP+0
        CFI CFA_XSP16 add(XSP16, 11)
        CFI Block cfiCond50 Using cfiCommon0
        CFI (cfiCond50) NoFunction
        CFI (cfiCond50) Conditional ??CrossCallReturnLabel_18
        CFI (cfiCond50) R6 load(1, XDATA, add(CFA_XSP16, literal(-10)))
        CFI (cfiCond50) VB load(1, XDATA, add(CFA_XSP16, literal(-9)))
        CFI (cfiCond50) V0 load(1, XDATA, add(CFA_XSP16, literal(-8)))
        CFI (cfiCond50) V1 load(1, XDATA, add(CFA_XSP16, literal(-7)))
        CFI (cfiCond50) R7 load(1, XDATA, add(CFA_XSP16, literal(-6)))
        CFI (cfiCond50) ?RET_LOW load(1, XDATA, add(CFA_XSP16, literal(-5)))
        CFI (cfiCond50) ?RET_HIGH load(1, XDATA, add(CFA_XSP16, literal(-4)))
        CFI (cfiCond50) ?BRET_EXT load(1, XDATA, add(CFA_XSP16, literal(-3)))
        CFI (cfiCond50) DPL0 load(1, XDATA, add(CFA_XSP16, literal(-2)))
        CFI (cfiCond50) DPH0 load(1, XDATA, add(CFA_XSP16, literal(-1)))
        CFI (cfiCond50) CFA_SP SP+0
        CFI (cfiCond50) CFA_XSP16 add(XSP16, 10)
        CFI Block cfiCond51 Using cfiCommon0
        CFI (cfiCond51) NoFunction
        CFI (cfiCond51) Conditional ??CrossCallReturnLabel_19
        CFI (cfiCond51) DPL0 Frame(CFA_SP, 4)
        CFI (cfiCond51) DPH0 Frame(CFA_SP, 5)
        CFI (cfiCond51) CFA_SP SP+-5
        CFI Block cfiCond52 Using cfiCommon0
        CFI (cfiCond52) NoFunction
        CFI (cfiCond52) Conditional ??CrossCallReturnLabel_20
        CFI (cfiCond52) R6 load(1, XDATA, add(CFA_XSP16, literal(-11)))
        CFI (cfiCond52) VB load(1, XDATA, add(CFA_XSP16, literal(-10)))
        CFI (cfiCond52) V0 load(1, XDATA, add(CFA_XSP16, literal(-9)))
        CFI (cfiCond52) V1 load(1, XDATA, add(CFA_XSP16, literal(-8)))
        CFI (cfiCond52) V2 load(1, XDATA, add(CFA_XSP16, literal(-7)))
        CFI (cfiCond52) R7 load(1, XDATA, add(CFA_XSP16, literal(-6)))
        CFI (cfiCond52) ?RET_LOW load(1, XDATA, add(CFA_XSP16, literal(-5)))
        CFI (cfiCond52) ?RET_HIGH load(1, XDATA, add(CFA_XSP16, literal(-4)))
        CFI (cfiCond52) ?BRET_EXT load(1, XDATA, add(CFA_XSP16, literal(-3)))
        CFI (cfiCond52) DPL0 load(1, XDATA, add(CFA_XSP16, literal(-2)))
        CFI (cfiCond52) DPH0 load(1, XDATA, add(CFA_XSP16, literal(-1)))
        CFI (cfiCond52) CFA_SP SP+0
        CFI (cfiCond52) CFA_XSP16 add(XSP16, 11)
        CFI Block cfiPicker53 Using cfiCommon1
        CFI (cfiPicker53) NoFunction
        CFI (cfiPicker53) Picker
        MOVX    A,@DPTR
        MOV     R2,A
        INC     DPTR
        MOVX    A,@DPTR
        MOV     R3,A
        RET
        CFI EndBlock cfiCond49
        CFI EndBlock cfiCond50
        CFI EndBlock cfiCond51
        CFI EndBlock cfiCond52
        CFI EndBlock cfiPicker53

        RSEG BANKED_CODE:CODE:NOROOT(0)
?Subroutine4:
        CFI Block cfiCond54 Using cfiCommon0
        CFI NoFunction
        CFI Conditional ??CrossCallReturnLabel_2
        CFI R6 load(1, XDATA, add(CFA_XSP16, literal(-9)))
        CFI VB load(1, XDATA, add(CFA_XSP16, literal(-8)))
        CFI V0 load(1, XDATA, add(CFA_XSP16, literal(-7)))
        CFI R7 load(1, XDATA, add(CFA_XSP16, literal(-6)))
        CFI ?RET_LOW load(1, XDATA, add(CFA_XSP16, literal(-5)))
        CFI ?RET_HIGH load(1, XDATA, add(CFA_XSP16, literal(-4)))
        CFI ?BRET_EXT load(1, XDATA, add(CFA_XSP16, literal(-3)))
        CFI DPL0 load(1, XDATA, add(CFA_XSP16, literal(-2)))
        CFI DPH0 load(1, XDATA, add(CFA_XSP16, literal(-1)))
        CFI CFA_SP SP+0
        CFI CFA_XSP16 add(XSP16, 9)
        CFI Block cfiCond55 Using cfiCommon0
        CFI (cfiCond55) NoFunction
        CFI (cfiCond55) Conditional ??CrossCallReturnLabel_3
        CFI (cfiCond55) R6 load(1, XDATA, add(CFA_XSP16, literal(-10)))
        CFI (cfiCond55) VB load(1, XDATA, add(CFA_XSP16, literal(-9)))
        CFI (cfiCond55) V0 load(1, XDATA, add(CFA_XSP16, literal(-8)))
        CFI (cfiCond55) V1 load(1, XDATA, add(CFA_XSP16, literal(-7)))
        CFI (cfiCond55) R7 load(1, XDATA, add(CFA_XSP16, literal(-6)))
        CFI (cfiCond55) ?RET_LOW load(1, XDATA, add(CFA_XSP16, literal(-5)))
        CFI (cfiCond55) ?RET_HIGH load(1, XDATA, add(CFA_XSP16, literal(-4)))
        CFI (cfiCond55) ?BRET_EXT load(1, XDATA, add(CFA_XSP16, literal(-3)))
        CFI (cfiCond55) DPL0 load(1, XDATA, add(CFA_XSP16, literal(-2)))
        CFI (cfiCond55) DPH0 load(1, XDATA, add(CFA_XSP16, literal(-1)))
        CFI (cfiCond55) CFA_SP SP+0
        CFI (cfiCond55) CFA_XSP16 add(XSP16, 10)
        CFI Block cfiPicker56 Using cfiCommon1
        CFI (cfiPicker56) NoFunction
        CFI (cfiPicker56) Picker
        MOV     A,R6
        MOV     R2,A
        MOV     A,R7
        MOV     R3,A
        MOV     DPL,R6
        MOV     DPH,R7
        INC     DPTR
        MOVX    A,@DPTR
        MOV     R6,A
        INC     DPTR
        MOVX    A,@DPTR
        MOV     R7,A
        ; Setup parameters for call to function osal_mem_free
        ; Setup parameters for call to function osal_mem_free
        LCALL   ??osal_mem_free?relay
        RET
        CFI EndBlock cfiCond54
        CFI EndBlock cfiCond55
        CFI EndBlock cfiPicker56

        RSEG BANK_RELAYS:CODE:REORDER:NOROOT(0)
??InitList?relay:
        LCALL   ?BDISPATCH
        DATA
        DC24    InitList

        RSEG BANK_RELAYS:CODE:REORDER:NOROOT(0)
??ListInsert?relay:
        LCALL   ?BDISPATCH
        DATA
        DC24    ListInsert

        RSEG BANK_RELAYS:CODE:REORDER:NOROOT(0)
??ListTraverse?relay:
        LCALL   ?BDISPATCH
        DATA
        DC24    ListTraverse

        RSEG BANK_RELAYS:CODE:REORDER:NOROOT(0)
??Recursion?relay:
        LCALL   ?BDISPATCH
        DATA
        DC24    Recursion

        RSEG BANK_RELAYS:CODE:REORDER:NOROOT(0)
??ListEmpty?relay:
        LCALL   ?BDISPATCH
        DATA
        DC24    ListEmpty

        RSEG BANK_RELAYS:CODE:REORDER:NOROOT(0)
??GetElem?relay:
        LCALL   ?BDISPATCH
        DATA
        DC24    GetElem

        RSEG BANK_RELAYS:CODE:REORDER:NOROOT(0)
??ListDelete?relay:
        LCALL   ?BDISPATCH
        DATA
        DC24    ListDelete

        RSEG BANK_RELAYS:CODE:REORDER:NOROOT(0)
??ListLength?relay:
        LCALL   ?BDISPATCH
        DATA
        DC24    ListLength

        RSEG BANK_RELAYS:CODE:REORDER:NOROOT(0)
??ClearList?relay:
        LCALL   ?BDISPATCH
        DATA
        DC24    ClearList

        RSEG BANK_RELAYS:CODE:REORDER:NOROOT(0)
??DestoryList?relay:
        LCALL   ?BDISPATCH
        DATA
        DC24    DestoryList

        END
// 
// 573 bytes in segment BANKED_CODE
//  60 bytes in segment BANK_RELAYS
// 
// 633 bytes of CODE memory
//
//Errors: none
//Warnings: 4
