///////////////////////////////////////////////////////////////////////////////
//                                                                            /
// IAR C/C++ Compiler V8.10.3.10338/W32 for 8051        06/Jun/2017  15:23:35 /
// Copyright 2004-2011 IAR Systems AB.                                        /
//                                                                            /
//    Core               =  plain                                             /
//    Code model         =  banked                                            /
//    Data model         =  large                                             /
//    Calling convention =  xdata reentrant                                   /
//    Constant location  =  data_rom                                          /
//    Dptr setup         =  1,16                                              /
//    Source file        =  E:\work\smartlight\ZigLight001\Projects\zstack\Sa /
//                          mples\ZigLightApp\Source\gizwits_protocol.c       /
//    Command line       =  -f E:\work\smartlight\ZigLight001\Projects\zstack /
//                          \Samples\ZigLightApp\CC2530DB\..\..\..\Tools\CC25 /
//                          30DB\f8wRouter.cfg (-DCPU32MHZ                    /
//                          -DROOT=__near_func -DMAC_CFG_APP_PENDING_QUEUE=TR /
//                          UE -DMAC_CFG_TX_DATA_MAX=5 -DMAC_CFG_TX_MAX=8     /
//                          -DMAC_CFG_RX_MAX=5 -DRTR_NWK) -f                  /
//                          E:\work\smartlight\ZigLight001\Projects\zstack\Sa /
//                          mples\ZigLightApp\CC2530DB\..\..\..\Tools\CC2530D /
//                          B\f8wConfig.cfg (-DZIGBEEPRO -DSECURE=0           /
//                          -DZG_SECURE_DYNAMIC=0 -DREFLECTOR                 /
//                          -DDEFAULT_CHANLIST=0x00000800                     /
//                          -DZDAPP_CONFIG_PAN_ID=0xFF00                      /
//                          -DNWK_START_DELAY=100 -DEXTENDED_JOINING_RANDOM_M /
//                          ASK=0x007F -DBEACON_REQUEST_DELAY=100             /
//                          -DBEACON_REQ_DELAY_MASK=0x00FF                    /
//                          -DLINK_STATUS_JITTER_MASK=0x007F                  /
//                          -DROUTE_EXPIRY_TIME=30 -DAPSC_ACK_WAIT_DURATION_P /
//                          OLLED=3000 -DNWK_INDIRECT_MSG_TIMEOUT=7           /
//                          -DMAX_RREQ_ENTRIES=8 -DAPSC_MAX_FRAME_RETRIES=3   /
//                          -DNWK_MAX_DATA_RETRIES=2                          /
//                          -DMAX_POLL_FAILURE_RETRIES=2 -DMAX_BCAST=9        /
//                          -DAPS_MAX_GROUPS=16 -DMAX_RTG_ENTRIES=40          /
//                          -DNWK_MAX_BINDING_ENTRIES=4                       /
//                          -DMAX_BINDING_CLUSTER_IDS=4                       /
//                          "-DDEFAULT_KEY={0x01, 0x03, 0x05, 0x07, 0x09,     /
//                          0x0B, 0x0D, 0x0F, 0x00, 0x02, 0x04, 0x06, 0x08,   /
//                          0x0A, 0x0C, 0x0D}" -DMAC_MAX_FRAME_SIZE=116       /
//                          -DZDNWKMGR_MIN_TRANSMISSIONS=20 "-DCONST=const    /
//                          __code" -DGENERIC=__generic                       /
//                          -DRFD_RCVC_ALWAYS_ON=FALSE -DPOLL_RATE=1000       /
//                          -DQUEUED_POLL_RATE=100 -DRESPONSE_POLL_RATE=100)  /
//                          -DREJOIN_POLL_RATE=440 E:\work\smartlight\ZigLigh /
//                          t001\Projects\zstack\Samples\ZigLightApp\Source\g /
//                          izwits_protocol.c -D ZTOOL_P1 -D MT_TASK -D       /
//                          MT_SYS_FUNC -D MT_ZDO_FUNC -D                     /
//                          xLCD_SUPPORTED=DEBUG -D MT_ZDO_MGMT -lC           /
//                          E:\work\smartlight\ZigLight001\Projects\zstack\Sa /
//                          mples\ZigLightApp\CC2530DB\RouterEB\List\ -lA     /
//                          E:\work\smartlight\ZigLight001\Projects\zstack\Sa /
//                          mples\ZigLightApp\CC2530DB\RouterEB\List\         /
//                          --diag_suppress Pe001,Pa010 -o                    /
//                          E:\work\smartlight\ZigLight001\Projects\zstack\Sa /
//                          mples\ZigLightApp\CC2530DB\RouterEB\Obj\ -e       /
//                          --no_code_motion --debug --core=plain             /
//                          --dptr=16,1 --data_model=large                    /
//                          --code_model=banked --calling_convention=xdata_re /
//                          entrant --place_constants=data_rom                /
//                          --nr_virtual_regs 16 -I                           /
//                          E:\work\smartlight\ZigLight001\Projects\zstack\Sa /
//                          mples\ZigLightApp\CC2530DB\ -I                    /
//                          E:\work\smartlight\ZigLight001\Projects\zstack\Sa /
//                          mples\ZigLightApp\CC2530DB\..\Source\ -I          /
//                          E:\work\smartlight\ZigLight001\Projects\zstack\Sa /
//                          mples\ZigLightApp\CC2530DB\..\..\..\ZMain\TI2530D /
//                          B\ -I E:\work\smartlight\ZigLight001\Projects\zst /
//                          ack\Samples\ZigLightApp\CC2530DB\..\..\..\..\..\C /
//                          omponents\hal\include\ -I                         /
//                          E:\work\smartlight\ZigLight001\Projects\zstack\Sa /
//                          mples\ZigLightApp\CC2530DB\..\..\..\..\..\Compone /
//                          nts\hal\target\CC2530EB\ -I                       /
//                          E:\work\smartlight\ZigLight001\Projects\zstack\Sa /
//                          mples\ZigLightApp\CC2530DB\..\..\..\..\..\Compone /
//                          nts\mac\include\ -I E:\work\smartlight\ZigLight00 /
//                          1\Projects\zstack\Samples\ZigLightApp\CC2530DB\.. /
//                          \..\..\..\..\Components\mac\high_level\ -I        /
//                          E:\work\smartlight\ZigLight001\Projects\zstack\Sa /
//                          mples\ZigLightApp\CC2530DB\..\..\..\..\..\Compone /
//                          nts\mac\low_level\srf04\ -I                       /
//                          E:\work\smartlight\ZigLight001\Projects\zstack\Sa /
//                          mples\ZigLightApp\CC2530DB\..\..\..\..\..\Compone /
//                          nts\mac\low_level\srf04\single_chip\ -I           /
//                          E:\work\smartlight\ZigLight001\Projects\zstack\Sa /
//                          mples\ZigLightApp\CC2530DB\..\..\..\..\..\Compone /
//                          nts\mt\ -I E:\work\smartlight\ZigLight001\Project /
//                          s\zstack\Samples\ZigLightApp\CC2530DB\..\..\..\.. /
//                          \..\Components\osal\include\ -I                   /
//                          E:\work\smartlight\ZigLight001\Projects\zstack\Sa /
//                          mples\ZigLightApp\CC2530DB\..\..\..\..\..\Compone /
//                          nts\services\saddr\ -I E:\work\smartlight\ZigLigh /
//                          t001\Projects\zstack\Samples\ZigLightApp\CC2530DB /
//                          \..\..\..\..\..\Components\services\sdata\ -I     /
//                          E:\work\smartlight\ZigLight001\Projects\zstack\Sa /
//                          mples\ZigLightApp\CC2530DB\..\..\..\..\..\Compone /
//                          nts\stack\af\ -I E:\work\smartlight\ZigLight001\P /
//                          rojects\zstack\Samples\ZigLightApp\CC2530DB\..\.. /
//                          \..\..\..\Components\stack\nwk\ -I                /
//                          E:\work\smartlight\ZigLight001\Projects\zstack\Sa /
//                          mples\ZigLightApp\CC2530DB\..\..\..\..\..\Compone /
//                          nts\stack\sapi\ -I E:\work\smartlight\ZigLight001 /
//                          \Projects\zstack\Samples\ZigLightApp\CC2530DB\..\ /
//                          ..\..\..\..\Components\stack\sec\ -I              /
//                          E:\work\smartlight\ZigLight001\Projects\zstack\Sa /
//                          mples\ZigLightApp\CC2530DB\..\..\..\..\..\Compone /
//                          nts\stack\sys\ -I E:\work\smartlight\ZigLight001\ /
//                          Projects\zstack\Samples\ZigLightApp\CC2530DB\..\. /
//                          .\..\..\..\Components\stack\zdo\ -I               /
//                          E:\work\smartlight\ZigLight001\Projects\zstack\Sa /
//                          mples\ZigLightApp\CC2530DB\..\..\..\..\..\Compone /
//                          nts\zmac\ -I E:\work\smartlight\ZigLight001\Proje /
//                          cts\zstack\Samples\ZigLightApp\CC2530DB\..\..\..\ /
//                          ..\..\Components\zmac\f8w\ -Ohz                   /
//                          --require_prototypes                              /
//    List file          =  E:\work\smartlight\ZigLight001\Projects\zstack\Sa /
//                          mples\ZigLightApp\CC2530DB\RouterEB\List\gizwits_ /
//                          protocol.s51                                      /
//                                                                            /
//                                                                            /
///////////////////////////////////////////////////////////////////////////////

        NAME gizwits_protocol

        RTMODEL "__SystemLibrary", "CLib"
        RTMODEL "__calling_convention", "xdata_reentrant"
        RTMODEL "__code_model", "banked"
        RTMODEL "__core", "plain"
        RTMODEL "__data_model", "large"
        RTMODEL "__dptr_size", "16"
        RTMODEL "__extended_stack", "disabled"
        RTMODEL "__location_for_constants", "data"
        RTMODEL "__number_of_dptrs", "1"
        RTMODEL "__rt_version", "1"

        RSEG DOVERLAY:DATA:NOROOT(0)
        RSEG IOVERLAY:IDATA:NOROOT(0)
        RSEG ISTACK:IDATA:NOROOT(0)
        RSEG PSTACK:XDATA:NOROOT(0)
        RSEG XSTACK:XDATA:NOROOT(0)

        EXTERN ?ALLOC_XSTACK8
        EXTERN ?BANKED_ENTER_XDATA
        EXTERN ?BANKED_LEAVE_XDATA
        EXTERN ?BDISPATCH
        EXTERN ?BRET
        EXTERN ?DEALLOC_XSTACK8
        EXTERN ?L_ADD
        EXTERN ?L_ADD_TO_X
        EXTERN ?L_ADD_X
        EXTERN ?L_AND_X
        EXTERN ?L_EQ
        EXTERN ?L_IOR
        EXTERN ?L_MOV_TO_X
        EXTERN ?L_MOV_X
        EXTERN ?L_SHL
        EXTERN ?L_SUB
        EXTERN ?L_SUB_X
        EXTERN ?PUSH_XSTACK8_X_FOUR
        EXTERN ?PUSH_XSTACK_I_FOUR
        EXTERN ?PUSH_XSTACK_I_THREE
        EXTERN ?PUSH_XSTACK_I_TWO
        EXTERN ?SL_GE_X
        EXTERN ?SL_GT
        EXTERN ?S_SHL
        EXTERN ?UL_DIV_MOD
        EXTERN ?UL_GE_X
        EXTERN ?UL_GT
        EXTERN ?UL_SHR
        EXTERN ?US_SHR
        EXTERN ?V0
        EXTERN ?XLOAD_R2345
        EXTERN ?XSP
        EXTERN ?XSTACK_DISP0_8
        EXTERN ?XSTORE_R2345
        EXTERN __INIT_XDATA_Z

        PUBLIC ??calculateDynamicBitPartLen?relay
        FUNCTION ??calculateDynamicBitPartLen?relay,0203H
        FUNCTION ??gizCheckReport?relay,0203H
        FUNCTION ??gizDataPoint2Event?relay,0203H
        FUNCTION ??gizDataPoints2ReportData?relay,0203H
        FUNCTION ??gizDevReportPolicy?relay,0203H
        FUNCTION ??gizProtocolCommonAck?relay,0203H
        FUNCTION ??gizProtocolErrorCmd?relay,0203H
        FUNCTION ??gizProtocolExchangeBytes?relay,0203H
        FUNCTION ??gizProtocolGetDeviceInfo?relay,0203H
        FUNCTION ??gizProtocolGetOnePacket?relay,0203H
        FUNCTION ??gizProtocolHeadInit?relay,0203H
        FUNCTION ??gizProtocolIssuedDataAck?relay,0203H
        FUNCTION ??gizProtocolIssuedProcess?relay,0203H
        FUNCTION ??gizProtocolModuleStatus?relay,0203H
        FUNCTION ??gizProtocolSum?relay,0203H
        FUNCTION ??gizProtocolWaitAck?relay,0203H
        FUNCTION ??gizProtocolWaitAckCheck?relay,0203H
        PUBLIC ??gizPutData?relay
        FUNCTION ??gizPutData?relay,0203H
        FUNCTION ??gizReportData?relay,0203H
        PUBLIC ??gizwitsGetNTP?relay
        FUNCTION ??gizwitsGetNTP?relay,0203H
        PUBLIC ??gizwitsHandle?relay
        FUNCTION ??gizwitsHandle?relay,0203H
        PUBLIC ??gizwitsInit?relay
        FUNCTION ??gizwitsInit?relay,0203H
        PUBLIC ??gizwitsPassthroughData?relay
        FUNCTION ??gizwitsPassthroughData?relay,0203H
        PUBLIC ??gizwitsSetMode?relay
        FUNCTION ??gizwitsSetMode?relay,0203H
        FUNCTION ??rbCanRead?relay,0203H
        FUNCTION ??rbCanWrite?relay,0203H
        FUNCTION ??rbCapacity?relay,0203H
        FUNCTION ??rbRead?relay,0203H
        FUNCTION ??rbWrite?relay,0203H
        PUBWEAK __Constant_0
        PUBWEAK __Constant_1
        PUBWEAK __Constant_14
        PUBWEAK __Constant_15
        PUBWEAK __Constant_2
        PUBWEAK __Constant_259
        PUBWEAK __Constant_73
        PUBWEAK __Constant_7d1
        PUBWEAK __Constant_9
        PUBWEAK __Constant_927c0
        PUBWEAK __Constant_a
        PUBWEAK __Constant_b
        PUBWEAK __Constant_ff00
        PUBWEAK __Constant_fffffff6
        PUBWEAK __Constant_ffffffff
        PUBLIC calculateDynamicBitPartLen
        FUNCTION calculateDynamicBitPartLen,0203H
        ARGFRAME XSTACK, 0, STACK
        FUNCTION gizCheckReport,021203H
        ARGFRAME XSTACK, 16, STACK
        ARGFRAME IOVERLAY, 0, STATIC
        ARGFRAME DOVERLAY, 0, STATIC
        LOCFRAME XSTACK, 18, STACK
        FUNCTION gizDataPoint2Event,021203H
        ARGFRAME XSTACK, 19, STACK
        ARGFRAME IOVERLAY, 0, STATIC
        ARGFRAME DOVERLAY, 0, STATIC
        LOCFRAME XSTACK, 39, STACK
        FUNCTION gizDataPoints2ReportData,021203H
        ARGFRAME XSTACK, 19, STACK
        ARGFRAME IOVERLAY, 0, STATIC
        ARGFRAME DOVERLAY, 0, STATIC
        LOCFRAME XSTACK, 40, STACK
        FUNCTION gizDevReportPolicy,021203H
        ARGFRAME XSTACK, 92, STACK
        ARGFRAME IOVERLAY, 0, STATIC
        ARGFRAME DOVERLAY, 0, STATIC
        LOCFRAME XSTACK, 20, STACK
        FUNCTION gizProtocolCommonAck,021203H
        ARGFRAME XSTACK, 92, STACK
        ARGFRAME IOVERLAY, 0, STATIC
        ARGFRAME DOVERLAY, 0, STATIC
        LOCFRAME ISTACK, 1, STACK
        LOCFRAME XSTACK, 24, STACK
        FUNCTION gizProtocolErrorCmd,021203H
        ARGFRAME XSTACK, 92, STACK
        ARGFRAME IOVERLAY, 0, STATIC
        ARGFRAME DOVERLAY, 0, STATIC
        LOCFRAME ISTACK, 1, STACK
        LOCFRAME XSTACK, 23, STACK
        FUNCTION gizProtocolExchangeBytes,0203H
        ARGFRAME XSTACK, 126, STACK
        ARGFRAME IOVERLAY, 0, STATIC
        ARGFRAME DOVERLAY, 0, STATIC
        LOCFRAME ISTACK, 3, STACK
        LOCFRAME XSTACK, 4, STACK
        FUNCTION gizProtocolGetDeviceInfo,021203H
        ARGFRAME XSTACK, 92, STACK
        ARGFRAME IOVERLAY, 0, STATIC
        ARGFRAME DOVERLAY, 0, STATIC
        LOCFRAME ISTACK, 1, STACK
        LOCFRAME XSTACK, 130, STACK
        FUNCTION gizProtocolGetOnePacket,021203H
        ARGFRAME XSTACK, 94, STACK
        ARGFRAME IOVERLAY, 0, STATIC
        ARGFRAME DOVERLAY, 0, STATIC
        LOCFRAME ISTACK, 1, STACK
        LOCFRAME XSTACK, 25, STACK
        FUNCTION gizProtocolHeadInit,021203H
        ARGFRAME XSTACK, 126, STACK
        ARGFRAME IOVERLAY, 0, STATIC
        ARGFRAME DOVERLAY, 0, STATIC
        LOCFRAME XSTACK, 9, STACK
        FUNCTION gizProtocolIssuedDataAck,021203H
        ARGFRAME XSTACK, 96, STACK
        ARGFRAME IOVERLAY, 0, STATIC
        ARGFRAME DOVERLAY, 0, STATIC
        LOCFRAME ISTACK, 1, STACK
        LOCFRAME XSTACK, 50, STACK
        FUNCTION gizProtocolIssuedProcess,021203H
        ARGFRAME XSTACK, 98, STACK
        ARGFRAME IOVERLAY, 0, STATIC
        ARGFRAME DOVERLAY, 0, STATIC
        LOCFRAME XSTACK, 20, STACK
        FUNCTION gizProtocolModuleStatus,021203H
        ARGFRAME XSTACK, 92, STACK
        ARGFRAME IOVERLAY, 0, STATIC
        ARGFRAME DOVERLAY, 0, STATIC
        LOCFRAME XSTACK, 12, STACK
        FUNCTION gizProtocolSum,0203H
        ARGFRAME XSTACK, 130, STACK
        ARGFRAME IOVERLAY, 0, STATIC
        ARGFRAME DOVERLAY, 0, STATIC
        LOCFRAME XSTACK, 20, STACK
        FUNCTION gizProtocolWaitAck,021203H
        ARGFRAME XSTACK, 60, STACK
        ARGFRAME IOVERLAY, 0, STATIC
        ARGFRAME DOVERLAY, 0, STATIC
        LOCFRAME XSTACK, 19, STACK
        FUNCTION gizProtocolWaitAckCheck,021203H
        ARGFRAME XSTACK, 92, STACK
        ARGFRAME IOVERLAY, 0, STATIC
        ARGFRAME DOVERLAY, 0, STATIC
        LOCFRAME ISTACK, 2, STACK
        PUBLIC gizPutData
        FUNCTION gizPutData,021203H
        ARGFRAME XSTACK, 4, STACK
        LOCFRAME XSTACK, 18, STACK
        FUNCTION gizReportData,021203H
        ARGFRAME XSTACK, 20, STACK
        ARGFRAME IOVERLAY, 0, STATIC
        ARGFRAME DOVERLAY, 0, STATIC
        LOCFRAME ISTACK, 1, STACK
        LOCFRAME XSTACK, 60, STACK
        PUBLIC gizwitsGetNTP
        FUNCTION gizwitsGetNTP,021203H
        ARGFRAME XSTACK, 0, STACK
        LOCFRAME ISTACK, 1, STACK
        LOCFRAME XSTACK, 25, STACK
        PUBLIC gizwitsHandle
        FUNCTION gizwitsHandle,021203H
        ARGFRAME XSTACK, 0, STACK
        LOCFRAME XSTACK, 98, STACK
        PUBLIC gizwitsInit
        FUNCTION gizwitsInit,021203H
        ARGFRAME XSTACK, 0, STACK
        LOCFRAME ISTACK, 2, STACK
        PUBLIC gizwitsPassthroughData
        FUNCTION gizwitsPassthroughData,021203H
        ARGFRAME XSTACK, 4, STACK
        LOCFRAME ISTACK, 1, STACK
        LOCFRAME XSTACK, 51, STACK
        PUBLIC gizwitsProtocol
        PUBLIC gizwitsSetMode
        FUNCTION gizwitsSetMode,021203H
        ARGFRAME XSTACK, 0, STACK
        LOCFRAME ISTACK, 1, STACK
        LOCFRAME XSTACK, 26, STACK
        PUBLIC pRb
        FUNCTION rbCanRead,021203H
        ARGFRAME XSTACK, 28, STACK
        ARGFRAME IOVERLAY, 0, STATIC
        ARGFRAME DOVERLAY, 0, STATIC
        LOCFRAME ISTACK, 2, STACK
        LOCFRAME XSTACK, 16, STACK
        FUNCTION rbCanWrite,021203H
        ARGFRAME XSTACK, 22, STACK
        ARGFRAME IOVERLAY, 0, STATIC
        ARGFRAME DOVERLAY, 0, STATIC
        LOCFRAME XSTACK, 16, STACK
        FUNCTION rbCapacity,0203H
        ARGFRAME XSTACK, 28, STACK
        ARGFRAME IOVERLAY, 0, STATIC
        ARGFRAME DOVERLAY, 0, STATIC
        LOCFRAME XSTACK, 10, STACK
        FUNCTION rbRead,021203H
        ARGFRAME XSTACK, 30, STACK
        ARGFRAME IOVERLAY, 0, STATIC
        ARGFRAME DOVERLAY, 0, STATIC
        LOCFRAME ISTACK, 2, STACK
        LOCFRAME XSTACK, 31, STACK
        FUNCTION rbWrite,021203H
        ARGFRAME XSTACK, 24, STACK
        ARGFRAME IOVERLAY, 0, STATIC
        ARGFRAME DOVERLAY, 0, STATIC
        LOCFRAME ISTACK, 2, STACK
        LOCFRAME XSTACK, 25, STACK
        
        CFI Names cfiNames0
        CFI StackFrame CFA_SP SP IDATA
        CFI StackFrame CFA_PSP16 PSP16 XDATA
        CFI StackFrame CFA_XSP16 XSP16 XDATA
        CFI StaticOverlayFrame CFA_IOVERLAY IOVERLAY
        CFI StaticOverlayFrame CFA_DOVERLAY DOVERLAY
        CFI Resource `PSW.CY`:1, `B.BR0`:1, `B.BR1`:1, `B.BR2`:1, `B.BR3`:1
        CFI Resource `B.BR4`:1, `B.BR5`:1, `B.BR6`:1, `B.BR7`:1, `VB.BR8`:1
        CFI Resource `VB.BR9`:1, `VB.BR10`:1, `VB.BR11`:1, `VB.BR12`:1
        CFI Resource `VB.BR13`:1, `VB.BR14`:1, `VB.BR15`:1, VB:8, B:8, A:8
        CFI Resource PSW:8, DPL0:8, DPH0:8, R0:8, R1:8, R2:8, R3:8, R4:8, R5:8
        CFI Resource R6:8, R7:8, V0:8, V1:8, V2:8, V3:8, V4:8, V5:8, V6:8, V7:8
        CFI Resource V8:8, V9:8, V10:8, V11:8, V12:8, V13:8, V14:8, V15:8, SP:8
        CFI Resource PSPH:8, PSPL:8, PSP16:16, XSPH:8, XSPL:8, XSP16:16
        CFI VirtualResource ?RET:24
        CFI Resource ?BRET_EXT:8
        CFI VirtualResource ?RET_HIGH:8, ?RET_LOW:8
        CFI ResourceParts PSP16 PSPH, PSPL
        CFI ResourceParts XSP16 XSPH, XSPL
        CFI ResourceParts ?RET ?BRET_EXT, ?RET_HIGH, ?RET_LOW
        CFI EndNames cfiNames0
        
        CFI Common cfiCommon0 Using cfiNames0
        CFI CodeAlign 1
        CFI DataAlign -1
        CFI ReturnAddress ?RET CODE
        CFI CFA_DOVERLAY Used
        CFI CFA_IOVERLAY Used
        CFI CFA_SP SP+-3
        CFI CFA_PSP16 PSP16+0
        CFI CFA_XSP16 XSP16+0
        CFI `PSW.CY` SameValue
        CFI `B.BR0` SameValue
        CFI `B.BR1` SameValue
        CFI `B.BR2` SameValue
        CFI `B.BR3` SameValue
        CFI `B.BR4` SameValue
        CFI `B.BR5` SameValue
        CFI `B.BR6` SameValue
        CFI `B.BR7` SameValue
        CFI `VB.BR8` SameValue
        CFI `VB.BR9` SameValue
        CFI `VB.BR10` SameValue
        CFI `VB.BR11` SameValue
        CFI `VB.BR12` SameValue
        CFI `VB.BR13` SameValue
        CFI `VB.BR14` SameValue
        CFI `VB.BR15` SameValue
        CFI VB SameValue
        CFI B Undefined
        CFI A Undefined
        CFI PSW SameValue
        CFI DPL0 SameValue
        CFI DPH0 SameValue
        CFI R0 Undefined
        CFI R1 Undefined
        CFI R2 Undefined
        CFI R3 Undefined
        CFI R4 Undefined
        CFI R5 Undefined
        CFI R6 SameValue
        CFI R7 SameValue
        CFI V0 SameValue
        CFI V1 SameValue
        CFI V2 SameValue
        CFI V3 SameValue
        CFI V4 SameValue
        CFI V5 SameValue
        CFI V6 SameValue
        CFI V7 SameValue
        CFI V8 SameValue
        CFI V9 SameValue
        CFI V10 SameValue
        CFI V11 SameValue
        CFI V12 SameValue
        CFI V13 SameValue
        CFI V14 SameValue
        CFI V15 SameValue
        CFI PSPH Undefined
        CFI PSPL Undefined
        CFI XSPH Undefined
        CFI XSPL Undefined
        CFI ?RET Concat
        CFI ?BRET_EXT Frame(CFA_SP, 3)
        CFI ?RET_HIGH Frame(CFA_SP, 2)
        CFI ?RET_LOW Frame(CFA_SP, 1)
        CFI EndCommon cfiCommon0
        
        
        CFI Common cfiCommon1 Using cfiNames0
        CFI CodeAlign 1
        CFI DataAlign -1
        CFI ReturnAddress ?RET CODE
        CFI CFA_DOVERLAY Used
        CFI CFA_IOVERLAY Used
        CFI CFA_SP SP+-2
        CFI CFA_PSP16 PSP16+0
        CFI CFA_XSP16 XSP16+0
        CFI `PSW.CY` SameValue
        CFI `B.BR0` SameValue
        CFI `B.BR1` SameValue
        CFI `B.BR2` SameValue
        CFI `B.BR3` SameValue
        CFI `B.BR4` SameValue
        CFI `B.BR5` SameValue
        CFI `B.BR6` SameValue
        CFI `B.BR7` SameValue
        CFI `VB.BR8` SameValue
        CFI `VB.BR9` SameValue
        CFI `VB.BR10` SameValue
        CFI `VB.BR11` SameValue
        CFI `VB.BR12` SameValue
        CFI `VB.BR13` SameValue
        CFI `VB.BR14` SameValue
        CFI `VB.BR15` SameValue
        CFI VB SameValue
        CFI B SameValue
        CFI A SameValue
        CFI PSW SameValue
        CFI DPL0 SameValue
        CFI DPH0 SameValue
        CFI R0 SameValue
        CFI R1 SameValue
        CFI R2 SameValue
        CFI R3 SameValue
        CFI R4 SameValue
        CFI R5 SameValue
        CFI R6 SameValue
        CFI R7 SameValue
        CFI V0 SameValue
        CFI V1 SameValue
        CFI V2 SameValue
        CFI V3 SameValue
        CFI V4 SameValue
        CFI V5 SameValue
        CFI V6 SameValue
        CFI V7 SameValue
        CFI V8 SameValue
        CFI V9 SameValue
        CFI V10 SameValue
        CFI V11 SameValue
        CFI V12 SameValue
        CFI V13 SameValue
        CFI V14 SameValue
        CFI V15 SameValue
        CFI PSPH Undefined
        CFI PSPL Undefined
        CFI XSPH Undefined
        CFI XSPL Undefined
        CFI ?RET Concat
        CFI ?BRET_EXT SameValue
        CFI ?RET_HIGH Frame(CFA_SP, 2)
        CFI ?RET_LOW Frame(CFA_SP, 1)
        CFI EndCommon cfiCommon1
        
osal_memcpy         SYMBOL "osal_memcpy"
osal_memset         SYMBOL "osal_memset"
gizGetTimerCount    SYMBOL "gizGetTimerCount"
osal_memcmp         SYMBOL "osal_memcmp"
uartWrite           SYMBOL "uartWrite"
gizwitsEventProcess SYMBOL "gizwitsEventProcess"
mcuRestart          SYMBOL "mcuRestart"
osal_mem_free       SYMBOL "osal_mem_free"
??gizGetTimerCount?relay SYMBOL "?relay", gizGetTimerCount
??gizwitsEventProcess?relay SYMBOL "?relay", gizwitsEventProcess
??mcuRestart?relay  SYMBOL "?relay", mcuRestart
??osal_mem_free?relay SYMBOL "?relay", osal_mem_free
??osal_memcmp?relay SYMBOL "?relay", osal_memcmp
??osal_memcpy?relay SYMBOL "?relay", osal_memcpy
??osal_memset?relay SYMBOL "?relay", osal_memset
??uartWrite?relay   SYMBOL "?relay", uartWrite
calculateDynamicBitPartLen SYMBOL "calculateDynamicBitPartLen"
??calculateDynamicBitPartLen?relay SYMBOL "?relay", calculateDynamicBitPartLen
gizPutData          SYMBOL "gizPutData"
??gizPutData?relay  SYMBOL "?relay", gizPutData
gizwitsGetNTP       SYMBOL "gizwitsGetNTP"
??gizwitsGetNTP?relay SYMBOL "?relay", gizwitsGetNTP
gizwitsHandle       SYMBOL "gizwitsHandle"
??gizwitsHandle?relay SYMBOL "?relay", gizwitsHandle
gizwitsInit         SYMBOL "gizwitsInit"
??gizwitsInit?relay SYMBOL "?relay", gizwitsInit
gizwitsPassthroughData SYMBOL "gizwitsPassthroughData"
??gizwitsPassthroughData?relay SYMBOL "?relay", gizwitsPassthroughData
gizwitsSetMode      SYMBOL "gizwitsSetMode"
??gizwitsSetMode?relay SYMBOL "?relay", gizwitsSetMode

        EXTERN osal_memcpy
        FUNCTION osal_memcpy,0202H
        ARGFRAME ISTACK, 0, STACK
        ARGFRAME PSTACK, 0, STACK
        ARGFRAME XSTACK, 129, STACK
        ARGFRAME IOVERLAY, 0, STATIC
        ARGFRAME DOVERLAY, 0, STATIC
        EXTERN osal_memset
        FUNCTION osal_memset,0202H
        ARGFRAME ISTACK, 2, STACK
        ARGFRAME PSTACK, 0, STACK
        ARGFRAME XSTACK, 126, STACK
        ARGFRAME IOVERLAY, 0, STATIC
        ARGFRAME DOVERLAY, 0, STATIC
        EXTERN gizGetTimerCount
        FUNCTION gizGetTimerCount,0202H
        ARGFRAME ISTACK, 0, STACK
        ARGFRAME PSTACK, 0, STACK
        ARGFRAME XSTACK, 92, STACK
        ARGFRAME IOVERLAY, 0, STATIC
        ARGFRAME DOVERLAY, 0, STATIC
        EXTERN osal_memcmp
        FUNCTION osal_memcmp,0202H
        ARGFRAME ISTACK, 0, STACK
        ARGFRAME PSTACK, 0, STACK
        ARGFRAME XSTACK, 18, STACK
        ARGFRAME IOVERLAY, 0, STATIC
        ARGFRAME DOVERLAY, 0, STATIC
        EXTERN uartWrite
        FUNCTION uartWrite,0202H
        ARGFRAME ISTACK, 0, STACK
        ARGFRAME PSTACK, 0, STACK
        ARGFRAME XSTACK, 130, STACK
        ARGFRAME IOVERLAY, 0, STATIC
        ARGFRAME DOVERLAY, 0, STATIC
        EXTERN gizwitsEventProcess
        FUNCTION gizwitsEventProcess,0202H
        ARGFRAME ISTACK, 0, STACK
        ARGFRAME PSTACK, 0, STACK
        ARGFRAME XSTACK, 96, STACK
        ARGFRAME IOVERLAY, 0, STATIC
        ARGFRAME DOVERLAY, 0, STATIC
        EXTERN mcuRestart
        FUNCTION mcuRestart,0202H
        ARGFRAME ISTACK, 0, STACK
        ARGFRAME PSTACK, 0, STACK
        ARGFRAME XSTACK, 92, STACK
        ARGFRAME IOVERLAY, 0, STATIC
        ARGFRAME DOVERLAY, 0, STATIC
        EXTERN osal_mem_free
        FUNCTION osal_mem_free,0202H
        ARGFRAME ISTACK, 0, STACK
        ARGFRAME PSTACK, 0, STACK
        ARGFRAME XSTACK, 92, STACK
        ARGFRAME IOVERLAY, 0, STATIC
        ARGFRAME DOVERLAY, 0, STATIC
        EXTERN ??gizGetTimerCount?relay
        FUNCTION ??gizGetTimerCount?relay,00H
        EXTERN ??gizwitsEventProcess?relay
        FUNCTION ??gizwitsEventProcess?relay,00H
        EXTERN ??mcuRestart?relay
        FUNCTION ??mcuRestart?relay,00H
        EXTERN ??osal_mem_free?relay
        FUNCTION ??osal_mem_free?relay,00H
        EXTERN ??osal_memcmp?relay
        FUNCTION ??osal_memcmp?relay,00H
        EXTERN ??osal_memcpy?relay
        FUNCTION ??osal_memcpy?relay,00H
        EXTERN ??osal_memset?relay
        FUNCTION ??osal_memset?relay,00H
        EXTERN ??uartWrite?relay
        FUNCTION ??uartWrite?relay,00H
        EXTERN AutoUpateMac
        EXTERN MacToAppFlag
        EXTERN NewMacUpate
        EXTERN currentDataPoint
        EXTERN deletnodelist
        EXTERN nodelist

// E:\work\smartlight\ZigLight001\Projects\zstack\Samples\ZigLightApp\Source\gizwits_protocol.c
//    1 /**
//    2 ************************************************************
//    3 * @file         gizwits_protocol.c
//    4 * @brief        GizwitsÂçèËÆÆÁõ∏ÂÖ≥Êñá‰ª∂ (SDK API Êé•Âè£ÂáΩÊï∞ÂÆö‰πâ)
//    5 * @author       Gizwits
//    6 * @date         2016-09-05
//    7 * @version      V03010101
//    8 * @copyright    Gizwits
//    9 * 
//   10 * @note         Êú∫Êô∫‰∫?Âè™‰∏∫Êô∫ËÉΩÁ°¨‰ª∂ËÄåÁîü
//   11 *               Gizwits Smart Cloud  for Smart Products
//   12 *               ÈìæÊé•|Â¢ûÂÄº÷µ|ÂºÄÊîæ|‰∏≠Á´ã|ÂÆâÂÖ®|Ëá™Êúâ|Ëá™Áî±|ÁîüÊÄ?*               www.gizwits.com
//   13 *
//   14 ***********************************************************/
//   15 #include "gizwits_protocol.h"
//   16 #include "List1.h"
//   17 extern uint8 MacToAppFlag ;//by liu
//   18 extern uint8 AutoUpateMac ;//by liu
//   19 extern uint8 NewMacUpate;//by liu
//   20 extern Node *nodelist;// by liu
//   21 extern dataPoint_t currentDataPoint;// by liu
//   22 extern Node *deletnodelist;// by liu
//   23 extern uint32 gizGetTimerCount(void);
//   24 extern int8 gizwitsEventProcess(eventInfo_t *info, uint8 *data, uint32 len);
//   25 uint32 ICACHE_FLASH_ATTR calculateDynamicBitPartLen(dataPointFlags_t *aFlag);
//   26 /** ÂçèËÆÆÂÖ®Â±ÄÂèòÈáè **/

        RSEG XDATA_Z:XDATA:NOROOT(0)
        DATA8
//   27 gizwitsProtocol_t gizwitsProtocol;
gizwitsProtocol:
        DS 246
        REQUIRE __INIT_XDATA_Z
//   28 
//   29 /**@name ‰∏≤Âè£Êé•Êî∂ÁéØÂΩ¢ÁºìÂÜ≤Âå∫ÂÆûÁé?* @{
//   30 */

        RSEG XDATA_Z:XDATA:NOROOT(0)
        DATA8
//   31 rb_t pRb;                                               ///< ÁéØÂΩ¢ÁºìÂÜ≤Âå∫ÁªìÊûÑ‰ΩìÂèòÈáè
pRb:
        DS 8
        REQUIRE __INIT_XDATA_Z

        RSEG XDATA_Z:XDATA:NOROOT(0)
        DATA8
//   32 static uint8 rbBuf[RB_MAX_LEN];                       ///< ÁéØÂΩ¢ÁºìÂÜ≤Âå∫Êï∞ÊçÆÁºìÂ≠òÂå∫
rbBuf:
        DS 62
        REQUIRE __INIT_XDATA_Z
//   33 
//   34 static void rbCreate(rb_t* rb)
//   35 {
//   36     if(NULL == rb)
//   37     {
//   38         GIZWITS_LOG("ERROR: input rb is NULL\n");
//   39         return;
//   40     }
//   41 
//   42     rb->rbHead = rb->rbBuff;
//   43     rb->rbTail = rb->rbBuff;
//   44 }
//   45 
//   46 static void rbDelete(rb_t* rb)
//   47 {
//   48     if(NULL == rb)
//   49     {
//   50         GIZWITS_LOG("ERROR: input rb is NULL\n");
//   51         return;
//   52     }
//   53 
//   54     rb->rbBuff = NULL;
//   55     rb->rbHead = NULL;
//   56     rb->rbTail = NULL;
//   57     rb->rbCapacity = 0;
//   58 }
//   59 #pragma optimize=none

        RSEG BANKED_CODE:CODE:NOROOT(0)
//   60 static int32 rbCapacity(rb_t *rb)
rbCapacity:
        CFI Block cfiBlock0 Using cfiCommon0
        CFI Function rbCapacity
        CODE
//   61 {
        MOV     A,#-0xa
        LCALL   ?BANKED_ENTER_XDATA
        CFI DPH0 load(1, XDATA, add(CFA_XSP16, literal(-1)))
        CFI DPL0 load(1, XDATA, add(CFA_XSP16, literal(-2)))
        CFI ?BRET_EXT load(1, XDATA, add(CFA_XSP16, literal(-3)))
        CFI ?RET_HIGH load(1, XDATA, add(CFA_XSP16, literal(-4)))
        CFI ?RET_LOW load(1, XDATA, add(CFA_XSP16, literal(-5)))
        CFI R7 load(1, XDATA, add(CFA_XSP16, literal(-6)))
        CFI V1 load(1, XDATA, add(CFA_XSP16, literal(-7)))
        CFI V0 load(1, XDATA, add(CFA_XSP16, literal(-8)))
        CFI VB load(1, XDATA, add(CFA_XSP16, literal(-9)))
        CFI R6 load(1, XDATA, add(CFA_XSP16, literal(-10)))
        CFI CFA_SP SP+0
        CFI CFA_XSP16 add(XSP16, 10)
        ; Saved register size: 10
        ; Auto size: 0
        MOV     DPL,R2
        MOV     DPH,R3
//   62     if(NULL == rb)
        MOV     A,DPL
        ORL     A,DPH
        JNZ     ??rbCapacity_0
//   63     {
//   64         GIZWITS_LOG("ERROR: input rb is NULL\n");
//   65         return -1;
        MOV     R2,#-0x1
        MOV     R3,#-0x1
        MOV     R4,#-0x1
        MOV     R5,#-0x1
        SJMP    ??rbCapacity_1
//   66     }
//   67 
//   68     return rb->rbCapacity;
??rbCapacity_0:
        MOVX    A,@DPTR
        MOV     ?V0 + 0,A
        INC     DPTR
        MOVX    A,@DPTR
        MOV     ?V0 + 1,A
        MOV     R2,?V0 + 0
        MOV     R3,?V0 + 1
        CLR     A
        MOV     R4,A
        MOV     R5,A
??rbCapacity_1:
        MOV     R7,#0x2
        LJMP    ?BANKED_LEAVE_XDATA
        CFI EndBlock cfiBlock0
//   69 }
//   70 #pragma optimize=none

        RSEG BANKED_CODE:CODE:NOROOT(0)
//   71 static int32 rbCanRead(rb_t *rb)
rbCanRead:
        CFI Block cfiBlock1 Using cfiCommon0
        CFI Function rbCanRead
        CODE
//   72 {
        FUNCALL rbCanRead, rbCapacity
        LOCFRAME ISTACK, 0, STACK
        LOCFRAME PSTACK, 0, STACK
        LOCFRAME XSTACK, 16, STACK
        LOCFRAME IOVERLAY, 0, STATIC
        LOCFRAME DOVERLAY, 0, STATIC
        ARGFRAME ISTACK, 0, STACK
        ARGFRAME PSTACK, 0, STACK
        ARGFRAME XSTACK, 16, STACK
        ARGFRAME IOVERLAY, 0, STATIC
        ARGFRAME DOVERLAY, 0, STATIC
        MOV     A,#-0x10
        LCALL   ?BANKED_ENTER_XDATA
        CFI DPH0 load(1, XDATA, add(CFA_XSP16, literal(-1)))
        CFI DPL0 load(1, XDATA, add(CFA_XSP16, literal(-2)))
        CFI ?BRET_EXT load(1, XDATA, add(CFA_XSP16, literal(-3)))
        CFI ?RET_HIGH load(1, XDATA, add(CFA_XSP16, literal(-4)))
        CFI ?RET_LOW load(1, XDATA, add(CFA_XSP16, literal(-5)))
        CFI R7 load(1, XDATA, add(CFA_XSP16, literal(-6)))
        CFI V7 load(1, XDATA, add(CFA_XSP16, literal(-7)))
        CFI V6 load(1, XDATA, add(CFA_XSP16, literal(-8)))
        CFI V5 load(1, XDATA, add(CFA_XSP16, literal(-9)))
        CFI V4 load(1, XDATA, add(CFA_XSP16, literal(-10)))
        CFI V3 load(1, XDATA, add(CFA_XSP16, literal(-11)))
        CFI V2 load(1, XDATA, add(CFA_XSP16, literal(-12)))
        CFI V1 load(1, XDATA, add(CFA_XSP16, literal(-13)))
        CFI V0 load(1, XDATA, add(CFA_XSP16, literal(-14)))
        CFI VB load(1, XDATA, add(CFA_XSP16, literal(-15)))
        CFI R6 load(1, XDATA, add(CFA_XSP16, literal(-16)))
        CFI CFA_SP SP+0
        CFI CFA_XSP16 add(XSP16, 16)
        ; Saved register size: 16
        ; Auto size: 0
        MOV     A,R2
        MOV     R6,A
        MOV     A,R3
        MOV     R7,A
//   73     if(NULL == rb)
        MOV     A,R6
        ORL     A,R7
        JNZ     ??rbCanRead_0
//   74     {
//   75         GIZWITS_LOG("ERROR: input rb is NULL\n");
//   76         return -1;
        MOV     R2,#-0x1
        MOV     R3,#-0x1
        MOV     R4,#-0x1
        MOV     R5,#-0x1
        LJMP    ??rbCanRead_1 & 0xFFFF
//   77     }
//   78 
//   79     if (rb->rbHead == rb->rbTail)
??rbCanRead_0:
        MOV     DPL,R6
        MOV     DPH,R7
        INC     DPTR
        INC     DPTR
        MOVX    A,@DPTR
        MOV     R0,A
        INC     DPTR
        MOVX    A,@DPTR
        MOV     R1,A
        MOV     DPL,R6
        MOV     DPH,R7
        INC     DPTR
        INC     DPTR
        INC     DPTR
        INC     DPTR
        MOVX    A,@DPTR
        XRL     A,R0
        JNZ     ??rbCanRead_2
        INC     DPTR
        MOVX    A,@DPTR
        XRL     A,R1
??rbCanRead_2:
        JNZ     ??rbCanRead_3
//   80     {
//   81         return 0;
        MOV     R2,#0x0
        MOV     R3,#0x0
        MOV     R4,#0x0
        MOV     R5,#0x0
        LJMP    ??rbCanRead_1 & 0xFFFF
//   82     }
//   83 
//   84     if (rb->rbHead < rb->rbTail)
??rbCanRead_3:
        MOV     DPL,R6
        MOV     DPH,R7
        INC     DPTR
        INC     DPTR
        PUSH    DPL
        CFI CFA_SP SP+-1
        PUSH    DPH
        CFI CFA_SP SP+-2
        MOV     DPL,R6
        MOV     DPH,R7
        INC     DPTR
        INC     DPTR
        INC     DPTR
        INC     DPTR
        MOVX    A,@DPTR
        MOV     R0,A
        INC     DPTR
        MOVX    A,@DPTR
        MOV     R1,A
        POP     DPH
        CFI CFA_SP SP+-1
        POP     DPL
        CFI CFA_SP SP+0
        CLR     C
        MOVX    A,@DPTR
        SUBB    A,R0
        INC     DPTR
        MOVX    A,@DPTR
        SUBB    A,R1
        JNC     ??rbCanRead_4
//   85     {
//   86         return rb->rbTail - rb->rbHead;
        MOV     DPL,R6
        MOV     DPH,R7
        INC     DPTR
        INC     DPTR
        INC     DPTR
        INC     DPTR
        PUSH    DPL
        CFI CFA_SP SP+-1
        PUSH    DPH
        CFI CFA_SP SP+-2
        MOV     DPL,R6
        MOV     DPH,R7
        INC     DPTR
        INC     DPTR
        MOVX    A,@DPTR
        MOV     R0,A
        INC     DPTR
        MOVX    A,@DPTR
        MOV     R1,A
        POP     DPH
        CFI CFA_SP SP+-1
        POP     DPL
        CFI CFA_SP SP+0
        MOVX    A,@DPTR
        CLR     C
        SUBB    A,R0
        MOV     R2,A
        INC     DPTR
        MOVX    A,@DPTR
        SUBB    A,R1
        MOV     R3,A
        MOV     A,R3
        RLC     A
        SUBB    A,0xE0 /* A   */
        MOV     R4,A
        MOV     R5,A
        SJMP    ??rbCanRead_1
//   87     }
//   88 
//   89     return rbCapacity(rb) - (rb->rbHead - rb->rbTail);
??rbCanRead_4:
        ; Setup parameters for call to function rbCapacity
        MOV     A,R6
        MOV     R2,A
        MOV     A,R7
        MOV     R3,A
        LCALL   ??rbCapacity?relay
        MOV     ?V0 + 4,R2
        MOV     ?V0 + 5,R3
        MOV     ?V0 + 6,R4
        MOV     ?V0 + 7,R5
        MOV     DPL,R6
        MOV     DPH,R7
        INC     DPTR
        INC     DPTR
        PUSH    DPL
        CFI CFA_SP SP+-1
        PUSH    DPH
        CFI CFA_SP SP+-2
        MOV     DPL,R6
        MOV     DPH,R7
        INC     DPTR
        INC     DPTR
        INC     DPTR
        INC     DPTR
        MOVX    A,@DPTR
        MOV     R0,A
        INC     DPTR
        MOVX    A,@DPTR
        MOV     R1,A
        POP     DPH
        CFI CFA_SP SP+-1
        POP     DPL
        CFI CFA_SP SP+0
        MOVX    A,@DPTR
        CLR     C
        SUBB    A,R0
        MOV     ?V0 + 0,A
        INC     DPTR
        MOVX    A,@DPTR
        SUBB    A,R1
        MOV     ?V0 + 1,A
        MOV     A,?V0 + 1
        RLC     A
        SUBB    A,0xE0 /* A   */
        MOV     ?V0 + 2,A
        MOV     ?V0 + 3,A
        MOV     R0,#?V0 + 4
        MOV     R1,#?V0 + 0
        LCALL   ?L_SUB
        MOV     R2,?V0 + 4
        MOV     R3,?V0 + 5
        MOV     R4,?V0 + 6
        MOV     R5,?V0 + 7
??rbCanRead_1:
        MOV     R7,#0x8
        LJMP    ?BANKED_LEAVE_XDATA
        CFI EndBlock cfiBlock1
//   90 }
//   91 #pragma optimize=none

        RSEG BANKED_CODE:CODE:NOROOT(0)
//   92 static int32 rbCanWrite(rb_t *rb)
rbCanWrite:
        CFI Block cfiBlock2 Using cfiCommon0
        CFI Function rbCanWrite
        CODE
//   93 {
        FUNCALL rbCanWrite, rbCapacity
        LOCFRAME ISTACK, 0, STACK
        LOCFRAME PSTACK, 0, STACK
        LOCFRAME XSTACK, 16, STACK
        LOCFRAME IOVERLAY, 0, STATIC
        LOCFRAME DOVERLAY, 0, STATIC
        ARGFRAME ISTACK, 0, STACK
        ARGFRAME PSTACK, 0, STACK
        ARGFRAME XSTACK, 16, STACK
        ARGFRAME IOVERLAY, 0, STATIC
        ARGFRAME DOVERLAY, 0, STATIC
        FUNCALL rbCanWrite, rbCanRead
        LOCFRAME ISTACK, 0, STACK
        LOCFRAME PSTACK, 0, STACK
        LOCFRAME XSTACK, 16, STACK
        LOCFRAME IOVERLAY, 0, STATIC
        LOCFRAME DOVERLAY, 0, STATIC
        ARGFRAME ISTACK, 0, STACK
        ARGFRAME PSTACK, 0, STACK
        ARGFRAME XSTACK, 16, STACK
        ARGFRAME IOVERLAY, 0, STATIC
        ARGFRAME DOVERLAY, 0, STATIC
        MOV     A,#-0x10
        LCALL   ?BANKED_ENTER_XDATA
        CFI DPH0 load(1, XDATA, add(CFA_XSP16, literal(-1)))
        CFI DPL0 load(1, XDATA, add(CFA_XSP16, literal(-2)))
        CFI ?BRET_EXT load(1, XDATA, add(CFA_XSP16, literal(-3)))
        CFI ?RET_HIGH load(1, XDATA, add(CFA_XSP16, literal(-4)))
        CFI ?RET_LOW load(1, XDATA, add(CFA_XSP16, literal(-5)))
        CFI R7 load(1, XDATA, add(CFA_XSP16, literal(-6)))
        CFI V7 load(1, XDATA, add(CFA_XSP16, literal(-7)))
        CFI V6 load(1, XDATA, add(CFA_XSP16, literal(-8)))
        CFI V5 load(1, XDATA, add(CFA_XSP16, literal(-9)))
        CFI V4 load(1, XDATA, add(CFA_XSP16, literal(-10)))
        CFI V3 load(1, XDATA, add(CFA_XSP16, literal(-11)))
        CFI V2 load(1, XDATA, add(CFA_XSP16, literal(-12)))
        CFI V1 load(1, XDATA, add(CFA_XSP16, literal(-13)))
        CFI V0 load(1, XDATA, add(CFA_XSP16, literal(-14)))
        CFI VB load(1, XDATA, add(CFA_XSP16, literal(-15)))
        CFI R6 load(1, XDATA, add(CFA_XSP16, literal(-16)))
        CFI CFA_SP SP+0
        CFI CFA_XSP16 add(XSP16, 16)
        ; Saved register size: 16
        ; Auto size: 0
        MOV     A,R2
        MOV     R6,A
        MOV     A,R3
        MOV     R7,A
//   94     if(NULL == rb)
        MOV     A,R6
        ORL     A,R7
        JNZ     ??rbCanWrite_0
//   95     {
//   96         GIZWITS_LOG("ERROR: input rb is NULL\n");
//   97         return -1;
        MOV     R2,#-0x1
        MOV     R3,#-0x1
        MOV     R4,#-0x1
        MOV     R5,#-0x1
        SJMP    ??rbCanWrite_1
//   98     }
//   99 
//  100     return rbCapacity(rb) - rbCanRead(rb);
??rbCanWrite_0:
        ; Setup parameters for call to function rbCapacity
        MOV     A,R6
        MOV     R2,A
        MOV     A,R7
        MOV     R3,A
        LCALL   ??rbCapacity?relay
        MOV     ?V0 + 0,R2
        MOV     ?V0 + 1,R3
        MOV     ?V0 + 2,R4
        MOV     ?V0 + 3,R5
        ; Setup parameters for call to function rbCanRead
        MOV     A,R6
        MOV     R2,A
        MOV     A,R7
        MOV     R3,A
        LCALL   ??rbCanRead?relay
        MOV     ?V0 + 4,R2
        MOV     ?V0 + 5,R3
        MOV     ?V0 + 6,R4
        MOV     ?V0 + 7,R5
        MOV     R0,#?V0 + 0
        MOV     R1,#?V0 + 4
        LCALL   ?L_SUB
        MOV     R2,?V0 + 0
        MOV     R3,?V0 + 1
        MOV     R4,?V0 + 2
        MOV     R5,?V0 + 3
??rbCanWrite_1:
        MOV     R7,#0x8
        LJMP    ?BANKED_LEAVE_XDATA
        CFI EndBlock cfiBlock2
//  101 }
//  102 

        RSEG BANKED_CODE:CODE:NOROOT(0)
//  103 static int32 rbRead(rb_t *rb, void *data, uint16 count)
rbRead:
        CFI Block cfiBlock3 Using cfiCommon0
        CFI Function rbRead
        CODE
//  104 {
        FUNCALL rbRead, rbCanRead
        LOCFRAME ISTACK, 0, STACK
        LOCFRAME PSTACK, 0, STACK
        LOCFRAME XSTACK, 28, STACK
        LOCFRAME IOVERLAY, 0, STATIC
        LOCFRAME DOVERLAY, 0, STATIC
        ARGFRAME ISTACK, 0, STACK
        ARGFRAME PSTACK, 0, STACK
        ARGFRAME XSTACK, 28, STACK
        ARGFRAME IOVERLAY, 0, STATIC
        ARGFRAME DOVERLAY, 0, STATIC
        FUNCALL rbRead, rbCanRead
        LOCFRAME ISTACK, 0, STACK
        LOCFRAME PSTACK, 0, STACK
        LOCFRAME XSTACK, 28, STACK
        LOCFRAME IOVERLAY, 0, STATIC
        LOCFRAME DOVERLAY, 0, STATIC
        ARGFRAME ISTACK, 0, STACK
        ARGFRAME PSTACK, 0, STACK
        ARGFRAME XSTACK, 28, STACK
        ARGFRAME IOVERLAY, 0, STATIC
        ARGFRAME DOVERLAY, 0, STATIC
        FUNCALL rbRead, osal_memcpy
        LOCFRAME ISTACK, 0, STACK
        LOCFRAME PSTACK, 0, STACK
        LOCFRAME XSTACK, 31, STACK
        LOCFRAME IOVERLAY, 0, STATIC
        LOCFRAME DOVERLAY, 0, STATIC
        ARGFRAME ISTACK, 0, STACK
        ARGFRAME PSTACK, 0, STACK
        ARGFRAME XSTACK, 31, STACK
        ARGFRAME IOVERLAY, 0, STATIC
        ARGFRAME DOVERLAY, 0, STATIC
        FUNCALL rbRead, rbCapacity
        LOCFRAME ISTACK, 0, STACK
        LOCFRAME PSTACK, 0, STACK
        LOCFRAME XSTACK, 28, STACK
        LOCFRAME IOVERLAY, 0, STATIC
        LOCFRAME DOVERLAY, 0, STATIC
        ARGFRAME ISTACK, 0, STACK
        ARGFRAME PSTACK, 0, STACK
        ARGFRAME XSTACK, 28, STACK
        ARGFRAME IOVERLAY, 0, STATIC
        ARGFRAME DOVERLAY, 0, STATIC
        FUNCALL rbRead, osal_memcpy
        LOCFRAME ISTACK, 0, STACK
        LOCFRAME PSTACK, 0, STACK
        LOCFRAME XSTACK, 31, STACK
        LOCFRAME IOVERLAY, 0, STATIC
        LOCFRAME DOVERLAY, 0, STATIC
        ARGFRAME ISTACK, 0, STACK
        ARGFRAME PSTACK, 0, STACK
        ARGFRAME XSTACK, 31, STACK
        ARGFRAME IOVERLAY, 0, STATIC
        ARGFRAME DOVERLAY, 0, STATIC
        FUNCALL rbRead, rbCapacity
        LOCFRAME ISTACK, 0, STACK
        LOCFRAME PSTACK, 0, STACK
        LOCFRAME XSTACK, 28, STACK
        LOCFRAME IOVERLAY, 0, STATIC
        LOCFRAME DOVERLAY, 0, STATIC
        ARGFRAME ISTACK, 0, STACK
        ARGFRAME PSTACK, 0, STACK
        ARGFRAME XSTACK, 28, STACK
        ARGFRAME IOVERLAY, 0, STATIC
        ARGFRAME DOVERLAY, 0, STATIC
        FUNCALL rbRead, osal_memcpy
        LOCFRAME ISTACK, 0, STACK
        LOCFRAME PSTACK, 0, STACK
        LOCFRAME XSTACK, 31, STACK
        LOCFRAME IOVERLAY, 0, STATIC
        LOCFRAME DOVERLAY, 0, STATIC
        ARGFRAME ISTACK, 0, STACK
        ARGFRAME PSTACK, 0, STACK
        ARGFRAME XSTACK, 31, STACK
        ARGFRAME IOVERLAY, 0, STATIC
        ARGFRAME DOVERLAY, 0, STATIC
        FUNCALL rbRead, rbRead
        LOCFRAME ISTACK, 0, STACK
        LOCFRAME PSTACK, 0, STACK
        LOCFRAME XSTACK, 30, STACK
        LOCFRAME IOVERLAY, 0, STATIC
        LOCFRAME DOVERLAY, 0, STATIC
        ARGFRAME ISTACK, 0, STACK
        ARGFRAME PSTACK, 0, STACK
        ARGFRAME XSTACK, 30, STACK
        ARGFRAME IOVERLAY, 0, STATIC
        ARGFRAME DOVERLAY, 0, STATIC
        MOV     A,#-0x18
        LCALL   ?BANKED_ENTER_XDATA
        CFI DPH0 load(1, XDATA, add(CFA_XSP16, literal(-1)))
        CFI DPL0 load(1, XDATA, add(CFA_XSP16, literal(-2)))
        CFI ?BRET_EXT load(1, XDATA, add(CFA_XSP16, literal(-3)))
        CFI ?RET_HIGH load(1, XDATA, add(CFA_XSP16, literal(-4)))
        CFI ?RET_LOW load(1, XDATA, add(CFA_XSP16, literal(-5)))
        CFI R7 load(1, XDATA, add(CFA_XSP16, literal(-6)))
        CFI V15 load(1, XDATA, add(CFA_XSP16, literal(-7)))
        CFI V14 load(1, XDATA, add(CFA_XSP16, literal(-8)))
        CFI V13 load(1, XDATA, add(CFA_XSP16, literal(-9)))
        CFI V12 load(1, XDATA, add(CFA_XSP16, literal(-10)))
        CFI V11 load(1, XDATA, add(CFA_XSP16, literal(-11)))
        CFI V10 load(1, XDATA, add(CFA_XSP16, literal(-12)))
        CFI V9 load(1, XDATA, add(CFA_XSP16, literal(-13)))
        CFI V8 load(1, XDATA, add(CFA_XSP16, literal(-14)))
        CFI V7 load(1, XDATA, add(CFA_XSP16, literal(-15)))
        CFI V6 load(1, XDATA, add(CFA_XSP16, literal(-16)))
        CFI V5 load(1, XDATA, add(CFA_XSP16, literal(-17)))
        CFI V4 load(1, XDATA, add(CFA_XSP16, literal(-18)))
        CFI V3 load(1, XDATA, add(CFA_XSP16, literal(-19)))
        CFI V2 load(1, XDATA, add(CFA_XSP16, literal(-20)))
        CFI V1 load(1, XDATA, add(CFA_XSP16, literal(-21)))
        CFI V0 load(1, XDATA, add(CFA_XSP16, literal(-22)))
        CFI VB load(1, XDATA, add(CFA_XSP16, literal(-23)))
        CFI R6 load(1, XDATA, add(CFA_XSP16, literal(-24)))
        CFI CFA_SP SP+0
        CFI CFA_XSP16 add(XSP16, 24)
        ; Saved register size: 24
        ; Auto size: 4
        MOV     A,#-0x4
        LCALL   ?ALLOC_XSTACK8
        CFI CFA_XSP16 add(XSP16, 28)
        MOV     DPL,?XSP + 0
        MOV     DPH,?XSP + 1
        LCALL   ?Subroutine12 & 0xFFFF
??CrossCallReturnLabel_124:
        MOV     A,#0x2
        LCALL   ?XSTACK_DISP0_8
        MOV     A,R4
        MOVX    @DPTR,A
        INC     DPTR
        MOV     A,R5
        MOVX    @DPTR,A
        MOV     A,#0x1c
        LCALL   ?XSTACK_DISP0_8
        LCALL   ?Subroutine56 & 0xFFFF
//  105     int copySz = 0;
//  106 
//  107     if(NULL == rb)
??CrossCallReturnLabel_87:
        MOV     DPL,?XSP + 0
        MOV     DPH,?XSP + 1
        LCALL   ??Subroutine73_0 & 0xFFFF
??CrossCallReturnLabel_185:
        JNZ     ??rbRead_0
//  108     {
//  109         GIZWITS_LOG("ERROR: input rb is NULL\n");
//  110         return -1;
??rbRead_1:
        MOV     R2,#-0x1
        MOV     R3,#-0x1
        MOV     R4,#-0x1
        MOV     R5,#-0x1
        LJMP    ??rbRead_2 & 0xFFFF
//  111     }
//  112 
//  113     if(NULL == data)
??rbRead_0:
        MOV     A,#0x2
        LCALL   ?XSTACK_DISP0_8
        LCALL   ??Subroutine73_0 & 0xFFFF
??CrossCallReturnLabel_186:
        JZ      ??rbRead_1
//  114     {
//  115         GIZWITS_LOG("ERROR: input data is NULL\n");
//  116         return -1;
//  117     }
//  118 
//  119     if (rb->rbHead < rb->rbTail)
        LCALL   ?Subroutine33 & 0xFFFF
??CrossCallReturnLabel_53:
        PUSH    DPL
        CFI CFA_SP SP+-1
        PUSH    DPH
        CFI CFA_SP SP+-2
        MOV     DPH,A
        MOV     DPL,R0
        LCALL   ?Subroutine39 & 0xFFFF
??CrossCallReturnLabel_175:
        POP     DPH
        CFI CFA_SP SP+-1
        POP     DPL
        CFI CFA_SP SP+0
        CLR     C
        MOVX    A,@DPTR
        SUBB    A,R0
        INC     DPTR
        MOVX    A,@DPTR
        SUBB    A,R1
        JNC     ??rbRead_3
//  120     {
//  121         copySz = min(count, rbCanRead(rb));
        MOV     ?V0 + 4,?V0 + 0
        MOV     ?V0 + 5,?V0 + 1
        CLR     A
        MOV     ?V0 + 6,A
        MOV     ?V0 + 7,A
        ; Setup parameters for call to function rbCanRead
        LCALL   ?Subroutine35 & 0xFFFF
??CrossCallReturnLabel_57:
        MOV     ?V0 + 8,R2
        MOV     ?V0 + 9,R3
        MOV     ?V0 + 10,R4
        MOV     ?V0 + 11,R5
        MOV     R0,#?V0 + 8
        MOV     R1,#?V0 + 4
        LCALL   ?SL_GT
        JC      ??rbRead_4
        ; Setup parameters for call to function rbCanRead
        LCALL   ?Subroutine35 & 0xFFFF
??CrossCallReturnLabel_58:
        MOV     ?V0 + 0,R2
        MOV     ?V0 + 1,R3
??rbRead_4:
        MOV     R6,?V0 + 0
        MOV     R7,?V0 + 1
//  122         osal_memcpy(data, rb->rbHead, copySz);
        LCALL   ?Subroutine27 & 0xFFFF
??CrossCallReturnLabel_38:
        MOV     ?V0 + 0,A
        INC     DPTR
        MOVX    A,@DPTR
        MOV     ?V0 + 4,?V0 + 0
        MOV     ?V0 + 5,A
        MOV     R0,#?V0 + 4
        LCALL   ?PUSH_XSTACK_I_THREE
        CFI CFA_XSP16 add(XSP16, 31)
        MOV     A,R6
        MOV     R4,A
        MOV     A,R7
        MOV     R5,A
        MOV     A,#0x5
        LCALL   ?XSTACK_DISP0_8
        LCALL   ?Subroutine34 & 0xFFFF
??CrossCallReturnLabel_55:
        LCALL   ?DEALLOC_XSTACK8
        CFI CFA_XSP16 add(XSP16, 28)
//  123         rb->rbHead += copySz;
        MOV     DPL,?V0 + 2
        MOV     DPH,?V0 + 3
        MOVX    A,@DPTR
        ADD     A,R6
        MOV     R0,A
        INC     DPTR
        MOVX    A,@DPTR
        ADDC    A,R7
        MOV     R1,A
        LCALL   ?Subroutine60 & 0xFFFF
//  124         return copySz;
??CrossCallReturnLabel_195:
        MOV     A,R6
        MOV     R2,A
        MOV     A,R7
        LJMP    ??rbRead_5 & 0xFFFF
//  125     }
//  126     else
//  127     {
//  128         if (count < rbCapacity(rb)-(rb->rbHead - rb->rbBuff))
??rbRead_3:
        ; Setup parameters for call to function rbCapacity
        LCALL   ?Subroutine36 & 0xFFFF
??CrossCallReturnLabel_59:
        MOV     ?V0 + 12,R2
        MOV     ?V0 + 13,R3
        MOV     ?V0 + 14,R4
        MOV     ?V0 + 15,R5
        MOV     ?V0 + 4,?V0 + 0
        MOV     ?V0 + 5,?V0 + 1
        CLR     A
        MOV     ?V0 + 6,A
        MOV     ?V0 + 7,A
        LCALL   ?Subroutine33 & 0xFFFF
??CrossCallReturnLabel_54:
        PUSH    DPL
        CFI CFA_SP SP+-1
        PUSH    DPH
        CFI CFA_SP SP+-2
        MOV     DPH,A
        MOV     DPL,R0
        INC     DPTR
        INC     DPTR
        LCALL   ?Subroutine39 & 0xFFFF
??CrossCallReturnLabel_176:
        POP     DPH
        CFI CFA_SP SP+-1
        POP     DPL
        CFI CFA_SP SP+0
        MOVX    A,@DPTR
        CLR     C
        SUBB    A,R0
        MOV     ?V0 + 8,A
        INC     DPTR
        MOVX    A,@DPTR
        SUBB    A,R1
        MOV     ?V0 + 9,A
        RLC     A
        SUBB    A,0xE0 /* A   */
        MOV     ?V0 + 10,A
        MOV     ?V0 + 11,A
        MOV     R0,#?V0 + 12
        MOV     R1,#?V0 + 8
        LCALL   ?L_SUB
        MOV     R0,#?V0 + 12
        MOV     R1,#?V0 + 4
        LCALL   ?SL_GT
        JNC     $+5
        LJMP    ??rbRead_4 & 0xFFFF
//  129         {
//  130             copySz = count;
//  131             osal_memcpy(data, rb->rbHead, copySz);
//  132             rb->rbHead += copySz;
//  133             return copySz;
//  134         }
//  135         else
//  136         {
//  137             copySz = rbCapacity(rb) - (rb->rbHead - rb->rbBuff);
        ; Setup parameters for call to function rbCapacity
        LCALL   ?Subroutine36 & 0xFFFF
??CrossCallReturnLabel_60:
        MOV     ?V0 + 4,R2
        MOV     ?V0 + 5,R3
        LCALL   ?Subroutine27 & 0xFFFF
??CrossCallReturnLabel_39:
        MOV     R0,A
        INC     DPTR
        MOVX    A,@DPTR
        MOV     R1,A
        MOV     DPL,?XSP + 0
        MOV     DPH,?XSP + 1
        MOVX    A,@DPTR
        ADD     A,#0x6
        MOV     ?V0 + 8,A
        INC     DPTR
        MOVX    A,@DPTR
        ADDC    A,#0x0
        MOV     ?V0 + 9,A
        MOV     DPL,?V0 + 8
        MOV     DPH,A
        LCALL   ??Subroutine72_0 & 0xFFFF
??CrossCallReturnLabel_177:
        MOV     A,R0
        CLR     C
        SUBB    A,R2
        MOV     R2,A
        MOV     A,R1
        SUBB    A,R3
        MOV     R3,A
        MOV     A,?V0 + 4
        CLR     C
        SUBB    A,R2
        MOV     R6,A
        MOV     A,?V0 + 5
        SUBB    A,R3
        MOV     R7,A
//  138             osal_memcpy(data, rb->rbHead, copySz);
        ; Setup parameters for call to function osal_memcpy
        MOV     ?V0 + 4,R0
        MOV     ?V0 + 5,R1
        MOV     R0,#?V0 + 4
        LCALL   ?PUSH_XSTACK_I_THREE
        CFI CFA_XSP16 add(XSP16, 31)
        MOV     A,R6
        MOV     R4,A
        MOV     A,R7
        MOV     R5,A
        MOV     A,#0x5
        LCALL   ?XSTACK_DISP0_8
        LCALL   ?Subroutine34 & 0xFFFF
??CrossCallReturnLabel_56:
        LCALL   ?DEALLOC_XSTACK8
        CFI CFA_XSP16 add(XSP16, 28)
//  139             rb->rbHead = rb->rbBuff;
        MOV     DPL,?V0 + 8
        MOV     DPH,?V0 + 9
        LCALL   ??Subroutine71_0 & 0xFFFF
??CrossCallReturnLabel_172:
        LCALL   ?Subroutine60 & 0xFFFF
//  140             copySz += rbRead(rb, (char*)data+copySz, count-copySz);
//  141             return copySz;
??CrossCallReturnLabel_196:
        ; Setup parameters for call to function rbRead
        MOV     A,?V0 + 0
        CLR     C
        SUBB    A,R6
        MOV     ?V0 + 0,A
        MOV     A,?V0 + 1
        SUBB    A,R7
        MOV     ?V0 + 1,A
        MOV     R0,#?V0 + 0
        LCALL   ?PUSH_XSTACK_I_TWO
        CFI CFA_XSP16 add(XSP16, 30)
        MOV     A,#0x4
        LCALL   ?XSTACK_DISP0_8
        MOVX    A,@DPTR
        ADD     A,R6
        MOV     R4,A
        INC     DPTR
        MOVX    A,@DPTR
        ADDC    A,R7
        MOV     R5,A
        MOV     A,#0x2
        LCALL   ?XSTACK_DISP0_8
        LCALL   ??Subroutine72_0 & 0xFFFF
//  142         }
//  143     }
??CrossCallReturnLabel_178:
        LCALL   ??rbRead?relay
        MOV     A,#0x2
        LCALL   ?DEALLOC_XSTACK8
        CFI CFA_XSP16 add(XSP16, 28)
        MOV     ?V0 + 0,R2
        MOV     ?V0 + 1,R3
        MOV     A,R6
        ADD     A,?V0 + 0
        MOV     R2,A
        MOV     A,R7
        ADDC    A,?V0 + 1
??rbRead_5:
        MOV     R3,A
        RLC     A
        SUBB    A,0xE0 /* A   */
        MOV     R4,A
        MOV     R5,A
??rbRead_2:
        MOV     A,#0x4
        CFI EndBlock cfiBlock3
        REQUIRE ?Subroutine0
        ; // Fall through to label ?Subroutine0
//  144 }

        RSEG BANKED_CODE:CODE:NOROOT(0)
?Subroutine0:
        CFI Block cfiBlock4 Using cfiCommon0
        CFI NoFunction
        CFI CFA_SP SP+0
        CFI CFA_XSP16 add(XSP16, 28)
        CFI VB load(1, XDATA, add(CFA_XSP16, literal(-23)))
        CFI DPL0 load(1, XDATA, add(CFA_XSP16, literal(-2)))
        CFI DPH0 load(1, XDATA, add(CFA_XSP16, literal(-1)))
        CFI R6 load(1, XDATA, add(CFA_XSP16, literal(-24)))
        CFI R7 load(1, XDATA, add(CFA_XSP16, literal(-6)))
        CFI V0 load(1, XDATA, add(CFA_XSP16, literal(-22)))
        CFI V1 load(1, XDATA, add(CFA_XSP16, literal(-21)))
        CFI V2 load(1, XDATA, add(CFA_XSP16, literal(-20)))
        CFI V3 load(1, XDATA, add(CFA_XSP16, literal(-19)))
        CFI V4 load(1, XDATA, add(CFA_XSP16, literal(-18)))
        CFI V5 load(1, XDATA, add(CFA_XSP16, literal(-17)))
        CFI V6 load(1, XDATA, add(CFA_XSP16, literal(-16)))
        CFI V7 load(1, XDATA, add(CFA_XSP16, literal(-15)))
        CFI V8 load(1, XDATA, add(CFA_XSP16, literal(-14)))
        CFI V9 load(1, XDATA, add(CFA_XSP16, literal(-13)))
        CFI V10 load(1, XDATA, add(CFA_XSP16, literal(-12)))
        CFI V11 load(1, XDATA, add(CFA_XSP16, literal(-11)))
        CFI V12 load(1, XDATA, add(CFA_XSP16, literal(-10)))
        CFI V13 load(1, XDATA, add(CFA_XSP16, literal(-9)))
        CFI V14 load(1, XDATA, add(CFA_XSP16, literal(-8)))
        CFI V15 load(1, XDATA, add(CFA_XSP16, literal(-7)))
        CFI ?BRET_EXT load(1, XDATA, add(CFA_XSP16, literal(-3)))
        CFI ?RET_HIGH load(1, XDATA, add(CFA_XSP16, literal(-4)))
        CFI ?RET_LOW load(1, XDATA, add(CFA_XSP16, literal(-5)))
        CFI Invalid
        LCALL   ?DEALLOC_XSTACK8
        CFI CFA_XSP16 add(XSP16, 24)
        CFI Valid
        MOV     R7,#0x10
        LJMP    ?BANKED_LEAVE_XDATA
        CFI EndBlock cfiBlock4

        RSEG BANKED_CODE:CODE:NOROOT(0)
?Subroutine36:
        CFI Block cfiCond5 Using cfiCommon0
        CFI NoFunction
        CFI Conditional ??CrossCallReturnLabel_59
        CFI R6 load(1, XDATA, add(CFA_XSP16, literal(-24)))
        CFI VB load(1, XDATA, add(CFA_XSP16, literal(-23)))
        CFI V0 load(1, XDATA, add(CFA_XSP16, literal(-22)))
        CFI V1 load(1, XDATA, add(CFA_XSP16, literal(-21)))
        CFI V2 load(1, XDATA, add(CFA_XSP16, literal(-20)))
        CFI V3 load(1, XDATA, add(CFA_XSP16, literal(-19)))
        CFI V4 load(1, XDATA, add(CFA_XSP16, literal(-18)))
        CFI V5 load(1, XDATA, add(CFA_XSP16, literal(-17)))
        CFI V6 load(1, XDATA, add(CFA_XSP16, literal(-16)))
        CFI V7 load(1, XDATA, add(CFA_XSP16, literal(-15)))
        CFI V8 load(1, XDATA, add(CFA_XSP16, literal(-14)))
        CFI V9 load(1, XDATA, add(CFA_XSP16, literal(-13)))
        CFI V10 load(1, XDATA, add(CFA_XSP16, literal(-12)))
        CFI V11 load(1, XDATA, add(CFA_XSP16, literal(-11)))
        CFI V12 load(1, XDATA, add(CFA_XSP16, literal(-10)))
        CFI V13 load(1, XDATA, add(CFA_XSP16, literal(-9)))
        CFI V14 load(1, XDATA, add(CFA_XSP16, literal(-8)))
        CFI V15 load(1, XDATA, add(CFA_XSP16, literal(-7)))
        CFI R7 load(1, XDATA, add(CFA_XSP16, literal(-6)))
        CFI ?RET_LOW load(1, XDATA, add(CFA_XSP16, literal(-5)))
        CFI ?RET_HIGH load(1, XDATA, add(CFA_XSP16, literal(-4)))
        CFI ?BRET_EXT load(1, XDATA, add(CFA_XSP16, literal(-3)))
        CFI DPL0 load(1, XDATA, add(CFA_XSP16, literal(-2)))
        CFI DPH0 load(1, XDATA, add(CFA_XSP16, literal(-1)))
        CFI CFA_SP SP+0
        CFI CFA_XSP16 add(XSP16, 28)
        CFI Block cfiCond6 Using cfiCommon0
        CFI (cfiCond6) NoFunction
        CFI (cfiCond6) Conditional ??CrossCallReturnLabel_60
        CFI (cfiCond6) R6 load(1, XDATA, add(CFA_XSP16, literal(-24)))
        CFI (cfiCond6) VB load(1, XDATA, add(CFA_XSP16, literal(-23)))
        CFI (cfiCond6) V0 load(1, XDATA, add(CFA_XSP16, literal(-22)))
        CFI (cfiCond6) V1 load(1, XDATA, add(CFA_XSP16, literal(-21)))
        CFI (cfiCond6) V2 load(1, XDATA, add(CFA_XSP16, literal(-20)))
        CFI (cfiCond6) V3 load(1, XDATA, add(CFA_XSP16, literal(-19)))
        CFI (cfiCond6) V4 load(1, XDATA, add(CFA_XSP16, literal(-18)))
        CFI (cfiCond6) V5 load(1, XDATA, add(CFA_XSP16, literal(-17)))
        CFI (cfiCond6) V6 load(1, XDATA, add(CFA_XSP16, literal(-16)))
        CFI (cfiCond6) V7 load(1, XDATA, add(CFA_XSP16, literal(-15)))
        CFI (cfiCond6) V8 load(1, XDATA, add(CFA_XSP16, literal(-14)))
        CFI (cfiCond6) V9 load(1, XDATA, add(CFA_XSP16, literal(-13)))
        CFI (cfiCond6) V10 load(1, XDATA, add(CFA_XSP16, literal(-12)))
        CFI (cfiCond6) V11 load(1, XDATA, add(CFA_XSP16, literal(-11)))
        CFI (cfiCond6) V12 load(1, XDATA, add(CFA_XSP16, literal(-10)))
        CFI (cfiCond6) V13 load(1, XDATA, add(CFA_XSP16, literal(-9)))
        CFI (cfiCond6) V14 load(1, XDATA, add(CFA_XSP16, literal(-8)))
        CFI (cfiCond6) V15 load(1, XDATA, add(CFA_XSP16, literal(-7)))
        CFI (cfiCond6) R7 load(1, XDATA, add(CFA_XSP16, literal(-6)))
        CFI (cfiCond6) ?RET_LOW load(1, XDATA, add(CFA_XSP16, literal(-5)))
        CFI (cfiCond6) ?RET_HIGH load(1, XDATA, add(CFA_XSP16, literal(-4)))
        CFI (cfiCond6) ?BRET_EXT load(1, XDATA, add(CFA_XSP16, literal(-3)))
        CFI (cfiCond6) DPL0 load(1, XDATA, add(CFA_XSP16, literal(-2)))
        CFI (cfiCond6) DPH0 load(1, XDATA, add(CFA_XSP16, literal(-1)))
        CFI (cfiCond6) CFA_SP SP+0
        CFI (cfiCond6) CFA_XSP16 add(XSP16, 28)
        CFI Block cfiPicker7 Using cfiCommon1
        CFI (cfiPicker7) NoFunction
        CFI (cfiPicker7) Picker
        LCALL   ?Subroutine55 & 0xFFFF
??CrossCallReturnLabel_184:
        LCALL   ??rbCapacity?relay
        RET
        CFI EndBlock cfiCond5
        CFI EndBlock cfiCond6
        CFI EndBlock cfiPicker7

        RSEG BANKED_CODE:CODE:NOROOT(0)
?Subroutine35:
        CFI Block cfiCond8 Using cfiCommon0
        CFI NoFunction
        CFI Conditional ??CrossCallReturnLabel_57
        CFI R6 load(1, XDATA, add(CFA_XSP16, literal(-24)))
        CFI VB load(1, XDATA, add(CFA_XSP16, literal(-23)))
        CFI V0 load(1, XDATA, add(CFA_XSP16, literal(-22)))
        CFI V1 load(1, XDATA, add(CFA_XSP16, literal(-21)))
        CFI V2 load(1, XDATA, add(CFA_XSP16, literal(-20)))
        CFI V3 load(1, XDATA, add(CFA_XSP16, literal(-19)))
        CFI V4 load(1, XDATA, add(CFA_XSP16, literal(-18)))
        CFI V5 load(1, XDATA, add(CFA_XSP16, literal(-17)))
        CFI V6 load(1, XDATA, add(CFA_XSP16, literal(-16)))
        CFI V7 load(1, XDATA, add(CFA_XSP16, literal(-15)))
        CFI V8 load(1, XDATA, add(CFA_XSP16, literal(-14)))
        CFI V9 load(1, XDATA, add(CFA_XSP16, literal(-13)))
        CFI V10 load(1, XDATA, add(CFA_XSP16, literal(-12)))
        CFI V11 load(1, XDATA, add(CFA_XSP16, literal(-11)))
        CFI V12 load(1, XDATA, add(CFA_XSP16, literal(-10)))
        CFI V13 load(1, XDATA, add(CFA_XSP16, literal(-9)))
        CFI V14 load(1, XDATA, add(CFA_XSP16, literal(-8)))
        CFI V15 load(1, XDATA, add(CFA_XSP16, literal(-7)))
        CFI R7 load(1, XDATA, add(CFA_XSP16, literal(-6)))
        CFI ?RET_LOW load(1, XDATA, add(CFA_XSP16, literal(-5)))
        CFI ?RET_HIGH load(1, XDATA, add(CFA_XSP16, literal(-4)))
        CFI ?BRET_EXT load(1, XDATA, add(CFA_XSP16, literal(-3)))
        CFI DPL0 load(1, XDATA, add(CFA_XSP16, literal(-2)))
        CFI DPH0 load(1, XDATA, add(CFA_XSP16, literal(-1)))
        CFI CFA_SP SP+0
        CFI CFA_XSP16 add(XSP16, 28)
        CFI Block cfiCond9 Using cfiCommon0
        CFI (cfiCond9) NoFunction
        CFI (cfiCond9) Conditional ??CrossCallReturnLabel_58
        CFI (cfiCond9) R6 load(1, XDATA, add(CFA_XSP16, literal(-24)))
        CFI (cfiCond9) VB load(1, XDATA, add(CFA_XSP16, literal(-23)))
        CFI (cfiCond9) V0 load(1, XDATA, add(CFA_XSP16, literal(-22)))
        CFI (cfiCond9) V1 load(1, XDATA, add(CFA_XSP16, literal(-21)))
        CFI (cfiCond9) V2 load(1, XDATA, add(CFA_XSP16, literal(-20)))
        CFI (cfiCond9) V3 load(1, XDATA, add(CFA_XSP16, literal(-19)))
        CFI (cfiCond9) V4 load(1, XDATA, add(CFA_XSP16, literal(-18)))
        CFI (cfiCond9) V5 load(1, XDATA, add(CFA_XSP16, literal(-17)))
        CFI (cfiCond9) V6 load(1, XDATA, add(CFA_XSP16, literal(-16)))
        CFI (cfiCond9) V7 load(1, XDATA, add(CFA_XSP16, literal(-15)))
        CFI (cfiCond9) V8 load(1, XDATA, add(CFA_XSP16, literal(-14)))
        CFI (cfiCond9) V9 load(1, XDATA, add(CFA_XSP16, literal(-13)))
        CFI (cfiCond9) V10 load(1, XDATA, add(CFA_XSP16, literal(-12)))
        CFI (cfiCond9) V11 load(1, XDATA, add(CFA_XSP16, literal(-11)))
        CFI (cfiCond9) V12 load(1, XDATA, add(CFA_XSP16, literal(-10)))
        CFI (cfiCond9) V13 load(1, XDATA, add(CFA_XSP16, literal(-9)))
        CFI (cfiCond9) V14 load(1, XDATA, add(CFA_XSP16, literal(-8)))
        CFI (cfiCond9) V15 load(1, XDATA, add(CFA_XSP16, literal(-7)))
        CFI (cfiCond9) R7 load(1, XDATA, add(CFA_XSP16, literal(-6)))
        CFI (cfiCond9) ?RET_LOW load(1, XDATA, add(CFA_XSP16, literal(-5)))
        CFI (cfiCond9) ?RET_HIGH load(1, XDATA, add(CFA_XSP16, literal(-4)))
        CFI (cfiCond9) ?BRET_EXT load(1, XDATA, add(CFA_XSP16, literal(-3)))
        CFI (cfiCond9) DPL0 load(1, XDATA, add(CFA_XSP16, literal(-2)))
        CFI (cfiCond9) DPH0 load(1, XDATA, add(CFA_XSP16, literal(-1)))
        CFI (cfiCond9) CFA_SP SP+0
        CFI (cfiCond9) CFA_XSP16 add(XSP16, 28)
        CFI Block cfiPicker10 Using cfiCommon1
        CFI (cfiPicker10) NoFunction
        CFI (cfiPicker10) Picker
        LCALL   ?Subroutine55 & 0xFFFF
??CrossCallReturnLabel_183:
        LCALL   ??rbCanRead?relay
        RET
        CFI EndBlock cfiCond8
        CFI EndBlock cfiCond9
        CFI EndBlock cfiPicker10

        RSEG BANKED_CODE:CODE:NOROOT(0)
?Subroutine34:
        CFI Block cfiCond11 Using cfiCommon0
        CFI NoFunction
        CFI Conditional ??CrossCallReturnLabel_55
        CFI R6 load(1, XDATA, add(CFA_XSP16, literal(-24)))
        CFI VB load(1, XDATA, add(CFA_XSP16, literal(-23)))
        CFI V0 load(1, XDATA, add(CFA_XSP16, literal(-22)))
        CFI V1 load(1, XDATA, add(CFA_XSP16, literal(-21)))
        CFI V2 load(1, XDATA, add(CFA_XSP16, literal(-20)))
        CFI V3 load(1, XDATA, add(CFA_XSP16, literal(-19)))
        CFI V4 load(1, XDATA, add(CFA_XSP16, literal(-18)))
        CFI V5 load(1, XDATA, add(CFA_XSP16, literal(-17)))
        CFI V6 load(1, XDATA, add(CFA_XSP16, literal(-16)))
        CFI V7 load(1, XDATA, add(CFA_XSP16, literal(-15)))
        CFI V8 load(1, XDATA, add(CFA_XSP16, literal(-14)))
        CFI V9 load(1, XDATA, add(CFA_XSP16, literal(-13)))
        CFI V10 load(1, XDATA, add(CFA_XSP16, literal(-12)))
        CFI V11 load(1, XDATA, add(CFA_XSP16, literal(-11)))
        CFI V12 load(1, XDATA, add(CFA_XSP16, literal(-10)))
        CFI V13 load(1, XDATA, add(CFA_XSP16, literal(-9)))
        CFI V14 load(1, XDATA, add(CFA_XSP16, literal(-8)))
        CFI V15 load(1, XDATA, add(CFA_XSP16, literal(-7)))
        CFI R7 load(1, XDATA, add(CFA_XSP16, literal(-6)))
        CFI ?RET_LOW load(1, XDATA, add(CFA_XSP16, literal(-5)))
        CFI ?RET_HIGH load(1, XDATA, add(CFA_XSP16, literal(-4)))
        CFI ?BRET_EXT load(1, XDATA, add(CFA_XSP16, literal(-3)))
        CFI DPL0 load(1, XDATA, add(CFA_XSP16, literal(-2)))
        CFI DPH0 load(1, XDATA, add(CFA_XSP16, literal(-1)))
        CFI CFA_SP SP+0
        CFI CFA_XSP16 add(XSP16, 31)
        CFI Block cfiCond12 Using cfiCommon0
        CFI (cfiCond12) NoFunction
        CFI (cfiCond12) Conditional ??CrossCallReturnLabel_56
        CFI (cfiCond12) R6 load(1, XDATA, add(CFA_XSP16, literal(-24)))
        CFI (cfiCond12) VB load(1, XDATA, add(CFA_XSP16, literal(-23)))
        CFI (cfiCond12) V0 load(1, XDATA, add(CFA_XSP16, literal(-22)))
        CFI (cfiCond12) V1 load(1, XDATA, add(CFA_XSP16, literal(-21)))
        CFI (cfiCond12) V2 load(1, XDATA, add(CFA_XSP16, literal(-20)))
        CFI (cfiCond12) V3 load(1, XDATA, add(CFA_XSP16, literal(-19)))
        CFI (cfiCond12) V4 load(1, XDATA, add(CFA_XSP16, literal(-18)))
        CFI (cfiCond12) V5 load(1, XDATA, add(CFA_XSP16, literal(-17)))
        CFI (cfiCond12) V6 load(1, XDATA, add(CFA_XSP16, literal(-16)))
        CFI (cfiCond12) V7 load(1, XDATA, add(CFA_XSP16, literal(-15)))
        CFI (cfiCond12) V8 load(1, XDATA, add(CFA_XSP16, literal(-14)))
        CFI (cfiCond12) V9 load(1, XDATA, add(CFA_XSP16, literal(-13)))
        CFI (cfiCond12) V10 load(1, XDATA, add(CFA_XSP16, literal(-12)))
        CFI (cfiCond12) V11 load(1, XDATA, add(CFA_XSP16, literal(-11)))
        CFI (cfiCond12) V12 load(1, XDATA, add(CFA_XSP16, literal(-10)))
        CFI (cfiCond12) V13 load(1, XDATA, add(CFA_XSP16, literal(-9)))
        CFI (cfiCond12) V14 load(1, XDATA, add(CFA_XSP16, literal(-8)))
        CFI (cfiCond12) V15 load(1, XDATA, add(CFA_XSP16, literal(-7)))
        CFI (cfiCond12) R7 load(1, XDATA, add(CFA_XSP16, literal(-6)))
        CFI (cfiCond12) ?RET_LOW load(1, XDATA, add(CFA_XSP16, literal(-5)))
        CFI (cfiCond12) ?RET_HIGH load(1, XDATA, add(CFA_XSP16, literal(-4)))
        CFI (cfiCond12) ?BRET_EXT load(1, XDATA, add(CFA_XSP16, literal(-3)))
        CFI (cfiCond12) DPL0 load(1, XDATA, add(CFA_XSP16, literal(-2)))
        CFI (cfiCond12) DPH0 load(1, XDATA, add(CFA_XSP16, literal(-1)))
        CFI (cfiCond12) CFA_SP SP+0
        CFI (cfiCond12) CFA_XSP16 add(XSP16, 31)
        CFI Block cfiPicker13 Using cfiCommon1
        CFI (cfiPicker13) NoFunction
        CFI (cfiPicker13) Picker
        LCALL   ??Subroutine72_0 & 0xFFFF
??CrossCallReturnLabel_180:
        LCALL   ??osal_memcpy?relay
        MOV     A,#0x3
        RET
        CFI EndBlock cfiCond11
        CFI EndBlock cfiCond12
        CFI EndBlock cfiPicker13

        RSEG BANKED_CODE:CODE:NOROOT(0)
?Subroutine33:
        CFI Block cfiCond14 Using cfiCommon0
        CFI NoFunction
        CFI Conditional ??CrossCallReturnLabel_53
        CFI R6 load(1, XDATA, add(CFA_XSP16, literal(-24)))
        CFI VB load(1, XDATA, add(CFA_XSP16, literal(-23)))
        CFI V0 load(1, XDATA, add(CFA_XSP16, literal(-22)))
        CFI V1 load(1, XDATA, add(CFA_XSP16, literal(-21)))
        CFI V2 load(1, XDATA, add(CFA_XSP16, literal(-20)))
        CFI V3 load(1, XDATA, add(CFA_XSP16, literal(-19)))
        CFI V4 load(1, XDATA, add(CFA_XSP16, literal(-18)))
        CFI V5 load(1, XDATA, add(CFA_XSP16, literal(-17)))
        CFI V6 load(1, XDATA, add(CFA_XSP16, literal(-16)))
        CFI V7 load(1, XDATA, add(CFA_XSP16, literal(-15)))
        CFI V8 load(1, XDATA, add(CFA_XSP16, literal(-14)))
        CFI V9 load(1, XDATA, add(CFA_XSP16, literal(-13)))
        CFI V10 load(1, XDATA, add(CFA_XSP16, literal(-12)))
        CFI V11 load(1, XDATA, add(CFA_XSP16, literal(-11)))
        CFI V12 load(1, XDATA, add(CFA_XSP16, literal(-10)))
        CFI V13 load(1, XDATA, add(CFA_XSP16, literal(-9)))
        CFI V14 load(1, XDATA, add(CFA_XSP16, literal(-8)))
        CFI V15 load(1, XDATA, add(CFA_XSP16, literal(-7)))
        CFI R7 load(1, XDATA, add(CFA_XSP16, literal(-6)))
        CFI ?RET_LOW load(1, XDATA, add(CFA_XSP16, literal(-5)))
        CFI ?RET_HIGH load(1, XDATA, add(CFA_XSP16, literal(-4)))
        CFI ?BRET_EXT load(1, XDATA, add(CFA_XSP16, literal(-3)))
        CFI DPL0 load(1, XDATA, add(CFA_XSP16, literal(-2)))
        CFI DPH0 load(1, XDATA, add(CFA_XSP16, literal(-1)))
        CFI CFA_SP SP+0
        CFI CFA_XSP16 add(XSP16, 28)
        CFI Block cfiCond15 Using cfiCommon0
        CFI (cfiCond15) NoFunction
        CFI (cfiCond15) Conditional ??CrossCallReturnLabel_54
        CFI (cfiCond15) R6 load(1, XDATA, add(CFA_XSP16, literal(-24)))
        CFI (cfiCond15) VB load(1, XDATA, add(CFA_XSP16, literal(-23)))
        CFI (cfiCond15) V0 load(1, XDATA, add(CFA_XSP16, literal(-22)))
        CFI (cfiCond15) V1 load(1, XDATA, add(CFA_XSP16, literal(-21)))
        CFI (cfiCond15) V2 load(1, XDATA, add(CFA_XSP16, literal(-20)))
        CFI (cfiCond15) V3 load(1, XDATA, add(CFA_XSP16, literal(-19)))
        CFI (cfiCond15) V4 load(1, XDATA, add(CFA_XSP16, literal(-18)))
        CFI (cfiCond15) V5 load(1, XDATA, add(CFA_XSP16, literal(-17)))
        CFI (cfiCond15) V6 load(1, XDATA, add(CFA_XSP16, literal(-16)))
        CFI (cfiCond15) V7 load(1, XDATA, add(CFA_XSP16, literal(-15)))
        CFI (cfiCond15) V8 load(1, XDATA, add(CFA_XSP16, literal(-14)))
        CFI (cfiCond15) V9 load(1, XDATA, add(CFA_XSP16, literal(-13)))
        CFI (cfiCond15) V10 load(1, XDATA, add(CFA_XSP16, literal(-12)))
        CFI (cfiCond15) V11 load(1, XDATA, add(CFA_XSP16, literal(-11)))
        CFI (cfiCond15) V12 load(1, XDATA, add(CFA_XSP16, literal(-10)))
        CFI (cfiCond15) V13 load(1, XDATA, add(CFA_XSP16, literal(-9)))
        CFI (cfiCond15) V14 load(1, XDATA, add(CFA_XSP16, literal(-8)))
        CFI (cfiCond15) V15 load(1, XDATA, add(CFA_XSP16, literal(-7)))
        CFI (cfiCond15) R7 load(1, XDATA, add(CFA_XSP16, literal(-6)))
        CFI (cfiCond15) ?RET_LOW load(1, XDATA, add(CFA_XSP16, literal(-5)))
        CFI (cfiCond15) ?RET_HIGH load(1, XDATA, add(CFA_XSP16, literal(-4)))
        CFI (cfiCond15) ?BRET_EXT load(1, XDATA, add(CFA_XSP16, literal(-3)))
        CFI (cfiCond15) DPL0 load(1, XDATA, add(CFA_XSP16, literal(-2)))
        CFI (cfiCond15) DPH0 load(1, XDATA, add(CFA_XSP16, literal(-1)))
        CFI (cfiCond15) CFA_SP SP+0
        CFI (cfiCond15) CFA_XSP16 add(XSP16, 28)
        CFI Block cfiPicker16 Using cfiCommon1
        CFI (cfiPicker16) NoFunction
        CFI (cfiPicker16) Picker
        MOV     DPL,?XSP + 0
        MOV     DPH,?XSP + 1
        MOVX    A,@DPTR
        MOV     R0,A
        INC     DPTR
        MOVX    A,@DPTR
        MOV     DPH,A
        MOV     DPL,R0
        INC     DPTR
        INC     DPTR
        RET
        CFI EndBlock cfiCond14
        CFI EndBlock cfiCond15
        CFI EndBlock cfiPicker16

        RSEG BANKED_CODE:CODE:NOROOT(0)
?Subroutine27:
        CFI Block cfiCond17 Using cfiCommon0
        CFI NoFunction
        CFI Conditional ??CrossCallReturnLabel_38
        CFI R6 load(1, XDATA, add(CFA_XSP16, literal(-24)))
        CFI VB load(1, XDATA, add(CFA_XSP16, literal(-23)))
        CFI V0 load(1, XDATA, add(CFA_XSP16, literal(-22)))
        CFI V1 load(1, XDATA, add(CFA_XSP16, literal(-21)))
        CFI V2 load(1, XDATA, add(CFA_XSP16, literal(-20)))
        CFI V3 load(1, XDATA, add(CFA_XSP16, literal(-19)))
        CFI V4 load(1, XDATA, add(CFA_XSP16, literal(-18)))
        CFI V5 load(1, XDATA, add(CFA_XSP16, literal(-17)))
        CFI V6 load(1, XDATA, add(CFA_XSP16, literal(-16)))
        CFI V7 load(1, XDATA, add(CFA_XSP16, literal(-15)))
        CFI V8 load(1, XDATA, add(CFA_XSP16, literal(-14)))
        CFI V9 load(1, XDATA, add(CFA_XSP16, literal(-13)))
        CFI V10 load(1, XDATA, add(CFA_XSP16, literal(-12)))
        CFI V11 load(1, XDATA, add(CFA_XSP16, literal(-11)))
        CFI V12 load(1, XDATA, add(CFA_XSP16, literal(-10)))
        CFI V13 load(1, XDATA, add(CFA_XSP16, literal(-9)))
        CFI V14 load(1, XDATA, add(CFA_XSP16, literal(-8)))
        CFI V15 load(1, XDATA, add(CFA_XSP16, literal(-7)))
        CFI R7 load(1, XDATA, add(CFA_XSP16, literal(-6)))
        CFI ?RET_LOW load(1, XDATA, add(CFA_XSP16, literal(-5)))
        CFI ?RET_HIGH load(1, XDATA, add(CFA_XSP16, literal(-4)))
        CFI ?BRET_EXT load(1, XDATA, add(CFA_XSP16, literal(-3)))
        CFI DPL0 load(1, XDATA, add(CFA_XSP16, literal(-2)))
        CFI DPH0 load(1, XDATA, add(CFA_XSP16, literal(-1)))
        CFI CFA_SP SP+0
        CFI CFA_XSP16 add(XSP16, 28)
        CFI Block cfiCond18 Using cfiCommon0
        CFI (cfiCond18) NoFunction
        CFI (cfiCond18) Conditional ??CrossCallReturnLabel_39
        CFI (cfiCond18) R6 load(1, XDATA, add(CFA_XSP16, literal(-24)))
        CFI (cfiCond18) VB load(1, XDATA, add(CFA_XSP16, literal(-23)))
        CFI (cfiCond18) V0 load(1, XDATA, add(CFA_XSP16, literal(-22)))
        CFI (cfiCond18) V1 load(1, XDATA, add(CFA_XSP16, literal(-21)))
        CFI (cfiCond18) V2 load(1, XDATA, add(CFA_XSP16, literal(-20)))
        CFI (cfiCond18) V3 load(1, XDATA, add(CFA_XSP16, literal(-19)))
        CFI (cfiCond18) V4 load(1, XDATA, add(CFA_XSP16, literal(-18)))
        CFI (cfiCond18) V5 load(1, XDATA, add(CFA_XSP16, literal(-17)))
        CFI (cfiCond18) V6 load(1, XDATA, add(CFA_XSP16, literal(-16)))
        CFI (cfiCond18) V7 load(1, XDATA, add(CFA_XSP16, literal(-15)))
        CFI (cfiCond18) V8 load(1, XDATA, add(CFA_XSP16, literal(-14)))
        CFI (cfiCond18) V9 load(1, XDATA, add(CFA_XSP16, literal(-13)))
        CFI (cfiCond18) V10 load(1, XDATA, add(CFA_XSP16, literal(-12)))
        CFI (cfiCond18) V11 load(1, XDATA, add(CFA_XSP16, literal(-11)))
        CFI (cfiCond18) V12 load(1, XDATA, add(CFA_XSP16, literal(-10)))
        CFI (cfiCond18) V13 load(1, XDATA, add(CFA_XSP16, literal(-9)))
        CFI (cfiCond18) V14 load(1, XDATA, add(CFA_XSP16, literal(-8)))
        CFI (cfiCond18) V15 load(1, XDATA, add(CFA_XSP16, literal(-7)))
        CFI (cfiCond18) R7 load(1, XDATA, add(CFA_XSP16, literal(-6)))
        CFI (cfiCond18) ?RET_LOW load(1, XDATA, add(CFA_XSP16, literal(-5)))
        CFI (cfiCond18) ?RET_HIGH load(1, XDATA, add(CFA_XSP16, literal(-4)))
        CFI (cfiCond18) ?BRET_EXT load(1, XDATA, add(CFA_XSP16, literal(-3)))
        CFI (cfiCond18) DPL0 load(1, XDATA, add(CFA_XSP16, literal(-2)))
        CFI (cfiCond18) DPH0 load(1, XDATA, add(CFA_XSP16, literal(-1)))
        CFI (cfiCond18) CFA_SP SP+0
        CFI (cfiCond18) CFA_XSP16 add(XSP16, 28)
        CFI Block cfiPicker19 Using cfiCommon1
        CFI (cfiPicker19) NoFunction
        CFI (cfiPicker19) Picker
        MOV     DPL,?XSP + 0
        MOV     DPH,?XSP + 1
        MOVX    A,@DPTR
        ADD     A,#0x2
        MOV     ?V0 + 2,A
        INC     DPTR
        MOVX    A,@DPTR
        ADDC    A,#0x0
        MOV     ?V0 + 3,A
        ; Setup parameters for call to function osal_memcpy
        MOV     DPL,?V0 + 2
        MOV     DPH,A
        MOVX    A,@DPTR
        RET
        CFI EndBlock cfiCond17
        CFI EndBlock cfiCond18
        CFI EndBlock cfiPicker19
//  145 #pragma optimize=none

        RSEG BANKED_CODE:CODE:NOROOT(0)
//  146 static int32 rbWrite(rb_t *rb, const void *data, uint16 count)
rbWrite:
        CFI Block cfiBlock20 Using cfiCommon0
        CFI Function rbWrite
        CODE
//  147 {
        FUNCALL rbWrite, rbCanWrite
        LOCFRAME ISTACK, 0, STACK
        LOCFRAME PSTACK, 0, STACK
        LOCFRAME XSTACK, 22, STACK
        LOCFRAME IOVERLAY, 0, STATIC
        LOCFRAME DOVERLAY, 0, STATIC
        ARGFRAME ISTACK, 0, STACK
        ARGFRAME PSTACK, 0, STACK
        ARGFRAME XSTACK, 22, STACK
        ARGFRAME IOVERLAY, 0, STATIC
        ARGFRAME DOVERLAY, 0, STATIC
        FUNCALL rbWrite, rbCapacity
        LOCFRAME ISTACK, 0, STACK
        LOCFRAME PSTACK, 0, STACK
        LOCFRAME XSTACK, 22, STACK
        LOCFRAME IOVERLAY, 0, STATIC
        LOCFRAME DOVERLAY, 0, STATIC
        ARGFRAME ISTACK, 0, STACK
        ARGFRAME PSTACK, 0, STACK
        ARGFRAME XSTACK, 22, STACK
        ARGFRAME IOVERLAY, 0, STATIC
        ARGFRAME DOVERLAY, 0, STATIC
        FUNCALL rbWrite, osal_memcpy
        LOCFRAME ISTACK, 0, STACK
        LOCFRAME PSTACK, 0, STACK
        LOCFRAME XSTACK, 25, STACK
        LOCFRAME IOVERLAY, 0, STATIC
        LOCFRAME DOVERLAY, 0, STATIC
        ARGFRAME ISTACK, 0, STACK
        ARGFRAME PSTACK, 0, STACK
        ARGFRAME XSTACK, 25, STACK
        ARGFRAME IOVERLAY, 0, STATIC
        ARGFRAME DOVERLAY, 0, STATIC
        FUNCALL rbWrite, rbCapacity
        LOCFRAME ISTACK, 2, STACK
        LOCFRAME PSTACK, 0, STACK
        LOCFRAME XSTACK, 22, STACK
        LOCFRAME IOVERLAY, 0, STATIC
        LOCFRAME DOVERLAY, 0, STATIC
        ARGFRAME ISTACK, 2, STACK
        ARGFRAME PSTACK, 0, STACK
        ARGFRAME XSTACK, 22, STACK
        ARGFRAME IOVERLAY, 0, STATIC
        ARGFRAME DOVERLAY, 0, STATIC
        FUNCALL rbWrite, osal_memcpy
        LOCFRAME ISTACK, 0, STACK
        LOCFRAME PSTACK, 0, STACK
        LOCFRAME XSTACK, 25, STACK
        LOCFRAME IOVERLAY, 0, STATIC
        LOCFRAME DOVERLAY, 0, STATIC
        ARGFRAME ISTACK, 0, STACK
        ARGFRAME PSTACK, 0, STACK
        ARGFRAME XSTACK, 25, STACK
        ARGFRAME IOVERLAY, 0, STATIC
        ARGFRAME DOVERLAY, 0, STATIC
        FUNCALL rbWrite, rbWrite
        LOCFRAME ISTACK, 0, STACK
        LOCFRAME PSTACK, 0, STACK
        LOCFRAME XSTACK, 24, STACK
        LOCFRAME IOVERLAY, 0, STATIC
        LOCFRAME DOVERLAY, 0, STATIC
        ARGFRAME ISTACK, 0, STACK
        ARGFRAME PSTACK, 0, STACK
        ARGFRAME XSTACK, 24, STACK
        ARGFRAME IOVERLAY, 0, STATIC
        ARGFRAME DOVERLAY, 0, STATIC
        FUNCALL rbWrite, osal_memcpy
        LOCFRAME ISTACK, 0, STACK
        LOCFRAME PSTACK, 0, STACK
        LOCFRAME XSTACK, 25, STACK
        LOCFRAME IOVERLAY, 0, STATIC
        LOCFRAME DOVERLAY, 0, STATIC
        ARGFRAME ISTACK, 0, STACK
        ARGFRAME PSTACK, 0, STACK
        ARGFRAME XSTACK, 25, STACK
        ARGFRAME IOVERLAY, 0, STATIC
        ARGFRAME DOVERLAY, 0, STATIC
        MOV     A,#-0x16
        LCALL   ?BANKED_ENTER_XDATA
        CFI DPH0 load(1, XDATA, add(CFA_XSP16, literal(-1)))
        CFI DPL0 load(1, XDATA, add(CFA_XSP16, literal(-2)))
        CFI ?BRET_EXT load(1, XDATA, add(CFA_XSP16, literal(-3)))
        CFI ?RET_HIGH load(1, XDATA, add(CFA_XSP16, literal(-4)))
        CFI ?RET_LOW load(1, XDATA, add(CFA_XSP16, literal(-5)))
        CFI R7 load(1, XDATA, add(CFA_XSP16, literal(-6)))
        CFI V13 load(1, XDATA, add(CFA_XSP16, literal(-7)))
        CFI V12 load(1, XDATA, add(CFA_XSP16, literal(-8)))
        CFI V11 load(1, XDATA, add(CFA_XSP16, literal(-9)))
        CFI V10 load(1, XDATA, add(CFA_XSP16, literal(-10)))
        CFI V9 load(1, XDATA, add(CFA_XSP16, literal(-11)))
        CFI V8 load(1, XDATA, add(CFA_XSP16, literal(-12)))
        CFI V7 load(1, XDATA, add(CFA_XSP16, literal(-13)))
        CFI V6 load(1, XDATA, add(CFA_XSP16, literal(-14)))
        CFI V5 load(1, XDATA, add(CFA_XSP16, literal(-15)))
        CFI V4 load(1, XDATA, add(CFA_XSP16, literal(-16)))
        CFI V3 load(1, XDATA, add(CFA_XSP16, literal(-17)))
        CFI V2 load(1, XDATA, add(CFA_XSP16, literal(-18)))
        CFI V1 load(1, XDATA, add(CFA_XSP16, literal(-19)))
        CFI V0 load(1, XDATA, add(CFA_XSP16, literal(-20)))
        CFI VB load(1, XDATA, add(CFA_XSP16, literal(-21)))
        CFI R6 load(1, XDATA, add(CFA_XSP16, literal(-22)))
        CFI CFA_SP SP+0
        CFI CFA_XSP16 add(XSP16, 22)
        ; Saved register size: 22
        ; Auto size: 0
        MOV     A,R2
        MOV     R6,A
        MOV     A,R3
        MOV     R7,A
        MOV     ?V0 + 12,R4
        MOV     ?V0 + 13,R5
        MOV     A,#0x16
        LCALL   ?XSTACK_DISP0_8
        MOVX    A,@DPTR
        MOV     ?V0 + 0,A
        INC     DPTR
        MOVX    A,@DPTR
        MOV     ?V0 + 1,A
//  148     int tailAvailSz = 0;
        MOV     ?V0 + 2,#0x0
        MOV     ?V0 + 3,#0x0
//  149 
//  150     if(NULL == rb)
        MOV     A,R6
        ORL     A,R7
        JNZ     ??rbWrite_0
//  151     {
//  152         GIZWITS_LOG("ERROR: rb is empty \n");
//  153         return -1;
        MOV     R2,#-0x1
        MOV     R3,#-0x1
        MOV     R4,#-0x1
        MOV     R5,#-0x1
        LJMP    ??rbWrite_1 & 0xFFFF
//  154     }
//  155 
//  156     if(NULL == data)
??rbWrite_0:
        MOV     A,?V0 + 12
        ORL     A,?V0 + 13
        JNZ     ??rbWrite_2
//  157     {
//  158         GIZWITS_LOG("ERROR: data is empty \n");
//  159         return -1;
        MOV     R2,#-0x1
        MOV     R3,#-0x1
        MOV     R4,#-0x1
        MOV     R5,#-0x1
        LJMP    ??rbWrite_1 & 0xFFFF
//  160     }
//  161 
//  162     if (count >= rbCanWrite(rb))
??rbWrite_2:
        MOV     ?V0 + 4,?V0 + 0
        MOV     ?V0 + 5,?V0 + 1
        CLR     A
        MOV     ?V0 + 6,A
        MOV     ?V0 + 7,A
        ; Setup parameters for call to function rbCanWrite
        MOV     A,R6
        MOV     R2,A
        MOV     A,R7
        MOV     R3,A
        LCALL   ??rbCanWrite?relay
        MOV     ?V0 + 8,R2
        MOV     ?V0 + 9,R3
        MOV     ?V0 + 10,R4
        MOV     ?V0 + 11,R5
        MOV     R0,#?V0 + 8
        MOV     R1,#?V0 + 4
        LCALL   ?SL_GT
        JC      ??rbWrite_3
//  163     {
//  164         GIZWITS_LOG("ERROR: no memory %d \n", rbCanWrite(rb));
//  165         return -1;
        MOV     R2,#-0x1
        MOV     R3,#-0x1
        MOV     R4,#-0x1
        MOV     R5,#-0x1
        LJMP    ??rbWrite_1 & 0xFFFF
//  166     }
//  167 
//  168     if (rb->rbHead <= rb->rbTail)
??rbWrite_3:
        MOV     DPL,R6
        MOV     DPH,R7
        INC     DPTR
        INC     DPTR
        INC     DPTR
        INC     DPTR
        PUSH    DPL
        CFI CFA_SP SP+-1
        PUSH    DPH
        CFI CFA_SP SP+-2
        MOV     DPL,R6
        MOV     DPH,R7
        INC     DPTR
        INC     DPTR
        MOVX    A,@DPTR
        MOV     R0,A
        INC     DPTR
        MOVX    A,@DPTR
        MOV     R1,A
        POP     DPH
        CFI CFA_SP SP+-1
        POP     DPL
        CFI CFA_SP SP+0
        CLR     C
        MOVX    A,@DPTR
        SUBB    A,R0
        INC     DPTR
        MOVX    A,@DPTR
        SUBB    A,R1
        JNC     $+5
        LJMP    ??rbWrite_4 & 0xFFFF
//  169     {
//  170         tailAvailSz = rbCapacity(rb) - (rb->rbTail - rb->rbBuff);
        ; Setup parameters for call to function rbCapacity
        MOV     A,R6
        MOV     R2,A
        MOV     A,R7
        MOV     R3,A
        LCALL   ??rbCapacity?relay
        MOV     ?V0 + 4,R2
        MOV     ?V0 + 5,R3
        MOV     ?V0 + 6,R4
        MOV     ?V0 + 7,R5
        MOV     DPL,R6
        MOV     DPH,R7
        INC     DPTR
        INC     DPTR
        INC     DPTR
        INC     DPTR
        PUSH    DPL
        CFI CFA_SP SP+-1
        PUSH    DPH
        CFI CFA_SP SP+-2
        MOV     DPL,R6
        MOV     DPH,R7
        INC     DPTR
        INC     DPTR
        INC     DPTR
        INC     DPTR
        INC     DPTR
        INC     DPTR
        MOVX    A,@DPTR
        MOV     R0,A
        INC     DPTR
        MOVX    A,@DPTR
        MOV     R1,A
        POP     DPH
        CFI CFA_SP SP+-1
        POP     DPL
        CFI CFA_SP SP+0
        MOVX    A,@DPTR
        CLR     C
        SUBB    A,R0
        MOV     R0,A
        INC     DPTR
        MOVX    A,@DPTR
        SUBB    A,R1
        MOV     R1,A
        MOV     A,?V0 + 4
        CLR     C
        SUBB    A,R0
        MOV     R0,A
        MOV     A,?V0 + 5
        SUBB    A,R1
        MOV     R1,A
        MOV     ?V0 + 2,R0
        MOV     ?V0 + 3,R1
//  171         if (count <= tailAvailSz)
        CLR     C
        MOV     A,?V0 + 2
        SUBB    A,?V0 + 0
        MOV     A,?V0 + 3
        SUBB    A,?V0 + 1
        JNC     $+5
        LJMP    ??rbWrite_5 & 0xFFFF
//  172         {
//  173             osal_memcpy(rb->rbTail, data, count);
        ; Setup parameters for call to function osal_memcpy
        MOV     ?V0 + 4,?V0 + 12
        MOV     ?V0 + 5,?V0 + 13
        MOV     ?V0 + 6,#0x0
        MOV     R0,#?V0 + 4
        LCALL   ?PUSH_XSTACK_I_THREE
        CFI CFA_XSP16 add(XSP16, 25)
        MOV     R4,?V0 + 0
        MOV     R5,?V0 + 1
        MOV     DPL,R6
        MOV     DPH,R7
        INC     DPTR
        INC     DPTR
        INC     DPTR
        INC     DPTR
        MOVX    A,@DPTR
        MOV     R2,A
        INC     DPTR
        MOVX    A,@DPTR
        MOV     R3,A
        LCALL   ??osal_memcpy?relay
        MOV     A,#0x3
        LCALL   ?DEALLOC_XSTACK8
        CFI CFA_XSP16 add(XSP16, 22)
//  174             rb->rbTail += count;
        MOV     DPL,R6
        MOV     DPH,R7
        INC     DPTR
        INC     DPTR
        INC     DPTR
        INC     DPTR
        MOVX    A,@DPTR
        ADD     A,?V0 + 0
        MOV     R0,A
        INC     DPTR
        MOVX    A,@DPTR
        ADDC    A,?V0 + 1
        MOV     R1,A
        MOV     DPL,R6
        MOV     DPH,R7
        INC     DPTR
        INC     DPTR
        INC     DPTR
        INC     DPTR
        MOV     A,R0
        MOVX    @DPTR,A
        INC     DPTR
        MOV     A,R1
        MOVX    @DPTR,A
//  175             if (rb->rbTail == rb->rbBuff+rbCapacity(rb))
        MOV     DPL,R6
        MOV     DPH,R7
        INC     DPTR
        INC     DPTR
        INC     DPTR
        INC     DPTR
        PUSH    DPL
        CFI CFA_SP SP+-1
        PUSH    DPH
        CFI CFA_SP SP+-2
        ; Setup parameters for call to function rbCapacity
        MOV     A,R6
        MOV     R2,A
        MOV     A,R7
        MOV     R3,A
        LCALL   ??rbCapacity?relay
        MOV     ?V0 + 4,R2
        MOV     ?V0 + 5,R3
        MOV     ?V0 + 6,R4
        MOV     ?V0 + 7,R5
        MOV     DPL,R6
        MOV     DPH,R7
        INC     DPTR
        INC     DPTR
        INC     DPTR
        INC     DPTR
        INC     DPTR
        INC     DPTR
        MOVX    A,@DPTR
        ADD     A,?V0 + 4
        MOV     R0,A
        INC     DPTR
        MOVX    A,@DPTR
        ADDC    A,?V0 + 5
        MOV     R1,A
        POP     DPH
        CFI CFA_SP SP+-1
        POP     DPL
        CFI CFA_SP SP+0
        MOVX    A,@DPTR
        XRL     A,R0
        JNZ     ??rbWrite_6
        INC     DPTR
        MOVX    A,@DPTR
        XRL     A,R1
??rbWrite_6:
        JNZ     ??rbWrite_7
//  176             {
//  177                 rb->rbTail = rb->rbBuff;
        MOV     DPL,R6
        MOV     DPH,R7
        INC     DPTR
        INC     DPTR
        INC     DPTR
        INC     DPTR
        INC     DPTR
        INC     DPTR
        MOVX    A,@DPTR
        MOV     R0,A
        INC     DPTR
        MOVX    A,@DPTR
        MOV     R1,A
        MOV     DPL,R6
        MOV     DPH,R7
        INC     DPTR
        INC     DPTR
        INC     DPTR
        INC     DPTR
        MOV     A,R0
        MOVX    @DPTR,A
        INC     DPTR
        MOV     A,R1
        MOVX    @DPTR,A
//  178             }
//  179             return count;
??rbWrite_7:
        MOV     R2,?V0 + 0
        MOV     R3,?V0 + 1
        CLR     A
        MOV     R4,A
        MOV     R5,A
        LJMP    ??rbWrite_1 & 0xFFFF
//  180         }
//  181         else
//  182         {
//  183             osal_memcpy(rb->rbTail, data, tailAvailSz);
??rbWrite_5:
        ; Setup parameters for call to function osal_memcpy
        MOV     ?V0 + 4,?V0 + 12
        MOV     ?V0 + 5,?V0 + 13
        MOV     ?V0 + 6,#0x0
        MOV     R0,#?V0 + 4
        LCALL   ?PUSH_XSTACK_I_THREE
        CFI CFA_XSP16 add(XSP16, 25)
        MOV     R4,?V0 + 2
        MOV     R5,?V0 + 3
        MOV     DPL,R6
        MOV     DPH,R7
        INC     DPTR
        INC     DPTR
        INC     DPTR
        INC     DPTR
        MOVX    A,@DPTR
        MOV     R2,A
        INC     DPTR
        MOVX    A,@DPTR
        MOV     R3,A
        LCALL   ??osal_memcpy?relay
        MOV     A,#0x3
        LCALL   ?DEALLOC_XSTACK8
        CFI CFA_XSP16 add(XSP16, 22)
//  184             rb->rbTail = rb->rbBuff;
        MOV     DPL,R6
        MOV     DPH,R7
        INC     DPTR
        INC     DPTR
        INC     DPTR
        INC     DPTR
        INC     DPTR
        INC     DPTR
        MOVX    A,@DPTR
        MOV     R0,A
        INC     DPTR
        MOVX    A,@DPTR
        MOV     R1,A
        MOV     DPL,R6
        MOV     DPH,R7
        INC     DPTR
        INC     DPTR
        INC     DPTR
        INC     DPTR
        MOV     A,R0
        MOVX    @DPTR,A
        INC     DPTR
        MOV     A,R1
        MOVX    @DPTR,A
//  185 
//  186             return tailAvailSz + rbWrite(rb, (char*)data+tailAvailSz, count-tailAvailSz);
        MOV     ?V0 + 8,?V0 + 2
        MOV     A,?V0 + 3
        MOV     ?V0 + 9,A
        RLC     A
        SUBB    A,0xE0 /* A   */
        MOV     ?V0 + 10,A
        MOV     ?V0 + 11,A
        ; Setup parameters for call to function rbWrite
        MOV     A,?V0 + 0
        CLR     C
        SUBB    A,?V0 + 2
        MOV     ?V0 + 4,A
        MOV     A,?V0 + 1
        SUBB    A,?V0 + 3
        MOV     ?V0 + 5,A
        MOV     R0,#?V0 + 4
        LCALL   ?PUSH_XSTACK_I_TWO
        CFI CFA_XSP16 add(XSP16, 24)
        MOV     A,?V0 + 12
        ADD     A,?V0 + 2
        MOV     R4,A
        MOV     A,?V0 + 13
        ADDC    A,?V0 + 3
        MOV     R5,A
        MOV     A,R6
        MOV     R2,A
        MOV     A,R7
        MOV     R3,A
        LCALL   ??rbWrite?relay
        MOV     A,#0x2
        LCALL   ?DEALLOC_XSTACK8
        CFI CFA_XSP16 add(XSP16, 22)
        MOV     ?V0 + 4,R2
        MOV     ?V0 + 5,R3
        MOV     ?V0 + 6,R4
        MOV     ?V0 + 7,R5
        MOV     R0,#?V0 + 8
        MOV     R1,#?V0 + 4
        LCALL   ?L_ADD
        MOV     R2,?V0 + 8
        MOV     R3,?V0 + 9
        MOV     R4,?V0 + 10
        MOV     R5,?V0 + 11
        SJMP    ??rbWrite_1
//  187         }
//  188     }
//  189     else
//  190     {
//  191         osal_memcpy(rb->rbTail, data, count);
??rbWrite_4:
        ; Setup parameters for call to function osal_memcpy
        MOV     ?V0 + 4,?V0 + 12
        MOV     ?V0 + 5,?V0 + 13
        MOV     ?V0 + 6,#0x0
        MOV     R0,#?V0 + 4
        LCALL   ?PUSH_XSTACK_I_THREE
        CFI CFA_XSP16 add(XSP16, 25)
        MOV     R4,?V0 + 0
        MOV     R5,?V0 + 1
        MOV     DPL,R6
        MOV     DPH,R7
        INC     DPTR
        INC     DPTR
        INC     DPTR
        INC     DPTR
        MOVX    A,@DPTR
        MOV     R2,A
        INC     DPTR
        MOVX    A,@DPTR
        MOV     R3,A
        LCALL   ??osal_memcpy?relay
        MOV     A,#0x3
        LCALL   ?DEALLOC_XSTACK8
        CFI CFA_XSP16 add(XSP16, 22)
//  192         rb->rbTail += count;
        MOV     DPL,R6
        MOV     DPH,R7
        INC     DPTR
        INC     DPTR
        INC     DPTR
        INC     DPTR
        MOVX    A,@DPTR
        ADD     A,?V0 + 0
        MOV     R0,A
        INC     DPTR
        MOVX    A,@DPTR
        ADDC    A,?V0 + 1
        MOV     R1,A
        MOV     DPL,R6
        MOV     DPH,R7
        INC     DPTR
        INC     DPTR
        INC     DPTR
        INC     DPTR
        MOV     A,R0
        MOVX    @DPTR,A
        INC     DPTR
        MOV     A,R1
        MOVX    @DPTR,A
//  193         return count;
        MOV     R2,?V0 + 0
        MOV     R3,?V0 + 1
        CLR     A
        MOV     R4,A
        MOV     R5,A
??rbWrite_1:
        MOV     R7,#0xe
        LJMP    ?BANKED_LEAVE_XDATA
        CFI EndBlock cfiBlock20
//  194     }
//  195 }
//  196 /**@} */
//  197 
//  198 /**
//  199 * @brief ÂêëÁéØÂΩ¢ÁºìÂÜ≤Âå∫ÂÜôÂÖ•Êï∞ÊçÆ
//  200 * @param [in] buf        : bufÂú∞ÂùÄ
//  201 * @param [in] len        : Â≠óËäÇÈïøÂ∫¶
//  202 * @return   Ê≠£Á°Æ : ËøîÂõûÂÜôÂÖ•ÁöÑÊï∞ÊçÆÈïøÂ∫?            Â§±Ë¥• : -1
//  203 */

        RSEG BANKED_CODE:CODE:NOROOT(0)
//  204 int32 gizPutData(uint8 *buf, uint32 len)
gizPutData:
        CFI Block cfiBlock21 Using cfiCommon0
        CFI Function gizPutData
        CODE
//  205 {
        FUNCALL gizPutData, rbWrite
        LOCFRAME ISTACK, 0, STACK
        LOCFRAME PSTACK, 0, STACK
        LOCFRAME XSTACK, 18, STACK
        LOCFRAME IOVERLAY, 0, STATIC
        LOCFRAME DOVERLAY, 0, STATIC
        ARGFRAME ISTACK, 0, STACK
        ARGFRAME PSTACK, 0, STACK
        ARGFRAME XSTACK, 18, STACK
        ARGFRAME IOVERLAY, 0, STATIC
        ARGFRAME DOVERLAY, 0, STATIC
        MOV     A,#-0x10
        LCALL   ?BANKED_ENTER_XDATA
        CFI DPH0 load(1, XDATA, add(CFA_XSP16, literal(-1)))
        CFI DPL0 load(1, XDATA, add(CFA_XSP16, literal(-2)))
        CFI ?BRET_EXT load(1, XDATA, add(CFA_XSP16, literal(-3)))
        CFI ?RET_HIGH load(1, XDATA, add(CFA_XSP16, literal(-4)))
        CFI ?RET_LOW load(1, XDATA, add(CFA_XSP16, literal(-5)))
        CFI R7 load(1, XDATA, add(CFA_XSP16, literal(-6)))
        CFI V7 load(1, XDATA, add(CFA_XSP16, literal(-7)))
        CFI V6 load(1, XDATA, add(CFA_XSP16, literal(-8)))
        CFI V5 load(1, XDATA, add(CFA_XSP16, literal(-9)))
        CFI V4 load(1, XDATA, add(CFA_XSP16, literal(-10)))
        CFI V3 load(1, XDATA, add(CFA_XSP16, literal(-11)))
        CFI V2 load(1, XDATA, add(CFA_XSP16, literal(-12)))
        CFI V1 load(1, XDATA, add(CFA_XSP16, literal(-13)))
        CFI V0 load(1, XDATA, add(CFA_XSP16, literal(-14)))
        CFI VB load(1, XDATA, add(CFA_XSP16, literal(-15)))
        CFI R6 load(1, XDATA, add(CFA_XSP16, literal(-16)))
        CFI CFA_SP SP+0
        CFI CFA_XSP16 add(XSP16, 16)
        ; Saved register size: 16
        ; Auto size: 0
        MOV     A,#0x10
        LCALL   ?XSTACK_DISP0_8
        MOV     R0,#?V0 + 4
        LCALL   ?L_MOV_X
//  206     int32 count = 0;
//  207 
//  208     if(NULL == buf)
        MOV     A,R2
        ORL     A,R3
        JNZ     ??gizPutData_0
//  209     {
//  210         GIZWITS_LOG("ERROR: gizPutData buf is empty \n");
//  211         return -1;
??gizPutData_1:
        MOV     R2,#-0x1
        MOV     R3,#-0x1
        MOV     R4,#-0x1
        MOV     R5,#-0x1
        SJMP    ??gizPutData_2
//  212     }
//  213 
//  214     count = rbWrite(&pRb, buf, len);
??gizPutData_0:
        ; Setup parameters for call to function rbWrite
        MOV     ?V0 + 0,?V0 + 4
        MOV     ?V0 + 1,?V0 + 5
        MOV     R0,#?V0 + 0
        LCALL   ?PUSH_XSTACK_I_TWO
        CFI CFA_XSP16 add(XSP16, 18)
        MOV     A,R2
        MOV     R4,A
        MOV     A,R3
        MOV     R5,A
        MOV     R2,#pRb & 0xff
        MOV     R3,#(pRb >> 8) & 0xff
        LCALL   ??rbWrite?relay
        MOV     A,#0x2
        LCALL   ?DEALLOC_XSTACK8
        CFI CFA_XSP16 add(XSP16, 16)
        MOV     ?V0 + 0,R2
        MOV     ?V0 + 1,R3
        MOV     ?V0 + 2,R4
        MOV     ?V0 + 3,R5
//  215     if(count != len)
        MOV     R0,#?V0 + 0
        MOV     R1,#?V0 + 4
        LCALL   ?L_EQ
        JNZ     ??gizPutData_1
//  216     {
//  217         GIZWITS_LOG("ERROR: Failed to rbWrite \n");
//  218         return -1;
//  219     }
//  220 
//  221     return count;
??gizPutData_2:
        SJMP    ??Subroutine61_0
        CFI EndBlock cfiBlock21
//  222 }

        RSEG BANKED_CODE:CODE:NOROOT(0)
?Subroutine1:
        CFI Block cfiBlock22 Using cfiCommon0
        CFI NoFunction
        CFI CFA_SP SP+0
        CFI CFA_XSP16 add(XSP16, 37)
        CFI VB load(1, XDATA, add(CFA_XSP16, literal(-15)))
        CFI DPL0 load(1, XDATA, add(CFA_XSP16, literal(-2)))
        CFI DPH0 load(1, XDATA, add(CFA_XSP16, literal(-1)))
        CFI R6 load(1, XDATA, add(CFA_XSP16, literal(-16)))
        CFI R7 load(1, XDATA, add(CFA_XSP16, literal(-6)))
        CFI V0 load(1, XDATA, add(CFA_XSP16, literal(-14)))
        CFI V1 load(1, XDATA, add(CFA_XSP16, literal(-13)))
        CFI V2 load(1, XDATA, add(CFA_XSP16, literal(-12)))
        CFI V3 load(1, XDATA, add(CFA_XSP16, literal(-11)))
        CFI V4 load(1, XDATA, add(CFA_XSP16, literal(-10)))
        CFI V5 load(1, XDATA, add(CFA_XSP16, literal(-9)))
        CFI V6 load(1, XDATA, add(CFA_XSP16, literal(-8)))
        CFI V7 load(1, XDATA, add(CFA_XSP16, literal(-7)))
        CFI ?BRET_EXT load(1, XDATA, add(CFA_XSP16, literal(-3)))
        CFI ?RET_HIGH load(1, XDATA, add(CFA_XSP16, literal(-4)))
        CFI ?RET_LOW load(1, XDATA, add(CFA_XSP16, literal(-5)))
        CFI Invalid
        LCALL   ?DEALLOC_XSTACK8
        CFI EndBlock cfiBlock22
        REQUIRE ??Subroutine61_0
        ; // Fall through to label ??Subroutine61_0

        RSEG BANKED_CODE:CODE:NOROOT(0)
??Subroutine61_0:
        CFI Block cfiBlock23 Using cfiCommon0
        CFI NoFunction
        CFI CFA_SP SP+0
        CFI CFA_XSP16 add(XSP16, 16)
        CFI VB load(1, XDATA, add(CFA_XSP16, literal(-15)))
        CFI DPL0 load(1, XDATA, add(CFA_XSP16, literal(-2)))
        CFI DPH0 load(1, XDATA, add(CFA_XSP16, literal(-1)))
        CFI R6 load(1, XDATA, add(CFA_XSP16, literal(-16)))
        CFI R7 load(1, XDATA, add(CFA_XSP16, literal(-6)))
        CFI V0 load(1, XDATA, add(CFA_XSP16, literal(-14)))
        CFI V1 load(1, XDATA, add(CFA_XSP16, literal(-13)))
        CFI V2 load(1, XDATA, add(CFA_XSP16, literal(-12)))
        CFI V3 load(1, XDATA, add(CFA_XSP16, literal(-11)))
        CFI V4 load(1, XDATA, add(CFA_XSP16, literal(-10)))
        CFI V5 load(1, XDATA, add(CFA_XSP16, literal(-9)))
        CFI V6 load(1, XDATA, add(CFA_XSP16, literal(-8)))
        CFI V7 load(1, XDATA, add(CFA_XSP16, literal(-7)))
        CFI ?BRET_EXT load(1, XDATA, add(CFA_XSP16, literal(-3)))
        CFI ?RET_HIGH load(1, XDATA, add(CFA_XSP16, literal(-4)))
        CFI ?RET_LOW load(1, XDATA, add(CFA_XSP16, literal(-5)))
        MOV     R7,#0x8
        LJMP    ?BANKED_LEAVE_XDATA
        CFI EndBlock cfiBlock23
//  223 
//  224 /**
//  225 * @brief Êä•ÊñáÊï∞ÊçÆÊ†°È™åÂíåËÆ°ÁÆ?*
//  226 * @param [in] buf   : bufÂú∞ÂùÄ
//  227 * @param [in] len   : Â≠óËäÇÈïøÂ∫¶
//  228 *
//  229 * @return sum : ‰ªéÁºìÂÜ≤Âå∫Á¨?‰∏™Â≠óËäÇÂêéÊâÄÊúâÁöÑÂ≠óËäÇÁ¥ØÂä†Ê±ÇÂíå
//  230 */

        RSEG BANKED_CODE:CODE:NOROOT(0)
//  231 static uint8 gizProtocolSum(uint8 *buf, uint32 len)
gizProtocolSum:
        CFI Block cfiBlock24 Using cfiCommon0
        CFI Function gizProtocolSum
        CODE
//  232 {
        MOV     A,#-0x14
        LCALL   ?BANKED_ENTER_XDATA
        CFI DPH0 load(1, XDATA, add(CFA_XSP16, literal(-1)))
        CFI DPL0 load(1, XDATA, add(CFA_XSP16, literal(-2)))
        CFI ?BRET_EXT load(1, XDATA, add(CFA_XSP16, literal(-3)))
        CFI ?RET_HIGH load(1, XDATA, add(CFA_XSP16, literal(-4)))
        CFI ?RET_LOW load(1, XDATA, add(CFA_XSP16, literal(-5)))
        CFI R7 load(1, XDATA, add(CFA_XSP16, literal(-6)))
        CFI V11 load(1, XDATA, add(CFA_XSP16, literal(-7)))
        CFI V10 load(1, XDATA, add(CFA_XSP16, literal(-8)))
        CFI V9 load(1, XDATA, add(CFA_XSP16, literal(-9)))
        CFI V8 load(1, XDATA, add(CFA_XSP16, literal(-10)))
        CFI V7 load(1, XDATA, add(CFA_XSP16, literal(-11)))
        CFI V6 load(1, XDATA, add(CFA_XSP16, literal(-12)))
        CFI V5 load(1, XDATA, add(CFA_XSP16, literal(-13)))
        CFI V4 load(1, XDATA, add(CFA_XSP16, literal(-14)))
        CFI V3 load(1, XDATA, add(CFA_XSP16, literal(-15)))
        CFI V2 load(1, XDATA, add(CFA_XSP16, literal(-16)))
        CFI V1 load(1, XDATA, add(CFA_XSP16, literal(-17)))
        CFI V0 load(1, XDATA, add(CFA_XSP16, literal(-18)))
        CFI VB load(1, XDATA, add(CFA_XSP16, literal(-19)))
        CFI R6 load(1, XDATA, add(CFA_XSP16, literal(-20)))
        CFI CFA_SP SP+0
        CFI CFA_XSP16 add(XSP16, 20)
        ; Saved register size: 20
        ; Auto size: 0
        MOV     A,#0x14
        LCALL   ?XSTACK_DISP0_8
        MOV     R0,#?V0 + 4
        LCALL   ?L_MOV_X
//  233     uint8     sum = 0;
        MOV     R4,#0x0
//  234     uint32    i = 0;
//  235 
//  236     if(buf == NULL || len <= 0)
        MOV     A,R2
        ORL     A,R3
        JZ      ??gizProtocolSum_0
        MOV     A,?V0 + 4
        ORL     A,?V0 + 5
        ORL     A,?V0 + 6
        ORL     A,?V0 + 7
        JNZ     ??gizProtocolSum_1
//  237     {
//  238         GIZWITS_LOG("ERROR: gizProtocolSum , buf is empty or len error %d \n", len);
//  239         return 0;
??gizProtocolSum_0:
        MOV     R1,#0x0
        SJMP    ??gizProtocolSum_2
//  240     }
//  241 
//  242     for(i=2; i<len-1; i++)
??gizProtocolSum_1:
        MOV     DPTR,#__Constant_2
        MOV     R0,#?V0 + 8
        LCALL   ?L_MOV_X
        SJMP    ??gizProtocolSum_3
//  243     {
//  244         sum += buf[i];
??gizProtocolSum_4:
        MOV     ?V0 + 0,?V0 + 8
        MOV     ?V0 + 1,?V0 + 9
        MOV     A,R2
        ADD     A,?V0 + 0
        MOV     DPL,A
        MOV     A,R3
        ADDC    A,?V0 + 1
        MOV     DPH,A
        MOVX    A,@DPTR
        ADD     A,R4
        MOV     R4,A
//  245     }
        MOV     DPTR,#__Constant_1
        MOV     R0,#?V0 + 8
        LCALL   ?L_ADD_X
??gizProtocolSum_3:
        MOV     ?V0 + 0,?V0 + 4
        MOV     ?V0 + 1,?V0 + 5
        MOV     ?V0 + 2,?V0 + 6
        MOV     ?V0 + 3,?V0 + 7
        MOV     DPTR,#__Constant_ffffffff
        MOV     R0,#?V0 + 0
        LCALL   ?L_ADD_X
        MOV     R0,#?V0 + 0
        MOV     R1,#?V0 + 8
        LCALL   ?UL_GT
        JC      ??gizProtocolSum_4
//  246 
//  247     return sum;
        MOV     A,R4
        MOV     R1,A
        CFI EndBlock cfiBlock24
??gizProtocolSum_2:
        REQUIRE ?Subroutine2
        ; // Fall through to label ?Subroutine2
//  248 }

        RSEG BANKED_CODE:CODE:NOROOT(0)
?Subroutine2:
        CFI Block cfiBlock25 Using cfiCommon0
        CFI NoFunction
        CFI CFA_SP SP+0
        CFI CFA_XSP16 add(XSP16, 20)
        CFI VB load(1, XDATA, add(CFA_XSP16, literal(-19)))
        CFI DPL0 load(1, XDATA, add(CFA_XSP16, literal(-2)))
        CFI DPH0 load(1, XDATA, add(CFA_XSP16, literal(-1)))
        CFI R6 load(1, XDATA, add(CFA_XSP16, literal(-20)))
        CFI R7 load(1, XDATA, add(CFA_XSP16, literal(-6)))
        CFI V0 load(1, XDATA, add(CFA_XSP16, literal(-18)))
        CFI V1 load(1, XDATA, add(CFA_XSP16, literal(-17)))
        CFI V2 load(1, XDATA, add(CFA_XSP16, literal(-16)))
        CFI V3 load(1, XDATA, add(CFA_XSP16, literal(-15)))
        CFI V4 load(1, XDATA, add(CFA_XSP16, literal(-14)))
        CFI V5 load(1, XDATA, add(CFA_XSP16, literal(-13)))
        CFI V6 load(1, XDATA, add(CFA_XSP16, literal(-12)))
        CFI V7 load(1, XDATA, add(CFA_XSP16, literal(-11)))
        CFI V8 load(1, XDATA, add(CFA_XSP16, literal(-10)))
        CFI V9 load(1, XDATA, add(CFA_XSP16, literal(-9)))
        CFI V10 load(1, XDATA, add(CFA_XSP16, literal(-8)))
        CFI V11 load(1, XDATA, add(CFA_XSP16, literal(-7)))
        CFI ?BRET_EXT load(1, XDATA, add(CFA_XSP16, literal(-3)))
        CFI ?RET_HIGH load(1, XDATA, add(CFA_XSP16, literal(-4)))
        CFI ?RET_LOW load(1, XDATA, add(CFA_XSP16, literal(-5)))
        MOV     R7,#0xc
        LJMP    ?BANKED_LEAVE_XDATA
        CFI EndBlock cfiBlock25
//  249 
//  250 /**
//  251 * @brief 16‰ΩçÊï∞ÊçÆÂ≠óËäÇÂ∫èËΩ¨Êç¢
//  252 *
//  253 * @param [in] value : ÈúÄË¶ÅËΩ¨Êç¢ÁöÑÊï∞ÊçÆ
//  254 *
//  255 * @return  tmp_value: ËΩ¨Êç¢ÂêéÁöÑÊï∞ÊçÆ
//  256 */

        RSEG BANKED_CODE:CODE:NOROOT(0)
//  257 static uint16 gizProtocolExchangeBytes(uint16 value)
gizProtocolExchangeBytes:
        CFI Block cfiBlock26 Using cfiCommon0
        CFI Function gizProtocolExchangeBytes
        CODE
//  258 {
        PUSH    DPL
        CFI DPL0 Frame(CFA_SP, 4)
        CFI CFA_SP SP+-4
        PUSH    DPH
        CFI DPH0 Frame(CFA_SP, 5)
        CFI CFA_SP SP+-5
        ; Saved register size: 2
        ; Auto size: 4
        MOV     A,#-0x4
        LCALL   ?ALLOC_XSTACK8
        CFI CFA_XSP16 add(XSP16, 4)
        MOV     A,#0x2
        LCALL   ?XSTACK_DISP0_8
        LCALL   ?Subroutine12 & 0xFFFF
//  259     uint16    tmp_value;
//  260     uint8     *index_1, *index_2;
//  261 
//  262     index_1 = (uint8 *)&tmp_value;
//  263     index_2 = (uint8 *)&value;
//  264 
//  265     *index_1 = *(index_2+1);
??CrossCallReturnLabel_125:
        MOV     DPL,?XSP + 0
        MOV     DPH,?XSP + 1
        MOVX    @DPTR,A
//  266     *(index_1+1) = *index_2;
        MOV     A,#0x2
        LCALL   ?XSTACK_DISP0_8
        MOVX    A,@DPTR
        PUSH    A
        CFI CFA_SP SP+-6
        MOV     A,#0x1
        LCALL   ?XSTACK_DISP0_8
        POP     A
        CFI CFA_SP SP+-5
        MOVX    @DPTR,A
//  267 
//  268     return tmp_value;
        LCALL   ?Subroutine55 & 0xFFFF
??CrossCallReturnLabel_182:
        MOV     A,#0x4
        LCALL   ?DEALLOC_XSTACK8
        CFI EndBlock cfiBlock26
        REQUIRE ?Subroutine3
        ; // Fall through to label ?Subroutine3
//  269 }

        RSEG BANKED_CODE:CODE:NOROOT(0)
?Subroutine3:
        CFI Block cfiBlock27 Using cfiCommon0
        CFI NoFunction
        CFI CFA_SP SP+-5
        CFI DPL0 Frame(CFA_SP, 4)
        CFI DPH0 Frame(CFA_SP, 5)
        POP     DPH
        CFI CFA_SP SP+-4
        CFI DPH0 SameValue
        POP     DPL
        CFI CFA_SP SP+-3
        CFI DPL0 SameValue
        LJMP    ?BRET
        CFI EndBlock cfiBlock27
//  270 
//  271 /**
//  272 * @brief 32‰ΩçÊï∞ÊçÆÂ≠óËäÇÂ∫èËΩ¨Êç¢
//  273 *
//  274 * @param [in] value : ÈúÄË¶ÅËΩ¨Êç¢ÁöÑÊï∞ÊçÆ
//  275 *
//  276 * @return  tmp_value: ËΩ¨Êç¢ÂêéÁöÑÊï∞ÊçÆ
//  277 */
//  278 static uint32 gizExchangeWord(uint32  value)
//  279 {
//  280     return ((value & 0x000000FF) << 24) |
//  281         ((value & 0x0000FF00) << 8) |
//  282         ((value & 0x00FF0000) >> 8) |
//  283         ((value & 0xFF000000) >> 24) ;
//  284 }
//  285 
//  286 /**
//  287 * @brief Êï∞ÁªÑÁºìÂÜ≤Âå∫ÁΩëÁªúÂ≠óËäÇÂ∫èËΩ¨Êç¢
//  288 *
//  289 * @param [in] buf      : bufÂú∞ÂùÄ
//  290 * @param [in] dataLen  : Â≠óËäÇÈïøÂ∫¶
//  291 *
//  292 * @return Ê≠£Á°Æ : 0 
//  293           Â§±Ë¥• : -1
//  294 */
//  295 static int8 gizByteOrderExchange(uint8 *buf,uint32 dataLen)
//  296 {
//  297     uint32 i = 0;
//  298     uint8 preData = 0;
//  299     uint8 aftData = 0;
//  300 
//  301     if(NULL == buf)
//  302     {
//  303         GIZWITS_LOG("gizByteOrderExchange Error , Illegal Param\n");
//  304         return -1;
//  305     }
//  306 
//  307     for(i = 0;i<dataLen/2;i++)
//  308     {
//  309         preData = buf[i];
//  310         aftData = buf[dataLen - i - 1];
//  311         buf[i] = aftData;
//  312         buf[dataLen - i - 1] = preData;
//  313     }
//  314     return 0;
//  315 }
//  316 
//  317 /**
//  318 * @brief ËΩ¨Âåñ‰∏∫ÂçèËÆÆ‰∏≠ÁöÑxÂÄºÂèäÂÆûÈôÖÈÄöËÆØ‰º†ËæìÁöÑÂÄ?*
//  319 * @param [in] ratio    : ‰øÆÊ≠£Á≥ªÊï∞k
//  320 * @param [in] addition : Â¢ûÈáèm
//  321 * @param [in] preValue : ‰Ωú‰∏∫ÂçèËÆÆ‰∏≠ÁöÑyÂÄ? ÊòØApp UIÁïåÈù¢ÁöÑÊòæÁ§∫ÂÄ?*
//  322 * @return aft_value    : ‰Ωú‰∏∫ÂçèËÆÆ‰∏≠ÁöÑxÂÄ? ÊòØÂÆûÈôÖÈÄöËÆØ‰º†ËæìÁöÑÂÄ?*/
//  323 static uint32 gizY2X(uint32 ratio, int32 addition, int32 preValue)
//  324 {
//  325     uint32 aftValue = 0;
//  326 
//  327     //x=(y - m)/k
//  328     aftValue = ((preValue - addition) / ratio);
//  329 
//  330     return aftValue;
//  331 }
//  332 
//  333 /**
//  334 * @brief ËΩ¨Âåñ‰∏∫ÂçèËÆÆ‰∏≠ÁöÑyÂÄºÂèäApp UIÁïåÈù¢ÁöÑÊòæÁ§∫ÂÄ?*
//  335 * @param [in] ratio    : ‰øÆÊ≠£Á≥ªÊï∞k
//  336 * @param [in] addition : Â¢ûÈáèm
//  337 * @param [in] preValue : ‰Ωú‰∏∫ÂçèËÆÆ‰∏≠ÁöÑxÂÄ? ÊòØÂÆûÈôÖÈÄöËÆØ‰º†ËæìÁöÑÂÄ?*
//  338 * @return aftValue : ‰Ωú‰∏∫ÂçèËÆÆ‰∏≠ÁöÑyÂÄ? ÊòØApp UIÁïåÈù¢ÁöÑÊòæÁ§∫ÂÄ?*/
//  339 static int32 gizX2Y(uint32 ratio, int32 addition, uint32 preValue)
//  340 {
//  341     int32 aftValue = 0;
//  342 
//  343     //y=k * x + m
//  344     aftValue = (preValue * ratio + addition);
//  345 
//  346     return aftValue;
//  347 }
//  348 
//  349 /**
//  350 * @brief ËΩ¨Âåñ‰∏∫ÂçèËÆÆ‰∏≠ÁöÑxÂÄºÂèäÂÆûÈôÖÈÄöËÆØ‰º†ËæìÁöÑÂÄ?Âè™Áî®‰ΩúÂØπÊµÆÁÇπÂûãÊï∞ÊçÆÂÅöÂ§ÑÁêÜ
//  351 *
//  352 * @param [in] ratio    : ‰øÆÊ≠£Á≥ªÊï∞k
//  353 * @param [in] addition : Â¢ûÈáèm
//  354 * @param [in] preValue : ‰Ωú‰∏∫ÂçèËÆÆ‰∏≠ÁöÑyÂÄ? ÊòØApp UIÁïåÈù¢ÁöÑÊòæÁ§∫ÂÄ?*
//  355 * @return  aft_value : ‰Ωú‰∏∫ÂçèËÆÆ‰∏≠ÁöÑxÂÄ? ÊòØÂÆûÈôÖÈÄöËÆØ‰º†ËæìÁöÑÂÄ?*/
//  356 static uint32 gizY2XFloat(float ratio, float addition, float preValue)
//  357 {
//  358     uint32 aftValue = 0;
//  359 
//  360     //x=(y - m)/k
//  361     aftValue = ((preValue - addition) / ratio);
//  362 
//  363     return aftValue;
//  364 }
//  365 
//  366 /**
//  367 * @brief ËΩ¨Âåñ‰∏∫ÂçèËÆÆ‰∏≠ÁöÑyÂÄºÂèäApp UIÁïåÈù¢ÁöÑÊòæÁ§∫ÂÄ?Âè™Áî®‰ΩúÂØπÊµÆÁÇπÂûãÊï∞ÊçÆÂÅöÂ§ÑÁêÜ
//  368 *
//  369 * @param [in] ratio    : ‰øÆÊ≠£Á≥ªÊï∞k
//  370 * @param [in] addition : Â¢ûÈáèm
//  371 * @param [in] preValue : ‰Ωú‰∏∫ÂçèËÆÆ‰∏≠ÁöÑxÂÄ? ÊòØÂÆûÈôÖÈÄöËÆØ‰º†ËæìÁöÑÂÄ?*
//  372 * @return : ‰Ωú‰∏∫ÂçèËÆÆ‰∏≠ÁöÑyÂÄ? ÊòØApp UIÁïåÈù¢ÁöÑÊòæÁ§∫ÂÄ?*/
//  373 static float gizX2YFloat(float ratio, float addition, uint32 preValue)
//  374 {
//  375     float aftValue = 0;
//  376 
//  377     //y=k * x + m
//  378     aftValue = (preValue * ratio + addition);
//  379 
//  380     return aftValue;
//  381 }
//  382 
//  383 /**
//  384 * @brief Êï∞ÊçÆÁÇπË∑®Â≠óËäÇÂà§Êñ≠
//  385 *
//  386 * @param [in] bitOffset     : ‰ΩçÂÅèÁß?* @param [in] bitLen        : Âç†Áî®‰ΩçÈïøÂ∫?
//  387 *
//  388 * @return Êú™Ë∑®Â≠óËäÇ : 0 
//  389             Ë∑®Â≠óËä?: 1
//  390 */
//  391 static uint8 gizAcrossByteJudge(uint32 bitOffset,uint32 bitLen)
//  392 {
//  393     if((0 == bitOffset)||(0 == bitOffset%8))
//  394     {
//  395         if(bitLen <= 8)
//  396         {
//  397             return 0;
//  398         }
//  399         else
//  400         {
//  401             return 1;
//  402         }
//  403     }
//  404     else
//  405     {
//  406         if(8 - bitOffset%8 >= bitLen)
//  407         {
//  408             return 0;
//  409         }
//  410         else
//  411         {
//  412             return 1; 
//  413         }
//  414     }
//  415 }
//  416 /**
//  417 * @brief ÂçèËÆÆÂ§¥ÂàùÂßãÂåñ
//  418 *
//  419 * @param [out] head         : ÂçèËÆÆÂ§¥ÊåáÈí?*
//  420 * @return 0Ôº?ÊâßË°åÊàêÂäüÔº?Èù?0Ôº?Â§±Ë¥•    
//  421 */

        RSEG BANKED_CODE:CODE:NOROOT(0)
//  422 static int8 gizProtocolHeadInit(protocolHead_t *head)
gizProtocolHeadInit:
        CFI Block cfiBlock28 Using cfiCommon0
        CFI Function gizProtocolHeadInit
        CODE
//  423 {
        FUNCALL gizProtocolHeadInit, osal_memset
        LOCFRAME ISTACK, 0, STACK
        LOCFRAME PSTACK, 0, STACK
        LOCFRAME XSTACK, 9, STACK
        LOCFRAME IOVERLAY, 0, STATIC
        LOCFRAME DOVERLAY, 0, STATIC
        ARGFRAME ISTACK, 0, STACK
        ARGFRAME PSTACK, 0, STACK
        ARGFRAME XSTACK, 9, STACK
        ARGFRAME IOVERLAY, 0, STATIC
        ARGFRAME DOVERLAY, 0, STATIC
        MOV     A,#-0x9
        LCALL   ?BANKED_ENTER_XDATA
        CFI DPH0 load(1, XDATA, add(CFA_XSP16, literal(-1)))
        CFI DPL0 load(1, XDATA, add(CFA_XSP16, literal(-2)))
        CFI ?BRET_EXT load(1, XDATA, add(CFA_XSP16, literal(-3)))
        CFI ?RET_HIGH load(1, XDATA, add(CFA_XSP16, literal(-4)))
        CFI ?RET_LOW load(1, XDATA, add(CFA_XSP16, literal(-5)))
        CFI R7 load(1, XDATA, add(CFA_XSP16, literal(-6)))
        CFI V0 load(1, XDATA, add(CFA_XSP16, literal(-7)))
        CFI VB load(1, XDATA, add(CFA_XSP16, literal(-8)))
        CFI R6 load(1, XDATA, add(CFA_XSP16, literal(-9)))
        CFI CFA_SP SP+0
        CFI CFA_XSP16 add(XSP16, 9)
        ; Saved register size: 9
        ; Auto size: 0
        MOV     A,R2
        MOV     R6,A
        MOV     A,R3
        MOV     R7,A
//  424     if(NULL == head)
        MOV     A,R6
        ORL     A,R7
        JNZ     ??gizProtocolHeadInit_0
//  425     {
//  426         GIZWITS_LOG("ERROR: gizProtocolHeadInit head is empty \n");
//  427         return -1;
        MOV     R1,#-0x1
        SJMP    ??gizProtocolHeadInit_1
//  428     }
//  429 
//  430     osal_memset((uint8 *)head, 0, sizeof(protocolHead_t));
??gizProtocolHeadInit_0:
        ; Setup parameters for call to function osal_memset
        MOV     R4,#0x8
        MOV     R5,#0x0
        MOV     R1,#0x0
        LCALL   ??osal_memset?relay
//  431     head->head[0] = 0xFF;
        MOV     DPL,R6
        MOV     DPH,R7
        MOV     A,#-0x1
        MOVX    @DPTR,A
//  432     head->head[1] = 0xFF;
        INC     DPTR
        MOVX    @DPTR,A
//  433 
//  434     return 0;
        MOV     R1,#0x0
        CFI EndBlock cfiBlock28
??gizProtocolHeadInit_1:
        REQUIRE ?Subroutine4
        ; // Fall through to label ?Subroutine4
//  435 }

        RSEG BANKED_CODE:CODE:NOROOT(0)
?Subroutine4:
        CFI Block cfiBlock29 Using cfiCommon0
        CFI NoFunction
        CFI CFA_SP SP+0
        CFI CFA_XSP16 add(XSP16, 9)
        CFI VB load(1, XDATA, add(CFA_XSP16, literal(-8)))
        CFI DPL0 load(1, XDATA, add(CFA_XSP16, literal(-2)))
        CFI DPH0 load(1, XDATA, add(CFA_XSP16, literal(-1)))
        CFI R6 load(1, XDATA, add(CFA_XSP16, literal(-9)))
        CFI R7 load(1, XDATA, add(CFA_XSP16, literal(-6)))
        CFI V0 load(1, XDATA, add(CFA_XSP16, literal(-7)))
        CFI ?BRET_EXT load(1, XDATA, add(CFA_XSP16, literal(-3)))
        CFI ?RET_HIGH load(1, XDATA, add(CFA_XSP16, literal(-4)))
        CFI ?RET_LOW load(1, XDATA, add(CFA_XSP16, literal(-5)))
        MOV     R7,#0x1
        LJMP    ?BANKED_LEAVE_XDATA
        CFI EndBlock cfiBlock29
//  436 
//  437 /**
//  438 * @brief ÂçèËÆÆACKÊ†°È™åÂ§ÑÁêÜÂáΩÊï∞
//  439 *
//  440 * @param [in] data            : Êï∞ÊçÆÂú∞ÂùÄ
//  441 * @param [in] len             : Êï∞ÊçÆÈïøÂ∫¶
//  442 *
//  443 * @return 0Ôº?ÊâßË°åÊàêÂäüÔº?Èù?0Ôº?Â§±Ë¥•
//  444 */

        RSEG BANKED_CODE:CODE:NOROOT(0)
//  445 static int8 gizProtocolWaitAck(uint8 *data, uint32 len)
gizProtocolWaitAck:
        CFI Block cfiBlock30 Using cfiCommon0
        CFI Function gizProtocolWaitAck
        CODE
//  446 {
        FUNCALL gizProtocolWaitAck, osal_memset
        LOCFRAME ISTACK, 0, STACK
        LOCFRAME PSTACK, 0, STACK
        LOCFRAME XSTACK, 16, STACK
        LOCFRAME IOVERLAY, 0, STATIC
        LOCFRAME DOVERLAY, 0, STATIC
        ARGFRAME ISTACK, 0, STACK
        ARGFRAME PSTACK, 0, STACK
        ARGFRAME XSTACK, 16, STACK
        ARGFRAME IOVERLAY, 0, STATIC
        ARGFRAME DOVERLAY, 0, STATIC
        FUNCALL gizProtocolWaitAck, osal_memcpy
        LOCFRAME ISTACK, 0, STACK
        LOCFRAME PSTACK, 0, STACK
        LOCFRAME XSTACK, 19, STACK
        LOCFRAME IOVERLAY, 0, STATIC
        LOCFRAME DOVERLAY, 0, STATIC
        ARGFRAME ISTACK, 0, STACK
        ARGFRAME PSTACK, 0, STACK
        ARGFRAME XSTACK, 19, STACK
        ARGFRAME IOVERLAY, 0, STATIC
        ARGFRAME DOVERLAY, 0, STATIC
        FUNCALL gizProtocolWaitAck, gizGetTimerCount
        LOCFRAME ISTACK, 0, STACK
        LOCFRAME PSTACK, 0, STACK
        LOCFRAME XSTACK, 16, STACK
        LOCFRAME IOVERLAY, 0, STATIC
        LOCFRAME DOVERLAY, 0, STATIC
        ARGFRAME ISTACK, 0, STACK
        ARGFRAME PSTACK, 0, STACK
        ARGFRAME XSTACK, 16, STACK
        ARGFRAME IOVERLAY, 0, STATIC
        ARGFRAME DOVERLAY, 0, STATIC
        MOV     A,#-0x10
        LCALL   ?BANKED_ENTER_XDATA
        CFI DPH0 load(1, XDATA, add(CFA_XSP16, literal(-1)))
        CFI DPL0 load(1, XDATA, add(CFA_XSP16, literal(-2)))
        CFI ?BRET_EXT load(1, XDATA, add(CFA_XSP16, literal(-3)))
        CFI ?RET_HIGH load(1, XDATA, add(CFA_XSP16, literal(-4)))
        CFI ?RET_LOW load(1, XDATA, add(CFA_XSP16, literal(-5)))
        CFI R7 load(1, XDATA, add(CFA_XSP16, literal(-6)))
        CFI V7 load(1, XDATA, add(CFA_XSP16, literal(-7)))
        CFI V6 load(1, XDATA, add(CFA_XSP16, literal(-8)))
        CFI V5 load(1, XDATA, add(CFA_XSP16, literal(-9)))
        CFI V4 load(1, XDATA, add(CFA_XSP16, literal(-10)))
        CFI V3 load(1, XDATA, add(CFA_XSP16, literal(-11)))
        CFI V2 load(1, XDATA, add(CFA_XSP16, literal(-12)))
        CFI V1 load(1, XDATA, add(CFA_XSP16, literal(-13)))
        CFI V0 load(1, XDATA, add(CFA_XSP16, literal(-14)))
        CFI VB load(1, XDATA, add(CFA_XSP16, literal(-15)))
        CFI R6 load(1, XDATA, add(CFA_XSP16, literal(-16)))
        CFI CFA_SP SP+0
        CFI CFA_XSP16 add(XSP16, 16)
        ; Saved register size: 16
        ; Auto size: 0
        MOV     A,R2
        MOV     R6,A
        MOV     A,R3
        MOV     R7,A
        MOV     A,#0x10
        LCALL   ?XSTACK_DISP0_8
        MOV     R0,#?V0 + 4
        LCALL   ?L_MOV_X
//  447     if(NULL == data)
        MOV     A,R6
        ORL     A,R7
        JNZ     ??gizProtocolWaitAck_0
//  448     {
//  449         GIZWITS_LOG("ERROR: data is empty \n");
//  450         return -1;
        MOV     R1,#-0x1
        SJMP    ??gizProtocolWaitAck_1
//  451     }
//  452 
//  453     osal_memset((uint8 *)&gizwitsProtocol.waitAck, 0, sizeof(protocolWaitAck_t));
??gizProtocolWaitAck_0:
        ; Setup parameters for call to function osal_memset
        MOV     R4,#0x27
        MOV     R5,#0x0
        MOV     R1,#0x0
        MOV     R2,#(gizwitsProtocol + 75) & 0xff
        MOV     R3,#((gizwitsProtocol + 75) >> 8) & 0xff
        LCALL   ??osal_memset?relay
//  454     osal_memcpy((uint8 *)gizwitsProtocol.waitAck.buf, data, len);
        ; Setup parameters for call to function osal_memcpy
        MOV     ?V0 + 0,R6
        MOV     ?V0 + 1,R7
        MOV     ?V0 + 2,#0x0
        MOV     R0,#?V0 + 0
        LCALL   ?PUSH_XSTACK_I_THREE
        CFI CFA_XSP16 add(XSP16, 19)
        MOV     ?V0 + 0,?V0 + 4
        MOV     ?V0 + 1,?V0 + 5
        MOV     R4,?V0 + 0
        MOV     R5,?V0 + 1
        MOV     R2,#(gizwitsProtocol + 77) & 0xff
        MOV     R3,#((gizwitsProtocol + 77) >> 8) & 0xff
        LCALL   ??Subroutine62_0 & 0xFFFF
??CrossCallReturnLabel_105:
        LCALL   ?DEALLOC_XSTACK8
        CFI CFA_XSP16 add(XSP16, 16)
//  455     gizwitsProtocol.waitAck.dataLen = (uint16)len;
        MOV     DPTR,#gizwitsProtocol + 108
        MOV     A,?V0 + 0
        MOVX    @DPTR,A
        INC     DPTR
        MOV     A,?V0 + 1
        MOVX    @DPTR,A
//  456     
//  457     gizwitsProtocol.waitAck.flag = 1;
        MOV     DPTR,#gizwitsProtocol + 76
        MOV     A,#0x1
        MOVX    @DPTR,A
//  458     gizwitsProtocol.waitAck.sendTime = gizGetTimerCount();
        ; Setup parameters for call to function gizGetTimerCount
        LCALL   ??gizGetTimerCount?relay
        MOV     DPTR,#gizwitsProtocol + 110
        LCALL   ?XSTORE_R2345
//  459 
//  460     return 0;
        MOV     R1,#0x0
??gizProtocolWaitAck_1:
        LJMP    ??Subroutine61_0 & 0xFFFF
        CFI EndBlock cfiBlock30
//  461 }
//  462 
//  463 
//  464 

        RSEG BANKED_CODE:CODE:NOROOT(0)
//  465 uint32 ICACHE_FLASH_ATTR calculateDynamicBitPartLen(dataPointFlags_t *aFlag)
calculateDynamicBitPartLen:
        CFI Block cfiBlock31 Using cfiCommon0
        CFI Function calculateDynamicBitPartLen
        CODE
//  466 {
        ; Saved register size: 0
        ; Auto size: 0
//  467     uint32 bitFieldBitLen = 0,bytetmpLen= 0;
//  468     /* Âè™Â§ÑÁêÜÂèØÂÜôbool EnumÁ±ªÂûãÊï∞ÊçÆ */
//  469 
//  470     if(0 == bitFieldBitLen)
//  471     {
//  472         bytetmpLen = 0;
//  473     }
//  474     else
//  475     {
//  476         if(0 == bitFieldBitLen%8)
//  477         {
//  478             bytetmpLen = bitFieldBitLen/8;
//  479         }
//  480         else
//  481         {
//  482             bytetmpLen = bitFieldBitLen/8 + 1;
//  483         }
//  484     }
//  485     return bytetmpLen;
        MOV     R2,#0x0
        MOV     R3,#0x0
        MOV     R4,#0x0
        MOV     R5,#0x0
        LJMP    ?BRET
        CFI EndBlock cfiBlock31
//  486 }
//  487 static int32 ICACHE_FLASH_ATTR gizCompressValue(uint32 bitOffset,uint32 bitLen,uint8 *bufAddr,uint32 srcData)
//  488 {
//  489     uint8 highBit = 0;
//  490     uint8 lowBit = 0;
//  491     uint8 ret = 0;
//  492     uint32 byteOffset = 0;
//  493     if(NULL == bufAddr)
//  494     {
//  495         GIZWITS_LOG("gizCompressValue Error , Illegal Param\n");
//  496         return -1;
//  497     }       
//  498     /* Ê†πÊçÆbitOffsetËÆ°ÁÆó byteOffset*/
//  499     byteOffset = bitOffset/8;
//  500     ret = gizAcrossByteJudge(bitOffset,bitLen);
//  501     if(0 == ret)
//  502     {
//  503         bufAddr[byteOffset] |= (((uint8)srcData)<<(bitOffset%8));
//  504     }
//  505     else if(1 == ret)
//  506     {
//  507         /* ÊöÇÊó∂ÊîØÊåÅÊúÄÂ§öË∑®‰∏§Â≠óËäÇÁöÑÂéãÁº© */ 
//  508         highBit = ((uint8)srcData)>>(8-bitOffset%8);
//  509         lowBit = (uint8)srcData & (0xFF >> (8-bitOffset%8));
//  510         bufAddr[byteOffset + 1] |=  highBit;
//  511         bufAddr[byteOffset] |= (lowBit<<(bitOffset%8));
//  512     }
//  513 
//  514     return 0;
//  515 }
//  516 /**
//  517 * @brief boolÂíåenumÁ±ªÂûãÊï∞ÊçÆÁÇπÊï∞ÊçÆËß£Âé?*
//  518 * @param [in] bitOffset     : ‰ΩçÂÅèÁß?* @param [in] bitLen        : Âç†Áî®‰ΩçÈïøÂ∫?* @param [in] arrayAddr     : Êï∞ÁªÑÂú∞ÂùÄ
//  519 * @param [in] arrayLen      : Êï∞ÁªÑÈïøÂ∫¶
//  520 *
//  521 * @return destValue         : Ëß£ÂéãÂêéÁªìÊûúÊï∞Êç?-1Ë°®Á§∫ÈîôËØØËøîÂõû
//  522 */
//  523 static int32 ICACHE_FLASH_ATTR gizDecompressionValue(uint32 bitOffset,uint32 bitLen,uint8 *arrayAddr,uint32 arrayLen)
//  524 {
//  525     int32 destValue = 0;
//  526     return destValue;
//  527 }
//  528 /**
//  529 * @brief Ê†πÊçÆÂçèËÆÆÁîüÊàê‚ÄúÊéßÂà∂Âûã‰∫ã‰ª∂‚Ä?
//  530 * @param [in] issuedData  ÔºöÊéßÂà∂ÂûãÊï∞ÊçÆ
//  531 * @param [out] info       Ôºö‰∫ã‰ª∂ÈòüÂà?* @param [out] dataPoints ÔºöÊï∞ÊçÆÁÇπÊï∞ÊçÆ
//  532 * @return 0ÔºåÊâßË°åÊàêÂäüÔºå Èù?0ÔºåÂ§±Ë¥?*/

        RSEG BANKED_CODE:CODE:NOROOT(0)
//  533 static int8 ICACHE_FLASH_ATTR gizDataPoint2Event(uint8 *issuedData, eventInfo_t *info, dataPoint_t *dataPoints)
gizDataPoint2Event:
        CFI Block cfiBlock32 Using cfiCommon0
        CFI Function gizDataPoint2Event
        CODE
//  534 {
        FUNCALL gizDataPoint2Event, osal_memset
        LOCFRAME ISTACK, 0, STACK
        LOCFRAME PSTACK, 0, STACK
        LOCFRAME XSTACK, 36, STACK
        LOCFRAME IOVERLAY, 0, STATIC
        LOCFRAME DOVERLAY, 0, STATIC
        ARGFRAME ISTACK, 0, STACK
        ARGFRAME PSTACK, 0, STACK
        ARGFRAME XSTACK, 36, STACK
        ARGFRAME IOVERLAY, 0, STATIC
        ARGFRAME DOVERLAY, 0, STATIC
        FUNCALL gizDataPoint2Event, osal_memcpy
        LOCFRAME ISTACK, 0, STACK
        LOCFRAME PSTACK, 0, STACK
        LOCFRAME XSTACK, 39, STACK
        LOCFRAME IOVERLAY, 0, STATIC
        LOCFRAME DOVERLAY, 0, STATIC
        ARGFRAME ISTACK, 0, STACK
        ARGFRAME PSTACK, 0, STACK
        ARGFRAME XSTACK, 39, STACK
        ARGFRAME IOVERLAY, 0, STATIC
        ARGFRAME DOVERLAY, 0, STATIC
        FUNCALL gizDataPoint2Event, osal_memcpy
        LOCFRAME ISTACK, 0, STACK
        LOCFRAME PSTACK, 0, STACK
        LOCFRAME XSTACK, 39, STACK
        LOCFRAME IOVERLAY, 0, STATIC
        LOCFRAME DOVERLAY, 0, STATIC
        ARGFRAME ISTACK, 0, STACK
        ARGFRAME PSTACK, 0, STACK
        ARGFRAME XSTACK, 39, STACK
        ARGFRAME IOVERLAY, 0, STATIC
        ARGFRAME DOVERLAY, 0, STATIC
        MOV     A,#-0xf
        LCALL   ?BANKED_ENTER_XDATA
        CFI DPH0 load(1, XDATA, add(CFA_XSP16, literal(-1)))
        CFI DPL0 load(1, XDATA, add(CFA_XSP16, literal(-2)))
        CFI ?BRET_EXT load(1, XDATA, add(CFA_XSP16, literal(-3)))
        CFI ?RET_HIGH load(1, XDATA, add(CFA_XSP16, literal(-4)))
        CFI ?RET_LOW load(1, XDATA, add(CFA_XSP16, literal(-5)))
        CFI R7 load(1, XDATA, add(CFA_XSP16, literal(-6)))
        CFI V6 load(1, XDATA, add(CFA_XSP16, literal(-7)))
        CFI V5 load(1, XDATA, add(CFA_XSP16, literal(-8)))
        CFI V4 load(1, XDATA, add(CFA_XSP16, literal(-9)))
        CFI V3 load(1, XDATA, add(CFA_XSP16, literal(-10)))
        CFI V2 load(1, XDATA, add(CFA_XSP16, literal(-11)))
        CFI V1 load(1, XDATA, add(CFA_XSP16, literal(-12)))
        CFI V0 load(1, XDATA, add(CFA_XSP16, literal(-13)))
        CFI VB load(1, XDATA, add(CFA_XSP16, literal(-14)))
        CFI R6 load(1, XDATA, add(CFA_XSP16, literal(-15)))
        CFI CFA_SP SP+0
        CFI CFA_XSP16 add(XSP16, 15)
        ; Saved register size: 15
        ; Auto size: 21
        MOV     A,#-0x15
        LCALL   ?ALLOC_XSTACK8
        CFI CFA_XSP16 add(XSP16, 36)
        MOV     ?V0 + 0,R2
        MOV     ?V0 + 1,R3
        MOV     A,R4
        MOV     R6,A
        MOV     A,R5
        MOV     R7,A
        MOV     A,#0x24
        LCALL   ?XSTACK_DISP0_8
        MOVX    A,@DPTR
        MOV     ?V0 + 2,A
        INC     DPTR
        MOVX    A,@DPTR
        MOV     ?V0 + 3,A
//  535     uint32 bitFieldByteLen= 0;//‰ΩçÊÆµÂ≠óËäÇÈïøÂ∫¶
//  536     uint32 bitFieldOffset = 0;//‰ΩçÊÆµ‰ΩçÂÅèÁß?
//  537     uint32 byteFieldOffset = 0;//Â≠óËäÇÊÆµÂÅèÁß?
//  538     gizwitsElongateP0Form_t elongateP0FormTmp;
//  539     osal_memset((uint8 *)&elongateP0FormTmp,0,sizeof(gizwitsElongateP0Form_t));
        ; Setup parameters for call to function osal_memset
        MOV     R4,#0x15
        MOV     R5,#0x0
        MOV     R1,#0x0
        MOV     DPL,?XSP + 0
        MOV     DPH,?XSP + 1
        MOV     R2,DPL
        MOV     R3,DPH
        LCALL   ??osal_memset?relay
//  540     osal_memcpy((uint8 *)&elongateP0FormTmp.devDatapointFlag,issuedData,DATAPOINT_FLAG_LEN);
        ; Setup parameters for call to function osal_memcpy
        MOV     ?V0 + 4,?V0 + 0
        MOV     ?V0 + 5,?V0 + 1
        MOV     ?V0 + 6,#0x0
        MOV     R0,#?V0 + 4
        LCALL   ?PUSH_XSTACK_I_THREE
        CFI CFA_XSP16 add(XSP16, 39)
        MOV     R4,#0x1
        MOV     R5,#0x0
        MOV     A,#0x3
        LCALL   ?XSTACK_DISP0_8
        LCALL   ?Subroutine41 & 0xFFFF
??CrossCallReturnLabel_93:
        LCALL   ?DEALLOC_XSTACK8
        CFI CFA_XSP16 add(XSP16, 36)
//  541 
//  542     if((NULL == issuedData) || (NULL == info) ||(NULL == dataPoints))
        MOV     A,?V0 + 0
        ORL     A,?V0 + 1
        JZ      ??gizDataPoint2Event_0
        MOV     A,R6
        ORL     A,R7
        JZ      ??gizDataPoint2Event_0
        MOV     A,?V0 + 2
        ORL     A,?V0 + 3
        JNZ     ??gizDataPoint2Event_1
//  543     {
//  544         GIZWITS_LOG("gizDataPoint2Event Error , Illegal Param\n");
//  545         return -1;
??gizDataPoint2Event_0:
        MOV     R1,#-0x1
        SJMP    ??gizDataPoint2Event_2
//  546     }
//  547     /** Â§ß‰∫é1Â≠óËäÇÂÅö‰ΩçÂ∫èËΩ¨Êç?**/
//  548     if(DATAPOINT_FLAG_LEN > 1)
//  549     {
//  550         if(-1 == gizByteOrderExchange((uint8 *)&elongateP0FormTmp.devDatapointFlag,DATAPOINT_FLAG_LEN))
//  551         {
//  552             GIZWITS_LOG("gizByteOrderExchange Error\n");
//  553             return -1;
//  554         }
//  555     }
//  556     /* ËÆ°ÁÆó‰ΩçÊÆµÂç†Áî®ÁöÑÂ≠óËäÇÈïøÂ∫?*/
//  557     bitFieldByteLen = calculateDynamicBitPartLen(&elongateP0FormTmp.devDatapointFlag);
//  558     byteFieldOffset += bitFieldByteLen + DATAPOINT_FLAG_LEN;//Êï∞ÂÄºÊÆµÂ≠óËäÇÂÅèÁßª
//  559 
//  560 
//  561 
//  562 
//  563     if(0x01 == elongateP0FormTmp.devDatapointFlag.flagaa1)
??gizDataPoint2Event_1:
        MOV     DPL,?XSP + 0
        MOV     DPH,?XSP + 1
        MOVX    A,@DPTR
        MOV     C,0xE0 /* A   */.0
        JNC     ??gizDataPoint2Event_3
//  564     {
//  565         info->event[info->num] = EVENT_AA1;
        MOV     DPL,R6
        MOV     DPH,R7
        MOVX    A,@DPTR
        MOV     R0,A
        MOV     A,R6
        ADD     A,R0
        MOV     DPL,A
        MOV     A,R7
        ADDC    A,#0x0
        MOV     DPH,A
        INC     DPTR
        MOV     A,#0x10
        MOVX    @DPTR,A
//  566         info->num++;
        MOV     DPL,R6
        MOV     DPH,R7
        MOVX    A,@DPTR
        INC     A
        MOVX    @DPTR,A
//  567         osal_memcpy((uint8 *)dataPoints->valueaa1,(uint8 *)&issuedData[byteFieldOffset],20);
        ; Setup parameters for call to function osal_memcpy
        MOV     DPL,?V0 + 0
        MOV     DPH,?V0 + 1
        INC     DPTR
        MOV     R1,DPL
        MOV     R2,DPH
        MOV     ?V0 + 4,R1
        MOV     ?V0 + 5,R2
        MOV     R0,#?V0 + 4
        LCALL   ?PUSH_XSTACK_I_THREE
        CFI CFA_XSP16 add(XSP16, 39)
        MOV     R4,#0x14
        MOV     R5,#0x0
        MOV     R2,?V0 + 2
        MOV     R3,?V0 + 3
        LCALL   ??Subroutine62_0 & 0xFFFF
??CrossCallReturnLabel_106:
        LCALL   ?DEALLOC_XSTACK8
        CFI CFA_XSP16 add(XSP16, 36)
//  568         byteFieldOffset += AA1_LEN;
//  569     }
//  570 
//  571     return 0;
??gizDataPoint2Event_3:
        MOV     R1,#0x0
??gizDataPoint2Event_2:
        MOV     A,#0x15
        CFI EndBlock cfiBlock32
        REQUIRE ?Subroutine5
        ; // Fall through to label ?Subroutine5
//  572 }

        RSEG BANKED_CODE:CODE:NOROOT(0)
?Subroutine5:
        CFI Block cfiBlock33 Using cfiCommon0
        CFI NoFunction
        CFI CFA_SP SP+0
        CFI CFA_XSP16 add(XSP16, 36)
        CFI VB load(1, XDATA, add(CFA_XSP16, literal(-14)))
        CFI DPL0 load(1, XDATA, add(CFA_XSP16, literal(-2)))
        CFI DPH0 load(1, XDATA, add(CFA_XSP16, literal(-1)))
        CFI R6 load(1, XDATA, add(CFA_XSP16, literal(-15)))
        CFI R7 load(1, XDATA, add(CFA_XSP16, literal(-6)))
        CFI V0 load(1, XDATA, add(CFA_XSP16, literal(-13)))
        CFI V1 load(1, XDATA, add(CFA_XSP16, literal(-12)))
        CFI V2 load(1, XDATA, add(CFA_XSP16, literal(-11)))
        CFI V3 load(1, XDATA, add(CFA_XSP16, literal(-10)))
        CFI V4 load(1, XDATA, add(CFA_XSP16, literal(-9)))
        CFI V5 load(1, XDATA, add(CFA_XSP16, literal(-8)))
        CFI V6 load(1, XDATA, add(CFA_XSP16, literal(-7)))
        CFI ?BRET_EXT load(1, XDATA, add(CFA_XSP16, literal(-3)))
        CFI ?RET_HIGH load(1, XDATA, add(CFA_XSP16, literal(-4)))
        CFI ?RET_LOW load(1, XDATA, add(CFA_XSP16, literal(-5)))
        CFI Invalid
        LCALL   ?DEALLOC_XSTACK8
        CFI CFA_XSP16 add(XSP16, 15)
        CFI Valid
        MOV     R7,#0x7
        LJMP    ?BANKED_LEAVE_XDATA
        CFI EndBlock cfiBlock33
//  573 
//  574 
//  575 /**
//  576 * @brief ÂØπÊØîÂΩìÂâçÊï∞ÊçÆÂíå‰∏äÊ¨°Êï∞Êç?*
//  577 * @param [in] cur        : ÂΩìÂâçÊï∞ÊçÆÁÇπÊï∞Êç?* @param [in] last       : ‰∏äÊ¨°Êï∞ÊçÆÁÇπÊï∞Êç?*
//  578 * @return : 0,Êï∞ÊçÆÊó†ÂèòÂå?1ÔºåÊï∞ÊçÆÊúâÂèòÂåñ
//  579 */
//  580 #pragma optimize=none

        RSEG BANKED_CODE:CODE:NOROOT(0)
//  581 static int8 ICACHE_FLASH_ATTR gizCheckReport(dataPoint_t *cur, dataPoint_t *last)
gizCheckReport:
        CFI Block cfiBlock34 Using cfiCommon0
        CFI Function gizCheckReport
        CODE
//  582 {
        FUNCALL gizCheckReport, osal_memcmp
        LOCFRAME ISTACK, 0, STACK
        LOCFRAME PSTACK, 0, STACK
        LOCFRAME XSTACK, 18, STACK
        LOCFRAME IOVERLAY, 0, STATIC
        LOCFRAME DOVERLAY, 0, STATIC
        ARGFRAME ISTACK, 0, STACK
        ARGFRAME PSTACK, 0, STACK
        ARGFRAME XSTACK, 18, STACK
        ARGFRAME IOVERLAY, 0, STATIC
        ARGFRAME DOVERLAY, 0, STATIC
        MOV     A,#-0xf
        LCALL   ?BANKED_ENTER_XDATA
        CFI DPH0 load(1, XDATA, add(CFA_XSP16, literal(-1)))
        CFI DPL0 load(1, XDATA, add(CFA_XSP16, literal(-2)))
        CFI ?BRET_EXT load(1, XDATA, add(CFA_XSP16, literal(-3)))
        CFI ?RET_HIGH load(1, XDATA, add(CFA_XSP16, literal(-4)))
        CFI ?RET_LOW load(1, XDATA, add(CFA_XSP16, literal(-5)))
        CFI R7 load(1, XDATA, add(CFA_XSP16, literal(-6)))
        CFI V6 load(1, XDATA, add(CFA_XSP16, literal(-7)))
        CFI V5 load(1, XDATA, add(CFA_XSP16, literal(-8)))
        CFI V4 load(1, XDATA, add(CFA_XSP16, literal(-9)))
        CFI V3 load(1, XDATA, add(CFA_XSP16, literal(-10)))
        CFI V2 load(1, XDATA, add(CFA_XSP16, literal(-11)))
        CFI V1 load(1, XDATA, add(CFA_XSP16, literal(-12)))
        CFI V0 load(1, XDATA, add(CFA_XSP16, literal(-13)))
        CFI VB load(1, XDATA, add(CFA_XSP16, literal(-14)))
        CFI R6 load(1, XDATA, add(CFA_XSP16, literal(-15)))
        CFI CFA_SP SP+0
        CFI CFA_XSP16 add(XSP16, 15)
        ; Saved register size: 15
        ; Auto size: 0
        MOV     ?V0 + 0,R2
        MOV     ?V0 + 1,R3
        MOV     A,R4
        MOV     R6,A
        MOV     A,R5
        MOV     R7,A
//  583     int8 ret = 0;
        MOV     ?V0 + 2,#0x0
//  584     static uint32 lastReportTime = 0;
//  585 
//  586     if((NULL == cur) || (NULL == last))
        MOV     A,?V0 + 0
        ORL     A,?V0 + 1
        JZ      ??gizCheckReport_0
        MOV     A,R6
        ORL     A,R7
        JNZ     ??gizCheckReport_1
//  587     {
//  588         GIZWITS_LOG("gizCheckReport Error , Illegal Param\n");
//  589         return -1;
??gizCheckReport_0:
        MOV     R1,#-0x1
        SJMP    ??gizCheckReport_2
//  590     }
//  591     if(TRUE != osal_memcmp((uint8 *)&last->valueaa1,(uint8 *)&cur->valueaa1,sizeof(last->valueaa1)))
??gizCheckReport_1:
        ; Setup parameters for call to function osal_memcmp
        MOV     ?V0 + 4,?V0 + 0
        MOV     ?V0 + 5,?V0 + 1
        MOV     ?V0 + 6,#0x0
        MOV     R0,#?V0 + 4
        LCALL   ?PUSH_XSTACK_I_THREE
        CFI CFA_XSP16 add(XSP16, 18)
        MOV     R4,#0x14
        MOV     R5,#0x0
        MOV     DPL,R6
        MOV     DPH,R7
        MOV     R1,DPL
        MOV     R2,DPH
        MOV     R3,#0x0
        LCALL   ??osal_memcmp?relay
        MOV     A,#0x3
        LCALL   ?DEALLOC_XSTACK8
        CFI CFA_XSP16 add(XSP16, 15)
        MOV     A,R1
        XRL     A,#0x1
        JZ      ??gizCheckReport_3
//  592     {
//  593         GIZWITS_LOG("valueaa1 Changed\n");
//  594         gizwitsProtocol.waitReportDatapointFlag.flagaa1 = 1;
        MOV     DPTR,#gizwitsProtocol + 168
        MOVX    A,@DPTR
        SETB    0xE0 /* A   */.0
        MOVX    @DPTR,A
//  595         ret = 1;
        MOV     ?V0 + 2,#0x1
//  596     }
//  597 
//  598 
//  599     return ret;
??gizCheckReport_3:
        MOV     R1,?V0 + 2
??gizCheckReport_2:
        MOV     R7,#0x7
        LJMP    ?BANKED_LEAVE_XDATA
        CFI EndBlock cfiBlock34
//  600 }
//  601 
//  602 /**
//  603 * @brief Áî®Êà∑Êï∞ÊçÆÁÇπÊï∞ÊçÆËΩ¨Êç¢‰∏∫Êú∫Êô∫‰∫ë‰∏äÊä•Êï∞ÊçÆÁÇπÊï∞ÊçÆ
//  604 *
//  605 * @param [in]  dataPoints           : Áî®Êà∑Êï∞ÊçÆÁÇπÊï∞ÊçÆÂú∞ÂùÄ
//  606 * @param [out] devStatusPtr         : Êú∫Êô∫‰∫ë‰∏äÊä•Êï∞ÊçÆÁÇπÊï∞ÊçÆÂú∞ÂùÄ
//  607 *
//  608 * @return 0,Ê≠£Á°ÆËøîÂõû;-1ÔºåÈîôËØØËøîÂõ?*/

        RSEG BANKED_CODE:CODE:NOROOT(0)
//  609 static int8 ICACHE_FLASH_ATTR gizDataPoints2ReportData(dataPoint_t *dataPoints , uint8 *outData,uint32 *outDataLen)
gizDataPoints2ReportData:
        CFI Block cfiBlock35 Using cfiCommon0
        CFI Function gizDataPoints2ReportData
        CODE
//  610 {
        FUNCALL gizDataPoints2ReportData, osal_memset
        LOCFRAME ISTACK, 0, STACK
        LOCFRAME PSTACK, 0, STACK
        LOCFRAME XSTACK, 37, STACK
        LOCFRAME IOVERLAY, 0, STATIC
        LOCFRAME DOVERLAY, 0, STATIC
        ARGFRAME ISTACK, 0, STACK
        ARGFRAME PSTACK, 0, STACK
        ARGFRAME XSTACK, 37, STACK
        ARGFRAME IOVERLAY, 0, STATIC
        ARGFRAME DOVERLAY, 0, STATIC
        FUNCALL gizDataPoints2ReportData, osal_memcpy
        LOCFRAME ISTACK, 0, STACK
        LOCFRAME PSTACK, 0, STACK
        LOCFRAME XSTACK, 40, STACK
        LOCFRAME IOVERLAY, 0, STATIC
        LOCFRAME DOVERLAY, 0, STATIC
        ARGFRAME ISTACK, 0, STACK
        ARGFRAME PSTACK, 0, STACK
        ARGFRAME XSTACK, 40, STACK
        ARGFRAME IOVERLAY, 0, STATIC
        ARGFRAME DOVERLAY, 0, STATIC
        FUNCALL gizDataPoints2ReportData, osal_memcpy
        LOCFRAME ISTACK, 0, STACK
        LOCFRAME PSTACK, 0, STACK
        LOCFRAME XSTACK, 40, STACK
        LOCFRAME IOVERLAY, 0, STATIC
        LOCFRAME DOVERLAY, 0, STATIC
        ARGFRAME ISTACK, 0, STACK
        ARGFRAME PSTACK, 0, STACK
        ARGFRAME XSTACK, 40, STACK
        ARGFRAME IOVERLAY, 0, STATIC
        ARGFRAME DOVERLAY, 0, STATIC
        FUNCALL gizDataPoints2ReportData, osal_memset
        LOCFRAME ISTACK, 0, STACK
        LOCFRAME PSTACK, 0, STACK
        LOCFRAME XSTACK, 37, STACK
        LOCFRAME IOVERLAY, 0, STATIC
        LOCFRAME DOVERLAY, 0, STATIC
        ARGFRAME ISTACK, 0, STACK
        ARGFRAME PSTACK, 0, STACK
        ARGFRAME XSTACK, 37, STACK
        ARGFRAME IOVERLAY, 0, STATIC
        ARGFRAME DOVERLAY, 0, STATIC
        FUNCALL gizDataPoints2ReportData, osal_memcpy
        LOCFRAME ISTACK, 0, STACK
        LOCFRAME PSTACK, 0, STACK
        LOCFRAME XSTACK, 40, STACK
        LOCFRAME IOVERLAY, 0, STATIC
        LOCFRAME DOVERLAY, 0, STATIC
        ARGFRAME ISTACK, 0, STACK
        ARGFRAME PSTACK, 0, STACK
        ARGFRAME XSTACK, 40, STACK
        ARGFRAME IOVERLAY, 0, STATIC
        ARGFRAME DOVERLAY, 0, STATIC
        MOV     A,#-0x10
        LCALL   ?BANKED_ENTER_XDATA
        CFI DPH0 load(1, XDATA, add(CFA_XSP16, literal(-1)))
        CFI DPL0 load(1, XDATA, add(CFA_XSP16, literal(-2)))
        CFI ?BRET_EXT load(1, XDATA, add(CFA_XSP16, literal(-3)))
        CFI ?RET_HIGH load(1, XDATA, add(CFA_XSP16, literal(-4)))
        CFI ?RET_LOW load(1, XDATA, add(CFA_XSP16, literal(-5)))
        CFI R7 load(1, XDATA, add(CFA_XSP16, literal(-6)))
        CFI V7 load(1, XDATA, add(CFA_XSP16, literal(-7)))
        CFI V6 load(1, XDATA, add(CFA_XSP16, literal(-8)))
        CFI V5 load(1, XDATA, add(CFA_XSP16, literal(-9)))
        CFI V4 load(1, XDATA, add(CFA_XSP16, literal(-10)))
        CFI V3 load(1, XDATA, add(CFA_XSP16, literal(-11)))
        CFI V2 load(1, XDATA, add(CFA_XSP16, literal(-12)))
        CFI V1 load(1, XDATA, add(CFA_XSP16, literal(-13)))
        CFI V0 load(1, XDATA, add(CFA_XSP16, literal(-14)))
        CFI VB load(1, XDATA, add(CFA_XSP16, literal(-15)))
        CFI R6 load(1, XDATA, add(CFA_XSP16, literal(-16)))
        CFI CFA_SP SP+0
        CFI CFA_XSP16 add(XSP16, 16)
        ; Saved register size: 16
        ; Auto size: 21
        MOV     A,#-0x15
        LCALL   ?ALLOC_XSTACK8
        CFI CFA_XSP16 add(XSP16, 37)
        MOV     A,R2
        MOV     R6,A
        MOV     A,R3
        MOV     R7,A
        MOV     ?V0 + 2,R4
        MOV     ?V0 + 3,R5
        MOV     A,#0x25
        LCALL   ?XSTACK_DISP0_8
        LCALL   ?Subroutine56 & 0xFFFF
//  611     uint32 bitFieldByteLen= 0;//‰ΩçÊÆµÂ≠óËäÇÂ§ßÂ∞è
//  612     uint32 bitFieldOffset = 0;//‰ΩçÂÅèÁß?  
//  613     uint32 byteFieldOffset = 0;//Â≠óËäÇÂÅèÁßª
//  614 
//  615     uint8 allDatapointByteBuf[sizeof(gizwitsElongateP0Form_t)];//ÂºÄËæüÊúÄÂ§ßÊï∞ÊçÆÁÇπÁ©∫Èó¥
//  616     osal_memset(allDatapointByteBuf,0,sizeof(gizwitsElongateP0Form_t));
??CrossCallReturnLabel_88:
        ; Setup parameters for call to function osal_memset
        MOV     R4,#0x15
        MOV     R5,#0x0
        MOV     R1,#0x0
        MOV     DPL,?XSP + 0
        MOV     DPH,?XSP + 1
        MOV     R2,DPL
        MOV     R3,DPH
        LCALL   ??osal_memset?relay
//  617 
//  618     osal_memcpy(allDatapointByteBuf,(uint8 *)&gizwitsProtocol.waitReportDatapointFlag,DATAPOINT_FLAG_LEN);
        ; Setup parameters for call to function osal_memcpy
        MOV     ?V0 + 4,#(gizwitsProtocol + 168) & 0xff
        MOV     ?V0 + 5,#((gizwitsProtocol + 168) >> 8) & 0xff
        MOV     ?V0 + 6,#0x0
        MOV     R0,#?V0 + 4
        LCALL   ?PUSH_XSTACK_I_THREE
        CFI CFA_XSP16 add(XSP16, 40)
        MOV     R4,#0x1
        MOV     R5,#0x0
        MOV     A,#0x3
        LCALL   ?XSTACK_DISP0_8
        LCALL   ?Subroutine41 & 0xFFFF
??CrossCallReturnLabel_94:
        LCALL   ?DEALLOC_XSTACK8
        CFI CFA_XSP16 add(XSP16, 37)
//  619     if(DATAPOINT_FLAG_LEN > 1)
//  620     {
//  621         gizByteOrderExchange(allDatapointByteBuf,DATAPOINT_FLAG_LEN);
//  622     }
//  623     byteFieldOffset += DATAPOINT_FLAG_LEN;//ÂÖàÂÅèÁßªÂá∫FlagÂ§ßÂ∞èÁöÑ‰ΩçÁΩ?        
//  624     devStatus_t devStatusTmp;//‰∏¥Êó∂ËÆæÂ§áÊï∞ÊçÆÁÇπÂèòÈá?    
//  625     if((NULL == dataPoints) || (NULL == outData))
        MOV     A,R6
        ORL     A,R7
        JZ      ??gizDataPoints2ReportData_0
        MOV     A,?V0 + 2
        ORL     A,?V0 + 3
        JNZ     ??gizDataPoints2ReportData_1
//  626     {
//  627         GIZWITS_LOG("gizDataPoints2ReportData Error , Illegal Param\n");
//  628         return -1;
??gizDataPoints2ReportData_0:
        MOV     R1,#-0x1
        SJMP    ??gizDataPoints2ReportData_2
//  629     }
//  630 
//  631     /*** Â°´ÂÖÖ‰ΩçÊÆµ ***/
//  632 
//  633     /* ÂæÖbitÊÆµÊãºË£ÖÁªìÊù?ËÆ°ÁÆóÊï∞ÂÄºÊÆµÁöÑÂÅèÁß?*/
//  634     if(0 == bitFieldOffset)
//  635     {
//  636         bitFieldByteLen = 0;
//  637     }
//  638     else
//  639     {
//  640         if(0 == bitFieldOffset%8)
//  641         {
//  642             bitFieldByteLen = bitFieldOffset/8;
//  643         }
//  644         else
//  645         {
//  646             bitFieldByteLen = bitFieldOffset/8 + 1;
//  647         }
//  648     }
//  649     /** ‰ΩçÊÆµÂ≠óËäÇÂ∫èËΩ¨Êç?**/
//  650     if(bitFieldByteLen > 1)
//  651     {
//  652         gizByteOrderExchange((uint8 *)&allDatapointByteBuf[byteFieldOffset],bitFieldByteLen);
//  653     }
//  654     
//  655     byteFieldOffset += bitFieldByteLen;//ÂÅèÁßªÂá∫‰ΩçÊÆµÂç†Áî®Â≠óËäÇÊï∞
??gizDataPoints2ReportData_1:
        MOV     DPTR,#__Constant_1
        MOV     R0,#?V0 + 4
        LCALL   ?L_MOV_X
//  656 
//  657     /*** Â§ÑÁêÜÊï∞ÂÄºÊÆµ ***/
//  658 
//  659 
//  660 
//  661 
//  662 
//  663     if(gizwitsProtocol.waitReportDatapointFlag.flagaa1)
        MOV     DPTR,#gizwitsProtocol + 168
        MOVX    A,@DPTR
        MOV     C,0xE0 /* A   */.0
        JNC     ??gizDataPoints2ReportData_3
//  664     {
//  665         osal_memcpy((uint8 *)&allDatapointByteBuf[byteFieldOffset],(uint8 *)dataPoints->valueaa1,sizeof(dataPoints->valueaa1));
        ; Setup parameters for call to function osal_memcpy
        MOV     ?V0 + 4,R6
        MOV     ?V0 + 5,R7
        MOV     ?V0 + 6,#0x0
        MOV     R0,#?V0 + 4
        LCALL   ?PUSH_XSTACK_I_THREE
        CFI CFA_XSP16 add(XSP16, 40)
        MOV     R4,#0x14
        MOV     R5,#0x0
        MOV     A,#0x4
        LCALL   ?XSTACK_DISP0_8
        LCALL   ?Subroutine41 & 0xFFFF
??CrossCallReturnLabel_95:
        LCALL   ?DEALLOC_XSTACK8
        CFI CFA_XSP16 add(XSP16, 37)
//  666         byteFieldOffset += sizeof(dataPoints->valueaa1);
        MOV     DPTR,#__Constant_15
        MOV     R0,#?V0 + 4
        LCALL   ?L_MOV_X
//  667     }
//  668 
//  669     osal_memset((uint8 *)&gizwitsProtocol.waitReportDatapointFlag,0,DATAPOINT_FLAG_LEN);//Ê∏ÖÁ©∫Ê†áÂøó‰Ω?  
??gizDataPoints2ReportData_3:
        ; Setup parameters for call to function osal_memset
        MOV     R4,#0x1
        MOV     R5,#0x0
        MOV     R1,#0x0
        MOV     R2,#(gizwitsProtocol + 168) & 0xff
        MOV     R3,#((gizwitsProtocol + 168) >> 8) & 0xff
        LCALL   ??osal_memset?relay
//  670     *outDataLen = byteFieldOffset;
        MOV     DPL,?V0 + 0
        MOV     DPH,?V0 + 1
        MOV     R0,#?V0 + 4
        LCALL   ?L_MOV_TO_X
//  671     osal_memcpy(outData,allDatapointByteBuf,*outDataLen);
        ; Setup parameters for call to function osal_memcpy
        MOV     DPL,?XSP + 0
        MOV     DPH,?XSP + 1
        MOV     R1,DPL
        MOV     R2,DPH
        MOV     ?V0 + 4,R1
        MOV     ?V0 + 5,R2
        MOV     ?V0 + 6,#0x0
        MOV     R0,#?V0 + 4
        LCALL   ?PUSH_XSTACK_I_THREE
        CFI CFA_XSP16 add(XSP16, 40)
        MOV     DPL,?V0 + 0
        MOV     DPH,?V0 + 1
        MOV     R0,#?V0 + 4
        LCALL   ?L_MOV_X
        MOV     R4,?V0 + 4
        MOV     R5,?V0 + 5
        MOV     R2,?V0 + 2
        MOV     R3,?V0 + 3
        LCALL   ??Subroutine62_0 & 0xFFFF
??CrossCallReturnLabel_107:
        LCALL   ?DEALLOC_XSTACK8
        CFI CFA_XSP16 add(XSP16, 37)
//  672     return 0;
        MOV     R1,#0x0
??gizDataPoints2ReportData_2:
        MOV     A,#0x15
        LJMP    ?Subroutine1 & 0xFFFF
        CFI EndBlock cfiBlock35
//  673 }
//  674 
//  675 /**@} */
//  676 
//  677 
//  678 /**
//  679 * @brief Êé•Êî∂ÂçèËÆÆÊä•ÊñáÂπ∂ËøõË°åÁõ∏Â∫îÁöÑÂçèËÆÆÂ§ÑÁêÜ
//  680 
//  681 * WifiÊ®°ÁªÑÊé•Êî∂Êù•Ëá™‰∫ëÁ´ØÊàñAPPÁ´Ø‰∏ãÂèëÁöÑÁõ∏ÂÖ≥ÂçèËÆÆÊï∞ÊçÆÂèëÈÄÅÂà∞MCUÁ´ØÔºåÁªèËøáÂçèËÆÆÊä•ÊñáËß£ÊûêÂêéÂ∞ÜÁõ∏ÂÖ≥ÂçèËÆÆÊï∞ÊçÆ‰º†ÂÖ•Ê¨°ÂáΩÊï∞ÔºåËøõË°å‰∏ã‰∏ÄÊ≠•ÁöÑÂçèËÆÆÂ§ÑÁêÜ
//  682 
//  683 * @param[in] inData   : ËæìÂÖ•ÁöÑÂçèËÆÆÊï∞Êç?* @param[in] inLen    : ËæìÂÖ•Êï∞ÊçÆÁöÑÈïøÂ∫?* @param[out] outData : ËæìÂá∫ÁöÑÂçèËÆÆÊï∞Êç?* @param[out] outLen  : ËæìÂá∫Êï∞ÊçÆÁöÑÈïøÂ∫?* @return 0Ôº?ÊâßË°åÊàêÂäüÔº?Èù?0Ôº?Â§±Ë¥•
//  684 */

        RSEG BANKED_CODE:CODE:NOROOT(0)
//  685 static int8 gizProtocolIssuedProcess(uint8 *inData, uint32 inLen, uint8 *outData, uint32 *outLen)
gizProtocolIssuedProcess:
        CFI Block cfiBlock36 Using cfiCommon0
        CFI Function gizProtocolIssuedProcess
        CODE
//  686 {
        FUNCALL gizProtocolIssuedProcess, osal_memset
        LOCFRAME ISTACK, 0, STACK
        LOCFRAME PSTACK, 0, STACK
        LOCFRAME XSTACK, 17, STACK
        LOCFRAME IOVERLAY, 0, STATIC
        LOCFRAME DOVERLAY, 0, STATIC
        ARGFRAME ISTACK, 0, STACK
        ARGFRAME PSTACK, 0, STACK
        ARGFRAME XSTACK, 17, STACK
        ARGFRAME IOVERLAY, 0, STATIC
        ARGFRAME DOVERLAY, 0, STATIC
        FUNCALL gizProtocolIssuedProcess, gizDataPoint2Event
        LOCFRAME ISTACK, 0, STACK
        LOCFRAME PSTACK, 0, STACK
        LOCFRAME XSTACK, 19, STACK
        LOCFRAME IOVERLAY, 0, STATIC
        LOCFRAME DOVERLAY, 0, STATIC
        ARGFRAME ISTACK, 0, STACK
        ARGFRAME PSTACK, 0, STACK
        ARGFRAME XSTACK, 19, STACK
        ARGFRAME IOVERLAY, 0, STATIC
        ARGFRAME DOVERLAY, 0, STATIC
        FUNCALL gizProtocolIssuedProcess, osal_memcpy
        LOCFRAME ISTACK, 0, STACK
        LOCFRAME PSTACK, 0, STACK
        LOCFRAME XSTACK, 20, STACK
        LOCFRAME IOVERLAY, 0, STATIC
        LOCFRAME DOVERLAY, 0, STATIC
        ARGFRAME ISTACK, 0, STACK
        ARGFRAME PSTACK, 0, STACK
        ARGFRAME XSTACK, 20, STACK
        ARGFRAME IOVERLAY, 0, STATIC
        ARGFRAME DOVERLAY, 0, STATIC
        FUNCALL gizProtocolIssuedProcess, gizDataPoints2ReportData
        LOCFRAME ISTACK, 0, STACK
        LOCFRAME PSTACK, 0, STACK
        LOCFRAME XSTACK, 19, STACK
        LOCFRAME IOVERLAY, 0, STATIC
        LOCFRAME DOVERLAY, 0, STATIC
        ARGFRAME ISTACK, 0, STACK
        ARGFRAME PSTACK, 0, STACK
        ARGFRAME XSTACK, 19, STACK
        ARGFRAME IOVERLAY, 0, STATIC
        ARGFRAME DOVERLAY, 0, STATIC
        FUNCALL gizProtocolIssuedProcess, osal_memcpy
        LOCFRAME ISTACK, 0, STACK
        LOCFRAME PSTACK, 0, STACK
        LOCFRAME XSTACK, 20, STACK
        LOCFRAME IOVERLAY, 0, STATIC
        LOCFRAME DOVERLAY, 0, STATIC
        ARGFRAME ISTACK, 0, STACK
        ARGFRAME PSTACK, 0, STACK
        ARGFRAME XSTACK, 20, STACK
        ARGFRAME IOVERLAY, 0, STATIC
        ARGFRAME DOVERLAY, 0, STATIC
        FUNCALL gizProtocolIssuedProcess, osal_memcpy
        LOCFRAME ISTACK, 0, STACK
        LOCFRAME PSTACK, 0, STACK
        LOCFRAME XSTACK, 20, STACK
        LOCFRAME IOVERLAY, 0, STATIC
        LOCFRAME DOVERLAY, 0, STATIC
        ARGFRAME ISTACK, 0, STACK
        ARGFRAME PSTACK, 0, STACK
        ARGFRAME XSTACK, 20, STACK
        ARGFRAME IOVERLAY, 0, STATIC
        ARGFRAME DOVERLAY, 0, STATIC
        MOV     A,#-0x11
        LCALL   ?BANKED_ENTER_XDATA
        CFI DPH0 load(1, XDATA, add(CFA_XSP16, literal(-1)))
        CFI DPL0 load(1, XDATA, add(CFA_XSP16, literal(-2)))
        CFI ?BRET_EXT load(1, XDATA, add(CFA_XSP16, literal(-3)))
        CFI ?RET_HIGH load(1, XDATA, add(CFA_XSP16, literal(-4)))
        CFI ?RET_LOW load(1, XDATA, add(CFA_XSP16, literal(-5)))
        CFI R7 load(1, XDATA, add(CFA_XSP16, literal(-6)))
        CFI V8 load(1, XDATA, add(CFA_XSP16, literal(-7)))
        CFI V7 load(1, XDATA, add(CFA_XSP16, literal(-8)))
        CFI V6 load(1, XDATA, add(CFA_XSP16, literal(-9)))
        CFI V5 load(1, XDATA, add(CFA_XSP16, literal(-10)))
        CFI V4 load(1, XDATA, add(CFA_XSP16, literal(-11)))
        CFI V3 load(1, XDATA, add(CFA_XSP16, literal(-12)))
        CFI V2 load(1, XDATA, add(CFA_XSP16, literal(-13)))
        CFI V1 load(1, XDATA, add(CFA_XSP16, literal(-14)))
        CFI V0 load(1, XDATA, add(CFA_XSP16, literal(-15)))
        CFI VB load(1, XDATA, add(CFA_XSP16, literal(-16)))
        CFI R6 load(1, XDATA, add(CFA_XSP16, literal(-17)))
        CFI CFA_SP SP+0
        CFI CFA_XSP16 add(XSP16, 17)
        ; Saved register size: 17
        ; Auto size: 0
        MOV     ?V0 + 2,R2
        MOV     ?V0 + 3,R3
        MOV     ?V0 + 0,R4
        MOV     ?V0 + 1,R5
        MOV     A,#0x11
        LCALL   ?XSTACK_DISP0_8
        MOV     R0,#?V0 + 4
        LCALL   ?L_MOV_X
        MOV     A,#0x15
        LCALL   ?XSTACK_DISP0_8
        MOVX    A,@DPTR
        MOV     R6,A
        INC     DPTR
        MOVX    A,@DPTR
        MOV     R7,A
//  687     protocolP0Head_t *protocolIssuedData = (protocolP0Head_t *)inData;
//  688     uint8 issuedAction = 0;
//  689     issuedAction = protocolIssuedData->action;
        MOV     DPL,R2
        MOV     DPH,R3
        INC     DPTR
        INC     DPTR
        INC     DPTR
        INC     DPTR
        INC     DPTR
        INC     DPTR
        INC     DPTR
        INC     DPTR
        MOVX    A,@DPTR
        MOV     ?V0 + 8,A
//  690 
//  691     if((NULL == inData)||(NULL == outData)||(NULL == outLen))
        MOV     A,R2
        ORL     A,?V0 + 3
        JZ      ??gizProtocolIssuedProcess_0
        MOV     A,R4
        ORL     A,?V0 + 1
        JZ      ??gizProtocolIssuedProcess_0
        MOV     A,R6
        ORL     A,R7
        JNZ     ??gizProtocolIssuedProcess_1
//  692     {
//  693         GIZWITS_LOG("gizProtocolIssuedProcess Error , Illegal Param\n");
//  694         return -1;
??gizProtocolIssuedProcess_0:
        MOV     R1,#-0x1
        LJMP    ??gizProtocolIssuedProcess_2 & 0xFFFF
//  695     }
//  696     
//  697     osal_memset((uint8 *)&gizwitsProtocol.issuedProcessEvent, 0, sizeof(eventInfo_t));
??gizProtocolIssuedProcess_1:
        ; Setup parameters for call to function osal_memset
        MOV     R4,#0x12
        MOV     R5,#0x0
        MOV     R1,#0x0
        MOV     R2,#(gizwitsProtocol + 114) & 0xff
        MOV     R3,#((gizwitsProtocol + 114) >> 8) & 0xff
        LCALL   ??osal_memset?relay
//  698     switch(issuedAction)
        MOV     A,?V0 + 8
        ADD     A,#-0x5
        JNZ     $+5
        LJMP    ??gizProtocolIssuedProcess_3 & 0xFFFF
        ADD     A,#-0xc
        JZ      ??gizProtocolIssuedProcess_4
        DEC     A
        JZ      ??gizProtocolIssuedProcess_5
        LJMP    ??gizProtocolIssuedProcess_6 & 0xFFFF
//  699     {
//  700         case ACTION_CONTROL_DEVICE:
//  701             GIZWITS_LOG("ACTION_ELONGATE_CONTROL_DEVICE \n");
//  702             gizDataPoint2Event(inData+sizeof(protocolP0Head_t), &gizwitsProtocol.issuedProcessEvent,&gizwitsProtocol.gizCurrentDataPoint);
??gizProtocolIssuedProcess_4:
        ; Setup parameters for call to function gizDataPoint2Event
        MOV     ?V0 + 0,#(gizwitsProtocol + 194) & 0xff
        MOV     ?V0 + 1,#((gizwitsProtocol + 194) >> 8) & 0xff
        MOV     R0,#?V0 + 0
        LCALL   ?PUSH_XSTACK_I_TWO
        CFI CFA_XSP16 add(XSP16, 19)
        MOV     R4,#(gizwitsProtocol + 114) & 0xff
        MOV     R5,#((gizwitsProtocol + 114) >> 8) & 0xff
        MOV     A,?V0 + 2
        ADD     A,#0x9
        MOV     R2,A
        MOV     A,?V0 + 3
        ADDC    A,#0x0
        MOV     R3,A
        LCALL   ??gizDataPoint2Event?relay
        MOV     A,#0x2
        LCALL   ?DEALLOC_XSTACK8
        CFI CFA_XSP16 add(XSP16, 17)
//  703             gizwitsProtocol.issuedFlag = ACTION_CONTROL_TYPE;
        MOV     DPTR,#gizwitsProtocol
        MOV     A,#0x1
        LJMP    ??gizProtocolIssuedProcess_7 & 0xFFFF
//  704             outData = NULL;
//  705             *outLen = 0;
//  706             break;
//  707         
//  708         case ACTION_READ_DEV_STATUS:
//  709             GIZWITS_LOG("ACTION_ELONGATE_READ_DEV_STATUS \n");          
//  710             osal_memcpy((uint8 *)&gizwitsProtocol.waitReportDatapointFlag,inData+sizeof(protocolP0Head_t),DATAPOINT_FLAG_LEN);//Êã∑Ë¥ùÊü•ËØ¢FLAG               
??gizProtocolIssuedProcess_5:
        ; Setup parameters for call to function osal_memcpy
        MOV     A,?V0 + 2
        ADD     A,#0x9
        MOV     ?V0 + 4,A
        MOV     A,?V0 + 3
        ADDC    A,#0x0
        MOV     ?V0 + 5,A
        MOV     ?V0 + 6,#0x0
        MOV     R0,#?V0 + 4
        LCALL   ?PUSH_XSTACK_I_THREE
        CFI CFA_XSP16 add(XSP16, 20)
        MOV     R4,#0x1
        MOV     R5,#0x0
        MOV     R2,#(gizwitsProtocol + 168) & 0xff
        MOV     R3,#((gizwitsProtocol + 168) >> 8) & 0xff
        LCALL   ??Subroutine62_0 & 0xFFFF
??CrossCallReturnLabel_108:
        LCALL   ?DEALLOC_XSTACK8
        CFI CFA_XSP16 add(XSP16, 17)
//  711             if(DATAPOINT_FLAG_LEN > 1)
//  712             {
//  713                     gizByteOrderExchange((uint8 *)&gizwitsProtocol.waitReportDatapointFlag,DATAPOINT_FLAG_LEN);
//  714             }
//  715                         
//  716             if(0 == gizDataPoints2ReportData(&gizwitsProtocol.gizLastDataPoint,gizwitsProtocol.reportData,(uint32 *)&gizwitsProtocol.reportDataLen))
        ; Setup parameters for call to function gizDataPoints2ReportData
        MOV     ?V0 + 2,#(gizwitsProtocol + 190) & 0xff
        MOV     ?V0 + 3,#((gizwitsProtocol + 190) >> 8) & 0xff
        MOV     R0,#?V0 + 2
        LCALL   ?PUSH_XSTACK_I_TWO
        CFI CFA_XSP16 add(XSP16, 19)
        MOV     R4,#(gizwitsProtocol + 169) & 0xff
        MOV     R5,#((gizwitsProtocol + 169) >> 8) & 0xff
        MOV     R2,#(gizwitsProtocol + 214) & 0xff
        MOV     R3,#((gizwitsProtocol + 214) >> 8) & 0xff
        LCALL   ??gizDataPoints2ReportData?relay
        MOV     A,#0x2
        LCALL   ?DEALLOC_XSTACK8
        CFI CFA_XSP16 add(XSP16, 17)
        MOV     A,R1
        JZ      $+5
        LJMP    ??gizProtocolIssuedProcess_0 & 0xFFFF
//  717             {  
//  718                 osal_memcpy(outData, (uint8 *)&gizwitsProtocol.reportData, gizwitsProtocol.reportDataLen);
        ; Setup parameters for call to function osal_memcpy
        MOV     ?V0 + 4,#(gizwitsProtocol + 169) & 0xff
        MOV     ?V0 + 5,#((gizwitsProtocol + 169) >> 8) & 0xff
        MOV     R0,#?V0 + 4
        LCALL   ?PUSH_XSTACK_I_THREE
        CFI CFA_XSP16 add(XSP16, 20)
        MOV     DPTR,#gizwitsProtocol + 190
        MOV     R0,#?V0 + 4
        LCALL   ?L_MOV_X
        MOV     R4,?V0 + 4
        MOV     R5,?V0 + 5
        MOV     R2,?V0 + 0
        MOV     R3,?V0 + 1
        LCALL   ??Subroutine62_0 & 0xFFFF
??CrossCallReturnLabel_109:
        LCALL   ?DEALLOC_XSTACK8
        CFI CFA_XSP16 add(XSP16, 17)
//  719                 *outLen = gizwitsProtocol.reportDataLen;
        MOV     DPTR,#gizwitsProtocol + 190
        SJMP    ??gizProtocolIssuedProcess_8
//  720             }
//  721             else
//  722             {
//  723                 return -1;
//  724             }
//  725             break;
//  726         case ACTION_W2D_TRANSPARENT_DATA:
//  727             osal_memcpy(gizwitsProtocol.transparentBuff, inData+sizeof(protocolP0Head_t), inLen-sizeof(protocolP0Head_t)-1);
??gizProtocolIssuedProcess_3:
        ; Setup parameters for call to function osal_memcpy
        MOV     A,?V0 + 2
        ADD     A,#0x9
        MOV     ?V0 + 0,A
        MOV     A,?V0 + 3
        ADDC    A,#0x0
        MOV     ?V0 + 1,A
        MOV     ?V0 + 2,#0x0
        MOV     R0,#?V0 + 0
        LCALL   ?PUSH_XSTACK_I_THREE
        CFI CFA_XSP16 add(XSP16, 20)
        MOV     ?V0 + 0,?V0 + 4
        MOV     ?V0 + 1,?V0 + 5
        MOV     A,?V0 + 0
        ADD     A,#-0xa
        MOV     R4,A
        MOV     A,?V0 + 1
        ADDC    A,#-0x1
        MOV     R5,A
        MOV     R2,#(gizwitsProtocol + 32) & 0xff
        MOV     R3,#((gizwitsProtocol + 32) >> 8) & 0xff
        LCALL   ??Subroutine62_0 & 0xFFFF
??CrossCallReturnLabel_110:
        LCALL   ?DEALLOC_XSTACK8
        CFI CFA_XSP16 add(XSP16, 17)
//  728             gizwitsProtocol.transparentLen = inLen - sizeof(protocolP0Head_t) - 1;
        MOV     DPTR,#__Constant_fffffff6
        MOV     R0,#?V0 + 4
        LCALL   ?L_ADD_X
        MOV     DPTR,#gizwitsProtocol + 63
        MOV     R0,#?V0 + 4
        LCALL   ?L_MOV_TO_X
//  729             gizwitsProtocol.issuedProcessEvent.event[gizwitsProtocol.issuedProcessEvent.num] = TRANSPARENT_DATA;
        MOV     DPTR,#gizwitsProtocol + 114
        MOVX    A,@DPTR
        MOV     R0,A
        MOV     A,#(gizwitsProtocol + 115) & 0xff
        ADD     A,R0
        MOV     DPL,A
        MOV     A,#((gizwitsProtocol + 115) >> 8) & 0xff
        ADDC    A,#0x0
        MOV     DPH,A
        MOV     A,#0xf
        MOVX    @DPTR,A
//  730             gizwitsProtocol.issuedProcessEvent.num++;
        MOV     DPTR,#gizwitsProtocol + 114
        MOVX    A,@DPTR
        INC     A
        MOVX    @DPTR,A
//  731             gizwitsProtocol.issuedFlag = ACTION_W2D_TRANSPARENT_TYPE;
        MOV     DPTR,#gizwitsProtocol
        MOV     A,#0x3
??gizProtocolIssuedProcess_7:
        MOVX    @DPTR,A
//  732             outData = NULL;
//  733             *outLen = 0;
        MOV     DPTR,#__Constant_0
??gizProtocolIssuedProcess_8:
        LCALL   ?XLOAD_R2345
        MOV     DPL,R6
        MOV     DPH,R7
        LCALL   ?XSTORE_R2345
//  734             break;
//  735         
//  736         default:
//  737             break;
//  738     }
//  739 
//  740     return 0;
??gizProtocolIssuedProcess_6:
        MOV     R1,#0x0
??gizProtocolIssuedProcess_2:
        MOV     R7,#0x9
        LJMP    ?BANKED_LEAVE_XDATA
        CFI EndBlock cfiBlock36
//  741 }
//  742 /**
//  743 * @brief ÂçèËÆÆ‰∏ãÂèëÊï∞ÊçÆËøîÂõûACK
//  744 *
//  745 * @param [in] head                  : ÂçèËÆÆÂ§¥ÊåáÈí?* @param [in] data                  : Êï∞ÊçÆÂú∞ÂùÄ
//  746 * @param [in] len                   : Êï∞ÊçÆÈïøÂ∫¶
//  747 *
//  748 * @return : ÊúâÊïàÊï∞ÊçÆÈïøÂ∫¶,Ê≠£Á°ÆËøîÂõû;-1ÔºåÈîôËØØËøîÂõ?*/

        RSEG BANKED_CODE:CODE:NOROOT(0)
//  749 static int32 gizProtocolIssuedDataAck(protocolHead_t *head, uint8 *data, uint32 len)
gizProtocolIssuedDataAck:
        CFI Block cfiBlock37 Using cfiCommon0
        CFI Function gizProtocolIssuedDataAck
        CODE
//  750 {
        FUNCALL gizProtocolIssuedDataAck, osal_memcpy
        LOCFRAME ISTACK, 0, STACK
        LOCFRAME PSTACK, 0, STACK
        LOCFRAME XSTACK, 49, STACK
        LOCFRAME IOVERLAY, 0, STATIC
        LOCFRAME DOVERLAY, 0, STATIC
        ARGFRAME ISTACK, 0, STACK
        ARGFRAME PSTACK, 0, STACK
        ARGFRAME XSTACK, 49, STACK
        ARGFRAME IOVERLAY, 0, STATIC
        ARGFRAME DOVERLAY, 0, STATIC
        FUNCALL gizProtocolIssuedDataAck, gizProtocolSum
        LOCFRAME ISTACK, 0, STACK
        LOCFRAME PSTACK, 0, STACK
        LOCFRAME XSTACK, 50, STACK
        LOCFRAME IOVERLAY, 0, STATIC
        LOCFRAME DOVERLAY, 0, STATIC
        ARGFRAME ISTACK, 0, STACK
        ARGFRAME PSTACK, 0, STACK
        ARGFRAME XSTACK, 50, STACK
        ARGFRAME IOVERLAY, 0, STATIC
        ARGFRAME DOVERLAY, 0, STATIC
        FUNCALL gizProtocolIssuedDataAck, uartWrite
        LOCFRAME ISTACK, 0, STACK
        LOCFRAME PSTACK, 0, STACK
        LOCFRAME XSTACK, 50, STACK
        LOCFRAME IOVERLAY, 0, STATIC
        LOCFRAME DOVERLAY, 0, STATIC
        ARGFRAME ISTACK, 0, STACK
        ARGFRAME PSTACK, 0, STACK
        ARGFRAME XSTACK, 50, STACK
        ARGFRAME IOVERLAY, 0, STATIC
        ARGFRAME DOVERLAY, 0, STATIC
        MOV     A,#-0xf
        LCALL   ?BANKED_ENTER_XDATA
        CFI DPH0 load(1, XDATA, add(CFA_XSP16, literal(-1)))
        CFI DPL0 load(1, XDATA, add(CFA_XSP16, literal(-2)))
        CFI ?BRET_EXT load(1, XDATA, add(CFA_XSP16, literal(-3)))
        CFI ?RET_HIGH load(1, XDATA, add(CFA_XSP16, literal(-4)))
        CFI ?RET_LOW load(1, XDATA, add(CFA_XSP16, literal(-5)))
        CFI R7 load(1, XDATA, add(CFA_XSP16, literal(-6)))
        CFI V6 load(1, XDATA, add(CFA_XSP16, literal(-7)))
        CFI V5 load(1, XDATA, add(CFA_XSP16, literal(-8)))
        CFI V4 load(1, XDATA, add(CFA_XSP16, literal(-9)))
        CFI V3 load(1, XDATA, add(CFA_XSP16, literal(-10)))
        CFI V2 load(1, XDATA, add(CFA_XSP16, literal(-11)))
        CFI V1 load(1, XDATA, add(CFA_XSP16, literal(-12)))
        CFI V0 load(1, XDATA, add(CFA_XSP16, literal(-13)))
        CFI VB load(1, XDATA, add(CFA_XSP16, literal(-14)))
        CFI R6 load(1, XDATA, add(CFA_XSP16, literal(-15)))
        CFI CFA_SP SP+0
        CFI CFA_XSP16 add(XSP16, 15)
        ; Saved register size: 15
        ; Auto size: 31
        MOV     A,#-0x1f
        LCALL   ?ALLOC_XSTACK8
        CFI CFA_XSP16 add(XSP16, 46)
        MOV     A,#0x2e
        LCALL   ?XSTACK_DISP0_8
        MOV     R0,#?V0 + 0
        LCALL   ?L_MOV_X
//  751     int32 ret = 0;
//  752     uint16 dataLen = 0;
//  753 
//  754     uint8 tx_buf[MAX_PACKAGE_LEN];
//  755     uint8 *pTxBuf = tx_buf;
//  756 
//  757     if((NULL == head)||(NULL == data))
        MOV     A,R2
        ORL     A,R3
        JZ      ??gizProtocolIssuedDataAck_0
        MOV     A,R4
        ORL     A,R5
        JNZ     ??gizProtocolIssuedDataAck_1
//  758     {
//  759         GIZWITS_LOG("gizProtocolIssuedDataAck Error , Illegal Param\n");
//  760         return -1;
??gizProtocolIssuedDataAck_0:
        MOV     R2,#-0x1
        MOV     R3,#-0x1
        MOV     R4,#-0x1
        MOV     R5,#-0x1
        LJMP    ??gizProtocolIssuedDataAck_2 & 0xFFFF
//  761     }
//  762     
//  763     if(0 == len)
??gizProtocolIssuedDataAck_1:
        MOV     A,?V0 + 0
        ORL     A,?V0 + 1
        ORL     A,?V0 + 2
        ORL     A,?V0 + 3
        JNZ     ??gizProtocolIssuedDataAck_3
//  764     {
//  765         dataLen =  5;
        MOV     R6,#0x5
        MOV     R7,#0x0
//  766         *pTxBuf ++= 0xFF;
        MOV     DPL,?XSP + 0
        MOV     DPH,?XSP + 1
        MOV     A,#-0x1
        MOVX    @DPTR,A
//  767         *pTxBuf ++= 0xFF;
        MOV     A,#0x1
        LCALL   ?XSTACK_DISP0_8
        MOV     A,#-0x1
        MOVX    @DPTR,A
//  768         *pTxBuf ++= (uint8)(dataLen>>8);//len
        MOV     A,#0x2
        LCALL   ?XSTACK_DISP0_8
        CLR     A
        MOVX    @DPTR,A
//  769         *pTxBuf ++= (uint8)(dataLen);
        MOV     A,#0x3
        LCALL   ?XSTACK_DISP0_8
        LCALL   ?Subroutine17 & 0xFFFF
//  770         *pTxBuf ++= head->cmd+1;
??CrossCallReturnLabel_18:
        PUSH    A
        CFI CFA_SP SP+-1
        MOV     A,#0x4
        LCALL   ?XSTACK_DISP0_8
        POP     A
        CFI CFA_SP SP+0
        LCALL   ?Subroutine18 & 0xFFFF
//  771         *pTxBuf ++= head->sn;//sn
??CrossCallReturnLabel_20:
        PUSH    A
        CFI CFA_SP SP+-1
        MOV     A,R6
        LCALL   ?XSTACK_DISP0_8
        POP     A
        CFI CFA_SP SP+0
        MOVX    @DPTR,A
//  772         *pTxBuf ++= 0x00;//flag
        MOV     A,#0x6
        LCALL   ?XSTACK_DISP0_8
        CLR     A
        MOVX    @DPTR,A
//  773         *pTxBuf ++= 0x00;//flag
        MOV     A,#0x7
        LCALL   ?XSTACK_DISP0_8
        CLR     A
        MOVX    @DPTR,A
        SJMP    ??gizProtocolIssuedDataAck_4
//  774     }
//  775     else
//  776     {
//  777         dataLen = 6 + len;
??gizProtocolIssuedDataAck_3:
        MOV     ?V0 + 4,?V0 + 0
        MOV     ?V0 + 5,?V0 + 1
        MOV     A,?V0 + 4
        ADD     A,#0x6
        MOV     R6,A
        MOV     A,?V0 + 5
        LCALL   ?Subroutine43 & 0xFFFF
//  778         *pTxBuf ++= 0xFF;
//  779         *pTxBuf ++= 0xFF;
??CrossCallReturnLabel_69:
        LCALL   ?XSTACK_DISP0_8
        MOV     A,#-0x1
        MOVX    @DPTR,A
//  780         *pTxBuf ++= (uint8)(dataLen>>8);//len
        MOV     A,#0x2
        LCALL   ?XSTACK_DISP0_8
        MOV     A,R7
        MOVX    @DPTR,A
//  781         *pTxBuf ++= (uint8)(dataLen);
        MOV     A,#0x3
        LCALL   ?XSTACK_DISP0_8
        LCALL   ?Subroutine17 & 0xFFFF
//  782         *pTxBuf ++= head->cmd+1;//0x1b cmd
??CrossCallReturnLabel_19:
        PUSH    A
        CFI CFA_SP SP+-1
        MOV     A,#0x4
        LCALL   ?XSTACK_DISP0_8
        POP     A
        CFI CFA_SP SP+0
        LCALL   ?Subroutine18 & 0xFFFF
//  783         *pTxBuf ++= head->sn;//sn
??CrossCallReturnLabel_21:
        PUSH    A
        CFI CFA_SP SP+-1
        MOV     A,#0x5
        LCALL   ?XSTACK_DISP0_8
        POP     A
        CFI CFA_SP SP+0
        MOVX    @DPTR,A
//  784         *pTxBuf ++= 0x00;//flag
        MOV     A,#0x6
        LCALL   ?XSTACK_DISP0_8
        CLR     A
        MOVX    @DPTR,A
//  785         *pTxBuf ++= 0x00;//flag
        MOV     A,#0x7
        LCALL   ?XSTACK_DISP0_8
        CLR     A
        MOVX    @DPTR,A
//  786         *pTxBuf ++= ACTION_READ_DEV_STATUS_ACK;//P0_Cmd
        MOV     A,#0x8
        LCALL   ?XSTACK_DISP0_8
        MOV     A,#0x13
        MOVX    @DPTR,A
//  787         /* Êã∑Ë¥ùÊï∞ÊçÆÁÇπÊï∞Êç?*/
//  788         osal_memcpy(&tx_buf[9],data,len);
        ; Setup parameters for call to function osal_memcpy
        MOV     ?V0 + 4,R4
        MOV     ?V0 + 5,R5
        MOV     ?V0 + 6,#0x0
        MOV     R0,#?V0 + 4
        LCALL   ?PUSH_XSTACK_I_THREE
        CFI CFA_XSP16 add(XSP16, 49)
        MOV     R4,?V0 + 0
        MOV     R5,?V0 + 1
        MOV     A,#0xc
        LCALL   ?XSTACK_DISP0_8
        LCALL   ?Subroutine41 & 0xFFFF
//  789     }
??CrossCallReturnLabel_96:
        LCALL   ?DEALLOC_XSTACK8
        CFI CFA_XSP16 add(XSP16, 46)
??gizProtocolIssuedDataAck_4:
        LCALL   ?Subroutine47 & 0xFFFF
??CrossCallReturnLabel_73:
        MOV     ?V0 + 2,A
        MOV     ?V0 + 3,A
        ; Setup parameters for call to function gizProtocolSum
        MOV     R0,#?V0 + 0
        LCALL   ?PUSH_XSTACK_I_FOUR
        CFI CFA_XSP16 add(XSP16, 50)
        MOV     A,#0x4
        LCALL   ?XSTACK_DISP0_8
        LCALL   ?Subroutine45 & 0xFFFF
??CrossCallReturnLabel_141:
        LCALL   ?DEALLOC_XSTACK8
        CFI CFA_XSP16 add(XSP16, 46)
        LCALL   ?Subroutine42 & 0xFFFF
//  790     tx_buf[dataLen + 4 - 1 ] = gizProtocolSum( tx_buf , (dataLen+4));
//  791 
//  792     ret = uartWrite(tx_buf, dataLen+4);
//  793     if(ret < 0)
//  794     {
//  795         //ÊâìÂç∞Êó•Âøó
//  796         GIZWITS_LOG("ERROR: uart write error %d \n", ret);
//  797     }
//  798     return ret;
??CrossCallReturnLabel_67:
        LCALL   ?PUSH_XSTACK_I_FOUR
        CFI CFA_XSP16 add(XSP16, 50)
        MOV     A,#0x4
        LCALL   ?XSTACK_DISP0_8
        LCALL   ?Subroutine46 & 0xFFFF
??CrossCallReturnLabel_133:
        LCALL   ?DEALLOC_XSTACK8
        CFI CFA_XSP16 add(XSP16, 46)
??gizProtocolIssuedDataAck_2:
        MOV     A,#0x1f
        LJMP    ?Subroutine5 & 0xFFFF
        CFI EndBlock cfiBlock37
//  799 }

        RSEG BANKED_CODE:CODE:NOROOT(0)
?Subroutine18:
        CFI Block cfiCond38 Using cfiCommon0
        CFI NoFunction
        CFI Conditional ??CrossCallReturnLabel_20
        CFI R6 load(1, XDATA, add(CFA_XSP16, literal(-15)))
        CFI VB load(1, XDATA, add(CFA_XSP16, literal(-14)))
        CFI V0 load(1, XDATA, add(CFA_XSP16, literal(-13)))
        CFI V1 load(1, XDATA, add(CFA_XSP16, literal(-12)))
        CFI V2 load(1, XDATA, add(CFA_XSP16, literal(-11)))
        CFI V3 load(1, XDATA, add(CFA_XSP16, literal(-10)))
        CFI V4 load(1, XDATA, add(CFA_XSP16, literal(-9)))
        CFI V5 load(1, XDATA, add(CFA_XSP16, literal(-8)))
        CFI V6 load(1, XDATA, add(CFA_XSP16, literal(-7)))
        CFI R7 load(1, XDATA, add(CFA_XSP16, literal(-6)))
        CFI ?RET_LOW load(1, XDATA, add(CFA_XSP16, literal(-5)))
        CFI ?RET_HIGH load(1, XDATA, add(CFA_XSP16, literal(-4)))
        CFI ?BRET_EXT load(1, XDATA, add(CFA_XSP16, literal(-3)))
        CFI DPL0 load(1, XDATA, add(CFA_XSP16, literal(-2)))
        CFI DPH0 load(1, XDATA, add(CFA_XSP16, literal(-1)))
        CFI CFA_SP SP+0
        CFI CFA_XSP16 add(XSP16, 46)
        CFI Block cfiCond39 Using cfiCommon0
        CFI (cfiCond39) NoFunction
        CFI (cfiCond39) Conditional ??CrossCallReturnLabel_21
        CFI (cfiCond39) R6 load(1, XDATA, add(CFA_XSP16, literal(-15)))
        CFI (cfiCond39) VB load(1, XDATA, add(CFA_XSP16, literal(-14)))
        CFI (cfiCond39) V0 load(1, XDATA, add(CFA_XSP16, literal(-13)))
        CFI (cfiCond39) V1 load(1, XDATA, add(CFA_XSP16, literal(-12)))
        CFI (cfiCond39) V2 load(1, XDATA, add(CFA_XSP16, literal(-11)))
        CFI (cfiCond39) V3 load(1, XDATA, add(CFA_XSP16, literal(-10)))
        CFI (cfiCond39) V4 load(1, XDATA, add(CFA_XSP16, literal(-9)))
        CFI (cfiCond39) V5 load(1, XDATA, add(CFA_XSP16, literal(-8)))
        CFI (cfiCond39) V6 load(1, XDATA, add(CFA_XSP16, literal(-7)))
        CFI (cfiCond39) R7 load(1, XDATA, add(CFA_XSP16, literal(-6)))
        CFI (cfiCond39) ?RET_LOW load(1, XDATA, add(CFA_XSP16, literal(-5)))
        CFI (cfiCond39) ?RET_HIGH load(1, XDATA, add(CFA_XSP16, literal(-4)))
        CFI (cfiCond39) ?BRET_EXT load(1, XDATA, add(CFA_XSP16, literal(-3)))
        CFI (cfiCond39) DPL0 load(1, XDATA, add(CFA_XSP16, literal(-2)))
        CFI (cfiCond39) DPH0 load(1, XDATA, add(CFA_XSP16, literal(-1)))
        CFI (cfiCond39) CFA_SP SP+0
        CFI (cfiCond39) CFA_XSP16 add(XSP16, 46)
        CFI Block cfiPicker40 Using cfiCommon1
        CFI (cfiPicker40) NoFunction
        CFI (cfiPicker40) Picker
        LCALL   ?Subroutine53 & 0xFFFF
??CrossCallReturnLabel_85:
        INC     DPTR
        MOVX    A,@DPTR
        RET
        CFI EndBlock cfiCond38
        CFI EndBlock cfiCond39
        CFI EndBlock cfiPicker40

        RSEG BANKED_CODE:CODE:NOROOT(0)
?Subroutine17:
        CFI Block cfiCond41 Using cfiCommon0
        CFI NoFunction
        CFI Conditional ??CrossCallReturnLabel_18
        CFI R6 load(1, XDATA, add(CFA_XSP16, literal(-15)))
        CFI VB load(1, XDATA, add(CFA_XSP16, literal(-14)))
        CFI V0 load(1, XDATA, add(CFA_XSP16, literal(-13)))
        CFI V1 load(1, XDATA, add(CFA_XSP16, literal(-12)))
        CFI V2 load(1, XDATA, add(CFA_XSP16, literal(-11)))
        CFI V3 load(1, XDATA, add(CFA_XSP16, literal(-10)))
        CFI V4 load(1, XDATA, add(CFA_XSP16, literal(-9)))
        CFI V5 load(1, XDATA, add(CFA_XSP16, literal(-8)))
        CFI V6 load(1, XDATA, add(CFA_XSP16, literal(-7)))
        CFI R7 load(1, XDATA, add(CFA_XSP16, literal(-6)))
        CFI ?RET_LOW load(1, XDATA, add(CFA_XSP16, literal(-5)))
        CFI ?RET_HIGH load(1, XDATA, add(CFA_XSP16, literal(-4)))
        CFI ?BRET_EXT load(1, XDATA, add(CFA_XSP16, literal(-3)))
        CFI DPL0 load(1, XDATA, add(CFA_XSP16, literal(-2)))
        CFI DPH0 load(1, XDATA, add(CFA_XSP16, literal(-1)))
        CFI CFA_SP SP+0
        CFI CFA_XSP16 add(XSP16, 46)
        CFI Block cfiCond42 Using cfiCommon0
        CFI (cfiCond42) NoFunction
        CFI (cfiCond42) Conditional ??CrossCallReturnLabel_19
        CFI (cfiCond42) R6 load(1, XDATA, add(CFA_XSP16, literal(-15)))
        CFI (cfiCond42) VB load(1, XDATA, add(CFA_XSP16, literal(-14)))
        CFI (cfiCond42) V0 load(1, XDATA, add(CFA_XSP16, literal(-13)))
        CFI (cfiCond42) V1 load(1, XDATA, add(CFA_XSP16, literal(-12)))
        CFI (cfiCond42) V2 load(1, XDATA, add(CFA_XSP16, literal(-11)))
        CFI (cfiCond42) V3 load(1, XDATA, add(CFA_XSP16, literal(-10)))
        CFI (cfiCond42) V4 load(1, XDATA, add(CFA_XSP16, literal(-9)))
        CFI (cfiCond42) V5 load(1, XDATA, add(CFA_XSP16, literal(-8)))
        CFI (cfiCond42) V6 load(1, XDATA, add(CFA_XSP16, literal(-7)))
        CFI (cfiCond42) R7 load(1, XDATA, add(CFA_XSP16, literal(-6)))
        CFI (cfiCond42) ?RET_LOW load(1, XDATA, add(CFA_XSP16, literal(-5)))
        CFI (cfiCond42) ?RET_HIGH load(1, XDATA, add(CFA_XSP16, literal(-4)))
        CFI (cfiCond42) ?BRET_EXT load(1, XDATA, add(CFA_XSP16, literal(-3)))
        CFI (cfiCond42) DPL0 load(1, XDATA, add(CFA_XSP16, literal(-2)))
        CFI (cfiCond42) DPH0 load(1, XDATA, add(CFA_XSP16, literal(-1)))
        CFI (cfiCond42) CFA_SP SP+0
        CFI (cfiCond42) CFA_XSP16 add(XSP16, 46)
        CFI Block cfiPicker43 Using cfiCommon1
        CFI (cfiPicker43) NoFunction
        CFI (cfiPicker43) Picker
        MOV     A,R6
        LCALL   ?Subroutine53 & 0xFFFF
??CrossCallReturnLabel_86:
        MOVX    A,@DPTR
        INC     A
        RET
        CFI EndBlock cfiCond41
        CFI EndBlock cfiCond42
        CFI EndBlock cfiPicker43

        RSEG BANKED_CODE:CODE:NOROOT(0)
?Subroutine53:
        CFI Block cfiCond44 Using cfiCommon0
        CFI NoFunction
        CFI Conditional ??CrossCallReturnLabel_85, ??CrossCallReturnLabel_20
        CFI R6 load(1, XDATA, add(CFA_XSP16, literal(-15)))
        CFI VB load(1, XDATA, add(CFA_XSP16, literal(-14)))
        CFI V0 load(1, XDATA, add(CFA_XSP16, literal(-13)))
        CFI V1 load(1, XDATA, add(CFA_XSP16, literal(-12)))
        CFI V2 load(1, XDATA, add(CFA_XSP16, literal(-11)))
        CFI V3 load(1, XDATA, add(CFA_XSP16, literal(-10)))
        CFI V4 load(1, XDATA, add(CFA_XSP16, literal(-9)))
        CFI V5 load(1, XDATA, add(CFA_XSP16, literal(-8)))
        CFI V6 load(1, XDATA, add(CFA_XSP16, literal(-7)))
        CFI R7 load(1, XDATA, add(CFA_XSP16, literal(-6)))
        CFI ?RET_LOW load(1, XDATA, add(CFA_XSP16, literal(-5)))
        CFI ?RET_HIGH load(1, XDATA, add(CFA_XSP16, literal(-4)))
        CFI ?BRET_EXT load(1, XDATA, add(CFA_XSP16, literal(-3)))
        CFI DPL0 load(1, XDATA, add(CFA_XSP16, literal(-2)))
        CFI DPH0 load(1, XDATA, add(CFA_XSP16, literal(-1)))
        CFI CFA_SP SP+0
        CFI CFA_XSP16 add(XSP16, 46)
        CFI Block cfiCond45 Using cfiCommon0
        CFI (cfiCond45) NoFunction
        CFI (cfiCond45) Conditional ??CrossCallReturnLabel_85, ??CrossCallReturnLabel_21
        CFI (cfiCond45) R6 load(1, XDATA, add(CFA_XSP16, literal(-15)))
        CFI (cfiCond45) VB load(1, XDATA, add(CFA_XSP16, literal(-14)))
        CFI (cfiCond45) V0 load(1, XDATA, add(CFA_XSP16, literal(-13)))
        CFI (cfiCond45) V1 load(1, XDATA, add(CFA_XSP16, literal(-12)))
        CFI (cfiCond45) V2 load(1, XDATA, add(CFA_XSP16, literal(-11)))
        CFI (cfiCond45) V3 load(1, XDATA, add(CFA_XSP16, literal(-10)))
        CFI (cfiCond45) V4 load(1, XDATA, add(CFA_XSP16, literal(-9)))
        CFI (cfiCond45) V5 load(1, XDATA, add(CFA_XSP16, literal(-8)))
        CFI (cfiCond45) V6 load(1, XDATA, add(CFA_XSP16, literal(-7)))
        CFI (cfiCond45) R7 load(1, XDATA, add(CFA_XSP16, literal(-6)))
        CFI (cfiCond45) ?RET_LOW load(1, XDATA, add(CFA_XSP16, literal(-5)))
        CFI (cfiCond45) ?RET_HIGH load(1, XDATA, add(CFA_XSP16, literal(-4)))
        CFI (cfiCond45) ?BRET_EXT load(1, XDATA, add(CFA_XSP16, literal(-3)))
        CFI (cfiCond45) DPL0 load(1, XDATA, add(CFA_XSP16, literal(-2)))
        CFI (cfiCond45) DPH0 load(1, XDATA, add(CFA_XSP16, literal(-1)))
        CFI (cfiCond45) CFA_SP SP+0
        CFI (cfiCond45) CFA_XSP16 add(XSP16, 46)
        CFI Block cfiCond46 Using cfiCommon0
        CFI (cfiCond46) NoFunction
        CFI (cfiCond46) Conditional ??CrossCallReturnLabel_86, ??CrossCallReturnLabel_18
        CFI (cfiCond46) R6 load(1, XDATA, add(CFA_XSP16, literal(-15)))
        CFI (cfiCond46) VB load(1, XDATA, add(CFA_XSP16, literal(-14)))
        CFI (cfiCond46) V0 load(1, XDATA, add(CFA_XSP16, literal(-13)))
        CFI (cfiCond46) V1 load(1, XDATA, add(CFA_XSP16, literal(-12)))
        CFI (cfiCond46) V2 load(1, XDATA, add(CFA_XSP16, literal(-11)))
        CFI (cfiCond46) V3 load(1, XDATA, add(CFA_XSP16, literal(-10)))
        CFI (cfiCond46) V4 load(1, XDATA, add(CFA_XSP16, literal(-9)))
        CFI (cfiCond46) V5 load(1, XDATA, add(CFA_XSP16, literal(-8)))
        CFI (cfiCond46) V6 load(1, XDATA, add(CFA_XSP16, literal(-7)))
        CFI (cfiCond46) R7 load(1, XDATA, add(CFA_XSP16, literal(-6)))
        CFI (cfiCond46) ?RET_LOW load(1, XDATA, add(CFA_XSP16, literal(-5)))
        CFI (cfiCond46) ?RET_HIGH load(1, XDATA, add(CFA_XSP16, literal(-4)))
        CFI (cfiCond46) ?BRET_EXT load(1, XDATA, add(CFA_XSP16, literal(-3)))
        CFI (cfiCond46) DPL0 load(1, XDATA, add(CFA_XSP16, literal(-2)))
        CFI (cfiCond46) DPH0 load(1, XDATA, add(CFA_XSP16, literal(-1)))
        CFI (cfiCond46) CFA_SP SP+0
        CFI (cfiCond46) CFA_XSP16 add(XSP16, 46)
        CFI Block cfiCond47 Using cfiCommon0
        CFI (cfiCond47) NoFunction
        CFI (cfiCond47) Conditional ??CrossCallReturnLabel_86, ??CrossCallReturnLabel_19
        CFI (cfiCond47) R6 load(1, XDATA, add(CFA_XSP16, literal(-15)))
        CFI (cfiCond47) VB load(1, XDATA, add(CFA_XSP16, literal(-14)))
        CFI (cfiCond47) V0 load(1, XDATA, add(CFA_XSP16, literal(-13)))
        CFI (cfiCond47) V1 load(1, XDATA, add(CFA_XSP16, literal(-12)))
        CFI (cfiCond47) V2 load(1, XDATA, add(CFA_XSP16, literal(-11)))
        CFI (cfiCond47) V3 load(1, XDATA, add(CFA_XSP16, literal(-10)))
        CFI (cfiCond47) V4 load(1, XDATA, add(CFA_XSP16, literal(-9)))
        CFI (cfiCond47) V5 load(1, XDATA, add(CFA_XSP16, literal(-8)))
        CFI (cfiCond47) V6 load(1, XDATA, add(CFA_XSP16, literal(-7)))
        CFI (cfiCond47) R7 load(1, XDATA, add(CFA_XSP16, literal(-6)))
        CFI (cfiCond47) ?RET_LOW load(1, XDATA, add(CFA_XSP16, literal(-5)))
        CFI (cfiCond47) ?RET_HIGH load(1, XDATA, add(CFA_XSP16, literal(-4)))
        CFI (cfiCond47) ?BRET_EXT load(1, XDATA, add(CFA_XSP16, literal(-3)))
        CFI (cfiCond47) DPL0 load(1, XDATA, add(CFA_XSP16, literal(-2)))
        CFI (cfiCond47) DPH0 load(1, XDATA, add(CFA_XSP16, literal(-1)))
        CFI (cfiCond47) CFA_SP SP+0
        CFI (cfiCond47) CFA_XSP16 add(XSP16, 46)
        CFI Block cfiPicker48 Using cfiCommon1
        CFI (cfiPicker48) NoFunction
        CFI (cfiPicker48) Picker
        MOVX    @DPTR,A
        MOV     DPL,R2
        MOV     DPH,R3
        INC     DPTR
        INC     DPTR
        INC     DPTR
        INC     DPTR
        RET
        CFI EndBlock cfiCond44
        CFI EndBlock cfiCond45
        CFI EndBlock cfiCond46
        CFI EndBlock cfiCond47
        CFI EndBlock cfiPicker48
//  800 
//  801 /**
//  802 * @brief ‰∏äÊä•Êï∞ÊçÆ
//  803 *
//  804 * @param [in] action            : PO cmd
//  805 * @param [in] data              : Êï∞ÊçÆÂú∞ÂùÄ
//  806 * @param [in] len               : Êï∞ÊçÆÈïøÂ∫¶
//  807 *
//  808 * @return : Ê≠£Á°ÆËøîÂõûÊúâÊïàÊï∞ÊçÆÈïøÂ∫¶;-1ÔºåÈîôËØØËøîÂõ?*/
//  809 #pragma optimize=none

        RSEG BANKED_CODE:CODE:NOROOT(0)
//  810 static int32 gizReportData(uint8 action, uint8 *data, uint32 len)
gizReportData:
        CFI Block cfiBlock49 Using cfiCommon0
        CFI Function gizReportData
        CODE
//  811 {
        FUNCALL gizReportData, osal_memcpy
        LOCFRAME ISTACK, 0, STACK
        LOCFRAME PSTACK, 0, STACK
        LOCFRAME XSTACK, 59, STACK
        LOCFRAME IOVERLAY, 0, STATIC
        LOCFRAME DOVERLAY, 0, STATIC
        ARGFRAME ISTACK, 0, STACK
        ARGFRAME PSTACK, 0, STACK
        ARGFRAME XSTACK, 59, STACK
        ARGFRAME IOVERLAY, 0, STATIC
        ARGFRAME DOVERLAY, 0, STATIC
        FUNCALL gizReportData, gizProtocolSum
        LOCFRAME ISTACK, 0, STACK
        LOCFRAME PSTACK, 0, STACK
        LOCFRAME XSTACK, 60, STACK
        LOCFRAME IOVERLAY, 0, STATIC
        LOCFRAME DOVERLAY, 0, STATIC
        ARGFRAME ISTACK, 0, STACK
        ARGFRAME PSTACK, 0, STACK
        ARGFRAME XSTACK, 60, STACK
        ARGFRAME IOVERLAY, 0, STATIC
        ARGFRAME DOVERLAY, 0, STATIC
        FUNCALL gizReportData, uartWrite
        LOCFRAME ISTACK, 0, STACK
        LOCFRAME PSTACK, 0, STACK
        LOCFRAME XSTACK, 60, STACK
        LOCFRAME IOVERLAY, 0, STATIC
        LOCFRAME DOVERLAY, 0, STATIC
        ARGFRAME ISTACK, 0, STACK
        ARGFRAME PSTACK, 0, STACK
        ARGFRAME XSTACK, 60, STACK
        ARGFRAME IOVERLAY, 0, STATIC
        ARGFRAME DOVERLAY, 0, STATIC
        FUNCALL gizReportData, gizProtocolWaitAck
        LOCFRAME ISTACK, 0, STACK
        LOCFRAME PSTACK, 0, STACK
        LOCFRAME XSTACK, 60, STACK
        LOCFRAME IOVERLAY, 0, STATIC
        LOCFRAME DOVERLAY, 0, STATIC
        ARGFRAME ISTACK, 0, STACK
        ARGFRAME PSTACK, 0, STACK
        ARGFRAME XSTACK, 60, STACK
        ARGFRAME IOVERLAY, 0, STATIC
        ARGFRAME DOVERLAY, 0, STATIC
        MOV     A,#-0x18
        LCALL   ?BANKED_ENTER_XDATA
        CFI DPH0 load(1, XDATA, add(CFA_XSP16, literal(-1)))
        CFI DPL0 load(1, XDATA, add(CFA_XSP16, literal(-2)))
        CFI ?BRET_EXT load(1, XDATA, add(CFA_XSP16, literal(-3)))
        CFI ?RET_HIGH load(1, XDATA, add(CFA_XSP16, literal(-4)))
        CFI ?RET_LOW load(1, XDATA, add(CFA_XSP16, literal(-5)))
        CFI R7 load(1, XDATA, add(CFA_XSP16, literal(-6)))
        CFI V15 load(1, XDATA, add(CFA_XSP16, literal(-7)))
        CFI V14 load(1, XDATA, add(CFA_XSP16, literal(-8)))
        CFI V13 load(1, XDATA, add(CFA_XSP16, literal(-9)))
        CFI V12 load(1, XDATA, add(CFA_XSP16, literal(-10)))
        CFI V11 load(1, XDATA, add(CFA_XSP16, literal(-11)))
        CFI V10 load(1, XDATA, add(CFA_XSP16, literal(-12)))
        CFI V9 load(1, XDATA, add(CFA_XSP16, literal(-13)))
        CFI V8 load(1, XDATA, add(CFA_XSP16, literal(-14)))
        CFI V7 load(1, XDATA, add(CFA_XSP16, literal(-15)))
        CFI V6 load(1, XDATA, add(CFA_XSP16, literal(-16)))
        CFI V5 load(1, XDATA, add(CFA_XSP16, literal(-17)))
        CFI V4 load(1, XDATA, add(CFA_XSP16, literal(-18)))
        CFI V3 load(1, XDATA, add(CFA_XSP16, literal(-19)))
        CFI V2 load(1, XDATA, add(CFA_XSP16, literal(-20)))
        CFI V1 load(1, XDATA, add(CFA_XSP16, literal(-21)))
        CFI V0 load(1, XDATA, add(CFA_XSP16, literal(-22)))
        CFI VB load(1, XDATA, add(CFA_XSP16, literal(-23)))
        CFI R6 load(1, XDATA, add(CFA_XSP16, literal(-24)))
        CFI CFA_SP SP+0
        CFI CFA_XSP16 add(XSP16, 24)
        ; Saved register size: 24
        ; Auto size: 32
        MOV     A,#-0x20
        LCALL   ?ALLOC_XSTACK8
        CFI CFA_XSP16 add(XSP16, 56)
        MOV     A,R1
        MOV     DPL,?XSP + 0
        MOV     DPH,?XSP + 1
        MOVX    @DPTR,A
        MOV     ?V0 + 14,R2
        MOV     ?V0 + 15,R3
        MOV     A,#0x38
        LCALL   ?XSTACK_DISP0_8
        MOV     R0,#?V0 + 4
        LCALL   ?L_MOV_X
//  812     int32 ret = 0;
        MOV     DPTR,#__Constant_0
        MOV     R0,#?V0 + 8
        LCALL   ?L_MOV_X
//  813     uint8 tx_buf[MAX_PACKAGE_LEN];
//  814     if(NULL == data)
        MOV     A,?V0 + 14
        ORL     A,?V0 + 15
        JNZ     ??gizReportData_0
//  815     {
//  816         GIZWITS_LOG("[Error] gizwitsPassthroughData Error \n");
//  817         return (-1);
        MOV     R2,#-0x1
        MOV     R3,#-0x1
        MOV     R4,#-0x1
        MOV     R5,#-0x1
        LJMP    ??gizReportData_1 & 0xFFFF
//  818     }
//  819     uint8 *pTxBuf = tx_buf;
??gizReportData_0:
        MOV     A,#0x1
        LCALL   ?XSTACK_DISP0_8
        MOV     ?V0 + 12,DPL
        MOV     ?V0 + 13,DPH
//  820     uint16 data_len = 6 + len;
        MOV     ?V0 + 0,?V0 + 4
        MOV     ?V0 + 1,?V0 + 5
        MOV     A,?V0 + 0
        ADD     A,#0x6
        MOV     R6,A
        MOV     A,?V0 + 1
        ADDC    A,#0x0
        MOV     R7,A
//  821     *pTxBuf ++= 0xFF;
        MOV     DPL,?V0 + 12
        MOV     DPH,?V0 + 13
        MOV     A,#-0x1
        MOVX    @DPTR,A
        MOV     DPL,?V0 + 12
        MOV     DPH,?V0 + 13
        INC     DPTR
        MOV     ?V0 + 12,DPL
        MOV     ?V0 + 13,DPH
//  822     *pTxBuf ++= 0xFF;
        MOV     DPL,?V0 + 12
        MOV     DPH,?V0 + 13
        MOV     A,#-0x1
        MOVX    @DPTR,A
        MOV     DPL,?V0 + 12
        MOV     DPH,?V0 + 13
        INC     DPTR
        MOV     ?V0 + 12,DPL
        MOV     ?V0 + 13,DPH
//  823     *pTxBuf ++= (uint8)(data_len>>8);//len
        MOV     A,R6
        MOV     R0,A
        MOV     A,R7
        MOV     R1,A
        CLR     A
        MOV     A,R1
        MOV     R0,A
        MOV     DPL,?V0 + 12
        MOV     DPH,?V0 + 13
        MOVX    @DPTR,A
        MOV     DPL,?V0 + 12
        MOV     DPH,?V0 + 13
        INC     DPTR
        MOV     ?V0 + 12,DPL
        MOV     ?V0 + 13,DPH
//  824     *pTxBuf ++= (uint8)(data_len);
        MOV     A,R6
        MOV     DPL,?V0 + 12
        MOV     DPH,?V0 + 13
        MOVX    @DPTR,A
        MOV     DPL,?V0 + 12
        MOV     DPH,?V0 + 13
        INC     DPTR
        MOV     ?V0 + 12,DPL
        MOV     ?V0 + 13,DPH
//  825     *pTxBuf ++= CMD_REPORT_P0;//0x1b cmd
        MOV     DPL,?V0 + 12
        MOV     DPH,?V0 + 13
        MOV     A,#0x5
        MOVX    @DPTR,A
        MOV     DPL,?V0 + 12
        MOV     DPH,?V0 + 13
        INC     DPTR
        MOV     ?V0 + 12,DPL
        MOV     ?V0 + 13,DPH
//  826     *pTxBuf ++= gizwitsProtocol.sn++;//sn
        MOV     DPTR,#gizwitsProtocol + 67
        MOV     R0,#?V0 + 0
        LCALL   ?L_MOV_X
        MOV     A,?V0 + 0
        MOV     DPL,?V0 + 12
        MOV     DPH,?V0 + 13
        MOV     A,?V0 + 0
        MOVX    @DPTR,A
        MOV     DPTR,#__Constant_1
        MOV     R0,#?V0 + 0
        LCALL   ?L_MOV_X
        MOV     DPTR,#gizwitsProtocol + 67
        MOV     R0,#?V0 + 0
        LCALL   ?L_ADD_TO_X
        MOV     DPL,?V0 + 12
        MOV     DPH,?V0 + 13
        INC     DPTR
        MOV     ?V0 + 12,DPL
        MOV     ?V0 + 13,DPH
//  827     *pTxBuf ++= 0x00;//flag
        MOV     DPL,?V0 + 12
        MOV     DPH,?V0 + 13
        MOV     A,#0x0
        MOVX    @DPTR,A
        MOV     DPL,?V0 + 12
        MOV     DPH,?V0 + 13
        INC     DPTR
        MOV     ?V0 + 12,DPL
        MOV     ?V0 + 13,DPH
//  828     *pTxBuf ++= 0x00;//flag
        MOV     DPL,?V0 + 12
        MOV     DPH,?V0 + 13
        MOV     A,#0x0
        MOVX    @DPTR,A
        MOV     DPL,?V0 + 12
        MOV     DPH,?V0 + 13
        INC     DPTR
        MOV     ?V0 + 12,DPL
        MOV     ?V0 + 13,DPH
//  829     *pTxBuf ++= action;//P0_Cmd
        MOV     DPL,?XSP + 0
        MOV     DPH,?XSP + 1
        MOVX    A,@DPTR
        MOV     DPL,?V0 + 12
        MOV     DPH,?V0 + 13
        MOVX    @DPTR,A
        MOV     DPL,?V0 + 12
        MOV     DPH,?V0 + 13
        INC     DPTR
        MOV     ?V0 + 12,DPL
        MOV     ?V0 + 13,DPH
//  830 
//  831     /* Êã∑Ë¥ùÊï∞ÊçÆÁÇπÊï∞Êç?*/
//  832     osal_memcpy(&tx_buf[9],data,len);
        ; Setup parameters for call to function osal_memcpy
        MOV     ?V0 + 0,?V0 + 14
        MOV     ?V0 + 1,?V0 + 15
        MOV     ?V0 + 2,#0x0
        MOV     R0,#?V0 + 0
        LCALL   ?PUSH_XSTACK_I_THREE
        CFI CFA_XSP16 add(XSP16, 59)
        MOV     ?V0 + 0,?V0 + 4
        MOV     ?V0 + 1,?V0 + 5
        MOV     R4,?V0 + 0
        MOV     R5,?V0 + 1
        MOV     A,#0xd
        LCALL   ?XSTACK_DISP0_8
        MOV     R2,DPL
        MOV     R3,DPH
        LCALL   ??osal_memcpy?relay
        MOV     A,#0x3
        LCALL   ?DEALLOC_XSTACK8
        CFI CFA_XSP16 add(XSP16, 56)
//  833     
//  834     tx_buf[data_len + 4 - 1 ] = gizProtocolSum( tx_buf , (data_len+4));
        ; Setup parameters for call to function gizProtocolSum
        MOV     A,R6
        ADD     A,#0x4
        MOV     ?V0 + 0,A
        MOV     A,R7
        ADDC    A,#0x0
        MOV     ?V0 + 1,A
        CLR     A
        MOV     ?V0 + 2,A
        MOV     ?V0 + 3,A
        MOV     R0,#?V0 + 0
        LCALL   ?PUSH_XSTACK_I_FOUR
        CFI CFA_XSP16 add(XSP16, 60)
        MOV     A,#0x5
        LCALL   ?XSTACK_DISP0_8
        MOV     R2,DPL
        MOV     R3,DPH
        LCALL   ??gizProtocolSum?relay
        MOV     A,#0x4
        LCALL   ?DEALLOC_XSTACK8
        CFI CFA_XSP16 add(XSP16, 56)
        MOV     A,R1
        PUSH    A
        CFI CFA_SP SP+-1
        MOV     A,#0x1
        LCALL   ?XSTACK_DISP0_8
        MOV     A,DPL
        ADD     A,R6
        MOV     DPL,A
        MOV     A,DPH
        ADDC    A,R7
        MOV     DPH,A
        INC     DPTR
        INC     DPTR
        INC     DPTR
        POP     A
        CFI CFA_SP SP+0
        MOVX    @DPTR,A
//  835     
//  836       ret = uartWrite(tx_buf, data_len+4);
        ; Setup parameters for call to function uartWrite
        MOV     A,R6
        ADD     A,#0x4
        MOV     ?V0 + 0,A
        MOV     A,R7
        ADDC    A,#0x0
        MOV     ?V0 + 1,A
        CLR     A
        MOV     ?V0 + 2,A
        MOV     ?V0 + 3,A
        MOV     R0,#?V0 + 0
        LCALL   ?PUSH_XSTACK_I_FOUR
        CFI CFA_XSP16 add(XSP16, 60)
        MOV     A,#0x5
        LCALL   ?XSTACK_DISP0_8
        MOV     R2,DPL
        MOV     R3,DPH
        LCALL   ??uartWrite?relay
        MOV     A,#0x4
        LCALL   ?DEALLOC_XSTACK8
        CFI CFA_XSP16 add(XSP16, 56)
        MOV     ?V0 + 0,R2
        MOV     ?V0 + 1,R3
        MOV     ?V0 + 2,R4
        MOV     ?V0 + 3,R5
        MOV     ?V0 + 8,?V0 + 0
        MOV     ?V0 + 9,?V0 + 1
        MOV     ?V0 + 10,?V0 + 2
        MOV     ?V0 + 11,?V0 + 3
//  837     if(ret < 0)
        MOV     DPTR,#__Constant_0
        MOV     R0,#?V0 + 8
        LCALL   ?SL_GE_X
        JC      ??gizReportData_2
//  838     {
//  839         //ÊâìÂç∞Êó•Âøó
//  840         GIZWITS_LOG("ERROR: uart write error %d \n", ret);
//  841         return -1;
        MOV     R2,#-0x1
        MOV     R3,#-0x1
        MOV     R4,#-0x1
        MOV     R5,#-0x1
        SJMP    ??gizReportData_1
//  842     }
//  843 
//  844     gizProtocolWaitAck(tx_buf, data_len+4);
??gizReportData_2:
        ; Setup parameters for call to function gizProtocolWaitAck
        MOV     A,R6
        ADD     A,#0x4
        MOV     ?V0 + 0,A
        MOV     A,R7
        ADDC    A,#0x0
        MOV     ?V0 + 1,A
        CLR     A
        MOV     ?V0 + 2,A
        MOV     ?V0 + 3,A
        MOV     R0,#?V0 + 0
        LCALL   ?PUSH_XSTACK_I_FOUR
        CFI CFA_XSP16 add(XSP16, 60)
        MOV     A,#0x5
        LCALL   ?XSTACK_DISP0_8
        MOV     R2,DPL
        MOV     R3,DPH
        LCALL   ??gizProtocolWaitAck?relay
        MOV     A,#0x4
        LCALL   ?DEALLOC_XSTACK8
        CFI CFA_XSP16 add(XSP16, 56)
        MOV     A,R1
//  845 
//  846     return 0;
        MOV     R2,#0x0
        MOV     R3,#0x0
        MOV     R4,#0x0
        MOV     R5,#0x0
??gizReportData_1:
        MOV     A,#0x20
        LCALL   ?DEALLOC_XSTACK8
        CFI CFA_XSP16 add(XSP16, 24)
        MOV     R7,#0x10
        LJMP    ?BANKED_LEAVE_XDATA
        CFI EndBlock cfiBlock49
//  847 }
//  848 
//  849 /**
//  850 * @brief ‰∏äÊä•Êú∫Âà∂
//  851 *
//  852 * @param [in] currentData       : Êï∞ÊçÆÂú∞ÂùÄ
//  853 *
//  854 * @return : Êó?*/

        RSEG BANKED_CODE:CODE:NOROOT(0)
//  855 static void gizDevReportPolicy(dataPoint_t *currentData)
gizDevReportPolicy:
        CFI Block cfiBlock50 Using cfiCommon0
        CFI Function gizDevReportPolicy
        CODE
//  856 {
        FUNCALL gizDevReportPolicy, gizCheckReport
        LOCFRAME ISTACK, 0, STACK
        LOCFRAME PSTACK, 0, STACK
        LOCFRAME XSTACK, 16, STACK
        LOCFRAME IOVERLAY, 0, STATIC
        LOCFRAME DOVERLAY, 0, STATIC
        ARGFRAME ISTACK, 0, STACK
        ARGFRAME PSTACK, 0, STACK
        ARGFRAME XSTACK, 16, STACK
        ARGFRAME IOVERLAY, 0, STATIC
        ARGFRAME DOVERLAY, 0, STATIC
        FUNCALL gizDevReportPolicy, gizDataPoints2ReportData
        LOCFRAME ISTACK, 0, STACK
        LOCFRAME PSTACK, 0, STACK
        LOCFRAME XSTACK, 18, STACK
        LOCFRAME IOVERLAY, 0, STATIC
        LOCFRAME DOVERLAY, 0, STATIC
        ARGFRAME ISTACK, 0, STACK
        ARGFRAME PSTACK, 0, STACK
        ARGFRAME XSTACK, 18, STACK
        ARGFRAME IOVERLAY, 0, STATIC
        ARGFRAME DOVERLAY, 0, STATIC
        FUNCALL gizDevReportPolicy, gizReportData
        LOCFRAME ISTACK, 0, STACK
        LOCFRAME PSTACK, 0, STACK
        LOCFRAME XSTACK, 20, STACK
        LOCFRAME IOVERLAY, 0, STATIC
        LOCFRAME DOVERLAY, 0, STATIC
        ARGFRAME ISTACK, 0, STACK
        ARGFRAME PSTACK, 0, STACK
        ARGFRAME XSTACK, 20, STACK
        ARGFRAME IOVERLAY, 0, STATIC
        ARGFRAME DOVERLAY, 0, STATIC
        FUNCALL gizDevReportPolicy, osal_memcpy
        LOCFRAME ISTACK, 0, STACK
        LOCFRAME PSTACK, 0, STACK
        LOCFRAME XSTACK, 19, STACK
        LOCFRAME IOVERLAY, 0, STATIC
        LOCFRAME DOVERLAY, 0, STATIC
        ARGFRAME ISTACK, 0, STACK
        ARGFRAME PSTACK, 0, STACK
        ARGFRAME XSTACK, 19, STACK
        ARGFRAME IOVERLAY, 0, STATIC
        ARGFRAME DOVERLAY, 0, STATIC
        FUNCALL gizDevReportPolicy, gizGetTimerCount
        LOCFRAME ISTACK, 0, STACK
        LOCFRAME PSTACK, 0, STACK
        LOCFRAME XSTACK, 16, STACK
        LOCFRAME IOVERLAY, 0, STATIC
        LOCFRAME DOVERLAY, 0, STATIC
        ARGFRAME ISTACK, 0, STACK
        ARGFRAME PSTACK, 0, STACK
        ARGFRAME XSTACK, 16, STACK
        ARGFRAME IOVERLAY, 0, STATIC
        ARGFRAME DOVERLAY, 0, STATIC
        FUNCALL gizDevReportPolicy, osal_memset
        LOCFRAME ISTACK, 0, STACK
        LOCFRAME PSTACK, 0, STACK
        LOCFRAME XSTACK, 16, STACK
        LOCFRAME IOVERLAY, 0, STATIC
        LOCFRAME DOVERLAY, 0, STATIC
        ARGFRAME ISTACK, 0, STACK
        ARGFRAME PSTACK, 0, STACK
        ARGFRAME XSTACK, 16, STACK
        ARGFRAME IOVERLAY, 0, STATIC
        ARGFRAME DOVERLAY, 0, STATIC
        FUNCALL gizDevReportPolicy, gizDataPoints2ReportData
        LOCFRAME ISTACK, 0, STACK
        LOCFRAME PSTACK, 0, STACK
        LOCFRAME XSTACK, 18, STACK
        LOCFRAME IOVERLAY, 0, STATIC
        LOCFRAME DOVERLAY, 0, STATIC
        ARGFRAME ISTACK, 0, STACK
        ARGFRAME PSTACK, 0, STACK
        ARGFRAME XSTACK, 18, STACK
        ARGFRAME IOVERLAY, 0, STATIC
        ARGFRAME DOVERLAY, 0, STATIC
        FUNCALL gizDevReportPolicy, gizReportData
        LOCFRAME ISTACK, 0, STACK
        LOCFRAME PSTACK, 0, STACK
        LOCFRAME XSTACK, 20, STACK
        LOCFRAME IOVERLAY, 0, STATIC
        LOCFRAME DOVERLAY, 0, STATIC
        ARGFRAME ISTACK, 0, STACK
        ARGFRAME PSTACK, 0, STACK
        ARGFRAME XSTACK, 20, STACK
        ARGFRAME IOVERLAY, 0, STATIC
        ARGFRAME DOVERLAY, 0, STATIC
        FUNCALL gizDevReportPolicy, osal_memcpy
        LOCFRAME ISTACK, 0, STACK
        LOCFRAME PSTACK, 0, STACK
        LOCFRAME XSTACK, 19, STACK
        LOCFRAME IOVERLAY, 0, STATIC
        LOCFRAME DOVERLAY, 0, STATIC
        ARGFRAME ISTACK, 0, STACK
        ARGFRAME PSTACK, 0, STACK
        ARGFRAME XSTACK, 19, STACK
        ARGFRAME IOVERLAY, 0, STATIC
        ARGFRAME DOVERLAY, 0, STATIC
        MOV     A,#-0x10
        LCALL   ?BANKED_ENTER_XDATA
        CFI DPH0 load(1, XDATA, add(CFA_XSP16, literal(-1)))
        CFI DPL0 load(1, XDATA, add(CFA_XSP16, literal(-2)))
        CFI ?BRET_EXT load(1, XDATA, add(CFA_XSP16, literal(-3)))
        CFI ?RET_HIGH load(1, XDATA, add(CFA_XSP16, literal(-4)))
        CFI ?RET_LOW load(1, XDATA, add(CFA_XSP16, literal(-5)))
        CFI R7 load(1, XDATA, add(CFA_XSP16, literal(-6)))
        CFI V7 load(1, XDATA, add(CFA_XSP16, literal(-7)))
        CFI V6 load(1, XDATA, add(CFA_XSP16, literal(-8)))
        CFI V5 load(1, XDATA, add(CFA_XSP16, literal(-9)))
        CFI V4 load(1, XDATA, add(CFA_XSP16, literal(-10)))
        CFI V3 load(1, XDATA, add(CFA_XSP16, literal(-11)))
        CFI V2 load(1, XDATA, add(CFA_XSP16, literal(-12)))
        CFI V1 load(1, XDATA, add(CFA_XSP16, literal(-13)))
        CFI V0 load(1, XDATA, add(CFA_XSP16, literal(-14)))
        CFI VB load(1, XDATA, add(CFA_XSP16, literal(-15)))
        CFI R6 load(1, XDATA, add(CFA_XSP16, literal(-16)))
        CFI CFA_SP SP+0
        CFI CFA_XSP16 add(XSP16, 16)
        ; Saved register size: 16
        ; Auto size: 0
        MOV     A,R2
        MOV     R6,A
        MOV     A,R3
        MOV     R7,A
//  857     /** ÂèòÂåñ‰∏äÊä•Êú∫Âà∂ **/
//  858     if((1 == gizCheckReport(currentData, (dataPoint_t *)&gizwitsProtocol.gizLastDataPoint)))
        ; Setup parameters for call to function gizCheckReport
        MOV     R4,#(gizwitsProtocol + 214) & 0xff
        MOV     R5,#((gizwitsProtocol + 214) >> 8) & 0xff
        LCALL   ??gizCheckReport?relay
        MOV     A,R1
        XRL     A,#0x1
        JNZ     ??gizDevReportPolicy_0
//  859     {
//  860         GIZWITS_LOG("changed, report data\n");
//  861         if(0 == gizDataPoints2ReportData(currentData,gizwitsProtocol.reportData,(uint32 *)&gizwitsProtocol.reportDataLen))
        ; Setup parameters for call to function gizDataPoints2ReportData
        MOV     ?V0 + 0,#(gizwitsProtocol + 190) & 0xff
        MOV     ?V0 + 1,#((gizwitsProtocol + 190) >> 8) & 0xff
        MOV     R0,#?V0 + 0
        LCALL   ?PUSH_XSTACK_I_TWO
        CFI CFA_XSP16 add(XSP16, 18)
        MOV     R4,#(gizwitsProtocol + 169) & 0xff
        MOV     R5,#((gizwitsProtocol + 169) >> 8) & 0xff
        MOV     A,R6
        MOV     R2,A
        MOV     A,R7
        MOV     R3,A
        LCALL   ??gizDataPoints2ReportData?relay
        MOV     A,#0x2
        LCALL   ?DEALLOC_XSTACK8
        CFI CFA_XSP16 add(XSP16, 16)
        MOV     A,R1
        JNZ     ??gizDevReportPolicy_1
//  862         {
//  863             gizReportData(ACTION_REPORT_DEV_STATUS, gizwitsProtocol.reportData, gizwitsProtocol.reportDataLen);
        ; Setup parameters for call to function gizReportData
        MOV     DPTR,#gizwitsProtocol + 190
        LCALL   ?PUSH_XSTACK8_X_FOUR
        CFI CFA_XSP16 add(XSP16, 20)
        MOV     R2,#(gizwitsProtocol + 169) & 0xff
        MOV     R3,#((gizwitsProtocol + 169) >> 8) & 0xff
        MOV     R1,#0x14
        LCALL   ??gizReportData?relay
        MOV     A,#0x4
        LCALL   ?DEALLOC_XSTACK8
        CFI CFA_XSP16 add(XSP16, 16)
//  864         }
//  865         osal_memcpy((uint8 *)&gizwitsProtocol.gizLastDataPoint, (uint8 *)currentData, sizeof(dataPoint_t));
??gizDevReportPolicy_1:
        ; Setup parameters for call to function osal_memcpy
        MOV     ?V0 + 0,R6
        MOV     ?V0 + 1,R7
        MOV     ?V0 + 2,#0x0
        MOV     R0,#?V0 + 0
        LCALL   ?PUSH_XSTACK_I_THREE
        CFI CFA_XSP16 add(XSP16, 19)
        MOV     R4,#0x14
        MOV     R5,#0x0
        MOV     R2,#(gizwitsProtocol + 214) & 0xff
        MOV     R3,#((gizwitsProtocol + 214) >> 8) & 0xff
        LCALL   ??Subroutine62_0 & 0xFFFF
//  866     }
??CrossCallReturnLabel_111:
        LCALL   ?DEALLOC_XSTACK8
        CFI CFA_XSP16 add(XSP16, 16)
//  867     /** ÂÆöÊó∂‰∏äÊä•Êú∫Âà∂ **/
//  868     if(0 == (gizGetTimerCount() % (600000)))
??gizDevReportPolicy_0:
        ; Setup parameters for call to function gizGetTimerCount
        LCALL   ??gizGetTimerCount?relay
        MOV     ?V0 + 0,R2
        MOV     ?V0 + 1,R3
        MOV     ?V0 + 2,R4
        MOV     ?V0 + 3,R5
        MOV     DPTR,#__Constant_927c0
        MOV     R0,#?V0 + 4
        LCALL   ?L_MOV_X
        MOV     R0,#?V0 + 0
        MOV     R1,#?V0 + 4
        LCALL   ?UL_DIV_MOD
        MOV     A,?V0 + 4
        ORL     A,?V0 + 5
        ORL     A,?V0 + 6
        ORL     A,?V0 + 7
        JNZ     ??gizDevReportPolicy_2
//  869     {
//  870         GIZWITS_LOG("Info: 600S report data\n");
//  871         osal_memset((uint8 *)&gizwitsProtocol.waitReportDatapointFlag,0xFF,DATAPOINT_FLAG_LEN);
        ; Setup parameters for call to function osal_memset
        MOV     R4,#0x1
        MOV     R5,#0x0
        MOV     R1,#-0x1
        MOV     R2,#(gizwitsProtocol + 168) & 0xff
        MOV     R3,#((gizwitsProtocol + 168) >> 8) & 0xff
        LCALL   ??osal_memset?relay
//  872         if(0 == gizDataPoints2ReportData(currentData,gizwitsProtocol.reportData,(uint32 *)&gizwitsProtocol.reportDataLen))
        ; Setup parameters for call to function gizDataPoints2ReportData
        MOV     ?V0 + 0,#(gizwitsProtocol + 190) & 0xff
        MOV     ?V0 + 1,#((gizwitsProtocol + 190) >> 8) & 0xff
        MOV     R0,#?V0 + 0
        LCALL   ?PUSH_XSTACK_I_TWO
        CFI CFA_XSP16 add(XSP16, 18)
        MOV     R4,#(gizwitsProtocol + 169) & 0xff
        MOV     R5,#((gizwitsProtocol + 169) >> 8) & 0xff
        MOV     A,R6
        MOV     R2,A
        MOV     A,R7
        MOV     R3,A
        LCALL   ??gizDataPoints2ReportData?relay
        MOV     A,#0x2
        LCALL   ?DEALLOC_XSTACK8
        CFI CFA_XSP16 add(XSP16, 16)
        MOV     A,R1
        JNZ     ??gizDevReportPolicy_3
//  873             gizReportData(ACTION_REPORT_DEV_STATUS, gizwitsProtocol.reportData, gizwitsProtocol.reportDataLen);
        ; Setup parameters for call to function gizReportData
        MOV     DPTR,#gizwitsProtocol + 190
        LCALL   ?PUSH_XSTACK8_X_FOUR
        CFI CFA_XSP16 add(XSP16, 20)
        MOV     R2,#(gizwitsProtocol + 169) & 0xff
        MOV     R3,#((gizwitsProtocol + 169) >> 8) & 0xff
        MOV     R1,#0x14
        LCALL   ??gizReportData?relay
        MOV     A,#0x4
        LCALL   ?DEALLOC_XSTACK8
        CFI CFA_XSP16 add(XSP16, 16)
//  874         osal_memcpy((uint8 *)&gizwitsProtocol.gizLastDataPoint, (uint8 *)currentData, sizeof(dataPoint_t));
??gizDevReportPolicy_3:
        ; Setup parameters for call to function osal_memcpy
        MOV     ?V0 + 0,R6
        MOV     ?V0 + 1,R7
        MOV     ?V0 + 2,#0x0
        MOV     R0,#?V0 + 0
        LCALL   ?PUSH_XSTACK_I_THREE
        CFI CFA_XSP16 add(XSP16, 19)
        MOV     R4,#0x14
        MOV     R5,#0x0
        MOV     R2,#(gizwitsProtocol + 214) & 0xff
        MOV     R3,#((gizwitsProtocol + 214) >> 8) & 0xff
        LCALL   ??Subroutine62_0 & 0xFFFF
//  875     }
??CrossCallReturnLabel_112:
        LCALL   ?DEALLOC_XSTACK8
        CFI CFA_XSP16 add(XSP16, 16)
//  876 }
??gizDevReportPolicy_2:
        LJMP    ??Subroutine61_0 & 0xFFFF
        CFI EndBlock cfiBlock50
//  877 
//  878 /**
//  879 * @brief ‰ªéÁéØÂΩ¢ÁºìÂÜ≤Âå∫‰∏≠ÊäìÂèñ‰∏ÄÂåÖÊï∞Êç?*
//  880 * @param [in]  rb                  : ËæìÂÖ•Êï∞ÊçÆÂú∞ÂùÄ
//  881 * @param [out] data                : ËæìÂá∫Êï∞ÊçÆÂú∞ÂùÄ
//  882 * @param [out] len                 : ËæìÂá∫Êï∞ÊçÆÈïøÂ∫¶
//  883 *
//  884 * @return : 0,Ê≠£Á°ÆËøîÂõû;-1ÔºåÈîôËØØËøîÂõ?-2ÔºåÊï∞ÊçÆÊ†°È™åÂ§±Ë¥?*/

        RSEG BANKED_CODE:CODE:NOROOT(0)
//  885 static int8 gizProtocolGetOnePacket(rb_t *rb, uint8 *data, uint16 *len)
gizProtocolGetOnePacket:
        CFI Block cfiBlock51 Using cfiCommon0
        CFI Function gizProtocolGetOnePacket
        CODE
//  886 {
        FUNCALL gizProtocolGetOnePacket, rbCanRead
        LOCFRAME ISTACK, 0, STACK
        LOCFRAME PSTACK, 0, STACK
        LOCFRAME XSTACK, 21, STACK
        LOCFRAME IOVERLAY, 0, STATIC
        LOCFRAME DOVERLAY, 0, STATIC
        ARGFRAME ISTACK, 0, STACK
        ARGFRAME PSTACK, 0, STACK
        ARGFRAME XSTACK, 21, STACK
        ARGFRAME IOVERLAY, 0, STATIC
        ARGFRAME DOVERLAY, 0, STATIC
        FUNCALL gizProtocolGetOnePacket, rbRead
        LOCFRAME ISTACK, 0, STACK
        LOCFRAME PSTACK, 0, STACK
        LOCFRAME XSTACK, 23, STACK
        LOCFRAME IOVERLAY, 0, STATIC
        LOCFRAME DOVERLAY, 0, STATIC
        ARGFRAME ISTACK, 0, STACK
        ARGFRAME PSTACK, 0, STACK
        ARGFRAME XSTACK, 23, STACK
        ARGFRAME IOVERLAY, 0, STATIC
        ARGFRAME DOVERLAY, 0, STATIC
        FUNCALL gizProtocolGetOnePacket, gizProtocolExchangeBytes
        LOCFRAME ISTACK, 0, STACK
        LOCFRAME PSTACK, 0, STACK
        LOCFRAME XSTACK, 21, STACK
        LOCFRAME IOVERLAY, 0, STATIC
        LOCFRAME DOVERLAY, 0, STATIC
        ARGFRAME ISTACK, 0, STACK
        ARGFRAME PSTACK, 0, STACK
        ARGFRAME XSTACK, 21, STACK
        ARGFRAME IOVERLAY, 0, STATIC
        ARGFRAME DOVERLAY, 0, STATIC
        FUNCALL gizProtocolGetOnePacket, gizProtocolSum
        LOCFRAME ISTACK, 0, STACK
        LOCFRAME PSTACK, 0, STACK
        LOCFRAME XSTACK, 25, STACK
        LOCFRAME IOVERLAY, 0, STATIC
        LOCFRAME DOVERLAY, 0, STATIC
        ARGFRAME ISTACK, 0, STACK
        ARGFRAME PSTACK, 0, STACK
        ARGFRAME XSTACK, 25, STACK
        ARGFRAME IOVERLAY, 0, STATIC
        ARGFRAME DOVERLAY, 0, STATIC
        FUNCALL gizProtocolGetOnePacket, osal_memcpy
        LOCFRAME ISTACK, 0, STACK
        LOCFRAME PSTACK, 0, STACK
        LOCFRAME XSTACK, 24, STACK
        LOCFRAME IOVERLAY, 0, STATIC
        LOCFRAME DOVERLAY, 0, STATIC
        ARGFRAME ISTACK, 0, STACK
        ARGFRAME PSTACK, 0, STACK
        ARGFRAME XSTACK, 24, STACK
        ARGFRAME IOVERLAY, 0, STATIC
        ARGFRAME DOVERLAY, 0, STATIC
        MOV     A,#-0x14
        LCALL   ?BANKED_ENTER_XDATA
        CFI DPH0 load(1, XDATA, add(CFA_XSP16, literal(-1)))
        CFI DPL0 load(1, XDATA, add(CFA_XSP16, literal(-2)))
        CFI ?BRET_EXT load(1, XDATA, add(CFA_XSP16, literal(-3)))
        CFI ?RET_HIGH load(1, XDATA, add(CFA_XSP16, literal(-4)))
        CFI ?RET_LOW load(1, XDATA, add(CFA_XSP16, literal(-5)))
        CFI R7 load(1, XDATA, add(CFA_XSP16, literal(-6)))
        CFI V11 load(1, XDATA, add(CFA_XSP16, literal(-7)))
        CFI V10 load(1, XDATA, add(CFA_XSP16, literal(-8)))
        CFI V9 load(1, XDATA, add(CFA_XSP16, literal(-9)))
        CFI V8 load(1, XDATA, add(CFA_XSP16, literal(-10)))
        CFI V7 load(1, XDATA, add(CFA_XSP16, literal(-11)))
        CFI V6 load(1, XDATA, add(CFA_XSP16, literal(-12)))
        CFI V5 load(1, XDATA, add(CFA_XSP16, literal(-13)))
        CFI V4 load(1, XDATA, add(CFA_XSP16, literal(-14)))
        CFI V3 load(1, XDATA, add(CFA_XSP16, literal(-15)))
        CFI V2 load(1, XDATA, add(CFA_XSP16, literal(-16)))
        CFI V1 load(1, XDATA, add(CFA_XSP16, literal(-17)))
        CFI V0 load(1, XDATA, add(CFA_XSP16, literal(-18)))
        CFI VB load(1, XDATA, add(CFA_XSP16, literal(-19)))
        CFI R6 load(1, XDATA, add(CFA_XSP16, literal(-20)))
        CFI CFA_SP SP+0
        CFI CFA_XSP16 add(XSP16, 20)
        ; Saved register size: 20
        ; Auto size: 1
        MOV     A,#-0x1
        LCALL   ?ALLOC_XSTACK8
        CFI CFA_XSP16 add(XSP16, 21)
        MOV     ?V0 + 2,R2
        MOV     ?V0 + 3,R3
        MOV     ?V0 + 0,R4
        MOV     ?V0 + 1,R5
        MOV     A,#0x15
        LCALL   ?XSTACK_DISP0_8
        MOVX    A,@DPTR
        MOV     ?V0 + 8,A
        INC     DPTR
        MOVX    A,@DPTR
        MOV     ?V0 + 9,A
//  887     int32 ret = 0;
//  888     uint8 sum = 0;
//  889     int32 i = 0;
//  890     uint8 tmpData;
//  891     uint8 tmpLen = 0;
//  892     uint16 tmpCount = 0;
        MOV     R6,#0x0
        MOV     R7,#0x0
//  893     static uint8 protocolFlag = 0;
//  894     static uint16 protocolCount = 0;
//  895     static uint8 lastData = 0;
//  896     static uint8 debugCount = 0;
//  897     uint8 *protocolBuff = data;
//  898     protocolHead_t *head = NULL;
//  899 
//  900     if((NULL == rb) || (NULL == data) ||(NULL == len))
        MOV     A,R2
        ORL     A,?V0 + 3
        JZ      ??gizProtocolGetOnePacket_0
        MOV     A,R4
        ORL     A,?V0 + 1
        JZ      ??gizProtocolGetOnePacket_0
        MOV     A,?V0 + 8
        ORL     A,?V0 + 9
        JNZ     ??gizProtocolGetOnePacket_1
//  901     {
//  902         GIZWITS_LOG("gizProtocolGetOnePacket Error , Illegal Param\n");
//  903         return -1;
??gizProtocolGetOnePacket_0:
        MOV     R1,#-0x1
        LJMP    ??gizProtocolGetOnePacket_2 & 0xFFFF
//  904     }
//  905 
//  906     tmpLen = rbCanRead(rb);
??gizProtocolGetOnePacket_1:
        ; Setup parameters for call to function rbCanRead
        LCALL   ??rbCanRead?relay
        MOV     ?V0 + 4,R2
        MOV     A,R2
//  907     if(0 == tmpLen)
        JZ      ??gizProtocolGetOnePacket_0
//  908     {
//  909         return -1;
//  910     }
//  911 
//  912     for(i=0; i<tmpLen; i++)
        MOV     ?V0 + 5,R6
        MOV     ?V0 + 6,R6
        MOV     ?V0 + 7,R6
//  913     {
//  914         ret = rbRead(rb, &tmpData, 1);
//  915         if(0 != ret)
??gizProtocolGetOnePacket_3:
        ; Setup parameters for call to function rbRead
        MOV     ?V0 + 10,#0x1
        MOV     ?V0 + 11,#0x0
        MOV     R0,#?V0 + 10
        LCALL   ?PUSH_XSTACK_I_TWO
        CFI CFA_XSP16 add(XSP16, 23)
        MOV     A,#0x2
        LCALL   ?XSTACK_DISP0_8
        MOV     R4,DPL
        MOV     R5,DPH
        MOV     R2,?V0 + 2
        MOV     R3,?V0 + 3
        LCALL   ??rbRead?relay
        MOV     A,#0x2
        LCALL   ?DEALLOC_XSTACK8
        CFI CFA_XSP16 add(XSP16, 21)
        MOV     A,R2
        MOV     R0,A
        MOV     A,R3
        MOV     R1,A
        MOV     A,R4
        MOV     R2,A
        MOV     A,R5
        MOV     R3,A
        MOV     A,R0
        ORL     A,R1
        ORL     A,R2
        ORL     A,R3
        JNZ     $+5
        LJMP    ??gizProtocolGetOnePacket_4 & 0xFFFF
//  916         {
//  917             if((0xFF == lastData) && (0xFF == tmpData))
        MOV     DPTR,#??lastData
        MOVX    A,@DPTR
        CPL     A
        JNZ     ??gizProtocolGetOnePacket_5
        MOV     DPL,?XSP + 0
        MOV     DPH,?XSP + 1
        MOVX    A,@DPTR
        CPL     A
        JNZ     ??gizProtocolGetOnePacket_6
//  918             {
//  919                 if(0 == protocolFlag)
        MOV     DPTR,#??protocolFlag
        MOVX    A,@DPTR
        MOV     C,0xE0 /* A   */.0
        JC      ??gizProtocolGetOnePacket_7
//  920                 {
//  921                     protocolBuff[0] = 0xFF;
        LCALL   ?Subroutine15 & 0xFFFF
//  922                     protocolBuff[1] = 0xFF;
//  923                     protocolCount = 2;
??CrossCallReturnLabel_14:
        MOVX    @DPTR,A
//  924                     protocolFlag = 1;
        MOV     DPTR,#??protocolFlag
        INC     A
??gizProtocolGetOnePacket_8:
        MOVX    @DPTR,A
        SJMP    ??gizProtocolGetOnePacket_9
//  925                 }
//  926                 else
//  927                 {
//  928                     if((protocolCount > 4) && (protocolCount != tmpCount))
??gizProtocolGetOnePacket_7:
        LCALL   ?Subroutine32 & 0xFFFF
??CrossCallReturnLabel_50:
        JC      ??gizProtocolGetOnePacket_9
        MOV     DPTR,#??protocolCount
        MOVX    A,@DPTR
        XRL     A,R6
        JNZ     ??gizProtocolGetOnePacket_10
        INC     DPTR
        MOVX    A,@DPTR
        XRL     A,R7
??gizProtocolGetOnePacket_10:
        JZ      ??gizProtocolGetOnePacket_9
//  929                     {
//  930                         protocolBuff[0] = 0xFF;
        LCALL   ?Subroutine15 & 0xFFFF
//  931                         protocolBuff[1] = 0xFF;
//  932                         protocolCount = 2;
//  933                     }
//  934                 }
//  935             }
??CrossCallReturnLabel_15:
        SJMP    ??gizProtocolGetOnePacket_8
??gizProtocolGetOnePacket_6:
        MOVX    A,@DPTR
        XRL     A,#0x55
        JZ      ??gizProtocolGetOnePacket_9
//  936             else if((0xFF == lastData) && (0x55 == tmpData))
//  937             {
//  938             }
//  939             else
//  940             {
//  941                 if(1 == protocolFlag)
??gizProtocolGetOnePacket_5:
        MOV     DPTR,#??protocolFlag
        MOVX    A,@DPTR
        MOV     C,0xE0 /* A   */.0
        JNC     ??gizProtocolGetOnePacket_9
//  942                 {
//  943                     protocolBuff[protocolCount] = tmpData;
        MOV     DPL,?XSP + 0
        MOV     DPH,?XSP + 1
        MOVX    A,@DPTR
        PUSH    A
        CFI CFA_SP SP+-1
        LCALL   ?Subroutine38 & 0xFFFF
??CrossCallReturnLabel_63:
        MOV     DPL,A
        MOV     A,?V0 + 1
        ADDC    A,R1
        MOV     DPH,A
        POP     A
        CFI CFA_SP SP+0
        MOVX    @DPTR,A
//  944                     protocolCount++;
        MOV     DPTR,#??protocolCount
        MOVX    A,@DPTR
        ADD     A,#0x1
        MOVX    @DPTR,A
        INC     DPTR
        MOVX    A,@DPTR
        ADDC    A,#0x0
        MOVX    @DPTR,A
//  945 
//  946                     if(protocolCount > 4)
        LCALL   ?Subroutine32 & 0xFFFF
??CrossCallReturnLabel_51:
        JC      ??gizProtocolGetOnePacket_9
//  947                     {
//  948                         head = (protocolHead_t *)protocolBuff;
//  949                         tmpCount = gizProtocolExchangeBytes(head->len)+4;
        ; Setup parameters for call to function gizProtocolExchangeBytes
        MOV     DPL,?V0 + 0
        MOV     DPH,?V0 + 1
        INC     DPTR
        INC     DPTR
        LCALL   ?Subroutine29 & 0xFFFF
??CrossCallReturnLabel_43:
        MOV     A,R2
        ADD     A,#0x4
        MOV     R6,A
        MOV     A,R3
        ADDC    A,#0x0
        MOV     R7,A
//  950                         if(protocolCount == tmpCount)
        MOV     DPTR,#??protocolCount
        MOVX    A,@DPTR
        XRL     A,R6
        JNZ     ??gizProtocolGetOnePacket_11
        INC     DPTR
        MOVX    A,@DPTR
        XRL     A,R7
??gizProtocolGetOnePacket_11:
        JZ      ??gizProtocolGetOnePacket_12
//  951                         {
//  952                             break;
//  953                         }
//  954                     }
//  955                 }
//  956             }
//  957 
//  958             lastData = tmpData;
??gizProtocolGetOnePacket_9:
        MOV     DPL,?XSP + 0
        MOV     DPH,?XSP + 1
        MOVX    A,@DPTR
        MOV     DPTR,#??lastData
        MOVX    @DPTR,A
//  959             debugCount++;
        MOV     DPTR,#??debugCount
        MOVX    A,@DPTR
        INC     A
        MOVX    @DPTR,A
//  960         }
//  961     }
??gizProtocolGetOnePacket_4:
        MOV     DPTR,#__Constant_ffffffff
        MOV     R0,#?V0 + 4
        LCALL   ?L_ADD_X
        MOV     R1,?V0 + 5
        MOV     R2,?V0 + 6
        MOV     R3,?V0 + 7
        MOV     A,?V0 + 4
        ORL     A,R1
        ORL     A,R2
        ORL     A,R3
        JZ      $+5
        LJMP    ??gizProtocolGetOnePacket_3 & 0xFFFF
//  962 
//  963     if((protocolCount > 4) && (protocolCount == tmpCount))
??gizProtocolGetOnePacket_12:
        LCALL   ?Subroutine32 & 0xFFFF
??CrossCallReturnLabel_52:
        JC      ??gizProtocolGetOnePacket_13
        MOV     DPTR,#??protocolCount
        MOVX    A,@DPTR
        XRL     A,R6
        JNZ     ??gizProtocolGetOnePacket_14
        INC     DPTR
        MOVX    A,@DPTR
        XRL     A,R7
??gizProtocolGetOnePacket_14:
        JNZ     ??gizProtocolGetOnePacket_13
//  964     {
//  965         sum = gizProtocolSum(protocolBuff, protocolCount);
//  966 
//  967         if(protocolBuff[protocolCount-1] == sum)
        LCALL   ?Subroutine38 & 0xFFFF
??CrossCallReturnLabel_64:
        MOV     R0,A
        MOV     A,?V0 + 1
        ADDC    A,R1
        MOV     R1,A
        MOV     A,R0
        ADD     A,#-0x1
        MOV     DPL,A
        MOV     A,R1
        ADDC    A,#-0x1
        MOV     DPH,A
        MOVX    A,@DPTR
        MOV     ?V0 + 2,A
        ; Setup parameters for call to function gizProtocolSum
        MOV     DPTR,#??protocolCount
        LCALL   ?Subroutine24 & 0xFFFF
??CrossCallReturnLabel_33:
        LCALL   ?PUSH_XSTACK_I_FOUR
        CFI CFA_XSP16 add(XSP16, 25)
        MOV     R2,?V0 + 0
        MOV     R3,?V0 + 1
        LCALL   ??Subroutine66_0 & 0xFFFF
??CrossCallReturnLabel_148:
        LCALL   ?DEALLOC_XSTACK8
        CFI CFA_XSP16 add(XSP16, 21)
        MOV     A,R1
        XRL     A,?V0 + 2
        JNZ     ??gizProtocolGetOnePacket_15
//  968         {
//  969             osal_memcpy(data, protocolBuff, tmpCount);
        ; Setup parameters for call to function osal_memcpy
        MOV     ?V0 + 4,?V0 + 0
        MOV     ?V0 + 5,?V0 + 1
        MOV     R0,#?V0 + 4
        LCALL   ?PUSH_XSTACK_I_THREE
        CFI CFA_XSP16 add(XSP16, 24)
        MOV     A,R6
        MOV     R4,A
        MOV     A,R7
        MOV     R5,A
        MOV     R2,?V0 + 0
        MOV     R3,?V0 + 1
        LCALL   ??Subroutine62_0 & 0xFFFF
??CrossCallReturnLabel_113:
        LCALL   ?DEALLOC_XSTACK8
        CFI CFA_XSP16 add(XSP16, 21)
//  970             *len = tmpCount;
        MOV     DPL,?V0 + 8
        MOV     DPH,?V0 + 9
        MOV     A,R6
        MOVX    @DPTR,A
        INC     DPTR
        MOV     A,R7
        MOVX    @DPTR,A
//  971             protocolFlag = 0;
        MOV     DPTR,#??protocolFlag
        CLR     A
        MOVX    @DPTR,A
//  972 
//  973             protocolCount = 0;
        MOV     DPTR,#??protocolCount
        MOVX    @DPTR,A
        INC     DPTR
        MOVX    @DPTR,A
//  974             debugCount = 0;
        MOV     DPTR,#??debugCount
        MOVX    @DPTR,A
//  975             lastData = 0;
        MOV     DPTR,#??lastData
        MOVX    @DPTR,A
//  976 
//  977             return 0;
        MOV     R1,A
        SJMP    ??gizProtocolGetOnePacket_2
//  978         }
//  979         else
//  980         {
//  981             return -2;
??gizProtocolGetOnePacket_15:
        MOV     R1,#-0x2
        SJMP    ??gizProtocolGetOnePacket_2
//  982         }
//  983     }
//  984 
//  985     return 1;
??gizProtocolGetOnePacket_13:
        MOV     R1,#0x1
??gizProtocolGetOnePacket_2:
        MOV     A,#0x1
        LCALL   ?DEALLOC_XSTACK8
        CFI CFA_XSP16 add(XSP16, 20)
        LJMP    ?Subroutine2 & 0xFFFF
        CFI EndBlock cfiBlock51
//  986 }

        RSEG BANKED_CODE:CODE:NOROOT(0)
?Subroutine41:
        CFI Block cfiCond52 Using cfiCommon0
        CFI NoFunction
        CFI Conditional ??CrossCallReturnLabel_93
        CFI R6 load(1, XDATA, add(CFA_XSP16, literal(-15)))
        CFI VB load(1, XDATA, add(CFA_XSP16, literal(-14)))
        CFI V0 load(1, XDATA, add(CFA_XSP16, literal(-13)))
        CFI V1 load(1, XDATA, add(CFA_XSP16, literal(-12)))
        CFI V2 load(1, XDATA, add(CFA_XSP16, literal(-11)))
        CFI V3 load(1, XDATA, add(CFA_XSP16, literal(-10)))
        CFI V4 load(1, XDATA, add(CFA_XSP16, literal(-9)))
        CFI V5 load(1, XDATA, add(CFA_XSP16, literal(-8)))
        CFI V6 load(1, XDATA, add(CFA_XSP16, literal(-7)))
        CFI R7 load(1, XDATA, add(CFA_XSP16, literal(-6)))
        CFI ?RET_LOW load(1, XDATA, add(CFA_XSP16, literal(-5)))
        CFI ?RET_HIGH load(1, XDATA, add(CFA_XSP16, literal(-4)))
        CFI ?BRET_EXT load(1, XDATA, add(CFA_XSP16, literal(-3)))
        CFI DPL0 load(1, XDATA, add(CFA_XSP16, literal(-2)))
        CFI DPH0 load(1, XDATA, add(CFA_XSP16, literal(-1)))
        CFI CFA_SP SP+0
        CFI CFA_XSP16 add(XSP16, 39)
        CFI Block cfiCond53 Using cfiCommon0
        CFI (cfiCond53) NoFunction
        CFI (cfiCond53) Conditional ??CrossCallReturnLabel_94
        CFI (cfiCond53) R6 load(1, XDATA, add(CFA_XSP16, literal(-16)))
        CFI (cfiCond53) VB load(1, XDATA, add(CFA_XSP16, literal(-15)))
        CFI (cfiCond53) V0 load(1, XDATA, add(CFA_XSP16, literal(-14)))
        CFI (cfiCond53) V1 load(1, XDATA, add(CFA_XSP16, literal(-13)))
        CFI (cfiCond53) V2 load(1, XDATA, add(CFA_XSP16, literal(-12)))
        CFI (cfiCond53) V3 load(1, XDATA, add(CFA_XSP16, literal(-11)))
        CFI (cfiCond53) V4 load(1, XDATA, add(CFA_XSP16, literal(-10)))
        CFI (cfiCond53) V5 load(1, XDATA, add(CFA_XSP16, literal(-9)))
        CFI (cfiCond53) V6 load(1, XDATA, add(CFA_XSP16, literal(-8)))
        CFI (cfiCond53) V7 load(1, XDATA, add(CFA_XSP16, literal(-7)))
        CFI (cfiCond53) R7 load(1, XDATA, add(CFA_XSP16, literal(-6)))
        CFI (cfiCond53) ?RET_LOW load(1, XDATA, add(CFA_XSP16, literal(-5)))
        CFI (cfiCond53) ?RET_HIGH load(1, XDATA, add(CFA_XSP16, literal(-4)))
        CFI (cfiCond53) ?BRET_EXT load(1, XDATA, add(CFA_XSP16, literal(-3)))
        CFI (cfiCond53) DPL0 load(1, XDATA, add(CFA_XSP16, literal(-2)))
        CFI (cfiCond53) DPH0 load(1, XDATA, add(CFA_XSP16, literal(-1)))
        CFI (cfiCond53) CFA_SP SP+0
        CFI (cfiCond53) CFA_XSP16 add(XSP16, 40)
        CFI Block cfiCond54 Using cfiCommon0
        CFI (cfiCond54) NoFunction
        CFI (cfiCond54) Conditional ??CrossCallReturnLabel_95
        CFI (cfiCond54) R6 load(1, XDATA, add(CFA_XSP16, literal(-16)))
        CFI (cfiCond54) VB load(1, XDATA, add(CFA_XSP16, literal(-15)))
        CFI (cfiCond54) V0 load(1, XDATA, add(CFA_XSP16, literal(-14)))
        CFI (cfiCond54) V1 load(1, XDATA, add(CFA_XSP16, literal(-13)))
        CFI (cfiCond54) V2 load(1, XDATA, add(CFA_XSP16, literal(-12)))
        CFI (cfiCond54) V3 load(1, XDATA, add(CFA_XSP16, literal(-11)))
        CFI (cfiCond54) V4 load(1, XDATA, add(CFA_XSP16, literal(-10)))
        CFI (cfiCond54) V5 load(1, XDATA, add(CFA_XSP16, literal(-9)))
        CFI (cfiCond54) V6 load(1, XDATA, add(CFA_XSP16, literal(-8)))
        CFI (cfiCond54) V7 load(1, XDATA, add(CFA_XSP16, literal(-7)))
        CFI (cfiCond54) R7 load(1, XDATA, add(CFA_XSP16, literal(-6)))
        CFI (cfiCond54) ?RET_LOW load(1, XDATA, add(CFA_XSP16, literal(-5)))
        CFI (cfiCond54) ?RET_HIGH load(1, XDATA, add(CFA_XSP16, literal(-4)))
        CFI (cfiCond54) ?BRET_EXT load(1, XDATA, add(CFA_XSP16, literal(-3)))
        CFI (cfiCond54) DPL0 load(1, XDATA, add(CFA_XSP16, literal(-2)))
        CFI (cfiCond54) DPH0 load(1, XDATA, add(CFA_XSP16, literal(-1)))
        CFI (cfiCond54) CFA_SP SP+0
        CFI (cfiCond54) CFA_XSP16 add(XSP16, 40)
        CFI Block cfiCond55 Using cfiCommon0
        CFI (cfiCond55) NoFunction
        CFI (cfiCond55) Conditional ??CrossCallReturnLabel_96
        CFI (cfiCond55) R6 load(1, XDATA, add(CFA_XSP16, literal(-15)))
        CFI (cfiCond55) VB load(1, XDATA, add(CFA_XSP16, literal(-14)))
        CFI (cfiCond55) V0 load(1, XDATA, add(CFA_XSP16, literal(-13)))
        CFI (cfiCond55) V1 load(1, XDATA, add(CFA_XSP16, literal(-12)))
        CFI (cfiCond55) V2 load(1, XDATA, add(CFA_XSP16, literal(-11)))
        CFI (cfiCond55) V3 load(1, XDATA, add(CFA_XSP16, literal(-10)))
        CFI (cfiCond55) V4 load(1, XDATA, add(CFA_XSP16, literal(-9)))
        CFI (cfiCond55) V5 load(1, XDATA, add(CFA_XSP16, literal(-8)))
        CFI (cfiCond55) V6 load(1, XDATA, add(CFA_XSP16, literal(-7)))
        CFI (cfiCond55) R7 load(1, XDATA, add(CFA_XSP16, literal(-6)))
        CFI (cfiCond55) ?RET_LOW load(1, XDATA, add(CFA_XSP16, literal(-5)))
        CFI (cfiCond55) ?RET_HIGH load(1, XDATA, add(CFA_XSP16, literal(-4)))
        CFI (cfiCond55) ?BRET_EXT load(1, XDATA, add(CFA_XSP16, literal(-3)))
        CFI (cfiCond55) DPL0 load(1, XDATA, add(CFA_XSP16, literal(-2)))
        CFI (cfiCond55) DPH0 load(1, XDATA, add(CFA_XSP16, literal(-1)))
        CFI (cfiCond55) CFA_SP SP+0
        CFI (cfiCond55) CFA_XSP16 add(XSP16, 49)
        CFI Block cfiCond56 Using cfiCommon0
        CFI (cfiCond56) NoFunction
        CFI (cfiCond56) Conditional ??CrossCallReturnLabel_97
        CFI (cfiCond56) R6 load(1, XDATA, add(CFA_XSP16, literal(-11)))
        CFI (cfiCond56) VB load(1, XDATA, add(CFA_XSP16, literal(-10)))
        CFI (cfiCond56) V0 load(1, XDATA, add(CFA_XSP16, literal(-9)))
        CFI (cfiCond56) V1 load(1, XDATA, add(CFA_XSP16, literal(-8)))
        CFI (cfiCond56) V2 load(1, XDATA, add(CFA_XSP16, literal(-7)))
        CFI (cfiCond56) R7 load(1, XDATA, add(CFA_XSP16, literal(-6)))
        CFI (cfiCond56) ?RET_LOW load(1, XDATA, add(CFA_XSP16, literal(-5)))
        CFI (cfiCond56) ?RET_HIGH load(1, XDATA, add(CFA_XSP16, literal(-4)))
        CFI (cfiCond56) ?BRET_EXT load(1, XDATA, add(CFA_XSP16, literal(-3)))
        CFI (cfiCond56) DPL0 load(1, XDATA, add(CFA_XSP16, literal(-2)))
        CFI (cfiCond56) DPH0 load(1, XDATA, add(CFA_XSP16, literal(-1)))
        CFI (cfiCond56) CFA_SP SP+0
        CFI (cfiCond56) CFA_XSP16 add(XSP16, 23)
        CFI Block cfiCond57 Using cfiCommon0
        CFI (cfiCond57) NoFunction
        CFI (cfiCond57) Conditional ??CrossCallReturnLabel_98
        CFI (cfiCond57) R6 load(1, XDATA, add(CFA_XSP16, literal(-11)))
        CFI (cfiCond57) VB load(1, XDATA, add(CFA_XSP16, literal(-10)))
        CFI (cfiCond57) V0 load(1, XDATA, add(CFA_XSP16, literal(-9)))
        CFI (cfiCond57) V1 load(1, XDATA, add(CFA_XSP16, literal(-8)))
        CFI (cfiCond57) V2 load(1, XDATA, add(CFA_XSP16, literal(-7)))
        CFI (cfiCond57) R7 load(1, XDATA, add(CFA_XSP16, literal(-6)))
        CFI (cfiCond57) ?RET_LOW load(1, XDATA, add(CFA_XSP16, literal(-5)))
        CFI (cfiCond57) ?RET_HIGH load(1, XDATA, add(CFA_XSP16, literal(-4)))
        CFI (cfiCond57) ?BRET_EXT load(1, XDATA, add(CFA_XSP16, literal(-3)))
        CFI (cfiCond57) DPL0 load(1, XDATA, add(CFA_XSP16, literal(-2)))
        CFI (cfiCond57) DPH0 load(1, XDATA, add(CFA_XSP16, literal(-1)))
        CFI (cfiCond57) CFA_SP SP+0
        CFI (cfiCond57) CFA_XSP16 add(XSP16, 129)
        CFI Block cfiCond58 Using cfiCommon0
        CFI (cfiCond58) NoFunction
        CFI (cfiCond58) Conditional ??CrossCallReturnLabel_99
        CFI (cfiCond58) R6 load(1, XDATA, add(CFA_XSP16, literal(-11)))
        CFI (cfiCond58) VB load(1, XDATA, add(CFA_XSP16, literal(-10)))
        CFI (cfiCond58) V0 load(1, XDATA, add(CFA_XSP16, literal(-9)))
        CFI (cfiCond58) V1 load(1, XDATA, add(CFA_XSP16, literal(-8)))
        CFI (cfiCond58) V2 load(1, XDATA, add(CFA_XSP16, literal(-7)))
        CFI (cfiCond58) R7 load(1, XDATA, add(CFA_XSP16, literal(-6)))
        CFI (cfiCond58) ?RET_LOW load(1, XDATA, add(CFA_XSP16, literal(-5)))
        CFI (cfiCond58) ?RET_HIGH load(1, XDATA, add(CFA_XSP16, literal(-4)))
        CFI (cfiCond58) ?BRET_EXT load(1, XDATA, add(CFA_XSP16, literal(-3)))
        CFI (cfiCond58) DPL0 load(1, XDATA, add(CFA_XSP16, literal(-2)))
        CFI (cfiCond58) DPH0 load(1, XDATA, add(CFA_XSP16, literal(-1)))
        CFI (cfiCond58) CFA_SP SP+0
        CFI (cfiCond58) CFA_XSP16 add(XSP16, 129)
        CFI Block cfiCond59 Using cfiCommon0
        CFI (cfiCond59) NoFunction
        CFI (cfiCond59) Conditional ??CrossCallReturnLabel_100
        CFI (cfiCond59) R6 load(1, XDATA, add(CFA_XSP16, literal(-11)))
        CFI (cfiCond59) VB load(1, XDATA, add(CFA_XSP16, literal(-10)))
        CFI (cfiCond59) V0 load(1, XDATA, add(CFA_XSP16, literal(-9)))
        CFI (cfiCond59) V1 load(1, XDATA, add(CFA_XSP16, literal(-8)))
        CFI (cfiCond59) V2 load(1, XDATA, add(CFA_XSP16, literal(-7)))
        CFI (cfiCond59) R7 load(1, XDATA, add(CFA_XSP16, literal(-6)))
        CFI (cfiCond59) ?RET_LOW load(1, XDATA, add(CFA_XSP16, literal(-5)))
        CFI (cfiCond59) ?RET_HIGH load(1, XDATA, add(CFA_XSP16, literal(-4)))
        CFI (cfiCond59) ?BRET_EXT load(1, XDATA, add(CFA_XSP16, literal(-3)))
        CFI (cfiCond59) DPL0 load(1, XDATA, add(CFA_XSP16, literal(-2)))
        CFI (cfiCond59) DPH0 load(1, XDATA, add(CFA_XSP16, literal(-1)))
        CFI (cfiCond59) CFA_SP SP+0
        CFI (cfiCond59) CFA_XSP16 add(XSP16, 129)
        CFI Block cfiCond60 Using cfiCommon0
        CFI (cfiCond60) NoFunction
        CFI (cfiCond60) Conditional ??CrossCallReturnLabel_101
        CFI (cfiCond60) R6 load(1, XDATA, add(CFA_XSP16, literal(-11)))
        CFI (cfiCond60) VB load(1, XDATA, add(CFA_XSP16, literal(-10)))
        CFI (cfiCond60) V0 load(1, XDATA, add(CFA_XSP16, literal(-9)))
        CFI (cfiCond60) V1 load(1, XDATA, add(CFA_XSP16, literal(-8)))
        CFI (cfiCond60) V2 load(1, XDATA, add(CFA_XSP16, literal(-7)))
        CFI (cfiCond60) R7 load(1, XDATA, add(CFA_XSP16, literal(-6)))
        CFI (cfiCond60) ?RET_LOW load(1, XDATA, add(CFA_XSP16, literal(-5)))
        CFI (cfiCond60) ?RET_HIGH load(1, XDATA, add(CFA_XSP16, literal(-4)))
        CFI (cfiCond60) ?BRET_EXT load(1, XDATA, add(CFA_XSP16, literal(-3)))
        CFI (cfiCond60) DPL0 load(1, XDATA, add(CFA_XSP16, literal(-2)))
        CFI (cfiCond60) DPH0 load(1, XDATA, add(CFA_XSP16, literal(-1)))
        CFI (cfiCond60) CFA_SP SP+0
        CFI (cfiCond60) CFA_XSP16 add(XSP16, 129)
        CFI Block cfiCond61 Using cfiCommon0
        CFI (cfiCond61) NoFunction
        CFI (cfiCond61) Conditional ??CrossCallReturnLabel_102
        CFI (cfiCond61) R6 load(1, XDATA, add(CFA_XSP16, literal(-11)))
        CFI (cfiCond61) VB load(1, XDATA, add(CFA_XSP16, literal(-10)))
        CFI (cfiCond61) V0 load(1, XDATA, add(CFA_XSP16, literal(-9)))
        CFI (cfiCond61) V1 load(1, XDATA, add(CFA_XSP16, literal(-8)))
        CFI (cfiCond61) V2 load(1, XDATA, add(CFA_XSP16, literal(-7)))
        CFI (cfiCond61) R7 load(1, XDATA, add(CFA_XSP16, literal(-6)))
        CFI (cfiCond61) ?RET_LOW load(1, XDATA, add(CFA_XSP16, literal(-5)))
        CFI (cfiCond61) ?RET_HIGH load(1, XDATA, add(CFA_XSP16, literal(-4)))
        CFI (cfiCond61) ?BRET_EXT load(1, XDATA, add(CFA_XSP16, literal(-3)))
        CFI (cfiCond61) DPL0 load(1, XDATA, add(CFA_XSP16, literal(-2)))
        CFI (cfiCond61) DPH0 load(1, XDATA, add(CFA_XSP16, literal(-1)))
        CFI (cfiCond61) CFA_SP SP+0
        CFI (cfiCond61) CFA_XSP16 add(XSP16, 129)
        CFI Block cfiCond62 Using cfiCommon0
        CFI (cfiCond62) NoFunction
        CFI (cfiCond62) Conditional ??CrossCallReturnLabel_103
        CFI (cfiCond62) R6 load(1, XDATA, add(CFA_XSP16, literal(-11)))
        CFI (cfiCond62) VB load(1, XDATA, add(CFA_XSP16, literal(-10)))
        CFI (cfiCond62) V0 load(1, XDATA, add(CFA_XSP16, literal(-9)))
        CFI (cfiCond62) V1 load(1, XDATA, add(CFA_XSP16, literal(-8)))
        CFI (cfiCond62) V2 load(1, XDATA, add(CFA_XSP16, literal(-7)))
        CFI (cfiCond62) R7 load(1, XDATA, add(CFA_XSP16, literal(-6)))
        CFI (cfiCond62) ?RET_LOW load(1, XDATA, add(CFA_XSP16, literal(-5)))
        CFI (cfiCond62) ?RET_HIGH load(1, XDATA, add(CFA_XSP16, literal(-4)))
        CFI (cfiCond62) ?BRET_EXT load(1, XDATA, add(CFA_XSP16, literal(-3)))
        CFI (cfiCond62) DPL0 load(1, XDATA, add(CFA_XSP16, literal(-2)))
        CFI (cfiCond62) DPH0 load(1, XDATA, add(CFA_XSP16, literal(-1)))
        CFI (cfiCond62) CFA_SP SP+0
        CFI (cfiCond62) CFA_XSP16 add(XSP16, 129)
        CFI Block cfiCond63 Using cfiCommon0
        CFI (cfiCond63) NoFunction
        CFI (cfiCond63) Conditional ??CrossCallReturnLabel_104
        CFI (cfiCond63) R6 load(1, XDATA, add(CFA_XSP16, literal(-16)))
        CFI (cfiCond63) VB load(1, XDATA, add(CFA_XSP16, literal(-15)))
        CFI (cfiCond63) V0 load(1, XDATA, add(CFA_XSP16, literal(-14)))
        CFI (cfiCond63) V1 load(1, XDATA, add(CFA_XSP16, literal(-13)))
        CFI (cfiCond63) V2 load(1, XDATA, add(CFA_XSP16, literal(-12)))
        CFI (cfiCond63) V3 load(1, XDATA, add(CFA_XSP16, literal(-11)))
        CFI (cfiCond63) V4 load(1, XDATA, add(CFA_XSP16, literal(-10)))
        CFI (cfiCond63) V5 load(1, XDATA, add(CFA_XSP16, literal(-9)))
        CFI (cfiCond63) V6 load(1, XDATA, add(CFA_XSP16, literal(-8)))
        CFI (cfiCond63) V7 load(1, XDATA, add(CFA_XSP16, literal(-7)))
        CFI (cfiCond63) R7 load(1, XDATA, add(CFA_XSP16, literal(-6)))
        CFI (cfiCond63) ?RET_LOW load(1, XDATA, add(CFA_XSP16, literal(-5)))
        CFI (cfiCond63) ?RET_HIGH load(1, XDATA, add(CFA_XSP16, literal(-4)))
        CFI (cfiCond63) ?BRET_EXT load(1, XDATA, add(CFA_XSP16, literal(-3)))
        CFI (cfiCond63) DPL0 load(1, XDATA, add(CFA_XSP16, literal(-2)))
        CFI (cfiCond63) DPH0 load(1, XDATA, add(CFA_XSP16, literal(-1)))
        CFI (cfiCond63) CFA_SP SP+0
        CFI (cfiCond63) CFA_XSP16 add(XSP16, 50)
        CFI Block cfiPicker64 Using cfiCommon1
        CFI (cfiPicker64) NoFunction
        CFI (cfiPicker64) Picker
        MOV     R2,DPL
        MOV     R3,DPH
        CFI EndBlock cfiCond52
        CFI EndBlock cfiCond53
        CFI EndBlock cfiCond54
        CFI EndBlock cfiCond55
        CFI EndBlock cfiCond56
        CFI EndBlock cfiCond57
        CFI EndBlock cfiCond58
        CFI EndBlock cfiCond59
        CFI EndBlock cfiCond60
        CFI EndBlock cfiCond61
        CFI EndBlock cfiCond62
        CFI EndBlock cfiCond63
        CFI EndBlock cfiPicker64
        REQUIRE ??Subroutine62_0
        ; // Fall through to label ??Subroutine62_0

        RSEG BANKED_CODE:CODE:NOROOT(0)
??Subroutine62_0:
        CFI Block cfiCond65 Using cfiCommon0
        CFI NoFunction
        CFI Conditional ??CrossCallReturnLabel_105
        CFI R6 load(1, XDATA, add(CFA_XSP16, literal(-16)))
        CFI VB load(1, XDATA, add(CFA_XSP16, literal(-15)))
        CFI V0 load(1, XDATA, add(CFA_XSP16, literal(-14)))
        CFI V1 load(1, XDATA, add(CFA_XSP16, literal(-13)))
        CFI V2 load(1, XDATA, add(CFA_XSP16, literal(-12)))
        CFI V3 load(1, XDATA, add(CFA_XSP16, literal(-11)))
        CFI V4 load(1, XDATA, add(CFA_XSP16, literal(-10)))
        CFI V5 load(1, XDATA, add(CFA_XSP16, literal(-9)))
        CFI V6 load(1, XDATA, add(CFA_XSP16, literal(-8)))
        CFI V7 load(1, XDATA, add(CFA_XSP16, literal(-7)))
        CFI R7 load(1, XDATA, add(CFA_XSP16, literal(-6)))
        CFI ?RET_LOW load(1, XDATA, add(CFA_XSP16, literal(-5)))
        CFI ?RET_HIGH load(1, XDATA, add(CFA_XSP16, literal(-4)))
        CFI ?BRET_EXT load(1, XDATA, add(CFA_XSP16, literal(-3)))
        CFI DPL0 load(1, XDATA, add(CFA_XSP16, literal(-2)))
        CFI DPH0 load(1, XDATA, add(CFA_XSP16, literal(-1)))
        CFI CFA_SP SP+0
        CFI CFA_XSP16 add(XSP16, 19)
        CFI Block cfiCond66 Using cfiCommon0
        CFI (cfiCond66) NoFunction
        CFI (cfiCond66) Conditional ??CrossCallReturnLabel_106
        CFI (cfiCond66) R6 load(1, XDATA, add(CFA_XSP16, literal(-15)))
        CFI (cfiCond66) VB load(1, XDATA, add(CFA_XSP16, literal(-14)))
        CFI (cfiCond66) V0 load(1, XDATA, add(CFA_XSP16, literal(-13)))
        CFI (cfiCond66) V1 load(1, XDATA, add(CFA_XSP16, literal(-12)))
        CFI (cfiCond66) V2 load(1, XDATA, add(CFA_XSP16, literal(-11)))
        CFI (cfiCond66) V3 load(1, XDATA, add(CFA_XSP16, literal(-10)))
        CFI (cfiCond66) V4 load(1, XDATA, add(CFA_XSP16, literal(-9)))
        CFI (cfiCond66) V5 load(1, XDATA, add(CFA_XSP16, literal(-8)))
        CFI (cfiCond66) V6 load(1, XDATA, add(CFA_XSP16, literal(-7)))
        CFI (cfiCond66) R7 load(1, XDATA, add(CFA_XSP16, literal(-6)))
        CFI (cfiCond66) ?RET_LOW load(1, XDATA, add(CFA_XSP16, literal(-5)))
        CFI (cfiCond66) ?RET_HIGH load(1, XDATA, add(CFA_XSP16, literal(-4)))
        CFI (cfiCond66) ?BRET_EXT load(1, XDATA, add(CFA_XSP16, literal(-3)))
        CFI (cfiCond66) DPL0 load(1, XDATA, add(CFA_XSP16, literal(-2)))
        CFI (cfiCond66) DPH0 load(1, XDATA, add(CFA_XSP16, literal(-1)))
        CFI (cfiCond66) CFA_SP SP+0
        CFI (cfiCond66) CFA_XSP16 add(XSP16, 39)
        CFI Block cfiCond67 Using cfiCommon0
        CFI (cfiCond67) NoFunction
        CFI (cfiCond67) Conditional ??CrossCallReturnLabel_107
        CFI (cfiCond67) R6 load(1, XDATA, add(CFA_XSP16, literal(-16)))
        CFI (cfiCond67) VB load(1, XDATA, add(CFA_XSP16, literal(-15)))
        CFI (cfiCond67) V0 load(1, XDATA, add(CFA_XSP16, literal(-14)))
        CFI (cfiCond67) V1 load(1, XDATA, add(CFA_XSP16, literal(-13)))
        CFI (cfiCond67) V2 load(1, XDATA, add(CFA_XSP16, literal(-12)))
        CFI (cfiCond67) V3 load(1, XDATA, add(CFA_XSP16, literal(-11)))
        CFI (cfiCond67) V4 load(1, XDATA, add(CFA_XSP16, literal(-10)))
        CFI (cfiCond67) V5 load(1, XDATA, add(CFA_XSP16, literal(-9)))
        CFI (cfiCond67) V6 load(1, XDATA, add(CFA_XSP16, literal(-8)))
        CFI (cfiCond67) V7 load(1, XDATA, add(CFA_XSP16, literal(-7)))
        CFI (cfiCond67) R7 load(1, XDATA, add(CFA_XSP16, literal(-6)))
        CFI (cfiCond67) ?RET_LOW load(1, XDATA, add(CFA_XSP16, literal(-5)))
        CFI (cfiCond67) ?RET_HIGH load(1, XDATA, add(CFA_XSP16, literal(-4)))
        CFI (cfiCond67) ?BRET_EXT load(1, XDATA, add(CFA_XSP16, literal(-3)))
        CFI (cfiCond67) DPL0 load(1, XDATA, add(CFA_XSP16, literal(-2)))
        CFI (cfiCond67) DPH0 load(1, XDATA, add(CFA_XSP16, literal(-1)))
        CFI (cfiCond67) CFA_SP SP+0
        CFI (cfiCond67) CFA_XSP16 add(XSP16, 40)
        CFI Block cfiCond68 Using cfiCommon0
        CFI (cfiCond68) NoFunction
        CFI (cfiCond68) Conditional ??CrossCallReturnLabel_108
        CFI (cfiCond68) R6 load(1, XDATA, add(CFA_XSP16, literal(-17)))
        CFI (cfiCond68) VB load(1, XDATA, add(CFA_XSP16, literal(-16)))
        CFI (cfiCond68) V0 load(1, XDATA, add(CFA_XSP16, literal(-15)))
        CFI (cfiCond68) V1 load(1, XDATA, add(CFA_XSP16, literal(-14)))
        CFI (cfiCond68) V2 load(1, XDATA, add(CFA_XSP16, literal(-13)))
        CFI (cfiCond68) V3 load(1, XDATA, add(CFA_XSP16, literal(-12)))
        CFI (cfiCond68) V4 load(1, XDATA, add(CFA_XSP16, literal(-11)))
        CFI (cfiCond68) V5 load(1, XDATA, add(CFA_XSP16, literal(-10)))
        CFI (cfiCond68) V6 load(1, XDATA, add(CFA_XSP16, literal(-9)))
        CFI (cfiCond68) V7 load(1, XDATA, add(CFA_XSP16, literal(-8)))
        CFI (cfiCond68) V8 load(1, XDATA, add(CFA_XSP16, literal(-7)))
        CFI (cfiCond68) R7 load(1, XDATA, add(CFA_XSP16, literal(-6)))
        CFI (cfiCond68) ?RET_LOW load(1, XDATA, add(CFA_XSP16, literal(-5)))
        CFI (cfiCond68) ?RET_HIGH load(1, XDATA, add(CFA_XSP16, literal(-4)))
        CFI (cfiCond68) ?BRET_EXT load(1, XDATA, add(CFA_XSP16, literal(-3)))
        CFI (cfiCond68) DPL0 load(1, XDATA, add(CFA_XSP16, literal(-2)))
        CFI (cfiCond68) DPH0 load(1, XDATA, add(CFA_XSP16, literal(-1)))
        CFI (cfiCond68) CFA_SP SP+0
        CFI (cfiCond68) CFA_XSP16 add(XSP16, 20)
        CFI Block cfiCond69 Using cfiCommon0
        CFI (cfiCond69) NoFunction
        CFI (cfiCond69) Conditional ??CrossCallReturnLabel_109
        CFI (cfiCond69) R6 load(1, XDATA, add(CFA_XSP16, literal(-17)))
        CFI (cfiCond69) VB load(1, XDATA, add(CFA_XSP16, literal(-16)))
        CFI (cfiCond69) V0 load(1, XDATA, add(CFA_XSP16, literal(-15)))
        CFI (cfiCond69) V1 load(1, XDATA, add(CFA_XSP16, literal(-14)))
        CFI (cfiCond69) V2 load(1, XDATA, add(CFA_XSP16, literal(-13)))
        CFI (cfiCond69) V3 load(1, XDATA, add(CFA_XSP16, literal(-12)))
        CFI (cfiCond69) V4 load(1, XDATA, add(CFA_XSP16, literal(-11)))
        CFI (cfiCond69) V5 load(1, XDATA, add(CFA_XSP16, literal(-10)))
        CFI (cfiCond69) V6 load(1, XDATA, add(CFA_XSP16, literal(-9)))
        CFI (cfiCond69) V7 load(1, XDATA, add(CFA_XSP16, literal(-8)))
        CFI (cfiCond69) V8 load(1, XDATA, add(CFA_XSP16, literal(-7)))
        CFI (cfiCond69) R7 load(1, XDATA, add(CFA_XSP16, literal(-6)))
        CFI (cfiCond69) ?RET_LOW load(1, XDATA, add(CFA_XSP16, literal(-5)))
        CFI (cfiCond69) ?RET_HIGH load(1, XDATA, add(CFA_XSP16, literal(-4)))
        CFI (cfiCond69) ?BRET_EXT load(1, XDATA, add(CFA_XSP16, literal(-3)))
        CFI (cfiCond69) DPL0 load(1, XDATA, add(CFA_XSP16, literal(-2)))
        CFI (cfiCond69) DPH0 load(1, XDATA, add(CFA_XSP16, literal(-1)))
        CFI (cfiCond69) CFA_SP SP+0
        CFI (cfiCond69) CFA_XSP16 add(XSP16, 20)
        CFI Block cfiCond70 Using cfiCommon0
        CFI (cfiCond70) NoFunction
        CFI (cfiCond70) Conditional ??CrossCallReturnLabel_110
        CFI (cfiCond70) R6 load(1, XDATA, add(CFA_XSP16, literal(-17)))
        CFI (cfiCond70) VB load(1, XDATA, add(CFA_XSP16, literal(-16)))
        CFI (cfiCond70) V0 load(1, XDATA, add(CFA_XSP16, literal(-15)))
        CFI (cfiCond70) V1 load(1, XDATA, add(CFA_XSP16, literal(-14)))
        CFI (cfiCond70) V2 load(1, XDATA, add(CFA_XSP16, literal(-13)))
        CFI (cfiCond70) V3 load(1, XDATA, add(CFA_XSP16, literal(-12)))
        CFI (cfiCond70) V4 load(1, XDATA, add(CFA_XSP16, literal(-11)))
        CFI (cfiCond70) V5 load(1, XDATA, add(CFA_XSP16, literal(-10)))
        CFI (cfiCond70) V6 load(1, XDATA, add(CFA_XSP16, literal(-9)))
        CFI (cfiCond70) V7 load(1, XDATA, add(CFA_XSP16, literal(-8)))
        CFI (cfiCond70) V8 load(1, XDATA, add(CFA_XSP16, literal(-7)))
        CFI (cfiCond70) R7 load(1, XDATA, add(CFA_XSP16, literal(-6)))
        CFI (cfiCond70) ?RET_LOW load(1, XDATA, add(CFA_XSP16, literal(-5)))
        CFI (cfiCond70) ?RET_HIGH load(1, XDATA, add(CFA_XSP16, literal(-4)))
        CFI (cfiCond70) ?BRET_EXT load(1, XDATA, add(CFA_XSP16, literal(-3)))
        CFI (cfiCond70) DPL0 load(1, XDATA, add(CFA_XSP16, literal(-2)))
        CFI (cfiCond70) DPH0 load(1, XDATA, add(CFA_XSP16, literal(-1)))
        CFI (cfiCond70) CFA_SP SP+0
        CFI (cfiCond70) CFA_XSP16 add(XSP16, 20)
        CFI Block cfiCond71 Using cfiCommon0
        CFI (cfiCond71) NoFunction
        CFI (cfiCond71) Conditional ??CrossCallReturnLabel_111
        CFI (cfiCond71) R6 load(1, XDATA, add(CFA_XSP16, literal(-16)))
        CFI (cfiCond71) VB load(1, XDATA, add(CFA_XSP16, literal(-15)))
        CFI (cfiCond71) V0 load(1, XDATA, add(CFA_XSP16, literal(-14)))
        CFI (cfiCond71) V1 load(1, XDATA, add(CFA_XSP16, literal(-13)))
        CFI (cfiCond71) V2 load(1, XDATA, add(CFA_XSP16, literal(-12)))
        CFI (cfiCond71) V3 load(1, XDATA, add(CFA_XSP16, literal(-11)))
        CFI (cfiCond71) V4 load(1, XDATA, add(CFA_XSP16, literal(-10)))
        CFI (cfiCond71) V5 load(1, XDATA, add(CFA_XSP16, literal(-9)))
        CFI (cfiCond71) V6 load(1, XDATA, add(CFA_XSP16, literal(-8)))
        CFI (cfiCond71) V7 load(1, XDATA, add(CFA_XSP16, literal(-7)))
        CFI (cfiCond71) R7 load(1, XDATA, add(CFA_XSP16, literal(-6)))
        CFI (cfiCond71) ?RET_LOW load(1, XDATA, add(CFA_XSP16, literal(-5)))
        CFI (cfiCond71) ?RET_HIGH load(1, XDATA, add(CFA_XSP16, literal(-4)))
        CFI (cfiCond71) ?BRET_EXT load(1, XDATA, add(CFA_XSP16, literal(-3)))
        CFI (cfiCond71) DPL0 load(1, XDATA, add(CFA_XSP16, literal(-2)))
        CFI (cfiCond71) DPH0 load(1, XDATA, add(CFA_XSP16, literal(-1)))
        CFI (cfiCond71) CFA_SP SP+0
        CFI (cfiCond71) CFA_XSP16 add(XSP16, 19)
        CFI Block cfiCond72 Using cfiCommon0
        CFI (cfiCond72) NoFunction
        CFI (cfiCond72) Conditional ??CrossCallReturnLabel_112
        CFI (cfiCond72) R6 load(1, XDATA, add(CFA_XSP16, literal(-16)))
        CFI (cfiCond72) VB load(1, XDATA, add(CFA_XSP16, literal(-15)))
        CFI (cfiCond72) V0 load(1, XDATA, add(CFA_XSP16, literal(-14)))
        CFI (cfiCond72) V1 load(1, XDATA, add(CFA_XSP16, literal(-13)))
        CFI (cfiCond72) V2 load(1, XDATA, add(CFA_XSP16, literal(-12)))
        CFI (cfiCond72) V3 load(1, XDATA, add(CFA_XSP16, literal(-11)))
        CFI (cfiCond72) V4 load(1, XDATA, add(CFA_XSP16, literal(-10)))
        CFI (cfiCond72) V5 load(1, XDATA, add(CFA_XSP16, literal(-9)))
        CFI (cfiCond72) V6 load(1, XDATA, add(CFA_XSP16, literal(-8)))
        CFI (cfiCond72) V7 load(1, XDATA, add(CFA_XSP16, literal(-7)))
        CFI (cfiCond72) R7 load(1, XDATA, add(CFA_XSP16, literal(-6)))
        CFI (cfiCond72) ?RET_LOW load(1, XDATA, add(CFA_XSP16, literal(-5)))
        CFI (cfiCond72) ?RET_HIGH load(1, XDATA, add(CFA_XSP16, literal(-4)))
        CFI (cfiCond72) ?BRET_EXT load(1, XDATA, add(CFA_XSP16, literal(-3)))
        CFI (cfiCond72) DPL0 load(1, XDATA, add(CFA_XSP16, literal(-2)))
        CFI (cfiCond72) DPH0 load(1, XDATA, add(CFA_XSP16, literal(-1)))
        CFI (cfiCond72) CFA_SP SP+0
        CFI (cfiCond72) CFA_XSP16 add(XSP16, 19)
        CFI Block cfiCond73 Using cfiCommon0
        CFI (cfiCond73) NoFunction
        CFI (cfiCond73) Conditional ??CrossCallReturnLabel_113
        CFI (cfiCond73) R6 load(1, XDATA, add(CFA_XSP16, literal(-20)))
        CFI (cfiCond73) VB load(1, XDATA, add(CFA_XSP16, literal(-19)))
        CFI (cfiCond73) V0 load(1, XDATA, add(CFA_XSP16, literal(-18)))
        CFI (cfiCond73) V1 load(1, XDATA, add(CFA_XSP16, literal(-17)))
        CFI (cfiCond73) V2 load(1, XDATA, add(CFA_XSP16, literal(-16)))
        CFI (cfiCond73) V3 load(1, XDATA, add(CFA_XSP16, literal(-15)))
        CFI (cfiCond73) V4 load(1, XDATA, add(CFA_XSP16, literal(-14)))
        CFI (cfiCond73) V5 load(1, XDATA, add(CFA_XSP16, literal(-13)))
        CFI (cfiCond73) V6 load(1, XDATA, add(CFA_XSP16, literal(-12)))
        CFI (cfiCond73) V7 load(1, XDATA, add(CFA_XSP16, literal(-11)))
        CFI (cfiCond73) V8 load(1, XDATA, add(CFA_XSP16, literal(-10)))
        CFI (cfiCond73) V9 load(1, XDATA, add(CFA_XSP16, literal(-9)))
        CFI (cfiCond73) V10 load(1, XDATA, add(CFA_XSP16, literal(-8)))
        CFI (cfiCond73) V11 load(1, XDATA, add(CFA_XSP16, literal(-7)))
        CFI (cfiCond73) R7 load(1, XDATA, add(CFA_XSP16, literal(-6)))
        CFI (cfiCond73) ?RET_LOW load(1, XDATA, add(CFA_XSP16, literal(-5)))
        CFI (cfiCond73) ?RET_HIGH load(1, XDATA, add(CFA_XSP16, literal(-4)))
        CFI (cfiCond73) ?BRET_EXT load(1, XDATA, add(CFA_XSP16, literal(-3)))
        CFI (cfiCond73) DPL0 load(1, XDATA, add(CFA_XSP16, literal(-2)))
        CFI (cfiCond73) DPH0 load(1, XDATA, add(CFA_XSP16, literal(-1)))
        CFI (cfiCond73) CFA_SP SP+0
        CFI (cfiCond73) CFA_XSP16 add(XSP16, 24)
        CFI Block cfiCond74 Using cfiCommon0
        CFI (cfiCond74) NoFunction
        CFI (cfiCond74) Conditional ??CrossCallReturnLabel_118
        CFI (cfiCond74) R6 load(1, XDATA, add(CFA_XSP16, literal(-24)))
        CFI (cfiCond74) VB load(1, XDATA, add(CFA_XSP16, literal(-23)))
        CFI (cfiCond74) V0 load(1, XDATA, add(CFA_XSP16, literal(-22)))
        CFI (cfiCond74) V1 load(1, XDATA, add(CFA_XSP16, literal(-21)))
        CFI (cfiCond74) V2 load(1, XDATA, add(CFA_XSP16, literal(-20)))
        CFI (cfiCond74) V3 load(1, XDATA, add(CFA_XSP16, literal(-19)))
        CFI (cfiCond74) V4 load(1, XDATA, add(CFA_XSP16, literal(-18)))
        CFI (cfiCond74) V5 load(1, XDATA, add(CFA_XSP16, literal(-17)))
        CFI (cfiCond74) V6 load(1, XDATA, add(CFA_XSP16, literal(-16)))
        CFI (cfiCond74) V7 load(1, XDATA, add(CFA_XSP16, literal(-15)))
        CFI (cfiCond74) V8 load(1, XDATA, add(CFA_XSP16, literal(-14)))
        CFI (cfiCond74) V9 load(1, XDATA, add(CFA_XSP16, literal(-13)))
        CFI (cfiCond74) V10 load(1, XDATA, add(CFA_XSP16, literal(-12)))
        CFI (cfiCond74) V11 load(1, XDATA, add(CFA_XSP16, literal(-11)))
        CFI (cfiCond74) V12 load(1, XDATA, add(CFA_XSP16, literal(-10)))
        CFI (cfiCond74) V13 load(1, XDATA, add(CFA_XSP16, literal(-9)))
        CFI (cfiCond74) V14 load(1, XDATA, add(CFA_XSP16, literal(-8)))
        CFI (cfiCond74) V15 load(1, XDATA, add(CFA_XSP16, literal(-7)))
        CFI (cfiCond74) R7 load(1, XDATA, add(CFA_XSP16, literal(-6)))
        CFI (cfiCond74) ?RET_LOW load(1, XDATA, add(CFA_XSP16, literal(-5)))
        CFI (cfiCond74) ?RET_HIGH load(1, XDATA, add(CFA_XSP16, literal(-4)))
        CFI (cfiCond74) ?BRET_EXT load(1, XDATA, add(CFA_XSP16, literal(-3)))
        CFI (cfiCond74) DPL0 load(1, XDATA, add(CFA_XSP16, literal(-2)))
        CFI (cfiCond74) DPH0 load(1, XDATA, add(CFA_XSP16, literal(-1)))
        CFI (cfiCond74) CFA_SP SP+0
        CFI (cfiCond74) CFA_XSP16 add(XSP16, 95)
        CFI Block cfiCond75 Using cfiCommon0
        CFI (cfiCond75) NoFunction
        CFI (cfiCond75) Conditional ??CrossCallReturnLabel_114
        CFI (cfiCond75) R6 load(1, XDATA, add(CFA_XSP16, literal(-24)))
        CFI (cfiCond75) VB load(1, XDATA, add(CFA_XSP16, literal(-23)))
        CFI (cfiCond75) V0 load(1, XDATA, add(CFA_XSP16, literal(-22)))
        CFI (cfiCond75) V1 load(1, XDATA, add(CFA_XSP16, literal(-21)))
        CFI (cfiCond75) V2 load(1, XDATA, add(CFA_XSP16, literal(-20)))
        CFI (cfiCond75) V3 load(1, XDATA, add(CFA_XSP16, literal(-19)))
        CFI (cfiCond75) V4 load(1, XDATA, add(CFA_XSP16, literal(-18)))
        CFI (cfiCond75) V5 load(1, XDATA, add(CFA_XSP16, literal(-17)))
        CFI (cfiCond75) V6 load(1, XDATA, add(CFA_XSP16, literal(-16)))
        CFI (cfiCond75) V7 load(1, XDATA, add(CFA_XSP16, literal(-15)))
        CFI (cfiCond75) V8 load(1, XDATA, add(CFA_XSP16, literal(-14)))
        CFI (cfiCond75) V9 load(1, XDATA, add(CFA_XSP16, literal(-13)))
        CFI (cfiCond75) V10 load(1, XDATA, add(CFA_XSP16, literal(-12)))
        CFI (cfiCond75) V11 load(1, XDATA, add(CFA_XSP16, literal(-11)))
        CFI (cfiCond75) V12 load(1, XDATA, add(CFA_XSP16, literal(-10)))
        CFI (cfiCond75) V13 load(1, XDATA, add(CFA_XSP16, literal(-9)))
        CFI (cfiCond75) V14 load(1, XDATA, add(CFA_XSP16, literal(-8)))
        CFI (cfiCond75) V15 load(1, XDATA, add(CFA_XSP16, literal(-7)))
        CFI (cfiCond75) R7 load(1, XDATA, add(CFA_XSP16, literal(-6)))
        CFI (cfiCond75) ?RET_LOW load(1, XDATA, add(CFA_XSP16, literal(-5)))
        CFI (cfiCond75) ?RET_HIGH load(1, XDATA, add(CFA_XSP16, literal(-4)))
        CFI (cfiCond75) ?BRET_EXT load(1, XDATA, add(CFA_XSP16, literal(-3)))
        CFI (cfiCond75) DPL0 load(1, XDATA, add(CFA_XSP16, literal(-2)))
        CFI (cfiCond75) DPH0 load(1, XDATA, add(CFA_XSP16, literal(-1)))
        CFI (cfiCond75) CFA_SP SP+0
        CFI (cfiCond75) CFA_XSP16 add(XSP16, 95)
        CFI Block cfiCond76 Using cfiCommon0
        CFI (cfiCond76) NoFunction
        CFI (cfiCond76) Conditional ??CrossCallReturnLabel_115
        CFI (cfiCond76) R6 load(1, XDATA, add(CFA_XSP16, literal(-24)))
        CFI (cfiCond76) VB load(1, XDATA, add(CFA_XSP16, literal(-23)))
        CFI (cfiCond76) V0 load(1, XDATA, add(CFA_XSP16, literal(-22)))
        CFI (cfiCond76) V1 load(1, XDATA, add(CFA_XSP16, literal(-21)))
        CFI (cfiCond76) V2 load(1, XDATA, add(CFA_XSP16, literal(-20)))
        CFI (cfiCond76) V3 load(1, XDATA, add(CFA_XSP16, literal(-19)))
        CFI (cfiCond76) V4 load(1, XDATA, add(CFA_XSP16, literal(-18)))
        CFI (cfiCond76) V5 load(1, XDATA, add(CFA_XSP16, literal(-17)))
        CFI (cfiCond76) V6 load(1, XDATA, add(CFA_XSP16, literal(-16)))
        CFI (cfiCond76) V7 load(1, XDATA, add(CFA_XSP16, literal(-15)))
        CFI (cfiCond76) V8 load(1, XDATA, add(CFA_XSP16, literal(-14)))
        CFI (cfiCond76) V9 load(1, XDATA, add(CFA_XSP16, literal(-13)))
        CFI (cfiCond76) V10 load(1, XDATA, add(CFA_XSP16, literal(-12)))
        CFI (cfiCond76) V11 load(1, XDATA, add(CFA_XSP16, literal(-11)))
        CFI (cfiCond76) V12 load(1, XDATA, add(CFA_XSP16, literal(-10)))
        CFI (cfiCond76) V13 load(1, XDATA, add(CFA_XSP16, literal(-9)))
        CFI (cfiCond76) V14 load(1, XDATA, add(CFA_XSP16, literal(-8)))
        CFI (cfiCond76) V15 load(1, XDATA, add(CFA_XSP16, literal(-7)))
        CFI (cfiCond76) R7 load(1, XDATA, add(CFA_XSP16, literal(-6)))
        CFI (cfiCond76) ?RET_LOW load(1, XDATA, add(CFA_XSP16, literal(-5)))
        CFI (cfiCond76) ?RET_HIGH load(1, XDATA, add(CFA_XSP16, literal(-4)))
        CFI (cfiCond76) ?BRET_EXT load(1, XDATA, add(CFA_XSP16, literal(-3)))
        CFI (cfiCond76) DPL0 load(1, XDATA, add(CFA_XSP16, literal(-2)))
        CFI (cfiCond76) DPH0 load(1, XDATA, add(CFA_XSP16, literal(-1)))
        CFI (cfiCond76) CFA_SP SP+0
        CFI (cfiCond76) CFA_XSP16 add(XSP16, 95)
        CFI Block cfiCond77 Using cfiCommon0
        CFI (cfiCond77) NoFunction
        CFI (cfiCond77) Conditional ??CrossCallReturnLabel_116
        CFI (cfiCond77) R6 load(1, XDATA, add(CFA_XSP16, literal(-24)))
        CFI (cfiCond77) VB load(1, XDATA, add(CFA_XSP16, literal(-23)))
        CFI (cfiCond77) V0 load(1, XDATA, add(CFA_XSP16, literal(-22)))
        CFI (cfiCond77) V1 load(1, XDATA, add(CFA_XSP16, literal(-21)))
        CFI (cfiCond77) V2 load(1, XDATA, add(CFA_XSP16, literal(-20)))
        CFI (cfiCond77) V3 load(1, XDATA, add(CFA_XSP16, literal(-19)))
        CFI (cfiCond77) V4 load(1, XDATA, add(CFA_XSP16, literal(-18)))
        CFI (cfiCond77) V5 load(1, XDATA, add(CFA_XSP16, literal(-17)))
        CFI (cfiCond77) V6 load(1, XDATA, add(CFA_XSP16, literal(-16)))
        CFI (cfiCond77) V7 load(1, XDATA, add(CFA_XSP16, literal(-15)))
        CFI (cfiCond77) V8 load(1, XDATA, add(CFA_XSP16, literal(-14)))
        CFI (cfiCond77) V9 load(1, XDATA, add(CFA_XSP16, literal(-13)))
        CFI (cfiCond77) V10 load(1, XDATA, add(CFA_XSP16, literal(-12)))
        CFI (cfiCond77) V11 load(1, XDATA, add(CFA_XSP16, literal(-11)))
        CFI (cfiCond77) V12 load(1, XDATA, add(CFA_XSP16, literal(-10)))
        CFI (cfiCond77) V13 load(1, XDATA, add(CFA_XSP16, literal(-9)))
        CFI (cfiCond77) V14 load(1, XDATA, add(CFA_XSP16, literal(-8)))
        CFI (cfiCond77) V15 load(1, XDATA, add(CFA_XSP16, literal(-7)))
        CFI (cfiCond77) R7 load(1, XDATA, add(CFA_XSP16, literal(-6)))
        CFI (cfiCond77) ?RET_LOW load(1, XDATA, add(CFA_XSP16, literal(-5)))
        CFI (cfiCond77) ?RET_HIGH load(1, XDATA, add(CFA_XSP16, literal(-4)))
        CFI (cfiCond77) ?BRET_EXT load(1, XDATA, add(CFA_XSP16, literal(-3)))
        CFI (cfiCond77) DPL0 load(1, XDATA, add(CFA_XSP16, literal(-2)))
        CFI (cfiCond77) DPH0 load(1, XDATA, add(CFA_XSP16, literal(-1)))
        CFI (cfiCond77) CFA_SP SP+0
        CFI (cfiCond77) CFA_XSP16 add(XSP16, 95)
        CFI Block cfiCond78 Using cfiCommon0
        CFI (cfiCond78) NoFunction
        CFI (cfiCond78) Conditional ??CrossCallReturnLabel_117
        CFI (cfiCond78) R6 load(1, XDATA, add(CFA_XSP16, literal(-24)))
        CFI (cfiCond78) VB load(1, XDATA, add(CFA_XSP16, literal(-23)))
        CFI (cfiCond78) V0 load(1, XDATA, add(CFA_XSP16, literal(-22)))
        CFI (cfiCond78) V1 load(1, XDATA, add(CFA_XSP16, literal(-21)))
        CFI (cfiCond78) V2 load(1, XDATA, add(CFA_XSP16, literal(-20)))
        CFI (cfiCond78) V3 load(1, XDATA, add(CFA_XSP16, literal(-19)))
        CFI (cfiCond78) V4 load(1, XDATA, add(CFA_XSP16, literal(-18)))
        CFI (cfiCond78) V5 load(1, XDATA, add(CFA_XSP16, literal(-17)))
        CFI (cfiCond78) V6 load(1, XDATA, add(CFA_XSP16, literal(-16)))
        CFI (cfiCond78) V7 load(1, XDATA, add(CFA_XSP16, literal(-15)))
        CFI (cfiCond78) V8 load(1, XDATA, add(CFA_XSP16, literal(-14)))
        CFI (cfiCond78) V9 load(1, XDATA, add(CFA_XSP16, literal(-13)))
        CFI (cfiCond78) V10 load(1, XDATA, add(CFA_XSP16, literal(-12)))
        CFI (cfiCond78) V11 load(1, XDATA, add(CFA_XSP16, literal(-11)))
        CFI (cfiCond78) V12 load(1, XDATA, add(CFA_XSP16, literal(-10)))
        CFI (cfiCond78) V13 load(1, XDATA, add(CFA_XSP16, literal(-9)))
        CFI (cfiCond78) V14 load(1, XDATA, add(CFA_XSP16, literal(-8)))
        CFI (cfiCond78) V15 load(1, XDATA, add(CFA_XSP16, literal(-7)))
        CFI (cfiCond78) R7 load(1, XDATA, add(CFA_XSP16, literal(-6)))
        CFI (cfiCond78) ?RET_LOW load(1, XDATA, add(CFA_XSP16, literal(-5)))
        CFI (cfiCond78) ?RET_HIGH load(1, XDATA, add(CFA_XSP16, literal(-4)))
        CFI (cfiCond78) ?BRET_EXT load(1, XDATA, add(CFA_XSP16, literal(-3)))
        CFI (cfiCond78) DPL0 load(1, XDATA, add(CFA_XSP16, literal(-2)))
        CFI (cfiCond78) DPH0 load(1, XDATA, add(CFA_XSP16, literal(-1)))
        CFI (cfiCond78) CFA_SP SP+0
        CFI (cfiCond78) CFA_XSP16 add(XSP16, 95)
        CFI Block cfiCond79 Using cfiCommon0
        CFI (cfiCond79) NoFunction
        CFI (cfiCond79) Conditional ??CrossCallReturnLabel_93
        CFI (cfiCond79) R6 load(1, XDATA, add(CFA_XSP16, literal(-15)))
        CFI (cfiCond79) VB load(1, XDATA, add(CFA_XSP16, literal(-14)))
        CFI (cfiCond79) V0 load(1, XDATA, add(CFA_XSP16, literal(-13)))
        CFI (cfiCond79) V1 load(1, XDATA, add(CFA_XSP16, literal(-12)))
        CFI (cfiCond79) V2 load(1, XDATA, add(CFA_XSP16, literal(-11)))
        CFI (cfiCond79) V3 load(1, XDATA, add(CFA_XSP16, literal(-10)))
        CFI (cfiCond79) V4 load(1, XDATA, add(CFA_XSP16, literal(-9)))
        CFI (cfiCond79) V5 load(1, XDATA, add(CFA_XSP16, literal(-8)))
        CFI (cfiCond79) V6 load(1, XDATA, add(CFA_XSP16, literal(-7)))
        CFI (cfiCond79) R7 load(1, XDATA, add(CFA_XSP16, literal(-6)))
        CFI (cfiCond79) ?RET_LOW load(1, XDATA, add(CFA_XSP16, literal(-5)))
        CFI (cfiCond79) ?RET_HIGH load(1, XDATA, add(CFA_XSP16, literal(-4)))
        CFI (cfiCond79) ?BRET_EXT load(1, XDATA, add(CFA_XSP16, literal(-3)))
        CFI (cfiCond79) DPL0 load(1, XDATA, add(CFA_XSP16, literal(-2)))
        CFI (cfiCond79) DPH0 load(1, XDATA, add(CFA_XSP16, literal(-1)))
        CFI (cfiCond79) CFA_SP SP+0
        CFI (cfiCond79) CFA_XSP16 add(XSP16, 39)
        CFI Block cfiCond80 Using cfiCommon0
        CFI (cfiCond80) NoFunction
        CFI (cfiCond80) Conditional ??CrossCallReturnLabel_94
        CFI (cfiCond80) R6 load(1, XDATA, add(CFA_XSP16, literal(-16)))
        CFI (cfiCond80) VB load(1, XDATA, add(CFA_XSP16, literal(-15)))
        CFI (cfiCond80) V0 load(1, XDATA, add(CFA_XSP16, literal(-14)))
        CFI (cfiCond80) V1 load(1, XDATA, add(CFA_XSP16, literal(-13)))
        CFI (cfiCond80) V2 load(1, XDATA, add(CFA_XSP16, literal(-12)))
        CFI (cfiCond80) V3 load(1, XDATA, add(CFA_XSP16, literal(-11)))
        CFI (cfiCond80) V4 load(1, XDATA, add(CFA_XSP16, literal(-10)))
        CFI (cfiCond80) V5 load(1, XDATA, add(CFA_XSP16, literal(-9)))
        CFI (cfiCond80) V6 load(1, XDATA, add(CFA_XSP16, literal(-8)))
        CFI (cfiCond80) V7 load(1, XDATA, add(CFA_XSP16, literal(-7)))
        CFI (cfiCond80) R7 load(1, XDATA, add(CFA_XSP16, literal(-6)))
        CFI (cfiCond80) ?RET_LOW load(1, XDATA, add(CFA_XSP16, literal(-5)))
        CFI (cfiCond80) ?RET_HIGH load(1, XDATA, add(CFA_XSP16, literal(-4)))
        CFI (cfiCond80) ?BRET_EXT load(1, XDATA, add(CFA_XSP16, literal(-3)))
        CFI (cfiCond80) DPL0 load(1, XDATA, add(CFA_XSP16, literal(-2)))
        CFI (cfiCond80) DPH0 load(1, XDATA, add(CFA_XSP16, literal(-1)))
        CFI (cfiCond80) CFA_SP SP+0
        CFI (cfiCond80) CFA_XSP16 add(XSP16, 40)
        CFI Block cfiCond81 Using cfiCommon0
        CFI (cfiCond81) NoFunction
        CFI (cfiCond81) Conditional ??CrossCallReturnLabel_95
        CFI (cfiCond81) R6 load(1, XDATA, add(CFA_XSP16, literal(-16)))
        CFI (cfiCond81) VB load(1, XDATA, add(CFA_XSP16, literal(-15)))
        CFI (cfiCond81) V0 load(1, XDATA, add(CFA_XSP16, literal(-14)))
        CFI (cfiCond81) V1 load(1, XDATA, add(CFA_XSP16, literal(-13)))
        CFI (cfiCond81) V2 load(1, XDATA, add(CFA_XSP16, literal(-12)))
        CFI (cfiCond81) V3 load(1, XDATA, add(CFA_XSP16, literal(-11)))
        CFI (cfiCond81) V4 load(1, XDATA, add(CFA_XSP16, literal(-10)))
        CFI (cfiCond81) V5 load(1, XDATA, add(CFA_XSP16, literal(-9)))
        CFI (cfiCond81) V6 load(1, XDATA, add(CFA_XSP16, literal(-8)))
        CFI (cfiCond81) V7 load(1, XDATA, add(CFA_XSP16, literal(-7)))
        CFI (cfiCond81) R7 load(1, XDATA, add(CFA_XSP16, literal(-6)))
        CFI (cfiCond81) ?RET_LOW load(1, XDATA, add(CFA_XSP16, literal(-5)))
        CFI (cfiCond81) ?RET_HIGH load(1, XDATA, add(CFA_XSP16, literal(-4)))
        CFI (cfiCond81) ?BRET_EXT load(1, XDATA, add(CFA_XSP16, literal(-3)))
        CFI (cfiCond81) DPL0 load(1, XDATA, add(CFA_XSP16, literal(-2)))
        CFI (cfiCond81) DPH0 load(1, XDATA, add(CFA_XSP16, literal(-1)))
        CFI (cfiCond81) CFA_SP SP+0
        CFI (cfiCond81) CFA_XSP16 add(XSP16, 40)
        CFI Block cfiCond82 Using cfiCommon0
        CFI (cfiCond82) NoFunction
        CFI (cfiCond82) Conditional ??CrossCallReturnLabel_96
        CFI (cfiCond82) R6 load(1, XDATA, add(CFA_XSP16, literal(-15)))
        CFI (cfiCond82) VB load(1, XDATA, add(CFA_XSP16, literal(-14)))
        CFI (cfiCond82) V0 load(1, XDATA, add(CFA_XSP16, literal(-13)))
        CFI (cfiCond82) V1 load(1, XDATA, add(CFA_XSP16, literal(-12)))
        CFI (cfiCond82) V2 load(1, XDATA, add(CFA_XSP16, literal(-11)))
        CFI (cfiCond82) V3 load(1, XDATA, add(CFA_XSP16, literal(-10)))
        CFI (cfiCond82) V4 load(1, XDATA, add(CFA_XSP16, literal(-9)))
        CFI (cfiCond82) V5 load(1, XDATA, add(CFA_XSP16, literal(-8)))
        CFI (cfiCond82) V6 load(1, XDATA, add(CFA_XSP16, literal(-7)))
        CFI (cfiCond82) R7 load(1, XDATA, add(CFA_XSP16, literal(-6)))
        CFI (cfiCond82) ?RET_LOW load(1, XDATA, add(CFA_XSP16, literal(-5)))
        CFI (cfiCond82) ?RET_HIGH load(1, XDATA, add(CFA_XSP16, literal(-4)))
        CFI (cfiCond82) ?BRET_EXT load(1, XDATA, add(CFA_XSP16, literal(-3)))
        CFI (cfiCond82) DPL0 load(1, XDATA, add(CFA_XSP16, literal(-2)))
        CFI (cfiCond82) DPH0 load(1, XDATA, add(CFA_XSP16, literal(-1)))
        CFI (cfiCond82) CFA_SP SP+0
        CFI (cfiCond82) CFA_XSP16 add(XSP16, 49)
        CFI Block cfiCond83 Using cfiCommon0
        CFI (cfiCond83) NoFunction
        CFI (cfiCond83) Conditional ??CrossCallReturnLabel_97
        CFI (cfiCond83) R6 load(1, XDATA, add(CFA_XSP16, literal(-11)))
        CFI (cfiCond83) VB load(1, XDATA, add(CFA_XSP16, literal(-10)))
        CFI (cfiCond83) V0 load(1, XDATA, add(CFA_XSP16, literal(-9)))
        CFI (cfiCond83) V1 load(1, XDATA, add(CFA_XSP16, literal(-8)))
        CFI (cfiCond83) V2 load(1, XDATA, add(CFA_XSP16, literal(-7)))
        CFI (cfiCond83) R7 load(1, XDATA, add(CFA_XSP16, literal(-6)))
        CFI (cfiCond83) ?RET_LOW load(1, XDATA, add(CFA_XSP16, literal(-5)))
        CFI (cfiCond83) ?RET_HIGH load(1, XDATA, add(CFA_XSP16, literal(-4)))
        CFI (cfiCond83) ?BRET_EXT load(1, XDATA, add(CFA_XSP16, literal(-3)))
        CFI (cfiCond83) DPL0 load(1, XDATA, add(CFA_XSP16, literal(-2)))
        CFI (cfiCond83) DPH0 load(1, XDATA, add(CFA_XSP16, literal(-1)))
        CFI (cfiCond83) CFA_SP SP+0
        CFI (cfiCond83) CFA_XSP16 add(XSP16, 23)
        CFI Block cfiCond84 Using cfiCommon0
        CFI (cfiCond84) NoFunction
        CFI (cfiCond84) Conditional ??CrossCallReturnLabel_98
        CFI (cfiCond84) R6 load(1, XDATA, add(CFA_XSP16, literal(-11)))
        CFI (cfiCond84) VB load(1, XDATA, add(CFA_XSP16, literal(-10)))
        CFI (cfiCond84) V0 load(1, XDATA, add(CFA_XSP16, literal(-9)))
        CFI (cfiCond84) V1 load(1, XDATA, add(CFA_XSP16, literal(-8)))
        CFI (cfiCond84) V2 load(1, XDATA, add(CFA_XSP16, literal(-7)))
        CFI (cfiCond84) R7 load(1, XDATA, add(CFA_XSP16, literal(-6)))
        CFI (cfiCond84) ?RET_LOW load(1, XDATA, add(CFA_XSP16, literal(-5)))
        CFI (cfiCond84) ?RET_HIGH load(1, XDATA, add(CFA_XSP16, literal(-4)))
        CFI (cfiCond84) ?BRET_EXT load(1, XDATA, add(CFA_XSP16, literal(-3)))
        CFI (cfiCond84) DPL0 load(1, XDATA, add(CFA_XSP16, literal(-2)))
        CFI (cfiCond84) DPH0 load(1, XDATA, add(CFA_XSP16, literal(-1)))
        CFI (cfiCond84) CFA_SP SP+0
        CFI (cfiCond84) CFA_XSP16 add(XSP16, 129)
        CFI Block cfiCond85 Using cfiCommon0
        CFI (cfiCond85) NoFunction
        CFI (cfiCond85) Conditional ??CrossCallReturnLabel_99
        CFI (cfiCond85) R6 load(1, XDATA, add(CFA_XSP16, literal(-11)))
        CFI (cfiCond85) VB load(1, XDATA, add(CFA_XSP16, literal(-10)))
        CFI (cfiCond85) V0 load(1, XDATA, add(CFA_XSP16, literal(-9)))
        CFI (cfiCond85) V1 load(1, XDATA, add(CFA_XSP16, literal(-8)))
        CFI (cfiCond85) V2 load(1, XDATA, add(CFA_XSP16, literal(-7)))
        CFI (cfiCond85) R7 load(1, XDATA, add(CFA_XSP16, literal(-6)))
        CFI (cfiCond85) ?RET_LOW load(1, XDATA, add(CFA_XSP16, literal(-5)))
        CFI (cfiCond85) ?RET_HIGH load(1, XDATA, add(CFA_XSP16, literal(-4)))
        CFI (cfiCond85) ?BRET_EXT load(1, XDATA, add(CFA_XSP16, literal(-3)))
        CFI (cfiCond85) DPL0 load(1, XDATA, add(CFA_XSP16, literal(-2)))
        CFI (cfiCond85) DPH0 load(1, XDATA, add(CFA_XSP16, literal(-1)))
        CFI (cfiCond85) CFA_SP SP+0
        CFI (cfiCond85) CFA_XSP16 add(XSP16, 129)
        CFI Block cfiCond86 Using cfiCommon0
        CFI (cfiCond86) NoFunction
        CFI (cfiCond86) Conditional ??CrossCallReturnLabel_100
        CFI (cfiCond86) R6 load(1, XDATA, add(CFA_XSP16, literal(-11)))
        CFI (cfiCond86) VB load(1, XDATA, add(CFA_XSP16, literal(-10)))
        CFI (cfiCond86) V0 load(1, XDATA, add(CFA_XSP16, literal(-9)))
        CFI (cfiCond86) V1 load(1, XDATA, add(CFA_XSP16, literal(-8)))
        CFI (cfiCond86) V2 load(1, XDATA, add(CFA_XSP16, literal(-7)))
        CFI (cfiCond86) R7 load(1, XDATA, add(CFA_XSP16, literal(-6)))
        CFI (cfiCond86) ?RET_LOW load(1, XDATA, add(CFA_XSP16, literal(-5)))
        CFI (cfiCond86) ?RET_HIGH load(1, XDATA, add(CFA_XSP16, literal(-4)))
        CFI (cfiCond86) ?BRET_EXT load(1, XDATA, add(CFA_XSP16, literal(-3)))
        CFI (cfiCond86) DPL0 load(1, XDATA, add(CFA_XSP16, literal(-2)))
        CFI (cfiCond86) DPH0 load(1, XDATA, add(CFA_XSP16, literal(-1)))
        CFI (cfiCond86) CFA_SP SP+0
        CFI (cfiCond86) CFA_XSP16 add(XSP16, 129)
        CFI Block cfiCond87 Using cfiCommon0
        CFI (cfiCond87) NoFunction
        CFI (cfiCond87) Conditional ??CrossCallReturnLabel_101
        CFI (cfiCond87) R6 load(1, XDATA, add(CFA_XSP16, literal(-11)))
        CFI (cfiCond87) VB load(1, XDATA, add(CFA_XSP16, literal(-10)))
        CFI (cfiCond87) V0 load(1, XDATA, add(CFA_XSP16, literal(-9)))
        CFI (cfiCond87) V1 load(1, XDATA, add(CFA_XSP16, literal(-8)))
        CFI (cfiCond87) V2 load(1, XDATA, add(CFA_XSP16, literal(-7)))
        CFI (cfiCond87) R7 load(1, XDATA, add(CFA_XSP16, literal(-6)))
        CFI (cfiCond87) ?RET_LOW load(1, XDATA, add(CFA_XSP16, literal(-5)))
        CFI (cfiCond87) ?RET_HIGH load(1, XDATA, add(CFA_XSP16, literal(-4)))
        CFI (cfiCond87) ?BRET_EXT load(1, XDATA, add(CFA_XSP16, literal(-3)))
        CFI (cfiCond87) DPL0 load(1, XDATA, add(CFA_XSP16, literal(-2)))
        CFI (cfiCond87) DPH0 load(1, XDATA, add(CFA_XSP16, literal(-1)))
        CFI (cfiCond87) CFA_SP SP+0
        CFI (cfiCond87) CFA_XSP16 add(XSP16, 129)
        CFI Block cfiCond88 Using cfiCommon0
        CFI (cfiCond88) NoFunction
        CFI (cfiCond88) Conditional ??CrossCallReturnLabel_102
        CFI (cfiCond88) R6 load(1, XDATA, add(CFA_XSP16, literal(-11)))
        CFI (cfiCond88) VB load(1, XDATA, add(CFA_XSP16, literal(-10)))
        CFI (cfiCond88) V0 load(1, XDATA, add(CFA_XSP16, literal(-9)))
        CFI (cfiCond88) V1 load(1, XDATA, add(CFA_XSP16, literal(-8)))
        CFI (cfiCond88) V2 load(1, XDATA, add(CFA_XSP16, literal(-7)))
        CFI (cfiCond88) R7 load(1, XDATA, add(CFA_XSP16, literal(-6)))
        CFI (cfiCond88) ?RET_LOW load(1, XDATA, add(CFA_XSP16, literal(-5)))
        CFI (cfiCond88) ?RET_HIGH load(1, XDATA, add(CFA_XSP16, literal(-4)))
        CFI (cfiCond88) ?BRET_EXT load(1, XDATA, add(CFA_XSP16, literal(-3)))
        CFI (cfiCond88) DPL0 load(1, XDATA, add(CFA_XSP16, literal(-2)))
        CFI (cfiCond88) DPH0 load(1, XDATA, add(CFA_XSP16, literal(-1)))
        CFI (cfiCond88) CFA_SP SP+0
        CFI (cfiCond88) CFA_XSP16 add(XSP16, 129)
        CFI Block cfiCond89 Using cfiCommon0
        CFI (cfiCond89) NoFunction
        CFI (cfiCond89) Conditional ??CrossCallReturnLabel_103
        CFI (cfiCond89) R6 load(1, XDATA, add(CFA_XSP16, literal(-11)))
        CFI (cfiCond89) VB load(1, XDATA, add(CFA_XSP16, literal(-10)))
        CFI (cfiCond89) V0 load(1, XDATA, add(CFA_XSP16, literal(-9)))
        CFI (cfiCond89) V1 load(1, XDATA, add(CFA_XSP16, literal(-8)))
        CFI (cfiCond89) V2 load(1, XDATA, add(CFA_XSP16, literal(-7)))
        CFI (cfiCond89) R7 load(1, XDATA, add(CFA_XSP16, literal(-6)))
        CFI (cfiCond89) ?RET_LOW load(1, XDATA, add(CFA_XSP16, literal(-5)))
        CFI (cfiCond89) ?RET_HIGH load(1, XDATA, add(CFA_XSP16, literal(-4)))
        CFI (cfiCond89) ?BRET_EXT load(1, XDATA, add(CFA_XSP16, literal(-3)))
        CFI (cfiCond89) DPL0 load(1, XDATA, add(CFA_XSP16, literal(-2)))
        CFI (cfiCond89) DPH0 load(1, XDATA, add(CFA_XSP16, literal(-1)))
        CFI (cfiCond89) CFA_SP SP+0
        CFI (cfiCond89) CFA_XSP16 add(XSP16, 129)
        CFI Block cfiCond90 Using cfiCommon0
        CFI (cfiCond90) NoFunction
        CFI (cfiCond90) Conditional ??CrossCallReturnLabel_104
        CFI (cfiCond90) R6 load(1, XDATA, add(CFA_XSP16, literal(-16)))
        CFI (cfiCond90) VB load(1, XDATA, add(CFA_XSP16, literal(-15)))
        CFI (cfiCond90) V0 load(1, XDATA, add(CFA_XSP16, literal(-14)))
        CFI (cfiCond90) V1 load(1, XDATA, add(CFA_XSP16, literal(-13)))
        CFI (cfiCond90) V2 load(1, XDATA, add(CFA_XSP16, literal(-12)))
        CFI (cfiCond90) V3 load(1, XDATA, add(CFA_XSP16, literal(-11)))
        CFI (cfiCond90) V4 load(1, XDATA, add(CFA_XSP16, literal(-10)))
        CFI (cfiCond90) V5 load(1, XDATA, add(CFA_XSP16, literal(-9)))
        CFI (cfiCond90) V6 load(1, XDATA, add(CFA_XSP16, literal(-8)))
        CFI (cfiCond90) V7 load(1, XDATA, add(CFA_XSP16, literal(-7)))
        CFI (cfiCond90) R7 load(1, XDATA, add(CFA_XSP16, literal(-6)))
        CFI (cfiCond90) ?RET_LOW load(1, XDATA, add(CFA_XSP16, literal(-5)))
        CFI (cfiCond90) ?RET_HIGH load(1, XDATA, add(CFA_XSP16, literal(-4)))
        CFI (cfiCond90) ?BRET_EXT load(1, XDATA, add(CFA_XSP16, literal(-3)))
        CFI (cfiCond90) DPL0 load(1, XDATA, add(CFA_XSP16, literal(-2)))
        CFI (cfiCond90) DPH0 load(1, XDATA, add(CFA_XSP16, literal(-1)))
        CFI (cfiCond90) CFA_SP SP+0
        CFI (cfiCond90) CFA_XSP16 add(XSP16, 50)
        CFI Block cfiPicker91 Using cfiCommon1
        CFI (cfiPicker91) NoFunction
        CFI (cfiPicker91) Picker
        LCALL   ??osal_memcpy?relay
        MOV     A,#0x3
        RET
        CFI EndBlock cfiCond65
        CFI EndBlock cfiCond66
        CFI EndBlock cfiCond67
        CFI EndBlock cfiCond68
        CFI EndBlock cfiCond69
        CFI EndBlock cfiCond70
        CFI EndBlock cfiCond71
        CFI EndBlock cfiCond72
        CFI EndBlock cfiCond73
        CFI EndBlock cfiCond74
        CFI EndBlock cfiCond75
        CFI EndBlock cfiCond76
        CFI EndBlock cfiCond77
        CFI EndBlock cfiCond78
        CFI EndBlock cfiCond79
        CFI EndBlock cfiCond80
        CFI EndBlock cfiCond81
        CFI EndBlock cfiCond82
        CFI EndBlock cfiCond83
        CFI EndBlock cfiCond84
        CFI EndBlock cfiCond85
        CFI EndBlock cfiCond86
        CFI EndBlock cfiCond87
        CFI EndBlock cfiCond88
        CFI EndBlock cfiCond89
        CFI EndBlock cfiCond90
        CFI EndBlock cfiPicker91

        RSEG BANKED_CODE:CODE:NOROOT(0)
?Subroutine38:
        CFI Block cfiCond92 Using cfiCommon0
        CFI NoFunction
        CFI Conditional ??CrossCallReturnLabel_63
        CFI R6 load(1, XDATA, add(CFA_XSP16, literal(-20)))
        CFI VB load(1, XDATA, add(CFA_XSP16, literal(-19)))
        CFI V0 load(1, XDATA, add(CFA_XSP16, literal(-18)))
        CFI V1 load(1, XDATA, add(CFA_XSP16, literal(-17)))
        CFI V2 load(1, XDATA, add(CFA_XSP16, literal(-16)))
        CFI V3 load(1, XDATA, add(CFA_XSP16, literal(-15)))
        CFI V4 load(1, XDATA, add(CFA_XSP16, literal(-14)))
        CFI V5 load(1, XDATA, add(CFA_XSP16, literal(-13)))
        CFI V6 load(1, XDATA, add(CFA_XSP16, literal(-12)))
        CFI V7 load(1, XDATA, add(CFA_XSP16, literal(-11)))
        CFI V8 load(1, XDATA, add(CFA_XSP16, literal(-10)))
        CFI V9 load(1, XDATA, add(CFA_XSP16, literal(-9)))
        CFI V10 load(1, XDATA, add(CFA_XSP16, literal(-8)))
        CFI V11 load(1, XDATA, add(CFA_XSP16, literal(-7)))
        CFI R7 load(1, XDATA, add(CFA_XSP16, literal(-6)))
        CFI ?RET_LOW load(1, XDATA, add(CFA_XSP16, literal(-5)))
        CFI ?RET_HIGH load(1, XDATA, add(CFA_XSP16, literal(-4)))
        CFI ?BRET_EXT load(1, XDATA, add(CFA_XSP16, literal(-3)))
        CFI DPL0 load(1, XDATA, add(CFA_XSP16, literal(-2)))
        CFI DPH0 load(1, XDATA, add(CFA_XSP16, literal(-1)))
        CFI CFA_SP SP+-1
        CFI CFA_XSP16 add(XSP16, 21)
        CFI Block cfiCond93 Using cfiCommon0
        CFI (cfiCond93) NoFunction
        CFI (cfiCond93) Conditional ??CrossCallReturnLabel_64
        CFI (cfiCond93) R6 load(1, XDATA, add(CFA_XSP16, literal(-20)))
        CFI (cfiCond93) VB load(1, XDATA, add(CFA_XSP16, literal(-19)))
        CFI (cfiCond93) V0 load(1, XDATA, add(CFA_XSP16, literal(-18)))
        CFI (cfiCond93) V1 load(1, XDATA, add(CFA_XSP16, literal(-17)))
        CFI (cfiCond93) V2 load(1, XDATA, add(CFA_XSP16, literal(-16)))
        CFI (cfiCond93) V3 load(1, XDATA, add(CFA_XSP16, literal(-15)))
        CFI (cfiCond93) V4 load(1, XDATA, add(CFA_XSP16, literal(-14)))
        CFI (cfiCond93) V5 load(1, XDATA, add(CFA_XSP16, literal(-13)))
        CFI (cfiCond93) V6 load(1, XDATA, add(CFA_XSP16, literal(-12)))
        CFI (cfiCond93) V7 load(1, XDATA, add(CFA_XSP16, literal(-11)))
        CFI (cfiCond93) V8 load(1, XDATA, add(CFA_XSP16, literal(-10)))
        CFI (cfiCond93) V9 load(1, XDATA, add(CFA_XSP16, literal(-9)))
        CFI (cfiCond93) V10 load(1, XDATA, add(CFA_XSP16, literal(-8)))
        CFI (cfiCond93) V11 load(1, XDATA, add(CFA_XSP16, literal(-7)))
        CFI (cfiCond93) R7 load(1, XDATA, add(CFA_XSP16, literal(-6)))
        CFI (cfiCond93) ?RET_LOW load(1, XDATA, add(CFA_XSP16, literal(-5)))
        CFI (cfiCond93) ?RET_HIGH load(1, XDATA, add(CFA_XSP16, literal(-4)))
        CFI (cfiCond93) ?BRET_EXT load(1, XDATA, add(CFA_XSP16, literal(-3)))
        CFI (cfiCond93) DPL0 load(1, XDATA, add(CFA_XSP16, literal(-2)))
        CFI (cfiCond93) DPH0 load(1, XDATA, add(CFA_XSP16, literal(-1)))
        CFI (cfiCond93) CFA_SP SP+0
        CFI (cfiCond93) CFA_XSP16 add(XSP16, 21)
        CFI Block cfiPicker94 Using cfiCommon1
        CFI (cfiPicker94) NoFunction
        CFI (cfiPicker94) Picker
        MOV     DPTR,#??protocolCount
        MOVX    A,@DPTR
        MOV     R0,A
        INC     DPTR
        MOVX    A,@DPTR
        MOV     R1,A
        MOV     A,?V0 + 0
        ADD     A,R0
        RET
        CFI EndBlock cfiCond92
        CFI EndBlock cfiCond93
        CFI EndBlock cfiPicker94

        RSEG BANKED_CODE:CODE:NOROOT(0)
?Subroutine32:
        CFI Block cfiCond95 Using cfiCommon0
        CFI NoFunction
        CFI Conditional ??CrossCallReturnLabel_50
        CFI R6 load(1, XDATA, add(CFA_XSP16, literal(-20)))
        CFI VB load(1, XDATA, add(CFA_XSP16, literal(-19)))
        CFI V0 load(1, XDATA, add(CFA_XSP16, literal(-18)))
        CFI V1 load(1, XDATA, add(CFA_XSP16, literal(-17)))
        CFI V2 load(1, XDATA, add(CFA_XSP16, literal(-16)))
        CFI V3 load(1, XDATA, add(CFA_XSP16, literal(-15)))
        CFI V4 load(1, XDATA, add(CFA_XSP16, literal(-14)))
        CFI V5 load(1, XDATA, add(CFA_XSP16, literal(-13)))
        CFI V6 load(1, XDATA, add(CFA_XSP16, literal(-12)))
        CFI V7 load(1, XDATA, add(CFA_XSP16, literal(-11)))
        CFI V8 load(1, XDATA, add(CFA_XSP16, literal(-10)))
        CFI V9 load(1, XDATA, add(CFA_XSP16, literal(-9)))
        CFI V10 load(1, XDATA, add(CFA_XSP16, literal(-8)))
        CFI V11 load(1, XDATA, add(CFA_XSP16, literal(-7)))
        CFI R7 load(1, XDATA, add(CFA_XSP16, literal(-6)))
        CFI ?RET_LOW load(1, XDATA, add(CFA_XSP16, literal(-5)))
        CFI ?RET_HIGH load(1, XDATA, add(CFA_XSP16, literal(-4)))
        CFI ?BRET_EXT load(1, XDATA, add(CFA_XSP16, literal(-3)))
        CFI DPL0 load(1, XDATA, add(CFA_XSP16, literal(-2)))
        CFI DPH0 load(1, XDATA, add(CFA_XSP16, literal(-1)))
        CFI CFA_SP SP+0
        CFI CFA_XSP16 add(XSP16, 21)
        CFI Block cfiCond96 Using cfiCommon0
        CFI (cfiCond96) NoFunction
        CFI (cfiCond96) Conditional ??CrossCallReturnLabel_51
        CFI (cfiCond96) R6 load(1, XDATA, add(CFA_XSP16, literal(-20)))
        CFI (cfiCond96) VB load(1, XDATA, add(CFA_XSP16, literal(-19)))
        CFI (cfiCond96) V0 load(1, XDATA, add(CFA_XSP16, literal(-18)))
        CFI (cfiCond96) V1 load(1, XDATA, add(CFA_XSP16, literal(-17)))
        CFI (cfiCond96) V2 load(1, XDATA, add(CFA_XSP16, literal(-16)))
        CFI (cfiCond96) V3 load(1, XDATA, add(CFA_XSP16, literal(-15)))
        CFI (cfiCond96) V4 load(1, XDATA, add(CFA_XSP16, literal(-14)))
        CFI (cfiCond96) V5 load(1, XDATA, add(CFA_XSP16, literal(-13)))
        CFI (cfiCond96) V6 load(1, XDATA, add(CFA_XSP16, literal(-12)))
        CFI (cfiCond96) V7 load(1, XDATA, add(CFA_XSP16, literal(-11)))
        CFI (cfiCond96) V8 load(1, XDATA, add(CFA_XSP16, literal(-10)))
        CFI (cfiCond96) V9 load(1, XDATA, add(CFA_XSP16, literal(-9)))
        CFI (cfiCond96) V10 load(1, XDATA, add(CFA_XSP16, literal(-8)))
        CFI (cfiCond96) V11 load(1, XDATA, add(CFA_XSP16, literal(-7)))
        CFI (cfiCond96) R7 load(1, XDATA, add(CFA_XSP16, literal(-6)))
        CFI (cfiCond96) ?RET_LOW load(1, XDATA, add(CFA_XSP16, literal(-5)))
        CFI (cfiCond96) ?RET_HIGH load(1, XDATA, add(CFA_XSP16, literal(-4)))
        CFI (cfiCond96) ?BRET_EXT load(1, XDATA, add(CFA_XSP16, literal(-3)))
        CFI (cfiCond96) DPL0 load(1, XDATA, add(CFA_XSP16, literal(-2)))
        CFI (cfiCond96) DPH0 load(1, XDATA, add(CFA_XSP16, literal(-1)))
        CFI (cfiCond96) CFA_SP SP+0
        CFI (cfiCond96) CFA_XSP16 add(XSP16, 21)
        CFI Block cfiCond97 Using cfiCommon0
        CFI (cfiCond97) NoFunction
        CFI (cfiCond97) Conditional ??CrossCallReturnLabel_52
        CFI (cfiCond97) R6 load(1, XDATA, add(CFA_XSP16, literal(-20)))
        CFI (cfiCond97) VB load(1, XDATA, add(CFA_XSP16, literal(-19)))
        CFI (cfiCond97) V0 load(1, XDATA, add(CFA_XSP16, literal(-18)))
        CFI (cfiCond97) V1 load(1, XDATA, add(CFA_XSP16, literal(-17)))
        CFI (cfiCond97) V2 load(1, XDATA, add(CFA_XSP16, literal(-16)))
        CFI (cfiCond97) V3 load(1, XDATA, add(CFA_XSP16, literal(-15)))
        CFI (cfiCond97) V4 load(1, XDATA, add(CFA_XSP16, literal(-14)))
        CFI (cfiCond97) V5 load(1, XDATA, add(CFA_XSP16, literal(-13)))
        CFI (cfiCond97) V6 load(1, XDATA, add(CFA_XSP16, literal(-12)))
        CFI (cfiCond97) V7 load(1, XDATA, add(CFA_XSP16, literal(-11)))
        CFI (cfiCond97) V8 load(1, XDATA, add(CFA_XSP16, literal(-10)))
        CFI (cfiCond97) V9 load(1, XDATA, add(CFA_XSP16, literal(-9)))
        CFI (cfiCond97) V10 load(1, XDATA, add(CFA_XSP16, literal(-8)))
        CFI (cfiCond97) V11 load(1, XDATA, add(CFA_XSP16, literal(-7)))
        CFI (cfiCond97) R7 load(1, XDATA, add(CFA_XSP16, literal(-6)))
        CFI (cfiCond97) ?RET_LOW load(1, XDATA, add(CFA_XSP16, literal(-5)))
        CFI (cfiCond97) ?RET_HIGH load(1, XDATA, add(CFA_XSP16, literal(-4)))
        CFI (cfiCond97) ?BRET_EXT load(1, XDATA, add(CFA_XSP16, literal(-3)))
        CFI (cfiCond97) DPL0 load(1, XDATA, add(CFA_XSP16, literal(-2)))
        CFI (cfiCond97) DPH0 load(1, XDATA, add(CFA_XSP16, literal(-1)))
        CFI (cfiCond97) CFA_SP SP+0
        CFI (cfiCond97) CFA_XSP16 add(XSP16, 21)
        CFI Block cfiPicker98 Using cfiCommon1
        CFI (cfiPicker98) NoFunction
        CFI (cfiPicker98) Picker
        MOV     DPTR,#??protocolCount
        CLR     C
        MOVX    A,@DPTR
        SUBB    A,#0x5
        INC     DPTR
        MOVX    A,@DPTR
        SUBB    A,#0x0
        RET
        CFI EndBlock cfiCond95
        CFI EndBlock cfiCond96
        CFI EndBlock cfiCond97
        CFI EndBlock cfiPicker98

        RSEG BANKED_CODE:CODE:NOROOT(0)
?Subroutine15:
        CFI Block cfiCond99 Using cfiCommon0
        CFI NoFunction
        CFI Conditional ??CrossCallReturnLabel_14
        CFI R6 load(1, XDATA, add(CFA_XSP16, literal(-20)))
        CFI VB load(1, XDATA, add(CFA_XSP16, literal(-19)))
        CFI V0 load(1, XDATA, add(CFA_XSP16, literal(-18)))
        CFI V1 load(1, XDATA, add(CFA_XSP16, literal(-17)))
        CFI V2 load(1, XDATA, add(CFA_XSP16, literal(-16)))
        CFI V3 load(1, XDATA, add(CFA_XSP16, literal(-15)))
        CFI V4 load(1, XDATA, add(CFA_XSP16, literal(-14)))
        CFI V5 load(1, XDATA, add(CFA_XSP16, literal(-13)))
        CFI V6 load(1, XDATA, add(CFA_XSP16, literal(-12)))
        CFI V7 load(1, XDATA, add(CFA_XSP16, literal(-11)))
        CFI V8 load(1, XDATA, add(CFA_XSP16, literal(-10)))
        CFI V9 load(1, XDATA, add(CFA_XSP16, literal(-9)))
        CFI V10 load(1, XDATA, add(CFA_XSP16, literal(-8)))
        CFI V11 load(1, XDATA, add(CFA_XSP16, literal(-7)))
        CFI R7 load(1, XDATA, add(CFA_XSP16, literal(-6)))
        CFI ?RET_LOW load(1, XDATA, add(CFA_XSP16, literal(-5)))
        CFI ?RET_HIGH load(1, XDATA, add(CFA_XSP16, literal(-4)))
        CFI ?BRET_EXT load(1, XDATA, add(CFA_XSP16, literal(-3)))
        CFI DPL0 load(1, XDATA, add(CFA_XSP16, literal(-2)))
        CFI DPH0 load(1, XDATA, add(CFA_XSP16, literal(-1)))
        CFI CFA_SP SP+0
        CFI CFA_XSP16 add(XSP16, 21)
        CFI Block cfiCond100 Using cfiCommon0
        CFI (cfiCond100) NoFunction
        CFI (cfiCond100) Conditional ??CrossCallReturnLabel_15
        CFI (cfiCond100) R6 load(1, XDATA, add(CFA_XSP16, literal(-20)))
        CFI (cfiCond100) VB load(1, XDATA, add(CFA_XSP16, literal(-19)))
        CFI (cfiCond100) V0 load(1, XDATA, add(CFA_XSP16, literal(-18)))
        CFI (cfiCond100) V1 load(1, XDATA, add(CFA_XSP16, literal(-17)))
        CFI (cfiCond100) V2 load(1, XDATA, add(CFA_XSP16, literal(-16)))
        CFI (cfiCond100) V3 load(1, XDATA, add(CFA_XSP16, literal(-15)))
        CFI (cfiCond100) V4 load(1, XDATA, add(CFA_XSP16, literal(-14)))
        CFI (cfiCond100) V5 load(1, XDATA, add(CFA_XSP16, literal(-13)))
        CFI (cfiCond100) V6 load(1, XDATA, add(CFA_XSP16, literal(-12)))
        CFI (cfiCond100) V7 load(1, XDATA, add(CFA_XSP16, literal(-11)))
        CFI (cfiCond100) V8 load(1, XDATA, add(CFA_XSP16, literal(-10)))
        CFI (cfiCond100) V9 load(1, XDATA, add(CFA_XSP16, literal(-9)))
        CFI (cfiCond100) V10 load(1, XDATA, add(CFA_XSP16, literal(-8)))
        CFI (cfiCond100) V11 load(1, XDATA, add(CFA_XSP16, literal(-7)))
        CFI (cfiCond100) R7 load(1, XDATA, add(CFA_XSP16, literal(-6)))
        CFI (cfiCond100) ?RET_LOW load(1, XDATA, add(CFA_XSP16, literal(-5)))
        CFI (cfiCond100) ?RET_HIGH load(1, XDATA, add(CFA_XSP16, literal(-4)))
        CFI (cfiCond100) ?BRET_EXT load(1, XDATA, add(CFA_XSP16, literal(-3)))
        CFI (cfiCond100) DPL0 load(1, XDATA, add(CFA_XSP16, literal(-2)))
        CFI (cfiCond100) DPH0 load(1, XDATA, add(CFA_XSP16, literal(-1)))
        CFI (cfiCond100) CFA_SP SP+0
        CFI (cfiCond100) CFA_XSP16 add(XSP16, 21)
        CFI Block cfiPicker101 Using cfiCommon1
        CFI (cfiPicker101) NoFunction
        CFI (cfiPicker101) Picker
        MOV     DPL,?V0 + 0
        MOV     DPH,?V0 + 1
        MOV     A,#-0x1
        MOVX    @DPTR,A
        INC     DPTR
        MOVX    @DPTR,A
        MOV     DPTR,#??protocolCount
        MOV     A,#0x2
        MOVX    @DPTR,A
        INC     DPTR
        CLR     A
        RET
        CFI EndBlock cfiCond99
        CFI EndBlock cfiCond100
        CFI EndBlock cfiPicker101

        RSEG XDATA_Z:XDATA:NOROOT(0)
        DATA8
??protocolFlag:
        DS 1
        REQUIRE __INIT_XDATA_Z

        RSEG XDATA_Z:XDATA:NOROOT(0)
        DATA16
??protocolCount:
        DS 2
        REQUIRE __INIT_XDATA_Z

        RSEG XDATA_Z:XDATA:NOROOT(0)
        DATA8
??lastData:
        DS 1
        REQUIRE __INIT_XDATA_Z

        RSEG XDATA_Z:XDATA:NOROOT(0)
        DATA8
??debugCount:
        DS 1
        REQUIRE __INIT_XDATA_Z
//  987 
//  988 
//  989 
//  990 /**
//  991 * @brief ÂçèËÆÆÊï∞ÊçÆÈáçÂèë
//  992 
//  993 * Ê†°È™åË∂ÖÊó∂‰∏îÊª°Ë∂≥ÈáçÂèëÊ¨°Êï∞ÈôêÂà∂ÁöÑÂçèËÆÆÊï∞ÊçÆËøõË°åÈáçÂèë
//  994 
//  995 * @param none    
//  996 *
//  997 * @return none
//  998 */
//  999 static void gizProtocolResendData(void)
// 1000 {
// 1001     int32 ret = 0;
// 1002 
// 1003     if(0 == gizwitsProtocol.waitAck.flag)
// 1004     {
// 1005         return;
// 1006     }
// 1007 
// 1008     GIZWITS_LOG("Warning: timeout, resend data \n");
// 1009     
// 1010     ret = uartWrite(gizwitsProtocol.waitAck.buf, gizwitsProtocol.waitAck.dataLen);
// 1011     if(ret != gizwitsProtocol.waitAck.dataLen)
// 1012     {
// 1013         GIZWITS_LOG("ERROR: resend data error\n");
// 1014     }
// 1015 
// 1016     gizwitsProtocol.waitAck.sendTime = gizGetTimerCount();
// 1017 }
// 1018 
// 1019 /**
// 1020 * @brief Ê∏ÖÈô§ACKÂçèËÆÆÊä•Êñá
// 1021 *
// 1022 * @param [in] head : ÂçèËÆÆÂ§¥Âú∞ÂùÄ
// 1023 *
// 1024 * @return 0Ôº?ÊâßË°åÊàêÂäüÔº?Èù?0Ôº?Â§±Ë¥•
// 1025 */

        RSEG BANKED_CODE:CODE:NOROOT(0)
// 1026 static int8 gizProtocolWaitAckCheck(protocolHead_t *head)
gizProtocolWaitAckCheck:
        CFI Block cfiBlock102 Using cfiCommon0
        CFI Function gizProtocolWaitAckCheck
        CODE
// 1027 {
        FUNCALL gizProtocolWaitAckCheck, osal_memset
        LOCFRAME ISTACK, 2, STACK
        LOCFRAME PSTACK, 0, STACK
        LOCFRAME XSTACK, 0, STACK
        LOCFRAME IOVERLAY, 0, STATIC
        LOCFRAME DOVERLAY, 0, STATIC
        ARGFRAME ISTACK, 2, STACK
        ARGFRAME PSTACK, 0, STACK
        ARGFRAME XSTACK, 0, STACK
        ARGFRAME IOVERLAY, 0, STATIC
        ARGFRAME DOVERLAY, 0, STATIC
        PUSH    DPL
        CFI DPL0 Frame(CFA_SP, 4)
        CFI CFA_SP SP+-4
        PUSH    DPH
        CFI DPH0 Frame(CFA_SP, 5)
        CFI CFA_SP SP+-5
        ; Saved register size: 2
        ; Auto size: 0
// 1028     protocolHead_t *waitAckHead = (protocolHead_t *)gizwitsProtocol.waitAck.buf;
// 1029 
// 1030     if(NULL == head)
        MOV     A,R2
        ORL     A,R3
        JNZ     ??gizProtocolWaitAckCheck_0
// 1031     {
// 1032         GIZWITS_LOG("ERROR: data is empty \n");
// 1033         return -1;
        MOV     R1,#-0x1
        SJMP    ??gizProtocolWaitAckCheck_1
// 1034     }
// 1035 
// 1036     if(waitAckHead->cmd+1 == head->cmd)
??gizProtocolWaitAckCheck_0:
        MOV     DPTR,#gizwitsProtocol + 81
        MOVX    A,@DPTR
        ADD     A,#0x1
        MOV     R0,A
        CLR     A
        ADDC    A,#0x0
        MOV     R1,A
        MOV     DPL,R2
        MOV     DPH,R3
        INC     DPTR
        INC     DPTR
        INC     DPTR
        INC     DPTR
        MOVX    A,@DPTR
        XRL     A,R0
        JNZ     ??gizProtocolWaitAckCheck_2
        MOV     A,R1
??gizProtocolWaitAckCheck_2:
        JNZ     ??gizProtocolWaitAckCheck_3
// 1037     {
// 1038         osal_memset((uint8 *)&gizwitsProtocol.waitAck, 0, sizeof(protocolWaitAck_t));
        ; Setup parameters for call to function osal_memset
        MOV     R4,#0x27
        MOV     R5,#0x0
        MOV     R1,#0x0
        MOV     R2,#(gizwitsProtocol + 75) & 0xff
        MOV     R3,#((gizwitsProtocol + 75) >> 8) & 0xff
        LCALL   ??osal_memset?relay
// 1039     }
// 1040 
// 1041     return 0;
??gizProtocolWaitAckCheck_3:
        MOV     R1,#0x0
??gizProtocolWaitAckCheck_1:
        LJMP    ?Subroutine3 & 0xFFFF
        CFI EndBlock cfiBlock102
// 1042 }
// 1043 
// 1044 /**
// 1045 * @brief ÂèëÈÄÅÈÄöÁî®ÂçèËÆÆÊä•ÊñáÊï∞ÊçÆ
// 1046 * 
// 1047 * @param [in] head              : ÂçèËÆÆÂ§¥ÊåáÈí?*
// 1048 * @return : ÊúâÊïàÊï∞ÊçÆÈïøÂ∫¶,Ê≠£Á°ÆËøîÂõû;-1ÔºåÈîôËØØËøîÂõ?*/

        RSEG BANKED_CODE:CODE:NOROOT(0)
// 1049 static int32 gizProtocolCommonAck(protocolHead_t *head)
gizProtocolCommonAck:
        CFI Block cfiBlock103 Using cfiCommon0
        CFI Function gizProtocolCommonAck
        CODE
// 1050 {
        FUNCALL gizProtocolCommonAck, osal_memcpy
        LOCFRAME ISTACK, 0, STACK
        LOCFRAME PSTACK, 0, STACK
        LOCFRAME XSTACK, 23, STACK
        LOCFRAME IOVERLAY, 0, STATIC
        LOCFRAME DOVERLAY, 0, STATIC
        ARGFRAME ISTACK, 0, STACK
        ARGFRAME PSTACK, 0, STACK
        ARGFRAME XSTACK, 23, STACK
        ARGFRAME IOVERLAY, 0, STATIC
        ARGFRAME DOVERLAY, 0, STATIC
        FUNCALL gizProtocolCommonAck, gizProtocolExchangeBytes
        LOCFRAME ISTACK, 0, STACK
        LOCFRAME PSTACK, 0, STACK
        LOCFRAME XSTACK, 20, STACK
        LOCFRAME IOVERLAY, 0, STATIC
        LOCFRAME DOVERLAY, 0, STATIC
        ARGFRAME ISTACK, 0, STACK
        ARGFRAME PSTACK, 0, STACK
        ARGFRAME XSTACK, 20, STACK
        ARGFRAME IOVERLAY, 0, STATIC
        ARGFRAME DOVERLAY, 0, STATIC
        FUNCALL gizProtocolCommonAck, gizProtocolSum
        LOCFRAME ISTACK, 0, STACK
        LOCFRAME PSTACK, 0, STACK
        LOCFRAME XSTACK, 24, STACK
        LOCFRAME IOVERLAY, 0, STATIC
        LOCFRAME DOVERLAY, 0, STATIC
        ARGFRAME ISTACK, 0, STACK
        ARGFRAME PSTACK, 0, STACK
        ARGFRAME XSTACK, 24, STACK
        ARGFRAME IOVERLAY, 0, STATIC
        ARGFRAME DOVERLAY, 0, STATIC
        FUNCALL gizProtocolCommonAck, uartWrite
        LOCFRAME ISTACK, 0, STACK
        LOCFRAME PSTACK, 0, STACK
        LOCFRAME XSTACK, 24, STACK
        LOCFRAME IOVERLAY, 0, STATIC
        LOCFRAME DOVERLAY, 0, STATIC
        ARGFRAME ISTACK, 0, STACK
        ARGFRAME PSTACK, 0, STACK
        ARGFRAME XSTACK, 24, STACK
        ARGFRAME IOVERLAY, 0, STATIC
        ARGFRAME DOVERLAY, 0, STATIC
        MOV     A,#-0xb
        LCALL   ?BANKED_ENTER_XDATA
        CFI DPH0 load(1, XDATA, add(CFA_XSP16, literal(-1)))
        CFI DPL0 load(1, XDATA, add(CFA_XSP16, literal(-2)))
        CFI ?BRET_EXT load(1, XDATA, add(CFA_XSP16, literal(-3)))
        CFI ?RET_HIGH load(1, XDATA, add(CFA_XSP16, literal(-4)))
        CFI ?RET_LOW load(1, XDATA, add(CFA_XSP16, literal(-5)))
        CFI R7 load(1, XDATA, add(CFA_XSP16, literal(-6)))
        CFI V2 load(1, XDATA, add(CFA_XSP16, literal(-7)))
        CFI V1 load(1, XDATA, add(CFA_XSP16, literal(-8)))
        CFI V0 load(1, XDATA, add(CFA_XSP16, literal(-9)))
        CFI VB load(1, XDATA, add(CFA_XSP16, literal(-10)))
        CFI R6 load(1, XDATA, add(CFA_XSP16, literal(-11)))
        CFI CFA_SP SP+0
        CFI CFA_XSP16 add(XSP16, 11)
        ; Saved register size: 11
        ; Auto size: 9
        MOV     A,#-0x9
        LCALL   ?ALLOC_XSTACK8
        CFI CFA_XSP16 add(XSP16, 20)
// 1051     int32 ret = 0;
// 1052     protocolCommon_t ack;
// 1053 
// 1054     if(NULL == head)
        MOV     A,R2
        ORL     A,R3
        JNZ     ??gizProtocolCommonAck_0
// 1055     {
// 1056         GIZWITS_LOG("ERROR: gizProtocolCommonAck data is empty \n");
// 1057         return -1;
        MOV     R2,#-0x1
        MOV     R3,#-0x1
        MOV     R4,#-0x1
        MOV     R5,#-0x1
        SJMP    ??gizProtocolCommonAck_1
// 1058     }
// 1059     osal_memcpy((uint8 *)&ack, (uint8 *)head, sizeof(protocolHead_t));
??gizProtocolCommonAck_0:
        ; Setup parameters for call to function osal_memcpy
        MOV     ?V0 + 0,R2
        MOV     ?V0 + 1,R3
        MOV     ?V0 + 2,#0x0
        MOV     R0,#?V0 + 0
        LCALL   ?PUSH_XSTACK_I_THREE
        CFI CFA_XSP16 add(XSP16, 23)
        MOV     R4,#0x8
        MOV     R5,#0x0
        MOV     A,#0x3
        LCALL   ?XSTACK_DISP0_8
        LCALL   ?Subroutine41 & 0xFFFF
??CrossCallReturnLabel_97:
        LCALL   ?DEALLOC_XSTACK8
        CFI CFA_XSP16 add(XSP16, 20)
// 1060     ack.head.cmd = ack.head.cmd+1;
        MOV     A,#0x4
        LCALL   ?XSTACK_DISP0_8
        MOVX    A,@DPTR
        INC     A
        MOVX    @DPTR,A
// 1061     ack.head.len = gizProtocolExchangeBytes(sizeof(protocolCommon_t)-4);
        ; Setup parameters for call to function gizProtocolExchangeBytes
        LCALL   ?Subroutine59 & 0xFFFF
??CrossCallReturnLabel_119:
        LCALL   ?XSTACK_DISP0_8
        LCALL   ?Subroutine12 & 0xFFFF
// 1062     ack.sum = gizProtocolSum((uint8 *)&ack, sizeof(protocolCommon_t));
??CrossCallReturnLabel_126:
        ; Setup parameters for call to function gizProtocolSum
        MOV     DPTR,#__Constant_9
        LCALL   ?PUSH_XSTACK8_X_FOUR
        CFI CFA_XSP16 add(XSP16, 24)
        MOV     A,#0x4
        LCALL   ?XSTACK_DISP0_8
        LCALL   ?Subroutine45 & 0xFFFF
??CrossCallReturnLabel_142:
        LCALL   ?DEALLOC_XSTACK8
        CFI CFA_XSP16 add(XSP16, 20)
        MOV     A,#0x8
        LCALL   ?XSTACK_DISP0_8
        MOV     A,R1
        MOVX    @DPTR,A
// 1063 
// 1064     ret = uartWrite((uint8 *)&ack, sizeof(protocolCommon_t));
// 1065     if(ret < 0)
// 1066     {
// 1067         //ÊâìÂç∞Êó•Âøó
// 1068         GIZWITS_LOG("ERROR: uart write error %d \n", ret);
// 1069     }
// 1070 
// 1071     return ret;
        ; Setup parameters for call to function uartWrite
        MOV     DPTR,#__Constant_9
        LCALL   ?PUSH_XSTACK8_X_FOUR
        CFI CFA_XSP16 add(XSP16, 24)
        MOV     A,#0x4
        LCALL   ?XSTACK_DISP0_8
        LCALL   ?Subroutine46 & 0xFFFF
??CrossCallReturnLabel_134:
        LCALL   ?DEALLOC_XSTACK8
        CFI CFA_XSP16 add(XSP16, 20)
??gizProtocolCommonAck_1:
        MOV     A,#0x9
        CFI EndBlock cfiBlock103
        REQUIRE ?Subroutine6
        ; // Fall through to label ?Subroutine6
// 1072 }

        RSEG BANKED_CODE:CODE:NOROOT(0)
?Subroutine6:
        CFI Block cfiBlock104 Using cfiCommon0
        CFI NoFunction
        CFI CFA_SP SP+0
        CFI CFA_XSP16 add(XSP16, 20)
        CFI VB load(1, XDATA, add(CFA_XSP16, literal(-10)))
        CFI DPL0 load(1, XDATA, add(CFA_XSP16, literal(-2)))
        CFI DPH0 load(1, XDATA, add(CFA_XSP16, literal(-1)))
        CFI R6 load(1, XDATA, add(CFA_XSP16, literal(-11)))
        CFI R7 load(1, XDATA, add(CFA_XSP16, literal(-6)))
        CFI V0 load(1, XDATA, add(CFA_XSP16, literal(-9)))
        CFI V1 load(1, XDATA, add(CFA_XSP16, literal(-8)))
        CFI V2 load(1, XDATA, add(CFA_XSP16, literal(-7)))
        CFI ?BRET_EXT load(1, XDATA, add(CFA_XSP16, literal(-3)))
        CFI ?RET_HIGH load(1, XDATA, add(CFA_XSP16, literal(-4)))
        CFI ?RET_LOW load(1, XDATA, add(CFA_XSP16, literal(-5)))
        CFI Invalid
        LCALL   ?DEALLOC_XSTACK8
        CFI CFA_XSP16 add(XSP16, 11)
        CFI Valid
        MOV     R7,#0x3
        LJMP    ?BANKED_LEAVE_XDATA
        CFI EndBlock cfiBlock104

        RSEG BANKED_CODE:CODE:NOROOT(0)
?Subroutine59:
        CFI Block cfiCond105 Using cfiCommon0
        CFI NoFunction
        CFI Conditional ??CrossCallReturnLabel_119
        CFI R6 load(1, XDATA, add(CFA_XSP16, literal(-11)))
        CFI VB load(1, XDATA, add(CFA_XSP16, literal(-10)))
        CFI V0 load(1, XDATA, add(CFA_XSP16, literal(-9)))
        CFI V1 load(1, XDATA, add(CFA_XSP16, literal(-8)))
        CFI V2 load(1, XDATA, add(CFA_XSP16, literal(-7)))
        CFI R7 load(1, XDATA, add(CFA_XSP16, literal(-6)))
        CFI ?RET_LOW load(1, XDATA, add(CFA_XSP16, literal(-5)))
        CFI ?RET_HIGH load(1, XDATA, add(CFA_XSP16, literal(-4)))
        CFI ?BRET_EXT load(1, XDATA, add(CFA_XSP16, literal(-3)))
        CFI DPL0 load(1, XDATA, add(CFA_XSP16, literal(-2)))
        CFI DPH0 load(1, XDATA, add(CFA_XSP16, literal(-1)))
        CFI CFA_SP SP+0
        CFI CFA_XSP16 add(XSP16, 20)
        CFI Block cfiCond106 Using cfiCommon0
        CFI (cfiCond106) NoFunction
        CFI (cfiCond106) Conditional ??CrossCallReturnLabel_120
        CFI (cfiCond106) R6 load(1, XDATA, add(CFA_XSP16, literal(-12)))
        CFI (cfiCond106) VB load(1, XDATA, add(CFA_XSP16, literal(-11)))
        CFI (cfiCond106) V0 load(1, XDATA, add(CFA_XSP16, literal(-10)))
        CFI (cfiCond106) V1 load(1, XDATA, add(CFA_XSP16, literal(-9)))
        CFI (cfiCond106) V2 load(1, XDATA, add(CFA_XSP16, literal(-8)))
        CFI (cfiCond106) V3 load(1, XDATA, add(CFA_XSP16, literal(-7)))
        CFI (cfiCond106) R7 load(1, XDATA, add(CFA_XSP16, literal(-6)))
        CFI (cfiCond106) ?RET_LOW load(1, XDATA, add(CFA_XSP16, literal(-5)))
        CFI (cfiCond106) ?RET_HIGH load(1, XDATA, add(CFA_XSP16, literal(-4)))
        CFI (cfiCond106) ?BRET_EXT load(1, XDATA, add(CFA_XSP16, literal(-3)))
        CFI (cfiCond106) DPL0 load(1, XDATA, add(CFA_XSP16, literal(-2)))
        CFI (cfiCond106) DPH0 load(1, XDATA, add(CFA_XSP16, literal(-1)))
        CFI (cfiCond106) CFA_SP SP+0
        CFI (cfiCond106) CFA_XSP16 add(XSP16, 21)
        CFI Block cfiPicker107 Using cfiCommon1
        CFI (cfiPicker107) NoFunction
        CFI (cfiPicker107) Picker
        MOV     R2,#0x5
        CFI EndBlock cfiCond105
        CFI EndBlock cfiCond106
        CFI EndBlock cfiPicker107
        REQUIRE ??Subroutine63_0
        ; // Fall through to label ??Subroutine63_0

        RSEG BANKED_CODE:CODE:NOROOT(0)
??Subroutine63_0:
        CFI Block cfiCond108 Using cfiCommon0
        CFI NoFunction
        CFI Conditional ??CrossCallReturnLabel_121
        CFI R6 load(1, XDATA, add(CFA_XSP16, literal(-11)))
        CFI VB load(1, XDATA, add(CFA_XSP16, literal(-10)))
        CFI V0 load(1, XDATA, add(CFA_XSP16, literal(-9)))
        CFI V1 load(1, XDATA, add(CFA_XSP16, literal(-8)))
        CFI V2 load(1, XDATA, add(CFA_XSP16, literal(-7)))
        CFI R7 load(1, XDATA, add(CFA_XSP16, literal(-6)))
        CFI ?RET_LOW load(1, XDATA, add(CFA_XSP16, literal(-5)))
        CFI ?RET_HIGH load(1, XDATA, add(CFA_XSP16, literal(-4)))
        CFI ?BRET_EXT load(1, XDATA, add(CFA_XSP16, literal(-3)))
        CFI DPL0 load(1, XDATA, add(CFA_XSP16, literal(-2)))
        CFI DPH0 load(1, XDATA, add(CFA_XSP16, literal(-1)))
        CFI CFA_SP SP+0
        CFI CFA_XSP16 add(XSP16, 126)
        CFI Block cfiCond109 Using cfiCommon0
        CFI (cfiCond109) NoFunction
        CFI (cfiCond109) Conditional ??CrossCallReturnLabel_122, ??CrossCallReturnLabel_22
        CFI (cfiCond109) R6 load(1, XDATA, add(CFA_XSP16, literal(-9)))
        CFI (cfiCond109) VB load(1, XDATA, add(CFA_XSP16, literal(-8)))
        CFI (cfiCond109) V0 load(1, XDATA, add(CFA_XSP16, literal(-7)))
        CFI (cfiCond109) R7 load(1, XDATA, add(CFA_XSP16, literal(-6)))
        CFI (cfiCond109) ?RET_LOW load(1, XDATA, add(CFA_XSP16, literal(-5)))
        CFI (cfiCond109) ?RET_HIGH load(1, XDATA, add(CFA_XSP16, literal(-4)))
        CFI (cfiCond109) ?BRET_EXT load(1, XDATA, add(CFA_XSP16, literal(-3)))
        CFI (cfiCond109) DPL0 load(1, XDATA, add(CFA_XSP16, literal(-2)))
        CFI (cfiCond109) DPH0 load(1, XDATA, add(CFA_XSP16, literal(-1)))
        CFI (cfiCond109) CFA_SP SP+0
        CFI (cfiCond109) CFA_XSP16 add(XSP16, 19)
        CFI Block cfiCond110 Using cfiCommon0
        CFI (cfiCond110) NoFunction
        CFI (cfiCond110) Conditional ??CrossCallReturnLabel_122, ??CrossCallReturnLabel_23
        CFI (cfiCond110) R6 load(1, XDATA, add(CFA_XSP16, literal(-12)))
        CFI (cfiCond110) VB load(1, XDATA, add(CFA_XSP16, literal(-11)))
        CFI (cfiCond110) V0 load(1, XDATA, add(CFA_XSP16, literal(-10)))
        CFI (cfiCond110) V1 load(1, XDATA, add(CFA_XSP16, literal(-9)))
        CFI (cfiCond110) V2 load(1, XDATA, add(CFA_XSP16, literal(-8)))
        CFI (cfiCond110) V3 load(1, XDATA, add(CFA_XSP16, literal(-7)))
        CFI (cfiCond110) R7 load(1, XDATA, add(CFA_XSP16, literal(-6)))
        CFI (cfiCond110) ?RET_LOW load(1, XDATA, add(CFA_XSP16, literal(-5)))
        CFI (cfiCond110) ?RET_HIGH load(1, XDATA, add(CFA_XSP16, literal(-4)))
        CFI (cfiCond110) ?BRET_EXT load(1, XDATA, add(CFA_XSP16, literal(-3)))
        CFI (cfiCond110) DPL0 load(1, XDATA, add(CFA_XSP16, literal(-2)))
        CFI (cfiCond110) DPH0 load(1, XDATA, add(CFA_XSP16, literal(-1)))
        CFI (cfiCond110) CFA_SP SP+0
        CFI (cfiCond110) CFA_XSP16 add(XSP16, 22)
        CFI Block cfiCond111 Using cfiCommon0
        CFI (cfiCond111) NoFunction
        CFI (cfiCond111) Conditional ??CrossCallReturnLabel_119
        CFI (cfiCond111) R6 load(1, XDATA, add(CFA_XSP16, literal(-11)))
        CFI (cfiCond111) VB load(1, XDATA, add(CFA_XSP16, literal(-10)))
        CFI (cfiCond111) V0 load(1, XDATA, add(CFA_XSP16, literal(-9)))
        CFI (cfiCond111) V1 load(1, XDATA, add(CFA_XSP16, literal(-8)))
        CFI (cfiCond111) V2 load(1, XDATA, add(CFA_XSP16, literal(-7)))
        CFI (cfiCond111) R7 load(1, XDATA, add(CFA_XSP16, literal(-6)))
        CFI (cfiCond111) ?RET_LOW load(1, XDATA, add(CFA_XSP16, literal(-5)))
        CFI (cfiCond111) ?RET_HIGH load(1, XDATA, add(CFA_XSP16, literal(-4)))
        CFI (cfiCond111) ?BRET_EXT load(1, XDATA, add(CFA_XSP16, literal(-3)))
        CFI (cfiCond111) DPL0 load(1, XDATA, add(CFA_XSP16, literal(-2)))
        CFI (cfiCond111) DPH0 load(1, XDATA, add(CFA_XSP16, literal(-1)))
        CFI (cfiCond111) CFA_SP SP+0
        CFI (cfiCond111) CFA_XSP16 add(XSP16, 20)
        CFI Block cfiCond112 Using cfiCommon0
        CFI (cfiCond112) NoFunction
        CFI (cfiCond112) Conditional ??CrossCallReturnLabel_120
        CFI (cfiCond112) R6 load(1, XDATA, add(CFA_XSP16, literal(-12)))
        CFI (cfiCond112) VB load(1, XDATA, add(CFA_XSP16, literal(-11)))
        CFI (cfiCond112) V0 load(1, XDATA, add(CFA_XSP16, literal(-10)))
        CFI (cfiCond112) V1 load(1, XDATA, add(CFA_XSP16, literal(-9)))
        CFI (cfiCond112) V2 load(1, XDATA, add(CFA_XSP16, literal(-8)))
        CFI (cfiCond112) V3 load(1, XDATA, add(CFA_XSP16, literal(-7)))
        CFI (cfiCond112) R7 load(1, XDATA, add(CFA_XSP16, literal(-6)))
        CFI (cfiCond112) ?RET_LOW load(1, XDATA, add(CFA_XSP16, literal(-5)))
        CFI (cfiCond112) ?RET_HIGH load(1, XDATA, add(CFA_XSP16, literal(-4)))
        CFI (cfiCond112) ?BRET_EXT load(1, XDATA, add(CFA_XSP16, literal(-3)))
        CFI (cfiCond112) DPL0 load(1, XDATA, add(CFA_XSP16, literal(-2)))
        CFI (cfiCond112) DPH0 load(1, XDATA, add(CFA_XSP16, literal(-1)))
        CFI (cfiCond112) CFA_SP SP+0
        CFI (cfiCond112) CFA_XSP16 add(XSP16, 21)
        CFI Block cfiPicker113 Using cfiCommon1
        CFI (cfiPicker113) NoFunction
        CFI (cfiPicker113) Picker
        MOV     R3,#0x0
        LCALL   ??gizProtocolExchangeBytes?relay
        MOV     A,#0x2
        RET
        CFI EndBlock cfiCond108
        CFI EndBlock cfiCond109
        CFI EndBlock cfiCond110
        CFI EndBlock cfiCond111
        CFI EndBlock cfiCond112
        CFI EndBlock cfiPicker113
// 1073 
// 1074 /**
// 1075 * @brief ACKÈÄªËæëÂ§ÑÁêÜÂáΩÊï∞
// 1076 
// 1077 * ÂèëÈÄÅÂêéÁöÑÂçèËÆÆÊï∞ÊçÆËøõË°åË∂ÖÊó∂Âà§Êñ≠ÔºåË∂ÖÊó∂200msËøõË°åÈáçÂèëÔºåÈáçÂèë‰∏äÈôê‰∏∫‰∏âÊ¨°
// 1078 
// 1079 * @param none 
// 1080 *
// 1081 * @return none
// 1082 */
// 1083 static void gizProtocolAckHandle(void)
// 1084 {
// 1085     if(1 == gizwitsProtocol.waitAck.flag)
// 1086     {
// 1087         if(SEND_MAX_NUM > gizwitsProtocol.waitAck.num)
// 1088         {
// 1089             // Ë∂ÖÊó∂Êú™Êî∂Âà∞ACKÈáçÂèë
// 1090             if(SEND_MAX_TIME < (gizGetTimerCount() - gizwitsProtocol.waitAck.sendTime))
// 1091             {
// 1092                 GIZWITS_LOG("Warning:gizProtocolResendData %d %d %d\n", gizGetTimerCount(), gizwitsProtocol.waitAck.sendTime, gizwitsProtocol.waitAck.num);
// 1093                 gizProtocolResendData();
// 1094                 gizwitsProtocol.waitAck.num++;
// 1095             }
// 1096         }
// 1097         else
// 1098         {
// 1099             osal_memset((uint8 *)&gizwitsProtocol.waitAck, 0, sizeof(protocolWaitAck_t));
// 1100         }
// 1101     }
// 1102 }
// 1103 
// 1104 /**
// 1105 * @brief ÂçèËÆÆ4.1 WiFiÊ®°ÁªÑËØ∑Ê±ÇËÆæÂ§á‰ø°ÊÅØ
// 1106 *
// 1107 * @param head : ÂæÖÂèëÈÄÅÁöÑÂçèËÆÆÊä•ÊñáÊï∞ÊçÆ
// 1108 *
// 1109 * @return ËøîÂõûÊúâÊïàÊï∞ÊçÆÈïøÂ∫¶; -1ÔºåÈîôËØØËøîÂõ?*/

        RSEG BANKED_CODE:CODE:NOROOT(0)
// 1110 static int32 gizProtocolGetDeviceInfo(protocolHead_t * head)
gizProtocolGetDeviceInfo:
        CFI Block cfiBlock114 Using cfiCommon0
        CFI Function gizProtocolGetDeviceInfo
        CODE
// 1111 {
        FUNCALL gizProtocolGetDeviceInfo, gizProtocolHeadInit
        LOCFRAME ISTACK, 0, STACK
        LOCFRAME PSTACK, 0, STACK
        LOCFRAME XSTACK, 126, STACK
        LOCFRAME IOVERLAY, 0, STATIC
        LOCFRAME DOVERLAY, 0, STATIC
        ARGFRAME ISTACK, 0, STACK
        ARGFRAME PSTACK, 0, STACK
        ARGFRAME XSTACK, 126, STACK
        ARGFRAME IOVERLAY, 0, STATIC
        ARGFRAME DOVERLAY, 0, STATIC
        FUNCALL gizProtocolGetDeviceInfo, osal_memcpy
        LOCFRAME ISTACK, 0, STACK
        LOCFRAME PSTACK, 0, STACK
        LOCFRAME XSTACK, 129, STACK
        LOCFRAME IOVERLAY, 0, STATIC
        LOCFRAME DOVERLAY, 0, STATIC
        ARGFRAME ISTACK, 0, STACK
        ARGFRAME PSTACK, 0, STACK
        ARGFRAME XSTACK, 129, STACK
        ARGFRAME IOVERLAY, 0, STATIC
        ARGFRAME DOVERLAY, 0, STATIC
        FUNCALL gizProtocolGetDeviceInfo, osal_memcpy
        LOCFRAME ISTACK, 0, STACK
        LOCFRAME PSTACK, 0, STACK
        LOCFRAME XSTACK, 129, STACK
        LOCFRAME IOVERLAY, 0, STATIC
        LOCFRAME DOVERLAY, 0, STATIC
        ARGFRAME ISTACK, 0, STACK
        ARGFRAME PSTACK, 0, STACK
        ARGFRAME XSTACK, 129, STACK
        ARGFRAME IOVERLAY, 0, STATIC
        ARGFRAME DOVERLAY, 0, STATIC
        FUNCALL gizProtocolGetDeviceInfo, osal_memcpy
        LOCFRAME ISTACK, 0, STACK
        LOCFRAME PSTACK, 0, STACK
        LOCFRAME XSTACK, 129, STACK
        LOCFRAME IOVERLAY, 0, STATIC
        LOCFRAME DOVERLAY, 0, STATIC
        ARGFRAME ISTACK, 0, STACK
        ARGFRAME PSTACK, 0, STACK
        ARGFRAME XSTACK, 129, STACK
        ARGFRAME IOVERLAY, 0, STATIC
        ARGFRAME DOVERLAY, 0, STATIC
        FUNCALL gizProtocolGetDeviceInfo, osal_memcpy
        LOCFRAME ISTACK, 0, STACK
        LOCFRAME PSTACK, 0, STACK
        LOCFRAME XSTACK, 129, STACK
        LOCFRAME IOVERLAY, 0, STATIC
        LOCFRAME DOVERLAY, 0, STATIC
        ARGFRAME ISTACK, 0, STACK
        ARGFRAME PSTACK, 0, STACK
        ARGFRAME XSTACK, 129, STACK
        ARGFRAME IOVERLAY, 0, STATIC
        ARGFRAME DOVERLAY, 0, STATIC
        FUNCALL gizProtocolGetDeviceInfo, osal_memcpy
        LOCFRAME ISTACK, 0, STACK
        LOCFRAME PSTACK, 0, STACK
        LOCFRAME XSTACK, 129, STACK
        LOCFRAME IOVERLAY, 0, STATIC
        LOCFRAME DOVERLAY, 0, STATIC
        ARGFRAME ISTACK, 0, STACK
        ARGFRAME PSTACK, 0, STACK
        ARGFRAME XSTACK, 129, STACK
        ARGFRAME IOVERLAY, 0, STATIC
        ARGFRAME DOVERLAY, 0, STATIC
        FUNCALL gizProtocolGetDeviceInfo, osal_memcpy
        LOCFRAME ISTACK, 0, STACK
        LOCFRAME PSTACK, 0, STACK
        LOCFRAME XSTACK, 129, STACK
        LOCFRAME IOVERLAY, 0, STATIC
        LOCFRAME DOVERLAY, 0, STATIC
        ARGFRAME ISTACK, 0, STACK
        ARGFRAME PSTACK, 0, STACK
        ARGFRAME XSTACK, 129, STACK
        ARGFRAME IOVERLAY, 0, STATIC
        ARGFRAME DOVERLAY, 0, STATIC
        FUNCALL gizProtocolGetDeviceInfo, osal_memset
        LOCFRAME ISTACK, 0, STACK
        LOCFRAME PSTACK, 0, STACK
        LOCFRAME XSTACK, 126, STACK
        LOCFRAME IOVERLAY, 0, STATIC
        LOCFRAME DOVERLAY, 0, STATIC
        ARGFRAME ISTACK, 0, STACK
        ARGFRAME PSTACK, 0, STACK
        ARGFRAME XSTACK, 126, STACK
        ARGFRAME IOVERLAY, 0, STATIC
        ARGFRAME DOVERLAY, 0, STATIC
        FUNCALL gizProtocolGetDeviceInfo, gizProtocolExchangeBytes
        LOCFRAME ISTACK, 0, STACK
        LOCFRAME PSTACK, 0, STACK
        LOCFRAME XSTACK, 126, STACK
        LOCFRAME IOVERLAY, 0, STATIC
        LOCFRAME DOVERLAY, 0, STATIC
        ARGFRAME ISTACK, 0, STACK
        ARGFRAME PSTACK, 0, STACK
        ARGFRAME XSTACK, 126, STACK
        ARGFRAME IOVERLAY, 0, STATIC
        ARGFRAME DOVERLAY, 0, STATIC
        FUNCALL gizProtocolGetDeviceInfo, gizProtocolExchangeBytes
        LOCFRAME ISTACK, 0, STACK
        LOCFRAME PSTACK, 0, STACK
        LOCFRAME XSTACK, 126, STACK
        LOCFRAME IOVERLAY, 0, STATIC
        LOCFRAME DOVERLAY, 0, STATIC
        ARGFRAME ISTACK, 0, STACK
        ARGFRAME PSTACK, 0, STACK
        ARGFRAME XSTACK, 126, STACK
        ARGFRAME IOVERLAY, 0, STATIC
        ARGFRAME DOVERLAY, 0, STATIC
        FUNCALL gizProtocolGetDeviceInfo, gizProtocolSum
        LOCFRAME ISTACK, 0, STACK
        LOCFRAME PSTACK, 0, STACK
        LOCFRAME XSTACK, 130, STACK
        LOCFRAME IOVERLAY, 0, STATIC
        LOCFRAME DOVERLAY, 0, STATIC
        ARGFRAME ISTACK, 0, STACK
        ARGFRAME PSTACK, 0, STACK
        ARGFRAME XSTACK, 130, STACK
        ARGFRAME IOVERLAY, 0, STATIC
        ARGFRAME DOVERLAY, 0, STATIC
        FUNCALL gizProtocolGetDeviceInfo, uartWrite
        LOCFRAME ISTACK, 0, STACK
        LOCFRAME PSTACK, 0, STACK
        LOCFRAME XSTACK, 130, STACK
        LOCFRAME IOVERLAY, 0, STATIC
        LOCFRAME DOVERLAY, 0, STATIC
        ARGFRAME ISTACK, 0, STACK
        ARGFRAME PSTACK, 0, STACK
        ARGFRAME XSTACK, 130, STACK
        ARGFRAME IOVERLAY, 0, STATIC
        ARGFRAME DOVERLAY, 0, STATIC
        MOV     A,#-0xb
        LCALL   ?BANKED_ENTER_XDATA
        CFI DPH0 load(1, XDATA, add(CFA_XSP16, literal(-1)))
        CFI DPL0 load(1, XDATA, add(CFA_XSP16, literal(-2)))
        CFI ?BRET_EXT load(1, XDATA, add(CFA_XSP16, literal(-3)))
        CFI ?RET_HIGH load(1, XDATA, add(CFA_XSP16, literal(-4)))
        CFI ?RET_LOW load(1, XDATA, add(CFA_XSP16, literal(-5)))
        CFI R7 load(1, XDATA, add(CFA_XSP16, literal(-6)))
        CFI V2 load(1, XDATA, add(CFA_XSP16, literal(-7)))
        CFI V1 load(1, XDATA, add(CFA_XSP16, literal(-8)))
        CFI V0 load(1, XDATA, add(CFA_XSP16, literal(-9)))
        CFI VB load(1, XDATA, add(CFA_XSP16, literal(-10)))
        CFI R6 load(1, XDATA, add(CFA_XSP16, literal(-11)))
        CFI CFA_SP SP+0
        CFI CFA_XSP16 add(XSP16, 11)
        ; Saved register size: 11
        ; Auto size: 115
        MOV     A,#-0x73
        LCALL   ?ALLOC_XSTACK8
        CFI CFA_XSP16 add(XSP16, 126)
        MOV     A,R2
        MOV     R6,A
        MOV     A,R3
        MOV     R7,A
// 1112     int32 ret = 0;
// 1113     protocolDeviceInfo_t deviceInfo;
// 1114 
// 1115     if(NULL == head)
        MOV     A,R6
        ORL     A,R7
        JNZ     ??gizProtocolGetDeviceInfo_0
// 1116     {
// 1117         GIZWITS_LOG("gizProtocolGetDeviceInfo Error , Illegal Param\n");
// 1118         return -1;
        MOV     R2,#-0x1
        MOV     R3,#-0x1
        MOV     R4,#-0x1
        MOV     R5,#-0x1
        LJMP    ??gizProtocolGetDeviceInfo_1 & 0xFFFF
// 1119     }
// 1120 
// 1121     gizProtocolHeadInit((protocolHead_t *)&deviceInfo);
??gizProtocolGetDeviceInfo_0:
        ; Setup parameters for call to function gizProtocolHeadInit
        LCALL   ?Subroutine48 & 0xFFFF
// 1122     deviceInfo.head.cmd = ACK_GET_DEVICE_INFO;
??CrossCallReturnLabel_75:
        LCALL   ?XSTACK_DISP0_8
        MOV     A,#0x2
        LCALL   ?Subroutine16 & 0xFFFF
// 1123     deviceInfo.head.sn = head->sn;
??CrossCallReturnLabel_16:
        PUSH    A
        CFI CFA_SP SP+-1
        MOV     A,#0x5
        LCALL   ?XSTACK_DISP0_8
        POP     A
        CFI CFA_SP SP+0
        MOVX    @DPTR,A
// 1124     osal_memcpy((uint8 *)deviceInfo.protocolVer, protocol_VERSION, 8);
        ; Setup parameters for call to function osal_memcpy
        MOV     ?V0 + 0,#`?<Constant "00000004">` & 0xff
        MOV     ?V0 + 1,#(`?<Constant "00000004">` >> 8) & 0xff
        MOV     ?V0 + 2,#0x0
        MOV     R0,#?V0 + 0
        LCALL   ?PUSH_XSTACK_I_THREE
        CFI CFA_XSP16 add(XSP16, 129)
        MOV     R4,#0x8
        MOV     R5,#0x0
        MOV     A,#0xb
        LCALL   ?XSTACK_DISP0_8
        LCALL   ?Subroutine41 & 0xFFFF
??CrossCallReturnLabel_98:
        LCALL   ?DEALLOC_XSTACK8
        CFI CFA_XSP16 add(XSP16, 126)
// 1125     osal_memcpy((uint8 *)deviceInfo.p0Ver, P0_VERSION, 8);
        ; Setup parameters for call to function osal_memcpy
        MOV     ?V0 + 0,#`?<Constant "00000002">` & 0xff
        MOV     ?V0 + 1,#(`?<Constant "00000002">` >> 8) & 0xff
        MOV     R0,#?V0 + 0
        LCALL   ?PUSH_XSTACK_I_THREE
        CFI CFA_XSP16 add(XSP16, 129)
        MOV     R4,#0x8
        MOV     R5,#0x0
        MOV     A,#0x13
        LCALL   ?XSTACK_DISP0_8
        LCALL   ?Subroutine41 & 0xFFFF
??CrossCallReturnLabel_99:
        LCALL   ?DEALLOC_XSTACK8
        CFI CFA_XSP16 add(XSP16, 126)
// 1126     osal_memcpy((uint8 *)deviceInfo.softVer, SOFTWARE_VERSION, 8);
        ; Setup parameters for call to function osal_memcpy
        MOV     ?V0 + 0,#`?<Constant "03010101">` & 0xff
        MOV     ?V0 + 1,#(`?<Constant "03010101">` >> 8) & 0xff
        MOV     R0,#?V0 + 0
        LCALL   ?PUSH_XSTACK_I_THREE
        CFI CFA_XSP16 add(XSP16, 129)
        MOV     R4,#0x8
        MOV     R5,#0x0
        MOV     A,#0x23
        LCALL   ?XSTACK_DISP0_8
        LCALL   ?Subroutine41 & 0xFFFF
??CrossCallReturnLabel_100:
        LCALL   ?DEALLOC_XSTACK8
        CFI CFA_XSP16 add(XSP16, 126)
// 1127     osal_memcpy((uint8 *)deviceInfo.hardVer, HARDWARE_VERSION, 8);
        ; Setup parameters for call to function osal_memcpy
        MOV     ?V0 + 0,#`?<Constant "03010100">` & 0xff
        MOV     ?V0 + 1,#(`?<Constant "03010100">` >> 8) & 0xff
        MOV     R0,#?V0 + 0
        LCALL   ?PUSH_XSTACK_I_THREE
        CFI CFA_XSP16 add(XSP16, 129)
        MOV     R4,#0x8
        MOV     R5,#0x0
        MOV     A,#0x1b
        LCALL   ?XSTACK_DISP0_8
        LCALL   ?Subroutine41 & 0xFFFF
??CrossCallReturnLabel_101:
        LCALL   ?DEALLOC_XSTACK8
        CFI CFA_XSP16 add(XSP16, 126)
// 1128     osal_memcpy((uint8 *)deviceInfo.productKey, PRODUCT_KEY, 32);//strlen(PRODUCT_KEY));
        ; Setup parameters for call to function osal_memcpy
        MOV     ?V0 + 0,#`?<Constant "5b3ad15cc49e41b08b7d5...">` & 0xff
        MOV     ?V0 + 1,#(`?<Constant "5b3ad15cc49e41b08b7d5...">` >> 8) & 0xff
        MOV     R0,#?V0 + 0
        LCALL   ?PUSH_XSTACK_I_THREE
        CFI CFA_XSP16 add(XSP16, 129)
        MOV     R4,#0x20
        MOV     R5,#0x0
        MOV     A,#0x2b
        LCALL   ?XSTACK_DISP0_8
        LCALL   ?Subroutine41 & 0xFFFF
??CrossCallReturnLabel_102:
        LCALL   ?DEALLOC_XSTACK8
        CFI CFA_XSP16 add(XSP16, 126)
// 1129     osal_memcpy((uint8 *)deviceInfo.productSecret, PRODUCT_SECRET, 32);//strlen(PRODUCT_SECRET));
        ; Setup parameters for call to function osal_memcpy
        MOV     ?V0 + 0,#`?<Constant "553f92879b014e4680b2f...">` & 0xff
        MOV     ?V0 + 1,#(`?<Constant "553f92879b014e4680b2f...">` >> 8) & 0xff
        MOV     R0,#?V0 + 0
        LCALL   ?PUSH_XSTACK_I_THREE
        CFI CFA_XSP16 add(XSP16, 129)
        MOV     R4,#0x20
        MOV     R5,#0x0
        MOV     A,#0x55
        LCALL   ?XSTACK_DISP0_8
        LCALL   ?Subroutine41 & 0xFFFF
??CrossCallReturnLabel_103:
        LCALL   ?DEALLOC_XSTACK8
        CFI CFA_XSP16 add(XSP16, 126)
// 1130     osal_memset((uint8 *)deviceInfo.devAttr, 0, 8);
        ; Setup parameters for call to function osal_memset
        MOV     R4,#0x8
        MOV     R5,#0x0
        MOV     R1,#0x0
        MOV     A,#0x4a
        LCALL   ?XSTACK_DISP0_8
        MOV     R2,DPL
        MOV     R3,DPH
        LCALL   ??osal_memset?relay
// 1131     deviceInfo.devAttr[7] |= DEV_IS_GATEWAY<<0;
// 1132     deviceInfo.devAttr[7] |= (0x01<<1);
        MOV     A,#0x51
        LCALL   ?XSTACK_DISP0_8
        MOVX    A,@DPTR
        SETB    0xE0 /* A   */.1
        MOVX    @DPTR,A
// 1133     deviceInfo.ninableTime = gizProtocolExchangeBytes(NINABLETIME);
        ; Setup parameters for call to function gizProtocolExchangeBytes
        MOV     R2,#0x0
        MOV     R3,#0x0
        LCALL   ??gizProtocolExchangeBytes?relay
        MOV     A,#0x48
        LCALL   ?XSTACK_DISP0_8
        LCALL   ?Subroutine12 & 0xFFFF
// 1134     deviceInfo.head.len = gizProtocolExchangeBytes(sizeof(protocolDeviceInfo_t)-4);
??CrossCallReturnLabel_127:
        ; Setup parameters for call to function gizProtocolExchangeBytes
        MOV     R2,#0x6f
        LCALL   ??Subroutine63_0 & 0xFFFF
??CrossCallReturnLabel_121:
        LCALL   ?XSTACK_DISP0_8
        LCALL   ?Subroutine12 & 0xFFFF
// 1135     deviceInfo.sum = gizProtocolSum((uint8 *)&deviceInfo, sizeof(protocolDeviceInfo_t));
??CrossCallReturnLabel_128:
        ; Setup parameters for call to function gizProtocolSum
        MOV     DPTR,#__Constant_73
        LCALL   ?PUSH_XSTACK8_X_FOUR
        CFI CFA_XSP16 add(XSP16, 130)
        MOV     A,#0x4
        LCALL   ?XSTACK_DISP0_8
        LCALL   ?Subroutine45 & 0xFFFF
??CrossCallReturnLabel_143:
        LCALL   ?DEALLOC_XSTACK8
        CFI CFA_XSP16 add(XSP16, 126)
        MOV     A,#0x72
        LCALL   ?XSTACK_DISP0_8
        MOV     A,R1
        MOVX    @DPTR,A
// 1136 
// 1137     ret = uartWrite((uint8 *)&deviceInfo, sizeof(protocolDeviceInfo_t));
// 1138     if(ret < 0)
// 1139     {
// 1140         //ÊâìÂç∞Êó•Âøó
// 1141         GIZWITS_LOG("ERROR: uart write error %d \n", ret);
// 1142     }
// 1143     
// 1144     return ret;
        ; Setup parameters for call to function uartWrite
        MOV     DPTR,#__Constant_73
        LCALL   ?PUSH_XSTACK8_X_FOUR
        CFI CFA_XSP16 add(XSP16, 130)
        MOV     A,#0x4
        LCALL   ?XSTACK_DISP0_8
        LCALL   ?Subroutine46 & 0xFFFF
??CrossCallReturnLabel_135:
        LCALL   ?DEALLOC_XSTACK8
        CFI CFA_XSP16 add(XSP16, 126)
??gizProtocolGetDeviceInfo_1:
        MOV     A,#0x73
        LJMP    ?Subroutine6 & 0xFFFF
        CFI EndBlock cfiBlock114
// 1145 }

        RSEG BANKED_CODE:CODE:NOROOT(0)
?Subroutine12:
        CFI Block cfiCond115 Using cfiCommon0
        CFI NoFunction
        CFI Conditional ??CrossCallReturnLabel_124
        CFI R6 load(1, XDATA, add(CFA_XSP16, literal(-24)))
        CFI VB load(1, XDATA, add(CFA_XSP16, literal(-23)))
        CFI V0 load(1, XDATA, add(CFA_XSP16, literal(-22)))
        CFI V1 load(1, XDATA, add(CFA_XSP16, literal(-21)))
        CFI V2 load(1, XDATA, add(CFA_XSP16, literal(-20)))
        CFI V3 load(1, XDATA, add(CFA_XSP16, literal(-19)))
        CFI V4 load(1, XDATA, add(CFA_XSP16, literal(-18)))
        CFI V5 load(1, XDATA, add(CFA_XSP16, literal(-17)))
        CFI V6 load(1, XDATA, add(CFA_XSP16, literal(-16)))
        CFI V7 load(1, XDATA, add(CFA_XSP16, literal(-15)))
        CFI V8 load(1, XDATA, add(CFA_XSP16, literal(-14)))
        CFI V9 load(1, XDATA, add(CFA_XSP16, literal(-13)))
        CFI V10 load(1, XDATA, add(CFA_XSP16, literal(-12)))
        CFI V11 load(1, XDATA, add(CFA_XSP16, literal(-11)))
        CFI V12 load(1, XDATA, add(CFA_XSP16, literal(-10)))
        CFI V13 load(1, XDATA, add(CFA_XSP16, literal(-9)))
        CFI V14 load(1, XDATA, add(CFA_XSP16, literal(-8)))
        CFI V15 load(1, XDATA, add(CFA_XSP16, literal(-7)))
        CFI R7 load(1, XDATA, add(CFA_XSP16, literal(-6)))
        CFI ?RET_LOW load(1, XDATA, add(CFA_XSP16, literal(-5)))
        CFI ?RET_HIGH load(1, XDATA, add(CFA_XSP16, literal(-4)))
        CFI ?BRET_EXT load(1, XDATA, add(CFA_XSP16, literal(-3)))
        CFI DPL0 load(1, XDATA, add(CFA_XSP16, literal(-2)))
        CFI DPH0 load(1, XDATA, add(CFA_XSP16, literal(-1)))
        CFI CFA_SP SP+0
        CFI CFA_XSP16 add(XSP16, 28)
        CFI Block cfiCond116 Using cfiCommon0
        CFI (cfiCond116) NoFunction
        CFI (cfiCond116) Conditional ??CrossCallReturnLabel_125
        CFI (cfiCond116) DPL0 Frame(CFA_SP, 4)
        CFI (cfiCond116) DPH0 Frame(CFA_SP, 5)
        CFI (cfiCond116) CFA_SP SP+-5
        CFI (cfiCond116) CFA_XSP16 add(XSP16, 4)
        CFI Block cfiCond117 Using cfiCommon0
        CFI (cfiCond117) NoFunction
        CFI (cfiCond117) Conditional ??CrossCallReturnLabel_126
        CFI (cfiCond117) R6 load(1, XDATA, add(CFA_XSP16, literal(-11)))
        CFI (cfiCond117) VB load(1, XDATA, add(CFA_XSP16, literal(-10)))
        CFI (cfiCond117) V0 load(1, XDATA, add(CFA_XSP16, literal(-9)))
        CFI (cfiCond117) V1 load(1, XDATA, add(CFA_XSP16, literal(-8)))
        CFI (cfiCond117) V2 load(1, XDATA, add(CFA_XSP16, literal(-7)))
        CFI (cfiCond117) R7 load(1, XDATA, add(CFA_XSP16, literal(-6)))
        CFI (cfiCond117) ?RET_LOW load(1, XDATA, add(CFA_XSP16, literal(-5)))
        CFI (cfiCond117) ?RET_HIGH load(1, XDATA, add(CFA_XSP16, literal(-4)))
        CFI (cfiCond117) ?BRET_EXT load(1, XDATA, add(CFA_XSP16, literal(-3)))
        CFI (cfiCond117) DPL0 load(1, XDATA, add(CFA_XSP16, literal(-2)))
        CFI (cfiCond117) DPH0 load(1, XDATA, add(CFA_XSP16, literal(-1)))
        CFI (cfiCond117) CFA_SP SP+0
        CFI (cfiCond117) CFA_XSP16 add(XSP16, 20)
        CFI Block cfiCond118 Using cfiCommon0
        CFI (cfiCond118) NoFunction
        CFI (cfiCond118) Conditional ??CrossCallReturnLabel_127
        CFI (cfiCond118) R6 load(1, XDATA, add(CFA_XSP16, literal(-11)))
        CFI (cfiCond118) VB load(1, XDATA, add(CFA_XSP16, literal(-10)))
        CFI (cfiCond118) V0 load(1, XDATA, add(CFA_XSP16, literal(-9)))
        CFI (cfiCond118) V1 load(1, XDATA, add(CFA_XSP16, literal(-8)))
        CFI (cfiCond118) V2 load(1, XDATA, add(CFA_XSP16, literal(-7)))
        CFI (cfiCond118) R7 load(1, XDATA, add(CFA_XSP16, literal(-6)))
        CFI (cfiCond118) ?RET_LOW load(1, XDATA, add(CFA_XSP16, literal(-5)))
        CFI (cfiCond118) ?RET_HIGH load(1, XDATA, add(CFA_XSP16, literal(-4)))
        CFI (cfiCond118) ?BRET_EXT load(1, XDATA, add(CFA_XSP16, literal(-3)))
        CFI (cfiCond118) DPL0 load(1, XDATA, add(CFA_XSP16, literal(-2)))
        CFI (cfiCond118) DPH0 load(1, XDATA, add(CFA_XSP16, literal(-1)))
        CFI (cfiCond118) CFA_SP SP+0
        CFI (cfiCond118) CFA_XSP16 add(XSP16, 126)
        CFI Block cfiCond119 Using cfiCommon0
        CFI (cfiCond119) NoFunction
        CFI (cfiCond119) Conditional ??CrossCallReturnLabel_128
        CFI (cfiCond119) R6 load(1, XDATA, add(CFA_XSP16, literal(-11)))
        CFI (cfiCond119) VB load(1, XDATA, add(CFA_XSP16, literal(-10)))
        CFI (cfiCond119) V0 load(1, XDATA, add(CFA_XSP16, literal(-9)))
        CFI (cfiCond119) V1 load(1, XDATA, add(CFA_XSP16, literal(-8)))
        CFI (cfiCond119) V2 load(1, XDATA, add(CFA_XSP16, literal(-7)))
        CFI (cfiCond119) R7 load(1, XDATA, add(CFA_XSP16, literal(-6)))
        CFI (cfiCond119) ?RET_LOW load(1, XDATA, add(CFA_XSP16, literal(-5)))
        CFI (cfiCond119) ?RET_HIGH load(1, XDATA, add(CFA_XSP16, literal(-4)))
        CFI (cfiCond119) ?BRET_EXT load(1, XDATA, add(CFA_XSP16, literal(-3)))
        CFI (cfiCond119) DPL0 load(1, XDATA, add(CFA_XSP16, literal(-2)))
        CFI (cfiCond119) DPH0 load(1, XDATA, add(CFA_XSP16, literal(-1)))
        CFI (cfiCond119) CFA_SP SP+0
        CFI (cfiCond119) CFA_XSP16 add(XSP16, 126)
        CFI Block cfiCond120 Using cfiCommon0
        CFI (cfiCond120) NoFunction
        CFI (cfiCond120) Conditional ??CrossCallReturnLabel_129
        CFI (cfiCond120) R6 load(1, XDATA, add(CFA_XSP16, literal(-9)))
        CFI (cfiCond120) VB load(1, XDATA, add(CFA_XSP16, literal(-8)))
        CFI (cfiCond120) V0 load(1, XDATA, add(CFA_XSP16, literal(-7)))
        CFI (cfiCond120) R7 load(1, XDATA, add(CFA_XSP16, literal(-6)))
        CFI (cfiCond120) ?RET_LOW load(1, XDATA, add(CFA_XSP16, literal(-5)))
        CFI (cfiCond120) ?RET_HIGH load(1, XDATA, add(CFA_XSP16, literal(-4)))
        CFI (cfiCond120) ?BRET_EXT load(1, XDATA, add(CFA_XSP16, literal(-3)))
        CFI (cfiCond120) DPL0 load(1, XDATA, add(CFA_XSP16, literal(-2)))
        CFI (cfiCond120) DPH0 load(1, XDATA, add(CFA_XSP16, literal(-1)))
        CFI (cfiCond120) CFA_SP SP+0
        CFI (cfiCond120) CFA_XSP16 add(XSP16, 19)
        CFI Block cfiCond121 Using cfiCommon0
        CFI (cfiCond121) NoFunction
        CFI (cfiCond121) Conditional ??CrossCallReturnLabel_130
        CFI (cfiCond121) R6 load(1, XDATA, add(CFA_XSP16, literal(-12)))
        CFI (cfiCond121) VB load(1, XDATA, add(CFA_XSP16, literal(-11)))
        CFI (cfiCond121) V0 load(1, XDATA, add(CFA_XSP16, literal(-10)))
        CFI (cfiCond121) V1 load(1, XDATA, add(CFA_XSP16, literal(-9)))
        CFI (cfiCond121) V2 load(1, XDATA, add(CFA_XSP16, literal(-8)))
        CFI (cfiCond121) V3 load(1, XDATA, add(CFA_XSP16, literal(-7)))
        CFI (cfiCond121) R7 load(1, XDATA, add(CFA_XSP16, literal(-6)))
        CFI (cfiCond121) ?RET_LOW load(1, XDATA, add(CFA_XSP16, literal(-5)))
        CFI (cfiCond121) ?RET_HIGH load(1, XDATA, add(CFA_XSP16, literal(-4)))
        CFI (cfiCond121) ?BRET_EXT load(1, XDATA, add(CFA_XSP16, literal(-3)))
        CFI (cfiCond121) DPL0 load(1, XDATA, add(CFA_XSP16, literal(-2)))
        CFI (cfiCond121) DPH0 load(1, XDATA, add(CFA_XSP16, literal(-1)))
        CFI (cfiCond121) CFA_SP SP+0
        CFI (cfiCond121) CFA_XSP16 add(XSP16, 22)
        CFI Block cfiCond122 Using cfiCommon0
        CFI (cfiCond122) NoFunction
        CFI (cfiCond122) Conditional ??CrossCallReturnLabel_131
        CFI (cfiCond122) R6 load(1, XDATA, add(CFA_XSP16, literal(-12)))
        CFI (cfiCond122) VB load(1, XDATA, add(CFA_XSP16, literal(-11)))
        CFI (cfiCond122) V0 load(1, XDATA, add(CFA_XSP16, literal(-10)))
        CFI (cfiCond122) V1 load(1, XDATA, add(CFA_XSP16, literal(-9)))
        CFI (cfiCond122) V2 load(1, XDATA, add(CFA_XSP16, literal(-8)))
        CFI (cfiCond122) V3 load(1, XDATA, add(CFA_XSP16, literal(-7)))
        CFI (cfiCond122) R7 load(1, XDATA, add(CFA_XSP16, literal(-6)))
        CFI (cfiCond122) ?RET_LOW load(1, XDATA, add(CFA_XSP16, literal(-5)))
        CFI (cfiCond122) ?RET_HIGH load(1, XDATA, add(CFA_XSP16, literal(-4)))
        CFI (cfiCond122) ?BRET_EXT load(1, XDATA, add(CFA_XSP16, literal(-3)))
        CFI (cfiCond122) DPL0 load(1, XDATA, add(CFA_XSP16, literal(-2)))
        CFI (cfiCond122) DPH0 load(1, XDATA, add(CFA_XSP16, literal(-1)))
        CFI (cfiCond122) CFA_SP SP+0
        CFI (cfiCond122) CFA_XSP16 add(XSP16, 21)
        CFI Block cfiCond123 Using cfiCommon0
        CFI (cfiCond123) NoFunction
        CFI (cfiCond123) Conditional ??CrossCallReturnLabel_132
        CFI (cfiCond123) R6 load(1, XDATA, add(CFA_XSP16, literal(-24)))
        CFI (cfiCond123) VB load(1, XDATA, add(CFA_XSP16, literal(-23)))
        CFI (cfiCond123) V0 load(1, XDATA, add(CFA_XSP16, literal(-22)))
        CFI (cfiCond123) V1 load(1, XDATA, add(CFA_XSP16, literal(-21)))
        CFI (cfiCond123) V2 load(1, XDATA, add(CFA_XSP16, literal(-20)))
        CFI (cfiCond123) V3 load(1, XDATA, add(CFA_XSP16, literal(-19)))
        CFI (cfiCond123) V4 load(1, XDATA, add(CFA_XSP16, literal(-18)))
        CFI (cfiCond123) V5 load(1, XDATA, add(CFA_XSP16, literal(-17)))
        CFI (cfiCond123) V6 load(1, XDATA, add(CFA_XSP16, literal(-16)))
        CFI (cfiCond123) V7 load(1, XDATA, add(CFA_XSP16, literal(-15)))
        CFI (cfiCond123) V8 load(1, XDATA, add(CFA_XSP16, literal(-14)))
        CFI (cfiCond123) V9 load(1, XDATA, add(CFA_XSP16, literal(-13)))
        CFI (cfiCond123) V10 load(1, XDATA, add(CFA_XSP16, literal(-12)))
        CFI (cfiCond123) V11 load(1, XDATA, add(CFA_XSP16, literal(-11)))
        CFI (cfiCond123) V12 load(1, XDATA, add(CFA_XSP16, literal(-10)))
        CFI (cfiCond123) V13 load(1, XDATA, add(CFA_XSP16, literal(-9)))
        CFI (cfiCond123) V14 load(1, XDATA, add(CFA_XSP16, literal(-8)))
        CFI (cfiCond123) V15 load(1, XDATA, add(CFA_XSP16, literal(-7)))
        CFI (cfiCond123) R7 load(1, XDATA, add(CFA_XSP16, literal(-6)))
        CFI (cfiCond123) ?RET_LOW load(1, XDATA, add(CFA_XSP16, literal(-5)))
        CFI (cfiCond123) ?RET_HIGH load(1, XDATA, add(CFA_XSP16, literal(-4)))
        CFI (cfiCond123) ?BRET_EXT load(1, XDATA, add(CFA_XSP16, literal(-3)))
        CFI (cfiCond123) DPL0 load(1, XDATA, add(CFA_XSP16, literal(-2)))
        CFI (cfiCond123) DPH0 load(1, XDATA, add(CFA_XSP16, literal(-1)))
        CFI (cfiCond123) CFA_SP SP+0
        CFI (cfiCond123) CFA_XSP16 add(XSP16, 92)
        CFI Block cfiPicker124 Using cfiCommon1
        CFI (cfiPicker124) NoFunction
        CFI (cfiPicker124) Picker
        MOV     A,R2
        CFI EndBlock cfiCond115
        CFI EndBlock cfiCond116
        CFI EndBlock cfiCond117
        CFI EndBlock cfiCond118
        CFI EndBlock cfiCond119
        CFI EndBlock cfiCond120
        CFI EndBlock cfiCond121
        CFI EndBlock cfiCond122
        CFI EndBlock cfiCond123
        CFI EndBlock cfiPicker124
        REQUIRE ??Subroutine64_0
        ; // Fall through to label ??Subroutine64_0

        RSEG BANKED_CODE:CODE:NOROOT(0)
??Subroutine64_0:
        CFI Block cfiCond125 Using cfiCommon0
        CFI NoFunction
        CFI Conditional ??CrossCallReturnLabel_123
        CFI R6 load(1, XDATA, add(CFA_XSP16, literal(-12)))
        CFI VB load(1, XDATA, add(CFA_XSP16, literal(-11)))
        CFI V0 load(1, XDATA, add(CFA_XSP16, literal(-10)))
        CFI V1 load(1, XDATA, add(CFA_XSP16, literal(-9)))
        CFI V2 load(1, XDATA, add(CFA_XSP16, literal(-8)))
        CFI V3 load(1, XDATA, add(CFA_XSP16, literal(-7)))
        CFI R7 load(1, XDATA, add(CFA_XSP16, literal(-6)))
        CFI ?RET_LOW load(1, XDATA, add(CFA_XSP16, literal(-5)))
        CFI ?RET_HIGH load(1, XDATA, add(CFA_XSP16, literal(-4)))
        CFI ?BRET_EXT load(1, XDATA, add(CFA_XSP16, literal(-3)))
        CFI DPL0 load(1, XDATA, add(CFA_XSP16, literal(-2)))
        CFI DPH0 load(1, XDATA, add(CFA_XSP16, literal(-1)))
        CFI CFA_SP SP+0
        CFI CFA_XSP16 add(XSP16, 12)
        CFI Block cfiCond126 Using cfiCommon0
        CFI (cfiCond126) NoFunction
        CFI (cfiCond126) Conditional ??CrossCallReturnLabel_124
        CFI (cfiCond126) R6 load(1, XDATA, add(CFA_XSP16, literal(-24)))
        CFI (cfiCond126) VB load(1, XDATA, add(CFA_XSP16, literal(-23)))
        CFI (cfiCond126) V0 load(1, XDATA, add(CFA_XSP16, literal(-22)))
        CFI (cfiCond126) V1 load(1, XDATA, add(CFA_XSP16, literal(-21)))
        CFI (cfiCond126) V2 load(1, XDATA, add(CFA_XSP16, literal(-20)))
        CFI (cfiCond126) V3 load(1, XDATA, add(CFA_XSP16, literal(-19)))
        CFI (cfiCond126) V4 load(1, XDATA, add(CFA_XSP16, literal(-18)))
        CFI (cfiCond126) V5 load(1, XDATA, add(CFA_XSP16, literal(-17)))
        CFI (cfiCond126) V6 load(1, XDATA, add(CFA_XSP16, literal(-16)))
        CFI (cfiCond126) V7 load(1, XDATA, add(CFA_XSP16, literal(-15)))
        CFI (cfiCond126) V8 load(1, XDATA, add(CFA_XSP16, literal(-14)))
        CFI (cfiCond126) V9 load(1, XDATA, add(CFA_XSP16, literal(-13)))
        CFI (cfiCond126) V10 load(1, XDATA, add(CFA_XSP16, literal(-12)))
        CFI (cfiCond126) V11 load(1, XDATA, add(CFA_XSP16, literal(-11)))
        CFI (cfiCond126) V12 load(1, XDATA, add(CFA_XSP16, literal(-10)))
        CFI (cfiCond126) V13 load(1, XDATA, add(CFA_XSP16, literal(-9)))
        CFI (cfiCond126) V14 load(1, XDATA, add(CFA_XSP16, literal(-8)))
        CFI (cfiCond126) V15 load(1, XDATA, add(CFA_XSP16, literal(-7)))
        CFI (cfiCond126) R7 load(1, XDATA, add(CFA_XSP16, literal(-6)))
        CFI (cfiCond126) ?RET_LOW load(1, XDATA, add(CFA_XSP16, literal(-5)))
        CFI (cfiCond126) ?RET_HIGH load(1, XDATA, add(CFA_XSP16, literal(-4)))
        CFI (cfiCond126) ?BRET_EXT load(1, XDATA, add(CFA_XSP16, literal(-3)))
        CFI (cfiCond126) DPL0 load(1, XDATA, add(CFA_XSP16, literal(-2)))
        CFI (cfiCond126) DPH0 load(1, XDATA, add(CFA_XSP16, literal(-1)))
        CFI (cfiCond126) CFA_SP SP+0
        CFI (cfiCond126) CFA_XSP16 add(XSP16, 28)
        CFI Block cfiCond127 Using cfiCommon0
        CFI (cfiCond127) NoFunction
        CFI (cfiCond127) Conditional ??CrossCallReturnLabel_125
        CFI (cfiCond127) DPL0 Frame(CFA_SP, 4)
        CFI (cfiCond127) DPH0 Frame(CFA_SP, 5)
        CFI (cfiCond127) CFA_SP SP+-5
        CFI (cfiCond127) CFA_XSP16 add(XSP16, 4)
        CFI Block cfiCond128 Using cfiCommon0
        CFI (cfiCond128) NoFunction
        CFI (cfiCond128) Conditional ??CrossCallReturnLabel_126
        CFI (cfiCond128) R6 load(1, XDATA, add(CFA_XSP16, literal(-11)))
        CFI (cfiCond128) VB load(1, XDATA, add(CFA_XSP16, literal(-10)))
        CFI (cfiCond128) V0 load(1, XDATA, add(CFA_XSP16, literal(-9)))
        CFI (cfiCond128) V1 load(1, XDATA, add(CFA_XSP16, literal(-8)))
        CFI (cfiCond128) V2 load(1, XDATA, add(CFA_XSP16, literal(-7)))
        CFI (cfiCond128) R7 load(1, XDATA, add(CFA_XSP16, literal(-6)))
        CFI (cfiCond128) ?RET_LOW load(1, XDATA, add(CFA_XSP16, literal(-5)))
        CFI (cfiCond128) ?RET_HIGH load(1, XDATA, add(CFA_XSP16, literal(-4)))
        CFI (cfiCond128) ?BRET_EXT load(1, XDATA, add(CFA_XSP16, literal(-3)))
        CFI (cfiCond128) DPL0 load(1, XDATA, add(CFA_XSP16, literal(-2)))
        CFI (cfiCond128) DPH0 load(1, XDATA, add(CFA_XSP16, literal(-1)))
        CFI (cfiCond128) CFA_SP SP+0
        CFI (cfiCond128) CFA_XSP16 add(XSP16, 20)
        CFI Block cfiCond129 Using cfiCommon0
        CFI (cfiCond129) NoFunction
        CFI (cfiCond129) Conditional ??CrossCallReturnLabel_127
        CFI (cfiCond129) R6 load(1, XDATA, add(CFA_XSP16, literal(-11)))
        CFI (cfiCond129) VB load(1, XDATA, add(CFA_XSP16, literal(-10)))
        CFI (cfiCond129) V0 load(1, XDATA, add(CFA_XSP16, literal(-9)))
        CFI (cfiCond129) V1 load(1, XDATA, add(CFA_XSP16, literal(-8)))
        CFI (cfiCond129) V2 load(1, XDATA, add(CFA_XSP16, literal(-7)))
        CFI (cfiCond129) R7 load(1, XDATA, add(CFA_XSP16, literal(-6)))
        CFI (cfiCond129) ?RET_LOW load(1, XDATA, add(CFA_XSP16, literal(-5)))
        CFI (cfiCond129) ?RET_HIGH load(1, XDATA, add(CFA_XSP16, literal(-4)))
        CFI (cfiCond129) ?BRET_EXT load(1, XDATA, add(CFA_XSP16, literal(-3)))
        CFI (cfiCond129) DPL0 load(1, XDATA, add(CFA_XSP16, literal(-2)))
        CFI (cfiCond129) DPH0 load(1, XDATA, add(CFA_XSP16, literal(-1)))
        CFI (cfiCond129) CFA_SP SP+0
        CFI (cfiCond129) CFA_XSP16 add(XSP16, 126)
        CFI Block cfiCond130 Using cfiCommon0
        CFI (cfiCond130) NoFunction
        CFI (cfiCond130) Conditional ??CrossCallReturnLabel_128
        CFI (cfiCond130) R6 load(1, XDATA, add(CFA_XSP16, literal(-11)))
        CFI (cfiCond130) VB load(1, XDATA, add(CFA_XSP16, literal(-10)))
        CFI (cfiCond130) V0 load(1, XDATA, add(CFA_XSP16, literal(-9)))
        CFI (cfiCond130) V1 load(1, XDATA, add(CFA_XSP16, literal(-8)))
        CFI (cfiCond130) V2 load(1, XDATA, add(CFA_XSP16, literal(-7)))
        CFI (cfiCond130) R7 load(1, XDATA, add(CFA_XSP16, literal(-6)))
        CFI (cfiCond130) ?RET_LOW load(1, XDATA, add(CFA_XSP16, literal(-5)))
        CFI (cfiCond130) ?RET_HIGH load(1, XDATA, add(CFA_XSP16, literal(-4)))
        CFI (cfiCond130) ?BRET_EXT load(1, XDATA, add(CFA_XSP16, literal(-3)))
        CFI (cfiCond130) DPL0 load(1, XDATA, add(CFA_XSP16, literal(-2)))
        CFI (cfiCond130) DPH0 load(1, XDATA, add(CFA_XSP16, literal(-1)))
        CFI (cfiCond130) CFA_SP SP+0
        CFI (cfiCond130) CFA_XSP16 add(XSP16, 126)
        CFI Block cfiCond131 Using cfiCommon0
        CFI (cfiCond131) NoFunction
        CFI (cfiCond131) Conditional ??CrossCallReturnLabel_129
        CFI (cfiCond131) R6 load(1, XDATA, add(CFA_XSP16, literal(-9)))
        CFI (cfiCond131) VB load(1, XDATA, add(CFA_XSP16, literal(-8)))
        CFI (cfiCond131) V0 load(1, XDATA, add(CFA_XSP16, literal(-7)))
        CFI (cfiCond131) R7 load(1, XDATA, add(CFA_XSP16, literal(-6)))
        CFI (cfiCond131) ?RET_LOW load(1, XDATA, add(CFA_XSP16, literal(-5)))
        CFI (cfiCond131) ?RET_HIGH load(1, XDATA, add(CFA_XSP16, literal(-4)))
        CFI (cfiCond131) ?BRET_EXT load(1, XDATA, add(CFA_XSP16, literal(-3)))
        CFI (cfiCond131) DPL0 load(1, XDATA, add(CFA_XSP16, literal(-2)))
        CFI (cfiCond131) DPH0 load(1, XDATA, add(CFA_XSP16, literal(-1)))
        CFI (cfiCond131) CFA_SP SP+0
        CFI (cfiCond131) CFA_XSP16 add(XSP16, 19)
        CFI Block cfiCond132 Using cfiCommon0
        CFI (cfiCond132) NoFunction
        CFI (cfiCond132) Conditional ??CrossCallReturnLabel_130
        CFI (cfiCond132) R6 load(1, XDATA, add(CFA_XSP16, literal(-12)))
        CFI (cfiCond132) VB load(1, XDATA, add(CFA_XSP16, literal(-11)))
        CFI (cfiCond132) V0 load(1, XDATA, add(CFA_XSP16, literal(-10)))
        CFI (cfiCond132) V1 load(1, XDATA, add(CFA_XSP16, literal(-9)))
        CFI (cfiCond132) V2 load(1, XDATA, add(CFA_XSP16, literal(-8)))
        CFI (cfiCond132) V3 load(1, XDATA, add(CFA_XSP16, literal(-7)))
        CFI (cfiCond132) R7 load(1, XDATA, add(CFA_XSP16, literal(-6)))
        CFI (cfiCond132) ?RET_LOW load(1, XDATA, add(CFA_XSP16, literal(-5)))
        CFI (cfiCond132) ?RET_HIGH load(1, XDATA, add(CFA_XSP16, literal(-4)))
        CFI (cfiCond132) ?BRET_EXT load(1, XDATA, add(CFA_XSP16, literal(-3)))
        CFI (cfiCond132) DPL0 load(1, XDATA, add(CFA_XSP16, literal(-2)))
        CFI (cfiCond132) DPH0 load(1, XDATA, add(CFA_XSP16, literal(-1)))
        CFI (cfiCond132) CFA_SP SP+0
        CFI (cfiCond132) CFA_XSP16 add(XSP16, 22)
        CFI Block cfiCond133 Using cfiCommon0
        CFI (cfiCond133) NoFunction
        CFI (cfiCond133) Conditional ??CrossCallReturnLabel_131
        CFI (cfiCond133) R6 load(1, XDATA, add(CFA_XSP16, literal(-12)))
        CFI (cfiCond133) VB load(1, XDATA, add(CFA_XSP16, literal(-11)))
        CFI (cfiCond133) V0 load(1, XDATA, add(CFA_XSP16, literal(-10)))
        CFI (cfiCond133) V1 load(1, XDATA, add(CFA_XSP16, literal(-9)))
        CFI (cfiCond133) V2 load(1, XDATA, add(CFA_XSP16, literal(-8)))
        CFI (cfiCond133) V3 load(1, XDATA, add(CFA_XSP16, literal(-7)))
        CFI (cfiCond133) R7 load(1, XDATA, add(CFA_XSP16, literal(-6)))
        CFI (cfiCond133) ?RET_LOW load(1, XDATA, add(CFA_XSP16, literal(-5)))
        CFI (cfiCond133) ?RET_HIGH load(1, XDATA, add(CFA_XSP16, literal(-4)))
        CFI (cfiCond133) ?BRET_EXT load(1, XDATA, add(CFA_XSP16, literal(-3)))
        CFI (cfiCond133) DPL0 load(1, XDATA, add(CFA_XSP16, literal(-2)))
        CFI (cfiCond133) DPH0 load(1, XDATA, add(CFA_XSP16, literal(-1)))
        CFI (cfiCond133) CFA_SP SP+0
        CFI (cfiCond133) CFA_XSP16 add(XSP16, 21)
        CFI Block cfiCond134 Using cfiCommon0
        CFI (cfiCond134) NoFunction
        CFI (cfiCond134) Conditional ??CrossCallReturnLabel_132
        CFI (cfiCond134) R6 load(1, XDATA, add(CFA_XSP16, literal(-24)))
        CFI (cfiCond134) VB load(1, XDATA, add(CFA_XSP16, literal(-23)))
        CFI (cfiCond134) V0 load(1, XDATA, add(CFA_XSP16, literal(-22)))
        CFI (cfiCond134) V1 load(1, XDATA, add(CFA_XSP16, literal(-21)))
        CFI (cfiCond134) V2 load(1, XDATA, add(CFA_XSP16, literal(-20)))
        CFI (cfiCond134) V3 load(1, XDATA, add(CFA_XSP16, literal(-19)))
        CFI (cfiCond134) V4 load(1, XDATA, add(CFA_XSP16, literal(-18)))
        CFI (cfiCond134) V5 load(1, XDATA, add(CFA_XSP16, literal(-17)))
        CFI (cfiCond134) V6 load(1, XDATA, add(CFA_XSP16, literal(-16)))
        CFI (cfiCond134) V7 load(1, XDATA, add(CFA_XSP16, literal(-15)))
        CFI (cfiCond134) V8 load(1, XDATA, add(CFA_XSP16, literal(-14)))
        CFI (cfiCond134) V9 load(1, XDATA, add(CFA_XSP16, literal(-13)))
        CFI (cfiCond134) V10 load(1, XDATA, add(CFA_XSP16, literal(-12)))
        CFI (cfiCond134) V11 load(1, XDATA, add(CFA_XSP16, literal(-11)))
        CFI (cfiCond134) V12 load(1, XDATA, add(CFA_XSP16, literal(-10)))
        CFI (cfiCond134) V13 load(1, XDATA, add(CFA_XSP16, literal(-9)))
        CFI (cfiCond134) V14 load(1, XDATA, add(CFA_XSP16, literal(-8)))
        CFI (cfiCond134) V15 load(1, XDATA, add(CFA_XSP16, literal(-7)))
        CFI (cfiCond134) R7 load(1, XDATA, add(CFA_XSP16, literal(-6)))
        CFI (cfiCond134) ?RET_LOW load(1, XDATA, add(CFA_XSP16, literal(-5)))
        CFI (cfiCond134) ?RET_HIGH load(1, XDATA, add(CFA_XSP16, literal(-4)))
        CFI (cfiCond134) ?BRET_EXT load(1, XDATA, add(CFA_XSP16, literal(-3)))
        CFI (cfiCond134) DPL0 load(1, XDATA, add(CFA_XSP16, literal(-2)))
        CFI (cfiCond134) DPH0 load(1, XDATA, add(CFA_XSP16, literal(-1)))
        CFI (cfiCond134) CFA_SP SP+0
        CFI (cfiCond134) CFA_XSP16 add(XSP16, 92)
        CFI Block cfiPicker135 Using cfiCommon1
        CFI (cfiPicker135) NoFunction
        CFI (cfiPicker135) Picker
        MOVX    @DPTR,A
        INC     DPTR
        MOV     A,R3
        MOVX    @DPTR,A
        RET
        CFI EndBlock cfiCond125
        CFI EndBlock cfiCond126
        CFI EndBlock cfiCond127
        CFI EndBlock cfiCond128
        CFI EndBlock cfiCond129
        CFI EndBlock cfiCond130
        CFI EndBlock cfiCond131
        CFI EndBlock cfiCond132
        CFI EndBlock cfiCond133
        CFI EndBlock cfiCond134
        CFI EndBlock cfiPicker135
// 1146 
// 1147 /**
// 1148 * @brief ÂçèËÆÆ4.7 ÈùûÊ≥ïÊ∂àÊÅØÈÄöÁü• ÁöÑÂ§ÑÁê?
// 1149 * @param[in] head  : ÂçèËÆÆÂ§¥ÊåáÈí?* @param[in] errno : ÈùûÊ≥ïÊ∂àÊÅØÈÄöÁü•Á±ªÂûã
// 1150 * @return 0Ôº?ÊâßË°åÊàêÂäüÔº?Èù?0Ôº?Â§±Ë¥•
// 1151 */

        RSEG BANKED_CODE:CODE:NOROOT(0)
// 1152 static int32 gizProtocolErrorCmd(protocolHead_t *head,errorPacketsType_t errno)
gizProtocolErrorCmd:
        CFI Block cfiBlock136 Using cfiCommon0
        CFI Function gizProtocolErrorCmd
        CODE
// 1153 {
        FUNCALL gizProtocolErrorCmd, gizProtocolHeadInit
        LOCFRAME ISTACK, 0, STACK
        LOCFRAME PSTACK, 0, STACK
        LOCFRAME XSTACK, 19, STACK
        LOCFRAME IOVERLAY, 0, STATIC
        LOCFRAME DOVERLAY, 0, STATIC
        ARGFRAME ISTACK, 0, STACK
        ARGFRAME PSTACK, 0, STACK
        ARGFRAME XSTACK, 19, STACK
        ARGFRAME IOVERLAY, 0, STATIC
        ARGFRAME DOVERLAY, 0, STATIC
        FUNCALL gizProtocolErrorCmd, gizProtocolExchangeBytes
        LOCFRAME ISTACK, 0, STACK
        LOCFRAME PSTACK, 0, STACK
        LOCFRAME XSTACK, 19, STACK
        LOCFRAME IOVERLAY, 0, STATIC
        LOCFRAME DOVERLAY, 0, STATIC
        ARGFRAME ISTACK, 0, STACK
        ARGFRAME PSTACK, 0, STACK
        ARGFRAME XSTACK, 19, STACK
        ARGFRAME IOVERLAY, 0, STATIC
        ARGFRAME DOVERLAY, 0, STATIC
        FUNCALL gizProtocolErrorCmd, gizProtocolSum
        LOCFRAME ISTACK, 0, STACK
        LOCFRAME PSTACK, 0, STACK
        LOCFRAME XSTACK, 23, STACK
        LOCFRAME IOVERLAY, 0, STATIC
        LOCFRAME DOVERLAY, 0, STATIC
        ARGFRAME ISTACK, 0, STACK
        ARGFRAME PSTACK, 0, STACK
        ARGFRAME XSTACK, 23, STACK
        ARGFRAME IOVERLAY, 0, STATIC
        ARGFRAME DOVERLAY, 0, STATIC
        FUNCALL gizProtocolErrorCmd, uartWrite
        LOCFRAME ISTACK, 0, STACK
        LOCFRAME PSTACK, 0, STACK
        LOCFRAME XSTACK, 23, STACK
        LOCFRAME IOVERLAY, 0, STATIC
        LOCFRAME DOVERLAY, 0, STATIC
        ARGFRAME ISTACK, 0, STACK
        ARGFRAME PSTACK, 0, STACK
        ARGFRAME XSTACK, 23, STACK
        ARGFRAME IOVERLAY, 0, STATIC
        ARGFRAME DOVERLAY, 0, STATIC
        MOV     A,#-0x9
        LCALL   ?BANKED_ENTER_XDATA
        CFI DPH0 load(1, XDATA, add(CFA_XSP16, literal(-1)))
        CFI DPL0 load(1, XDATA, add(CFA_XSP16, literal(-2)))
        CFI ?BRET_EXT load(1, XDATA, add(CFA_XSP16, literal(-3)))
        CFI ?RET_HIGH load(1, XDATA, add(CFA_XSP16, literal(-4)))
        CFI ?RET_LOW load(1, XDATA, add(CFA_XSP16, literal(-5)))
        CFI R7 load(1, XDATA, add(CFA_XSP16, literal(-6)))
        CFI V0 load(1, XDATA, add(CFA_XSP16, literal(-7)))
        CFI VB load(1, XDATA, add(CFA_XSP16, literal(-8)))
        CFI R6 load(1, XDATA, add(CFA_XSP16, literal(-9)))
        CFI CFA_SP SP+0
        CFI CFA_XSP16 add(XSP16, 9)
        ; Saved register size: 9
        ; Auto size: 10
        MOV     A,#-0xa
        LCALL   ?ALLOC_XSTACK8
        CFI CFA_XSP16 add(XSP16, 19)
        MOV     A,R2
        MOV     R6,A
        MOV     A,R3
        MOV     R7,A
        MOV     ?V0 + 0,R1
// 1154     int32 ret = 0;
// 1155     protocolErrorType_t errorType;
// 1156 
// 1157     if(NULL == head)
        MOV     A,R6
        ORL     A,R7
        JNZ     ??gizProtocolErrorCmd_0
// 1158     {
// 1159         GIZWITS_LOG("gizProtocolErrorCmd Error , Illegal Param\n");
// 1160         return -1;
        MOV     R2,#-0x1
        MOV     R3,#-0x1
        MOV     R4,#-0x1
        MOV     R5,#-0x1
        SJMP    ??gizProtocolErrorCmd_1
// 1161     }
// 1162     gizProtocolHeadInit((protocolHead_t *)&errorType);
??gizProtocolErrorCmd_0:
        ; Setup parameters for call to function gizProtocolHeadInit
        LCALL   ?Subroutine48 & 0xFFFF
// 1163     errorType.head.cmd = ACK_ERROR_PACKAGE;
??CrossCallReturnLabel_76:
        LCALL   ?XSTACK_DISP0_8
        MOV     A,#0x12
        LCALL   ?Subroutine16 & 0xFFFF
// 1164     errorType.head.sn = head->sn;
??CrossCallReturnLabel_17:
        PUSH    A
        CFI CFA_SP SP+-1
        MOV     A,#0x5
        LCALL   ?XSTACK_DISP0_8
        POP     A
        CFI CFA_SP SP+0
        LCALL   ?Subroutine19 & 0xFFFF
// 1165     
// 1166     errorType.head.len = gizProtocolExchangeBytes(sizeof(protocolErrorType_t)-4);
??CrossCallReturnLabel_22:
        LCALL   ?XSTACK_DISP0_8
        LCALL   ?Subroutine12 & 0xFFFF
// 1167     errorType.error = errno;
??CrossCallReturnLabel_129:
        MOV     A,#0x8
        LCALL   ?XSTACK_DISP0_8
        MOV     A,?V0 + 0
        MOVX    @DPTR,A
// 1168     errorType.sum = gizProtocolSum((uint8 *)&errorType, sizeof(protocolErrorType_t));
        ; Setup parameters for call to function gizProtocolSum
        MOV     DPTR,#__Constant_a
        LCALL   ?PUSH_XSTACK8_X_FOUR
        CFI CFA_XSP16 add(XSP16, 23)
        MOV     A,#0x4
        LCALL   ?XSTACK_DISP0_8
        LCALL   ?Subroutine45 & 0xFFFF
??CrossCallReturnLabel_144:
        LCALL   ?DEALLOC_XSTACK8
        CFI CFA_XSP16 add(XSP16, 19)
        MOV     A,#0x9
        LCALL   ?XSTACK_DISP0_8
        MOV     A,R1
        MOVX    @DPTR,A
// 1169     
// 1170     ret = uartWrite((uint8 *)&errorType, sizeof(protocolErrorType_t));
// 1171     if(ret < 0)
// 1172     {
// 1173         //ÊâìÂç∞Êó•Âøó
// 1174         GIZWITS_LOG("ERROR: uart write error %d \n", ret);
// 1175     }
// 1176 
// 1177     return ret;
        ; Setup parameters for call to function uartWrite
        MOV     DPTR,#__Constant_a
        LCALL   ?PUSH_XSTACK8_X_FOUR
        CFI CFA_XSP16 add(XSP16, 23)
        MOV     A,#0x4
        LCALL   ?XSTACK_DISP0_8
        LCALL   ?Subroutine46 & 0xFFFF
??CrossCallReturnLabel_136:
        LCALL   ?DEALLOC_XSTACK8
        CFI CFA_XSP16 add(XSP16, 19)
??gizProtocolErrorCmd_1:
        MOV     A,#0xa
        LCALL   ?DEALLOC_XSTACK8
        CFI CFA_XSP16 add(XSP16, 9)
        LJMP    ?Subroutine4 & 0xFFFF
        CFI EndBlock cfiBlock136
// 1178 }

        RSEG BANKED_CODE:CODE:NOROOT(0)
?Subroutine46:
        CFI Block cfiCond137 Using cfiCommon0
        CFI NoFunction
        CFI Conditional ??CrossCallReturnLabel_133
        CFI R6 load(1, XDATA, add(CFA_XSP16, literal(-15)))
        CFI VB load(1, XDATA, add(CFA_XSP16, literal(-14)))
        CFI V0 load(1, XDATA, add(CFA_XSP16, literal(-13)))
        CFI V1 load(1, XDATA, add(CFA_XSP16, literal(-12)))
        CFI V2 load(1, XDATA, add(CFA_XSP16, literal(-11)))
        CFI V3 load(1, XDATA, add(CFA_XSP16, literal(-10)))
        CFI V4 load(1, XDATA, add(CFA_XSP16, literal(-9)))
        CFI V5 load(1, XDATA, add(CFA_XSP16, literal(-8)))
        CFI V6 load(1, XDATA, add(CFA_XSP16, literal(-7)))
        CFI R7 load(1, XDATA, add(CFA_XSP16, literal(-6)))
        CFI ?RET_LOW load(1, XDATA, add(CFA_XSP16, literal(-5)))
        CFI ?RET_HIGH load(1, XDATA, add(CFA_XSP16, literal(-4)))
        CFI ?BRET_EXT load(1, XDATA, add(CFA_XSP16, literal(-3)))
        CFI DPL0 load(1, XDATA, add(CFA_XSP16, literal(-2)))
        CFI DPH0 load(1, XDATA, add(CFA_XSP16, literal(-1)))
        CFI CFA_SP SP+0
        CFI CFA_XSP16 add(XSP16, 50)
        CFI Block cfiCond138 Using cfiCommon0
        CFI (cfiCond138) NoFunction
        CFI (cfiCond138) Conditional ??CrossCallReturnLabel_134
        CFI (cfiCond138) R6 load(1, XDATA, add(CFA_XSP16, literal(-11)))
        CFI (cfiCond138) VB load(1, XDATA, add(CFA_XSP16, literal(-10)))
        CFI (cfiCond138) V0 load(1, XDATA, add(CFA_XSP16, literal(-9)))
        CFI (cfiCond138) V1 load(1, XDATA, add(CFA_XSP16, literal(-8)))
        CFI (cfiCond138) V2 load(1, XDATA, add(CFA_XSP16, literal(-7)))
        CFI (cfiCond138) R7 load(1, XDATA, add(CFA_XSP16, literal(-6)))
        CFI (cfiCond138) ?RET_LOW load(1, XDATA, add(CFA_XSP16, literal(-5)))
        CFI (cfiCond138) ?RET_HIGH load(1, XDATA, add(CFA_XSP16, literal(-4)))
        CFI (cfiCond138) ?BRET_EXT load(1, XDATA, add(CFA_XSP16, literal(-3)))
        CFI (cfiCond138) DPL0 load(1, XDATA, add(CFA_XSP16, literal(-2)))
        CFI (cfiCond138) DPH0 load(1, XDATA, add(CFA_XSP16, literal(-1)))
        CFI (cfiCond138) CFA_SP SP+0
        CFI (cfiCond138) CFA_XSP16 add(XSP16, 24)
        CFI Block cfiCond139 Using cfiCommon0
        CFI (cfiCond139) NoFunction
        CFI (cfiCond139) Conditional ??CrossCallReturnLabel_135
        CFI (cfiCond139) R6 load(1, XDATA, add(CFA_XSP16, literal(-11)))
        CFI (cfiCond139) VB load(1, XDATA, add(CFA_XSP16, literal(-10)))
        CFI (cfiCond139) V0 load(1, XDATA, add(CFA_XSP16, literal(-9)))
        CFI (cfiCond139) V1 load(1, XDATA, add(CFA_XSP16, literal(-8)))
        CFI (cfiCond139) V2 load(1, XDATA, add(CFA_XSP16, literal(-7)))
        CFI (cfiCond139) R7 load(1, XDATA, add(CFA_XSP16, literal(-6)))
        CFI (cfiCond139) ?RET_LOW load(1, XDATA, add(CFA_XSP16, literal(-5)))
        CFI (cfiCond139) ?RET_HIGH load(1, XDATA, add(CFA_XSP16, literal(-4)))
        CFI (cfiCond139) ?BRET_EXT load(1, XDATA, add(CFA_XSP16, literal(-3)))
        CFI (cfiCond139) DPL0 load(1, XDATA, add(CFA_XSP16, literal(-2)))
        CFI (cfiCond139) DPH0 load(1, XDATA, add(CFA_XSP16, literal(-1)))
        CFI (cfiCond139) CFA_SP SP+0
        CFI (cfiCond139) CFA_XSP16 add(XSP16, 130)
        CFI Block cfiCond140 Using cfiCommon0
        CFI (cfiCond140) NoFunction
        CFI (cfiCond140) Conditional ??CrossCallReturnLabel_136
        CFI (cfiCond140) R6 load(1, XDATA, add(CFA_XSP16, literal(-9)))
        CFI (cfiCond140) VB load(1, XDATA, add(CFA_XSP16, literal(-8)))
        CFI (cfiCond140) V0 load(1, XDATA, add(CFA_XSP16, literal(-7)))
        CFI (cfiCond140) R7 load(1, XDATA, add(CFA_XSP16, literal(-6)))
        CFI (cfiCond140) ?RET_LOW load(1, XDATA, add(CFA_XSP16, literal(-5)))
        CFI (cfiCond140) ?RET_HIGH load(1, XDATA, add(CFA_XSP16, literal(-4)))
        CFI (cfiCond140) ?BRET_EXT load(1, XDATA, add(CFA_XSP16, literal(-3)))
        CFI (cfiCond140) DPL0 load(1, XDATA, add(CFA_XSP16, literal(-2)))
        CFI (cfiCond140) DPH0 load(1, XDATA, add(CFA_XSP16, literal(-1)))
        CFI (cfiCond140) CFA_SP SP+0
        CFI (cfiCond140) CFA_XSP16 add(XSP16, 23)
        CFI Block cfiCond141 Using cfiCommon0
        CFI (cfiCond141) NoFunction
        CFI (cfiCond141) Conditional ??CrossCallReturnLabel_137
        CFI (cfiCond141) R6 load(1, XDATA, add(CFA_XSP16, literal(-12)))
        CFI (cfiCond141) VB load(1, XDATA, add(CFA_XSP16, literal(-11)))
        CFI (cfiCond141) V0 load(1, XDATA, add(CFA_XSP16, literal(-10)))
        CFI (cfiCond141) V1 load(1, XDATA, add(CFA_XSP16, literal(-9)))
        CFI (cfiCond141) V2 load(1, XDATA, add(CFA_XSP16, literal(-8)))
        CFI (cfiCond141) V3 load(1, XDATA, add(CFA_XSP16, literal(-7)))
        CFI (cfiCond141) R7 load(1, XDATA, add(CFA_XSP16, literal(-6)))
        CFI (cfiCond141) ?RET_LOW load(1, XDATA, add(CFA_XSP16, literal(-5)))
        CFI (cfiCond141) ?RET_HIGH load(1, XDATA, add(CFA_XSP16, literal(-4)))
        CFI (cfiCond141) ?BRET_EXT load(1, XDATA, add(CFA_XSP16, literal(-3)))
        CFI (cfiCond141) DPL0 load(1, XDATA, add(CFA_XSP16, literal(-2)))
        CFI (cfiCond141) DPH0 load(1, XDATA, add(CFA_XSP16, literal(-1)))
        CFI (cfiCond141) CFA_SP SP+0
        CFI (cfiCond141) CFA_XSP16 add(XSP16, 26)
        CFI Block cfiCond142 Using cfiCommon0
        CFI (cfiCond142) NoFunction
        CFI (cfiCond142) Conditional ??CrossCallReturnLabel_138
        CFI (cfiCond142) R6 load(1, XDATA, add(CFA_XSP16, literal(-12)))
        CFI (cfiCond142) VB load(1, XDATA, add(CFA_XSP16, literal(-11)))
        CFI (cfiCond142) V0 load(1, XDATA, add(CFA_XSP16, literal(-10)))
        CFI (cfiCond142) V1 load(1, XDATA, add(CFA_XSP16, literal(-9)))
        CFI (cfiCond142) V2 load(1, XDATA, add(CFA_XSP16, literal(-8)))
        CFI (cfiCond142) V3 load(1, XDATA, add(CFA_XSP16, literal(-7)))
        CFI (cfiCond142) R7 load(1, XDATA, add(CFA_XSP16, literal(-6)))
        CFI (cfiCond142) ?RET_LOW load(1, XDATA, add(CFA_XSP16, literal(-5)))
        CFI (cfiCond142) ?RET_HIGH load(1, XDATA, add(CFA_XSP16, literal(-4)))
        CFI (cfiCond142) ?BRET_EXT load(1, XDATA, add(CFA_XSP16, literal(-3)))
        CFI (cfiCond142) DPL0 load(1, XDATA, add(CFA_XSP16, literal(-2)))
        CFI (cfiCond142) DPH0 load(1, XDATA, add(CFA_XSP16, literal(-1)))
        CFI (cfiCond142) CFA_SP SP+0
        CFI (cfiCond142) CFA_XSP16 add(XSP16, 25)
        CFI Block cfiCond143 Using cfiCommon0
        CFI (cfiCond143) NoFunction
        CFI (cfiCond143) Conditional ??CrossCallReturnLabel_139
        CFI (cfiCond143) R6 load(1, XDATA, add(CFA_XSP16, literal(-16)))
        CFI (cfiCond143) VB load(1, XDATA, add(CFA_XSP16, literal(-15)))
        CFI (cfiCond143) V0 load(1, XDATA, add(CFA_XSP16, literal(-14)))
        CFI (cfiCond143) V1 load(1, XDATA, add(CFA_XSP16, literal(-13)))
        CFI (cfiCond143) V2 load(1, XDATA, add(CFA_XSP16, literal(-12)))
        CFI (cfiCond143) V3 load(1, XDATA, add(CFA_XSP16, literal(-11)))
        CFI (cfiCond143) V4 load(1, XDATA, add(CFA_XSP16, literal(-10)))
        CFI (cfiCond143) V5 load(1, XDATA, add(CFA_XSP16, literal(-9)))
        CFI (cfiCond143) V6 load(1, XDATA, add(CFA_XSP16, literal(-8)))
        CFI (cfiCond143) V7 load(1, XDATA, add(CFA_XSP16, literal(-7)))
        CFI (cfiCond143) R7 load(1, XDATA, add(CFA_XSP16, literal(-6)))
        CFI (cfiCond143) ?RET_LOW load(1, XDATA, add(CFA_XSP16, literal(-5)))
        CFI (cfiCond143) ?RET_HIGH load(1, XDATA, add(CFA_XSP16, literal(-4)))
        CFI (cfiCond143) ?BRET_EXT load(1, XDATA, add(CFA_XSP16, literal(-3)))
        CFI (cfiCond143) DPL0 load(1, XDATA, add(CFA_XSP16, literal(-2)))
        CFI (cfiCond143) DPH0 load(1, XDATA, add(CFA_XSP16, literal(-1)))
        CFI (cfiCond143) CFA_SP SP+0
        CFI (cfiCond143) CFA_XSP16 add(XSP16, 51)
        CFI Block cfiPicker144 Using cfiCommon1
        CFI (cfiPicker144) NoFunction
        CFI (cfiPicker144) Picker
        MOV     R2,DPL
        MOV     R3,DPH
        CFI EndBlock cfiCond137
        CFI EndBlock cfiCond138
        CFI EndBlock cfiCond139
        CFI EndBlock cfiCond140
        CFI EndBlock cfiCond141
        CFI EndBlock cfiCond142
        CFI EndBlock cfiCond143
        CFI EndBlock cfiPicker144
        REQUIRE ??Subroutine65_0
        ; // Fall through to label ??Subroutine65_0

        RSEG BANKED_CODE:CODE:NOROOT(0)
??Subroutine65_0:
        CFI Block cfiCond145 Using cfiCommon0
        CFI NoFunction
        CFI Conditional ??CrossCallReturnLabel_140
        CFI R6 load(1, XDATA, add(CFA_XSP16, literal(-24)))
        CFI VB load(1, XDATA, add(CFA_XSP16, literal(-23)))
        CFI V0 load(1, XDATA, add(CFA_XSP16, literal(-22)))
        CFI V1 load(1, XDATA, add(CFA_XSP16, literal(-21)))
        CFI V2 load(1, XDATA, add(CFA_XSP16, literal(-20)))
        CFI V3 load(1, XDATA, add(CFA_XSP16, literal(-19)))
        CFI V4 load(1, XDATA, add(CFA_XSP16, literal(-18)))
        CFI V5 load(1, XDATA, add(CFA_XSP16, literal(-17)))
        CFI V6 load(1, XDATA, add(CFA_XSP16, literal(-16)))
        CFI V7 load(1, XDATA, add(CFA_XSP16, literal(-15)))
        CFI V8 load(1, XDATA, add(CFA_XSP16, literal(-14)))
        CFI V9 load(1, XDATA, add(CFA_XSP16, literal(-13)))
        CFI V10 load(1, XDATA, add(CFA_XSP16, literal(-12)))
        CFI V11 load(1, XDATA, add(CFA_XSP16, literal(-11)))
        CFI V12 load(1, XDATA, add(CFA_XSP16, literal(-10)))
        CFI V13 load(1, XDATA, add(CFA_XSP16, literal(-9)))
        CFI V14 load(1, XDATA, add(CFA_XSP16, literal(-8)))
        CFI V15 load(1, XDATA, add(CFA_XSP16, literal(-7)))
        CFI R7 load(1, XDATA, add(CFA_XSP16, literal(-6)))
        CFI ?RET_LOW load(1, XDATA, add(CFA_XSP16, literal(-5)))
        CFI ?RET_HIGH load(1, XDATA, add(CFA_XSP16, literal(-4)))
        CFI ?BRET_EXT load(1, XDATA, add(CFA_XSP16, literal(-3)))
        CFI DPL0 load(1, XDATA, add(CFA_XSP16, literal(-2)))
        CFI DPH0 load(1, XDATA, add(CFA_XSP16, literal(-1)))
        CFI CFA_SP SP+0
        CFI CFA_XSP16 add(XSP16, 96)
        CFI Block cfiCond146 Using cfiCommon0
        CFI (cfiCond146) NoFunction
        CFI (cfiCond146) Conditional ??CrossCallReturnLabel_133
        CFI (cfiCond146) R6 load(1, XDATA, add(CFA_XSP16, literal(-15)))
        CFI (cfiCond146) VB load(1, XDATA, add(CFA_XSP16, literal(-14)))
        CFI (cfiCond146) V0 load(1, XDATA, add(CFA_XSP16, literal(-13)))
        CFI (cfiCond146) V1 load(1, XDATA, add(CFA_XSP16, literal(-12)))
        CFI (cfiCond146) V2 load(1, XDATA, add(CFA_XSP16, literal(-11)))
        CFI (cfiCond146) V3 load(1, XDATA, add(CFA_XSP16, literal(-10)))
        CFI (cfiCond146) V4 load(1, XDATA, add(CFA_XSP16, literal(-9)))
        CFI (cfiCond146) V5 load(1, XDATA, add(CFA_XSP16, literal(-8)))
        CFI (cfiCond146) V6 load(1, XDATA, add(CFA_XSP16, literal(-7)))
        CFI (cfiCond146) R7 load(1, XDATA, add(CFA_XSP16, literal(-6)))
        CFI (cfiCond146) ?RET_LOW load(1, XDATA, add(CFA_XSP16, literal(-5)))
        CFI (cfiCond146) ?RET_HIGH load(1, XDATA, add(CFA_XSP16, literal(-4)))
        CFI (cfiCond146) ?BRET_EXT load(1, XDATA, add(CFA_XSP16, literal(-3)))
        CFI (cfiCond146) DPL0 load(1, XDATA, add(CFA_XSP16, literal(-2)))
        CFI (cfiCond146) DPH0 load(1, XDATA, add(CFA_XSP16, literal(-1)))
        CFI (cfiCond146) CFA_SP SP+0
        CFI (cfiCond146) CFA_XSP16 add(XSP16, 50)
        CFI Block cfiCond147 Using cfiCommon0
        CFI (cfiCond147) NoFunction
        CFI (cfiCond147) Conditional ??CrossCallReturnLabel_134
        CFI (cfiCond147) R6 load(1, XDATA, add(CFA_XSP16, literal(-11)))
        CFI (cfiCond147) VB load(1, XDATA, add(CFA_XSP16, literal(-10)))
        CFI (cfiCond147) V0 load(1, XDATA, add(CFA_XSP16, literal(-9)))
        CFI (cfiCond147) V1 load(1, XDATA, add(CFA_XSP16, literal(-8)))
        CFI (cfiCond147) V2 load(1, XDATA, add(CFA_XSP16, literal(-7)))
        CFI (cfiCond147) R7 load(1, XDATA, add(CFA_XSP16, literal(-6)))
        CFI (cfiCond147) ?RET_LOW load(1, XDATA, add(CFA_XSP16, literal(-5)))
        CFI (cfiCond147) ?RET_HIGH load(1, XDATA, add(CFA_XSP16, literal(-4)))
        CFI (cfiCond147) ?BRET_EXT load(1, XDATA, add(CFA_XSP16, literal(-3)))
        CFI (cfiCond147) DPL0 load(1, XDATA, add(CFA_XSP16, literal(-2)))
        CFI (cfiCond147) DPH0 load(1, XDATA, add(CFA_XSP16, literal(-1)))
        CFI (cfiCond147) CFA_SP SP+0
        CFI (cfiCond147) CFA_XSP16 add(XSP16, 24)
        CFI Block cfiCond148 Using cfiCommon0
        CFI (cfiCond148) NoFunction
        CFI (cfiCond148) Conditional ??CrossCallReturnLabel_135
        CFI (cfiCond148) R6 load(1, XDATA, add(CFA_XSP16, literal(-11)))
        CFI (cfiCond148) VB load(1, XDATA, add(CFA_XSP16, literal(-10)))
        CFI (cfiCond148) V0 load(1, XDATA, add(CFA_XSP16, literal(-9)))
        CFI (cfiCond148) V1 load(1, XDATA, add(CFA_XSP16, literal(-8)))
        CFI (cfiCond148) V2 load(1, XDATA, add(CFA_XSP16, literal(-7)))
        CFI (cfiCond148) R7 load(1, XDATA, add(CFA_XSP16, literal(-6)))
        CFI (cfiCond148) ?RET_LOW load(1, XDATA, add(CFA_XSP16, literal(-5)))
        CFI (cfiCond148) ?RET_HIGH load(1, XDATA, add(CFA_XSP16, literal(-4)))
        CFI (cfiCond148) ?BRET_EXT load(1, XDATA, add(CFA_XSP16, literal(-3)))
        CFI (cfiCond148) DPL0 load(1, XDATA, add(CFA_XSP16, literal(-2)))
        CFI (cfiCond148) DPH0 load(1, XDATA, add(CFA_XSP16, literal(-1)))
        CFI (cfiCond148) CFA_SP SP+0
        CFI (cfiCond148) CFA_XSP16 add(XSP16, 130)
        CFI Block cfiCond149 Using cfiCommon0
        CFI (cfiCond149) NoFunction
        CFI (cfiCond149) Conditional ??CrossCallReturnLabel_136
        CFI (cfiCond149) R6 load(1, XDATA, add(CFA_XSP16, literal(-9)))
        CFI (cfiCond149) VB load(1, XDATA, add(CFA_XSP16, literal(-8)))
        CFI (cfiCond149) V0 load(1, XDATA, add(CFA_XSP16, literal(-7)))
        CFI (cfiCond149) R7 load(1, XDATA, add(CFA_XSP16, literal(-6)))
        CFI (cfiCond149) ?RET_LOW load(1, XDATA, add(CFA_XSP16, literal(-5)))
        CFI (cfiCond149) ?RET_HIGH load(1, XDATA, add(CFA_XSP16, literal(-4)))
        CFI (cfiCond149) ?BRET_EXT load(1, XDATA, add(CFA_XSP16, literal(-3)))
        CFI (cfiCond149) DPL0 load(1, XDATA, add(CFA_XSP16, literal(-2)))
        CFI (cfiCond149) DPH0 load(1, XDATA, add(CFA_XSP16, literal(-1)))
        CFI (cfiCond149) CFA_SP SP+0
        CFI (cfiCond149) CFA_XSP16 add(XSP16, 23)
        CFI Block cfiCond150 Using cfiCommon0
        CFI (cfiCond150) NoFunction
        CFI (cfiCond150) Conditional ??CrossCallReturnLabel_137
        CFI (cfiCond150) R6 load(1, XDATA, add(CFA_XSP16, literal(-12)))
        CFI (cfiCond150) VB load(1, XDATA, add(CFA_XSP16, literal(-11)))
        CFI (cfiCond150) V0 load(1, XDATA, add(CFA_XSP16, literal(-10)))
        CFI (cfiCond150) V1 load(1, XDATA, add(CFA_XSP16, literal(-9)))
        CFI (cfiCond150) V2 load(1, XDATA, add(CFA_XSP16, literal(-8)))
        CFI (cfiCond150) V3 load(1, XDATA, add(CFA_XSP16, literal(-7)))
        CFI (cfiCond150) R7 load(1, XDATA, add(CFA_XSP16, literal(-6)))
        CFI (cfiCond150) ?RET_LOW load(1, XDATA, add(CFA_XSP16, literal(-5)))
        CFI (cfiCond150) ?RET_HIGH load(1, XDATA, add(CFA_XSP16, literal(-4)))
        CFI (cfiCond150) ?BRET_EXT load(1, XDATA, add(CFA_XSP16, literal(-3)))
        CFI (cfiCond150) DPL0 load(1, XDATA, add(CFA_XSP16, literal(-2)))
        CFI (cfiCond150) DPH0 load(1, XDATA, add(CFA_XSP16, literal(-1)))
        CFI (cfiCond150) CFA_SP SP+0
        CFI (cfiCond150) CFA_XSP16 add(XSP16, 26)
        CFI Block cfiCond151 Using cfiCommon0
        CFI (cfiCond151) NoFunction
        CFI (cfiCond151) Conditional ??CrossCallReturnLabel_138
        CFI (cfiCond151) R6 load(1, XDATA, add(CFA_XSP16, literal(-12)))
        CFI (cfiCond151) VB load(1, XDATA, add(CFA_XSP16, literal(-11)))
        CFI (cfiCond151) V0 load(1, XDATA, add(CFA_XSP16, literal(-10)))
        CFI (cfiCond151) V1 load(1, XDATA, add(CFA_XSP16, literal(-9)))
        CFI (cfiCond151) V2 load(1, XDATA, add(CFA_XSP16, literal(-8)))
        CFI (cfiCond151) V3 load(1, XDATA, add(CFA_XSP16, literal(-7)))
        CFI (cfiCond151) R7 load(1, XDATA, add(CFA_XSP16, literal(-6)))
        CFI (cfiCond151) ?RET_LOW load(1, XDATA, add(CFA_XSP16, literal(-5)))
        CFI (cfiCond151) ?RET_HIGH load(1, XDATA, add(CFA_XSP16, literal(-4)))
        CFI (cfiCond151) ?BRET_EXT load(1, XDATA, add(CFA_XSP16, literal(-3)))
        CFI (cfiCond151) DPL0 load(1, XDATA, add(CFA_XSP16, literal(-2)))
        CFI (cfiCond151) DPH0 load(1, XDATA, add(CFA_XSP16, literal(-1)))
        CFI (cfiCond151) CFA_SP SP+0
        CFI (cfiCond151) CFA_XSP16 add(XSP16, 25)
        CFI Block cfiCond152 Using cfiCommon0
        CFI (cfiCond152) NoFunction
        CFI (cfiCond152) Conditional ??CrossCallReturnLabel_139
        CFI (cfiCond152) R6 load(1, XDATA, add(CFA_XSP16, literal(-16)))
        CFI (cfiCond152) VB load(1, XDATA, add(CFA_XSP16, literal(-15)))
        CFI (cfiCond152) V0 load(1, XDATA, add(CFA_XSP16, literal(-14)))
        CFI (cfiCond152) V1 load(1, XDATA, add(CFA_XSP16, literal(-13)))
        CFI (cfiCond152) V2 load(1, XDATA, add(CFA_XSP16, literal(-12)))
        CFI (cfiCond152) V3 load(1, XDATA, add(CFA_XSP16, literal(-11)))
        CFI (cfiCond152) V4 load(1, XDATA, add(CFA_XSP16, literal(-10)))
        CFI (cfiCond152) V5 load(1, XDATA, add(CFA_XSP16, literal(-9)))
        CFI (cfiCond152) V6 load(1, XDATA, add(CFA_XSP16, literal(-8)))
        CFI (cfiCond152) V7 load(1, XDATA, add(CFA_XSP16, literal(-7)))
        CFI (cfiCond152) R7 load(1, XDATA, add(CFA_XSP16, literal(-6)))
        CFI (cfiCond152) ?RET_LOW load(1, XDATA, add(CFA_XSP16, literal(-5)))
        CFI (cfiCond152) ?RET_HIGH load(1, XDATA, add(CFA_XSP16, literal(-4)))
        CFI (cfiCond152) ?BRET_EXT load(1, XDATA, add(CFA_XSP16, literal(-3)))
        CFI (cfiCond152) DPL0 load(1, XDATA, add(CFA_XSP16, literal(-2)))
        CFI (cfiCond152) DPH0 load(1, XDATA, add(CFA_XSP16, literal(-1)))
        CFI (cfiCond152) CFA_SP SP+0
        CFI (cfiCond152) CFA_XSP16 add(XSP16, 51)
        CFI Block cfiPicker153 Using cfiCommon1
        CFI (cfiPicker153) NoFunction
        CFI (cfiPicker153) Picker
        LCALL   ??uartWrite?relay
        MOV     A,#0x4
        RET
        CFI EndBlock cfiCond145
        CFI EndBlock cfiCond146
        CFI EndBlock cfiCond147
        CFI EndBlock cfiCond148
        CFI EndBlock cfiCond149
        CFI EndBlock cfiCond150
        CFI EndBlock cfiCond151
        CFI EndBlock cfiCond152
        CFI EndBlock cfiPicker153

        RSEG BANKED_CODE:CODE:NOROOT(0)
?Subroutine45:
        CFI Block cfiCond154 Using cfiCommon0
        CFI NoFunction
        CFI Conditional ??CrossCallReturnLabel_141
        CFI R6 load(1, XDATA, add(CFA_XSP16, literal(-15)))
        CFI VB load(1, XDATA, add(CFA_XSP16, literal(-14)))
        CFI V0 load(1, XDATA, add(CFA_XSP16, literal(-13)))
        CFI V1 load(1, XDATA, add(CFA_XSP16, literal(-12)))
        CFI V2 load(1, XDATA, add(CFA_XSP16, literal(-11)))
        CFI V3 load(1, XDATA, add(CFA_XSP16, literal(-10)))
        CFI V4 load(1, XDATA, add(CFA_XSP16, literal(-9)))
        CFI V5 load(1, XDATA, add(CFA_XSP16, literal(-8)))
        CFI V6 load(1, XDATA, add(CFA_XSP16, literal(-7)))
        CFI R7 load(1, XDATA, add(CFA_XSP16, literal(-6)))
        CFI ?RET_LOW load(1, XDATA, add(CFA_XSP16, literal(-5)))
        CFI ?RET_HIGH load(1, XDATA, add(CFA_XSP16, literal(-4)))
        CFI ?BRET_EXT load(1, XDATA, add(CFA_XSP16, literal(-3)))
        CFI DPL0 load(1, XDATA, add(CFA_XSP16, literal(-2)))
        CFI DPH0 load(1, XDATA, add(CFA_XSP16, literal(-1)))
        CFI CFA_SP SP+0
        CFI CFA_XSP16 add(XSP16, 50)
        CFI Block cfiCond155 Using cfiCommon0
        CFI (cfiCond155) NoFunction
        CFI (cfiCond155) Conditional ??CrossCallReturnLabel_142
        CFI (cfiCond155) R6 load(1, XDATA, add(CFA_XSP16, literal(-11)))
        CFI (cfiCond155) VB load(1, XDATA, add(CFA_XSP16, literal(-10)))
        CFI (cfiCond155) V0 load(1, XDATA, add(CFA_XSP16, literal(-9)))
        CFI (cfiCond155) V1 load(1, XDATA, add(CFA_XSP16, literal(-8)))
        CFI (cfiCond155) V2 load(1, XDATA, add(CFA_XSP16, literal(-7)))
        CFI (cfiCond155) R7 load(1, XDATA, add(CFA_XSP16, literal(-6)))
        CFI (cfiCond155) ?RET_LOW load(1, XDATA, add(CFA_XSP16, literal(-5)))
        CFI (cfiCond155) ?RET_HIGH load(1, XDATA, add(CFA_XSP16, literal(-4)))
        CFI (cfiCond155) ?BRET_EXT load(1, XDATA, add(CFA_XSP16, literal(-3)))
        CFI (cfiCond155) DPL0 load(1, XDATA, add(CFA_XSP16, literal(-2)))
        CFI (cfiCond155) DPH0 load(1, XDATA, add(CFA_XSP16, literal(-1)))
        CFI (cfiCond155) CFA_SP SP+0
        CFI (cfiCond155) CFA_XSP16 add(XSP16, 24)
        CFI Block cfiCond156 Using cfiCommon0
        CFI (cfiCond156) NoFunction
        CFI (cfiCond156) Conditional ??CrossCallReturnLabel_143
        CFI (cfiCond156) R6 load(1, XDATA, add(CFA_XSP16, literal(-11)))
        CFI (cfiCond156) VB load(1, XDATA, add(CFA_XSP16, literal(-10)))
        CFI (cfiCond156) V0 load(1, XDATA, add(CFA_XSP16, literal(-9)))
        CFI (cfiCond156) V1 load(1, XDATA, add(CFA_XSP16, literal(-8)))
        CFI (cfiCond156) V2 load(1, XDATA, add(CFA_XSP16, literal(-7)))
        CFI (cfiCond156) R7 load(1, XDATA, add(CFA_XSP16, literal(-6)))
        CFI (cfiCond156) ?RET_LOW load(1, XDATA, add(CFA_XSP16, literal(-5)))
        CFI (cfiCond156) ?RET_HIGH load(1, XDATA, add(CFA_XSP16, literal(-4)))
        CFI (cfiCond156) ?BRET_EXT load(1, XDATA, add(CFA_XSP16, literal(-3)))
        CFI (cfiCond156) DPL0 load(1, XDATA, add(CFA_XSP16, literal(-2)))
        CFI (cfiCond156) DPH0 load(1, XDATA, add(CFA_XSP16, literal(-1)))
        CFI (cfiCond156) CFA_SP SP+0
        CFI (cfiCond156) CFA_XSP16 add(XSP16, 130)
        CFI Block cfiCond157 Using cfiCommon0
        CFI (cfiCond157) NoFunction
        CFI (cfiCond157) Conditional ??CrossCallReturnLabel_144
        CFI (cfiCond157) R6 load(1, XDATA, add(CFA_XSP16, literal(-9)))
        CFI (cfiCond157) VB load(1, XDATA, add(CFA_XSP16, literal(-8)))
        CFI (cfiCond157) V0 load(1, XDATA, add(CFA_XSP16, literal(-7)))
        CFI (cfiCond157) R7 load(1, XDATA, add(CFA_XSP16, literal(-6)))
        CFI (cfiCond157) ?RET_LOW load(1, XDATA, add(CFA_XSP16, literal(-5)))
        CFI (cfiCond157) ?RET_HIGH load(1, XDATA, add(CFA_XSP16, literal(-4)))
        CFI (cfiCond157) ?BRET_EXT load(1, XDATA, add(CFA_XSP16, literal(-3)))
        CFI (cfiCond157) DPL0 load(1, XDATA, add(CFA_XSP16, literal(-2)))
        CFI (cfiCond157) DPH0 load(1, XDATA, add(CFA_XSP16, literal(-1)))
        CFI (cfiCond157) CFA_SP SP+0
        CFI (cfiCond157) CFA_XSP16 add(XSP16, 23)
        CFI Block cfiCond158 Using cfiCommon0
        CFI (cfiCond158) NoFunction
        CFI (cfiCond158) Conditional ??CrossCallReturnLabel_145
        CFI (cfiCond158) R6 load(1, XDATA, add(CFA_XSP16, literal(-12)))
        CFI (cfiCond158) VB load(1, XDATA, add(CFA_XSP16, literal(-11)))
        CFI (cfiCond158) V0 load(1, XDATA, add(CFA_XSP16, literal(-10)))
        CFI (cfiCond158) V1 load(1, XDATA, add(CFA_XSP16, literal(-9)))
        CFI (cfiCond158) V2 load(1, XDATA, add(CFA_XSP16, literal(-8)))
        CFI (cfiCond158) V3 load(1, XDATA, add(CFA_XSP16, literal(-7)))
        CFI (cfiCond158) R7 load(1, XDATA, add(CFA_XSP16, literal(-6)))
        CFI (cfiCond158) ?RET_LOW load(1, XDATA, add(CFA_XSP16, literal(-5)))
        CFI (cfiCond158) ?RET_HIGH load(1, XDATA, add(CFA_XSP16, literal(-4)))
        CFI (cfiCond158) ?BRET_EXT load(1, XDATA, add(CFA_XSP16, literal(-3)))
        CFI (cfiCond158) DPL0 load(1, XDATA, add(CFA_XSP16, literal(-2)))
        CFI (cfiCond158) DPH0 load(1, XDATA, add(CFA_XSP16, literal(-1)))
        CFI (cfiCond158) CFA_SP SP+0
        CFI (cfiCond158) CFA_XSP16 add(XSP16, 26)
        CFI Block cfiCond159 Using cfiCommon0
        CFI (cfiCond159) NoFunction
        CFI (cfiCond159) Conditional ??CrossCallReturnLabel_146
        CFI (cfiCond159) R6 load(1, XDATA, add(CFA_XSP16, literal(-12)))
        CFI (cfiCond159) VB load(1, XDATA, add(CFA_XSP16, literal(-11)))
        CFI (cfiCond159) V0 load(1, XDATA, add(CFA_XSP16, literal(-10)))
        CFI (cfiCond159) V1 load(1, XDATA, add(CFA_XSP16, literal(-9)))
        CFI (cfiCond159) V2 load(1, XDATA, add(CFA_XSP16, literal(-8)))
        CFI (cfiCond159) V3 load(1, XDATA, add(CFA_XSP16, literal(-7)))
        CFI (cfiCond159) R7 load(1, XDATA, add(CFA_XSP16, literal(-6)))
        CFI (cfiCond159) ?RET_LOW load(1, XDATA, add(CFA_XSP16, literal(-5)))
        CFI (cfiCond159) ?RET_HIGH load(1, XDATA, add(CFA_XSP16, literal(-4)))
        CFI (cfiCond159) ?BRET_EXT load(1, XDATA, add(CFA_XSP16, literal(-3)))
        CFI (cfiCond159) DPL0 load(1, XDATA, add(CFA_XSP16, literal(-2)))
        CFI (cfiCond159) DPH0 load(1, XDATA, add(CFA_XSP16, literal(-1)))
        CFI (cfiCond159) CFA_SP SP+0
        CFI (cfiCond159) CFA_XSP16 add(XSP16, 25)
        CFI Block cfiCond160 Using cfiCommon0
        CFI (cfiCond160) NoFunction
        CFI (cfiCond160) Conditional ??CrossCallReturnLabel_147
        CFI (cfiCond160) R6 load(1, XDATA, add(CFA_XSP16, literal(-16)))
        CFI (cfiCond160) VB load(1, XDATA, add(CFA_XSP16, literal(-15)))
        CFI (cfiCond160) V0 load(1, XDATA, add(CFA_XSP16, literal(-14)))
        CFI (cfiCond160) V1 load(1, XDATA, add(CFA_XSP16, literal(-13)))
        CFI (cfiCond160) V2 load(1, XDATA, add(CFA_XSP16, literal(-12)))
        CFI (cfiCond160) V3 load(1, XDATA, add(CFA_XSP16, literal(-11)))
        CFI (cfiCond160) V4 load(1, XDATA, add(CFA_XSP16, literal(-10)))
        CFI (cfiCond160) V5 load(1, XDATA, add(CFA_XSP16, literal(-9)))
        CFI (cfiCond160) V6 load(1, XDATA, add(CFA_XSP16, literal(-8)))
        CFI (cfiCond160) V7 load(1, XDATA, add(CFA_XSP16, literal(-7)))
        CFI (cfiCond160) R7 load(1, XDATA, add(CFA_XSP16, literal(-6)))
        CFI (cfiCond160) ?RET_LOW load(1, XDATA, add(CFA_XSP16, literal(-5)))
        CFI (cfiCond160) ?RET_HIGH load(1, XDATA, add(CFA_XSP16, literal(-4)))
        CFI (cfiCond160) ?BRET_EXT load(1, XDATA, add(CFA_XSP16, literal(-3)))
        CFI (cfiCond160) DPL0 load(1, XDATA, add(CFA_XSP16, literal(-2)))
        CFI (cfiCond160) DPH0 load(1, XDATA, add(CFA_XSP16, literal(-1)))
        CFI (cfiCond160) CFA_SP SP+0
        CFI (cfiCond160) CFA_XSP16 add(XSP16, 51)
        CFI Block cfiPicker161 Using cfiCommon1
        CFI (cfiPicker161) NoFunction
        CFI (cfiPicker161) Picker
        MOV     R2,DPL
        MOV     R3,DPH
        CFI EndBlock cfiCond154
        CFI EndBlock cfiCond155
        CFI EndBlock cfiCond156
        CFI EndBlock cfiCond157
        CFI EndBlock cfiCond158
        CFI EndBlock cfiCond159
        CFI EndBlock cfiCond160
        CFI EndBlock cfiPicker161
        REQUIRE ??Subroutine66_0
        ; // Fall through to label ??Subroutine66_0

        RSEG BANKED_CODE:CODE:NOROOT(0)
??Subroutine66_0:
        CFI Block cfiCond162 Using cfiCommon0
        CFI NoFunction
        CFI Conditional ??CrossCallReturnLabel_148
        CFI R6 load(1, XDATA, add(CFA_XSP16, literal(-20)))
        CFI VB load(1, XDATA, add(CFA_XSP16, literal(-19)))
        CFI V0 load(1, XDATA, add(CFA_XSP16, literal(-18)))
        CFI V1 load(1, XDATA, add(CFA_XSP16, literal(-17)))
        CFI V2 load(1, XDATA, add(CFA_XSP16, literal(-16)))
        CFI V3 load(1, XDATA, add(CFA_XSP16, literal(-15)))
        CFI V4 load(1, XDATA, add(CFA_XSP16, literal(-14)))
        CFI V5 load(1, XDATA, add(CFA_XSP16, literal(-13)))
        CFI V6 load(1, XDATA, add(CFA_XSP16, literal(-12)))
        CFI V7 load(1, XDATA, add(CFA_XSP16, literal(-11)))
        CFI V8 load(1, XDATA, add(CFA_XSP16, literal(-10)))
        CFI V9 load(1, XDATA, add(CFA_XSP16, literal(-9)))
        CFI V10 load(1, XDATA, add(CFA_XSP16, literal(-8)))
        CFI V11 load(1, XDATA, add(CFA_XSP16, literal(-7)))
        CFI R7 load(1, XDATA, add(CFA_XSP16, literal(-6)))
        CFI ?RET_LOW load(1, XDATA, add(CFA_XSP16, literal(-5)))
        CFI ?RET_HIGH load(1, XDATA, add(CFA_XSP16, literal(-4)))
        CFI ?BRET_EXT load(1, XDATA, add(CFA_XSP16, literal(-3)))
        CFI DPL0 load(1, XDATA, add(CFA_XSP16, literal(-2)))
        CFI DPH0 load(1, XDATA, add(CFA_XSP16, literal(-1)))
        CFI CFA_SP SP+0
        CFI CFA_XSP16 add(XSP16, 25)
        CFI Block cfiCond163 Using cfiCommon0
        CFI (cfiCond163) NoFunction
        CFI (cfiCond163) Conditional ??CrossCallReturnLabel_141
        CFI (cfiCond163) R6 load(1, XDATA, add(CFA_XSP16, literal(-15)))
        CFI (cfiCond163) VB load(1, XDATA, add(CFA_XSP16, literal(-14)))
        CFI (cfiCond163) V0 load(1, XDATA, add(CFA_XSP16, literal(-13)))
        CFI (cfiCond163) V1 load(1, XDATA, add(CFA_XSP16, literal(-12)))
        CFI (cfiCond163) V2 load(1, XDATA, add(CFA_XSP16, literal(-11)))
        CFI (cfiCond163) V3 load(1, XDATA, add(CFA_XSP16, literal(-10)))
        CFI (cfiCond163) V4 load(1, XDATA, add(CFA_XSP16, literal(-9)))
        CFI (cfiCond163) V5 load(1, XDATA, add(CFA_XSP16, literal(-8)))
        CFI (cfiCond163) V6 load(1, XDATA, add(CFA_XSP16, literal(-7)))
        CFI (cfiCond163) R7 load(1, XDATA, add(CFA_XSP16, literal(-6)))
        CFI (cfiCond163) ?RET_LOW load(1, XDATA, add(CFA_XSP16, literal(-5)))
        CFI (cfiCond163) ?RET_HIGH load(1, XDATA, add(CFA_XSP16, literal(-4)))
        CFI (cfiCond163) ?BRET_EXT load(1, XDATA, add(CFA_XSP16, literal(-3)))
        CFI (cfiCond163) DPL0 load(1, XDATA, add(CFA_XSP16, literal(-2)))
        CFI (cfiCond163) DPH0 load(1, XDATA, add(CFA_XSP16, literal(-1)))
        CFI (cfiCond163) CFA_SP SP+0
        CFI (cfiCond163) CFA_XSP16 add(XSP16, 50)
        CFI Block cfiCond164 Using cfiCommon0
        CFI (cfiCond164) NoFunction
        CFI (cfiCond164) Conditional ??CrossCallReturnLabel_142
        CFI (cfiCond164) R6 load(1, XDATA, add(CFA_XSP16, literal(-11)))
        CFI (cfiCond164) VB load(1, XDATA, add(CFA_XSP16, literal(-10)))
        CFI (cfiCond164) V0 load(1, XDATA, add(CFA_XSP16, literal(-9)))
        CFI (cfiCond164) V1 load(1, XDATA, add(CFA_XSP16, literal(-8)))
        CFI (cfiCond164) V2 load(1, XDATA, add(CFA_XSP16, literal(-7)))
        CFI (cfiCond164) R7 load(1, XDATA, add(CFA_XSP16, literal(-6)))
        CFI (cfiCond164) ?RET_LOW load(1, XDATA, add(CFA_XSP16, literal(-5)))
        CFI (cfiCond164) ?RET_HIGH load(1, XDATA, add(CFA_XSP16, literal(-4)))
        CFI (cfiCond164) ?BRET_EXT load(1, XDATA, add(CFA_XSP16, literal(-3)))
        CFI (cfiCond164) DPL0 load(1, XDATA, add(CFA_XSP16, literal(-2)))
        CFI (cfiCond164) DPH0 load(1, XDATA, add(CFA_XSP16, literal(-1)))
        CFI (cfiCond164) CFA_SP SP+0
        CFI (cfiCond164) CFA_XSP16 add(XSP16, 24)
        CFI Block cfiCond165 Using cfiCommon0
        CFI (cfiCond165) NoFunction
        CFI (cfiCond165) Conditional ??CrossCallReturnLabel_143
        CFI (cfiCond165) R6 load(1, XDATA, add(CFA_XSP16, literal(-11)))
        CFI (cfiCond165) VB load(1, XDATA, add(CFA_XSP16, literal(-10)))
        CFI (cfiCond165) V0 load(1, XDATA, add(CFA_XSP16, literal(-9)))
        CFI (cfiCond165) V1 load(1, XDATA, add(CFA_XSP16, literal(-8)))
        CFI (cfiCond165) V2 load(1, XDATA, add(CFA_XSP16, literal(-7)))
        CFI (cfiCond165) R7 load(1, XDATA, add(CFA_XSP16, literal(-6)))
        CFI (cfiCond165) ?RET_LOW load(1, XDATA, add(CFA_XSP16, literal(-5)))
        CFI (cfiCond165) ?RET_HIGH load(1, XDATA, add(CFA_XSP16, literal(-4)))
        CFI (cfiCond165) ?BRET_EXT load(1, XDATA, add(CFA_XSP16, literal(-3)))
        CFI (cfiCond165) DPL0 load(1, XDATA, add(CFA_XSP16, literal(-2)))
        CFI (cfiCond165) DPH0 load(1, XDATA, add(CFA_XSP16, literal(-1)))
        CFI (cfiCond165) CFA_SP SP+0
        CFI (cfiCond165) CFA_XSP16 add(XSP16, 130)
        CFI Block cfiCond166 Using cfiCommon0
        CFI (cfiCond166) NoFunction
        CFI (cfiCond166) Conditional ??CrossCallReturnLabel_144
        CFI (cfiCond166) R6 load(1, XDATA, add(CFA_XSP16, literal(-9)))
        CFI (cfiCond166) VB load(1, XDATA, add(CFA_XSP16, literal(-8)))
        CFI (cfiCond166) V0 load(1, XDATA, add(CFA_XSP16, literal(-7)))
        CFI (cfiCond166) R7 load(1, XDATA, add(CFA_XSP16, literal(-6)))
        CFI (cfiCond166) ?RET_LOW load(1, XDATA, add(CFA_XSP16, literal(-5)))
        CFI (cfiCond166) ?RET_HIGH load(1, XDATA, add(CFA_XSP16, literal(-4)))
        CFI (cfiCond166) ?BRET_EXT load(1, XDATA, add(CFA_XSP16, literal(-3)))
        CFI (cfiCond166) DPL0 load(1, XDATA, add(CFA_XSP16, literal(-2)))
        CFI (cfiCond166) DPH0 load(1, XDATA, add(CFA_XSP16, literal(-1)))
        CFI (cfiCond166) CFA_SP SP+0
        CFI (cfiCond166) CFA_XSP16 add(XSP16, 23)
        CFI Block cfiCond167 Using cfiCommon0
        CFI (cfiCond167) NoFunction
        CFI (cfiCond167) Conditional ??CrossCallReturnLabel_145
        CFI (cfiCond167) R6 load(1, XDATA, add(CFA_XSP16, literal(-12)))
        CFI (cfiCond167) VB load(1, XDATA, add(CFA_XSP16, literal(-11)))
        CFI (cfiCond167) V0 load(1, XDATA, add(CFA_XSP16, literal(-10)))
        CFI (cfiCond167) V1 load(1, XDATA, add(CFA_XSP16, literal(-9)))
        CFI (cfiCond167) V2 load(1, XDATA, add(CFA_XSP16, literal(-8)))
        CFI (cfiCond167) V3 load(1, XDATA, add(CFA_XSP16, literal(-7)))
        CFI (cfiCond167) R7 load(1, XDATA, add(CFA_XSP16, literal(-6)))
        CFI (cfiCond167) ?RET_LOW load(1, XDATA, add(CFA_XSP16, literal(-5)))
        CFI (cfiCond167) ?RET_HIGH load(1, XDATA, add(CFA_XSP16, literal(-4)))
        CFI (cfiCond167) ?BRET_EXT load(1, XDATA, add(CFA_XSP16, literal(-3)))
        CFI (cfiCond167) DPL0 load(1, XDATA, add(CFA_XSP16, literal(-2)))
        CFI (cfiCond167) DPH0 load(1, XDATA, add(CFA_XSP16, literal(-1)))
        CFI (cfiCond167) CFA_SP SP+0
        CFI (cfiCond167) CFA_XSP16 add(XSP16, 26)
        CFI Block cfiCond168 Using cfiCommon0
        CFI (cfiCond168) NoFunction
        CFI (cfiCond168) Conditional ??CrossCallReturnLabel_146
        CFI (cfiCond168) R6 load(1, XDATA, add(CFA_XSP16, literal(-12)))
        CFI (cfiCond168) VB load(1, XDATA, add(CFA_XSP16, literal(-11)))
        CFI (cfiCond168) V0 load(1, XDATA, add(CFA_XSP16, literal(-10)))
        CFI (cfiCond168) V1 load(1, XDATA, add(CFA_XSP16, literal(-9)))
        CFI (cfiCond168) V2 load(1, XDATA, add(CFA_XSP16, literal(-8)))
        CFI (cfiCond168) V3 load(1, XDATA, add(CFA_XSP16, literal(-7)))
        CFI (cfiCond168) R7 load(1, XDATA, add(CFA_XSP16, literal(-6)))
        CFI (cfiCond168) ?RET_LOW load(1, XDATA, add(CFA_XSP16, literal(-5)))
        CFI (cfiCond168) ?RET_HIGH load(1, XDATA, add(CFA_XSP16, literal(-4)))
        CFI (cfiCond168) ?BRET_EXT load(1, XDATA, add(CFA_XSP16, literal(-3)))
        CFI (cfiCond168) DPL0 load(1, XDATA, add(CFA_XSP16, literal(-2)))
        CFI (cfiCond168) DPH0 load(1, XDATA, add(CFA_XSP16, literal(-1)))
        CFI (cfiCond168) CFA_SP SP+0
        CFI (cfiCond168) CFA_XSP16 add(XSP16, 25)
        CFI Block cfiCond169 Using cfiCommon0
        CFI (cfiCond169) NoFunction
        CFI (cfiCond169) Conditional ??CrossCallReturnLabel_147
        CFI (cfiCond169) R6 load(1, XDATA, add(CFA_XSP16, literal(-16)))
        CFI (cfiCond169) VB load(1, XDATA, add(CFA_XSP16, literal(-15)))
        CFI (cfiCond169) V0 load(1, XDATA, add(CFA_XSP16, literal(-14)))
        CFI (cfiCond169) V1 load(1, XDATA, add(CFA_XSP16, literal(-13)))
        CFI (cfiCond169) V2 load(1, XDATA, add(CFA_XSP16, literal(-12)))
        CFI (cfiCond169) V3 load(1, XDATA, add(CFA_XSP16, literal(-11)))
        CFI (cfiCond169) V4 load(1, XDATA, add(CFA_XSP16, literal(-10)))
        CFI (cfiCond169) V5 load(1, XDATA, add(CFA_XSP16, literal(-9)))
        CFI (cfiCond169) V6 load(1, XDATA, add(CFA_XSP16, literal(-8)))
        CFI (cfiCond169) V7 load(1, XDATA, add(CFA_XSP16, literal(-7)))
        CFI (cfiCond169) R7 load(1, XDATA, add(CFA_XSP16, literal(-6)))
        CFI (cfiCond169) ?RET_LOW load(1, XDATA, add(CFA_XSP16, literal(-5)))
        CFI (cfiCond169) ?RET_HIGH load(1, XDATA, add(CFA_XSP16, literal(-4)))
        CFI (cfiCond169) ?BRET_EXT load(1, XDATA, add(CFA_XSP16, literal(-3)))
        CFI (cfiCond169) DPL0 load(1, XDATA, add(CFA_XSP16, literal(-2)))
        CFI (cfiCond169) DPH0 load(1, XDATA, add(CFA_XSP16, literal(-1)))
        CFI (cfiCond169) CFA_SP SP+0
        CFI (cfiCond169) CFA_XSP16 add(XSP16, 51)
        CFI Block cfiPicker170 Using cfiCommon1
        CFI (cfiPicker170) NoFunction
        CFI (cfiPicker170) Picker
        LCALL   ??gizProtocolSum?relay
        MOV     A,#0x4
        RET
        CFI EndBlock cfiCond162
        CFI EndBlock cfiCond163
        CFI EndBlock cfiCond164
        CFI EndBlock cfiCond165
        CFI EndBlock cfiCond166
        CFI EndBlock cfiCond167
        CFI EndBlock cfiCond168
        CFI EndBlock cfiCond169
        CFI EndBlock cfiPicker170

        RSEG BANKED_CODE:CODE:NOROOT(0)
?Subroutine16:
        CFI Block cfiCond171 Using cfiCommon0
        CFI NoFunction
        CFI Conditional ??CrossCallReturnLabel_16
        CFI R6 load(1, XDATA, add(CFA_XSP16, literal(-11)))
        CFI VB load(1, XDATA, add(CFA_XSP16, literal(-10)))
        CFI V0 load(1, XDATA, add(CFA_XSP16, literal(-9)))
        CFI V1 load(1, XDATA, add(CFA_XSP16, literal(-8)))
        CFI V2 load(1, XDATA, add(CFA_XSP16, literal(-7)))
        CFI R7 load(1, XDATA, add(CFA_XSP16, literal(-6)))
        CFI ?RET_LOW load(1, XDATA, add(CFA_XSP16, literal(-5)))
        CFI ?RET_HIGH load(1, XDATA, add(CFA_XSP16, literal(-4)))
        CFI ?BRET_EXT load(1, XDATA, add(CFA_XSP16, literal(-3)))
        CFI DPL0 load(1, XDATA, add(CFA_XSP16, literal(-2)))
        CFI DPH0 load(1, XDATA, add(CFA_XSP16, literal(-1)))
        CFI CFA_SP SP+0
        CFI CFA_XSP16 add(XSP16, 126)
        CFI Block cfiCond172 Using cfiCommon0
        CFI (cfiCond172) NoFunction
        CFI (cfiCond172) Conditional ??CrossCallReturnLabel_17
        CFI (cfiCond172) R6 load(1, XDATA, add(CFA_XSP16, literal(-9)))
        CFI (cfiCond172) VB load(1, XDATA, add(CFA_XSP16, literal(-8)))
        CFI (cfiCond172) V0 load(1, XDATA, add(CFA_XSP16, literal(-7)))
        CFI (cfiCond172) R7 load(1, XDATA, add(CFA_XSP16, literal(-6)))
        CFI (cfiCond172) ?RET_LOW load(1, XDATA, add(CFA_XSP16, literal(-5)))
        CFI (cfiCond172) ?RET_HIGH load(1, XDATA, add(CFA_XSP16, literal(-4)))
        CFI (cfiCond172) ?BRET_EXT load(1, XDATA, add(CFA_XSP16, literal(-3)))
        CFI (cfiCond172) DPL0 load(1, XDATA, add(CFA_XSP16, literal(-2)))
        CFI (cfiCond172) DPH0 load(1, XDATA, add(CFA_XSP16, literal(-1)))
        CFI (cfiCond172) CFA_SP SP+0
        CFI (cfiCond172) CFA_XSP16 add(XSP16, 19)
        CFI Block cfiPicker173 Using cfiCommon1
        CFI (cfiPicker173) NoFunction
        CFI (cfiPicker173) Picker
        MOVX    @DPTR,A
        MOV     DPL,R6
        MOV     DPH,R7
        INC     DPTR
        INC     DPTR
        INC     DPTR
        INC     DPTR
        INC     DPTR
        MOVX    A,@DPTR
        RET
        CFI EndBlock cfiCond171
        CFI EndBlock cfiCond172
        CFI EndBlock cfiPicker173
// 1179 
// 1180 /**
// 1181 * @brief ÂØπÂ∫îÂçèËÆÆ 4.13 Êé•Êî∂ËøîÂõûÁöÑÁΩëÁªúÊó∂Èó?‰∏?*
// 1182 * @param [in] head : ÂçèËÆÆÂ§¥Âú∞ÂùÄ
// 1183 *
// 1184 * @return 0Ôº?ÊâßË°åÊàêÂäüÔº?Èù?0Ôº?Â§±Ë¥•
// 1185 */
// 1186 static int8 gizProtocolNTP(protocolHead_t *head)
// 1187 {
// 1188     int32 ret = 0;
// 1189     
// 1190     protocolUTT_t *UTTInfo = (protocolUTT_t *)head;
// 1191     
// 1192     if(NULL == head)
// 1193     {
// 1194         GIZWITS_LOG("ERROR: NTP is empty \n");
// 1195         return -1;
// 1196     }
// 1197     
// 1198     osal_memcpy((uint8 *)&gizwitsProtocol.TimeNTP,(uint8 *)UTTInfo->time, (7 + 4));
// 1199     gizwitsProtocol.TimeNTP.year = gizProtocolExchangeBytes(gizwitsProtocol.TimeNTP.year);
// 1200     gizwitsProtocol.TimeNTP.ntp = gizExchangeWord(gizwitsProtocol.TimeNTP.ntp);
// 1201 
// 1202     gizwitsProtocol.NTPEvent.event[gizwitsProtocol.NTPEvent.num] = WIFI_NTP;
// 1203     gizwitsProtocol.NTPEvent.num++;
// 1204     
// 1205     gizwitsProtocol.issuedFlag = GET_NTP_TYPE;
// 1206     
// 1207     
// 1208     return 0;
// 1209 }
// 1210 
// 1211 /**
// 1212 * @brief ÂçèËÆÆ4.4 ËÆæÂ§áMCUÈáçÁΩÆWiFiÊ®°ÁªÑ ÁöÑÁõ∏ÂÖ≥Êìç‰Ω?
// 1213 * @param none
// 1214 * @return none
// 1215 */
// 1216 static void gizProtocolReboot(void)
// 1217 {
// 1218     uint32 timeDelay = gizGetTimerCount();
// 1219     
// 1220     /*Wait 600ms*/
// 1221     while((gizGetTimerCount() - timeDelay) <= 600);
// 1222     mcuRestart();
// 1223 }
// 1224 
// 1225 /**
// 1226 * @brief ÂçèËÆÆ 4.5 WiFiÊ®°ÁªÑÂêëËÆæÂ§áMCUÈÄöÁü•WiFiÊ®°ÁªÑÂ∑•‰ΩúÁä∂ÊÄÅÁöÑÂèòÂåñ
// 1227 
// 1228 * @param[in] status WiFiÊ®°ÁªÑÂ∑•‰ΩúÁä∂ÊÄ?* @return none
// 1229 */

        RSEG BANKED_CODE:CODE:NOROOT(0)
// 1230 static int8 gizProtocolModuleStatus(protocolWifiStatus_t *status)
gizProtocolModuleStatus:
        CFI Block cfiBlock174 Using cfiCommon0
        CFI Function gizProtocolModuleStatus
        CODE
// 1231 {
        FUNCALL gizProtocolModuleStatus, gizProtocolExchangeBytes
        LOCFRAME ISTACK, 0, STACK
        LOCFRAME PSTACK, 0, STACK
        LOCFRAME XSTACK, 12, STACK
        LOCFRAME IOVERLAY, 0, STATIC
        LOCFRAME DOVERLAY, 0, STATIC
        ARGFRAME ISTACK, 0, STACK
        ARGFRAME PSTACK, 0, STACK
        ARGFRAME XSTACK, 12, STACK
        ARGFRAME IOVERLAY, 0, STATIC
        ARGFRAME DOVERLAY, 0, STATIC
        MOV     A,#-0xc
        LCALL   ?BANKED_ENTER_XDATA
        CFI DPH0 load(1, XDATA, add(CFA_XSP16, literal(-1)))
        CFI DPL0 load(1, XDATA, add(CFA_XSP16, literal(-2)))
        CFI ?BRET_EXT load(1, XDATA, add(CFA_XSP16, literal(-3)))
        CFI ?RET_HIGH load(1, XDATA, add(CFA_XSP16, literal(-4)))
        CFI ?RET_LOW load(1, XDATA, add(CFA_XSP16, literal(-5)))
        CFI R7 load(1, XDATA, add(CFA_XSP16, literal(-6)))
        CFI V3 load(1, XDATA, add(CFA_XSP16, literal(-7)))
        CFI V2 load(1, XDATA, add(CFA_XSP16, literal(-8)))
        CFI V1 load(1, XDATA, add(CFA_XSP16, literal(-9)))
        CFI V0 load(1, XDATA, add(CFA_XSP16, literal(-10)))
        CFI VB load(1, XDATA, add(CFA_XSP16, literal(-11)))
        CFI R6 load(1, XDATA, add(CFA_XSP16, literal(-12)))
        CFI CFA_SP SP+0
        CFI CFA_XSP16 add(XSP16, 12)
        ; Saved register size: 12
        ; Auto size: 0
        MOV     A,R2
        MOV     R6,A
        MOV     A,R3
        MOV     R7,A
// 1232     static wifiStatus_t lastStatus;
// 1233 
// 1234     if(NULL == status)
        MOV     A,R6
        ORL     A,R7
        JNZ     ??gizProtocolModuleStatus_0
// 1235     {
// 1236         GIZWITS_LOG("gizProtocolModuleStatus Error , Illegal Param\n");
// 1237         return -1;
        MOV     R1,#-0x1
        LJMP    ??gizProtocolModuleStatus_1 & 0xFFFF
// 1238     }
// 1239 
// 1240     status->ststus.value = gizProtocolExchangeBytes(status->ststus.value);
??gizProtocolModuleStatus_0:
        LCALL   ?Subroutine49 & 0xFFFF
??CrossCallReturnLabel_79:
        ; Setup parameters for call to function gizProtocolExchangeBytes
        MOV     DPL,?V0 + 0
        MOV     DPH,A
        LCALL   ?Subroutine29 & 0xFFFF
??CrossCallReturnLabel_44:
        MOV     ?V0 + 2,R2
        MOV     R0,?V0 + 2
        MOV     DPL,?V0 + 0
        MOV     DPH,?V0 + 1
        MOV     A,R0
        LCALL   ??Subroutine64_0 & 0xFFFF
// 1241    
// 1242     //OnBoarding mode status
// 1243     if(lastStatus.types.onboarding != status->ststus.types.onboarding)
??CrossCallReturnLabel_123:
        MOV     A,R0
        RRC     A
        RRC     A
        ANL     A,#0x3f
        MOV     C,0xE0 /* A   */.0
        MOV     B.0,C
        MOV     DPTR,#??lastStatus
        MOVX    A,@DPTR
        RRC     A
        RRC     A
        ANL     A,#0x3f
        MOV     C,0xE0 /* A   */.0
        JB      B.0,??gizProtocolModuleStatus_2
        CPL     C
??gizProtocolModuleStatus_2:
        JC      ??CrossCallReturnLabel_166
// 1244     {
// 1245         if(1 == status->ststus.types.onboarding)
        MOV     DPL,R6
        MOV     DPH,R7
        INC     DPTR
        INC     DPTR
        INC     DPTR
        INC     DPTR
        INC     DPTR
        INC     DPTR
        INC     DPTR
        INC     DPTR
        MOVX    A,@DPTR
        ANL     A,#0x4
        MOV     DPL,R6
        MOV     DPH,R7
        INC     DPTR
        INC     DPTR
        INC     DPTR
        INC     DPTR
        INC     DPTR
        INC     DPTR
        INC     DPTR
        INC     DPTR
        JZ      ??gizProtocolModuleStatus_3
// 1246         {
// 1247             if(1 == status->ststus.types.softap)
        MOVX    A,@DPTR
        MOV     C,0xE0 /* A   */.0
        JNC     ??CrossCallReturnLabel_164
// 1248             {
// 1249                 gizwitsProtocol.wifiStatusEvent.event[gizwitsProtocol.wifiStatusEvent.num] = WIFI_SOFTAP;
        LCALL   ?Subroutine10 & 0xFFFF
// 1250                 gizwitsProtocol.wifiStatusEvent.num++;
// 1251                 GIZWITS_LOG("OnBoarding: SoftAP or Web mode\n");
// 1252             }
// 1253 
// 1254             if(1 == status->ststus.types.station)
??CrossCallReturnLabel_164:
        MOV     DPL,R6
        MOV     DPH,R7
        INC     DPTR
        INC     DPTR
        INC     DPTR
        INC     DPTR
        INC     DPTR
        INC     DPTR
        INC     DPTR
        INC     DPTR
        MOVX    A,@DPTR
        ANL     A,#0x2
        JZ      ??CrossCallReturnLabel_166
// 1255             {
// 1256                 gizwitsProtocol.wifiStatusEvent.event[gizwitsProtocol.wifiStatusEvent.num] = WIFI_AIRLINK;
        LCALL   ?Subroutine22 & 0xFFFF
// 1257                 gizwitsProtocol.wifiStatusEvent.num++;
// 1258                 GIZWITS_LOG("OnBoarding: AirLink mode\n");
// 1259             }
// 1260         }
??CrossCallReturnLabel_159:
        MOV     A,#0x1
        SJMP    ??gizProtocolModuleStatus_4
// 1261         else
// 1262         {
// 1263             if(1 == status->ststus.types.softap)
??gizProtocolModuleStatus_3:
        MOVX    A,@DPTR
        MOV     C,0xE0 /* A   */.0
        JNC     ??CrossCallReturnLabel_165
// 1264             {
// 1265                 gizwitsProtocol.wifiStatusEvent.event[gizwitsProtocol.wifiStatusEvent.num] = WIFI_SOFTAP;
        LCALL   ?Subroutine10 & 0xFFFF
// 1266                 gizwitsProtocol.wifiStatusEvent.num++;
// 1267                 GIZWITS_LOG("OnBoarding: SoftAP or Web mode\n");
// 1268             }
// 1269 
// 1270             if(1 == status->ststus.types.station)
??CrossCallReturnLabel_165:
        MOV     DPL,R6
        MOV     DPH,R7
        INC     DPTR
        INC     DPTR
        INC     DPTR
        INC     DPTR
        INC     DPTR
        INC     DPTR
        INC     DPTR
        INC     DPTR
        MOVX    A,@DPTR
        ANL     A,#0x2
        JZ      ??CrossCallReturnLabel_166
// 1271             {
// 1272                 gizwitsProtocol.wifiStatusEvent.event[gizwitsProtocol.wifiStatusEvent.num] = WIFI_STATION;
        LCALL   ?Subroutine22 & 0xFFFF
// 1273                 gizwitsProtocol.wifiStatusEvent.num++;
// 1274                 GIZWITS_LOG("OnBoarding: Station mode\n");
// 1275             }
// 1276         }
// 1277     }
??CrossCallReturnLabel_160:
        MOV     A,#0x2
??gizProtocolModuleStatus_4:
        LCALL   ??Subroutine68_0 & 0xFFFF
// 1278 
// 1279     //binding mode status
// 1280     if(lastStatus.types.binding != status->ststus.types.binding)
??CrossCallReturnLabel_166:
        MOV     DPL,R6
        MOV     DPH,R7
        INC     DPTR
        INC     DPTR
        INC     DPTR
        INC     DPTR
        INC     DPTR
        INC     DPTR
        INC     DPTR
        INC     DPTR
        LCALL   ?Subroutine40 & 0xFFFF
??CrossCallReturnLabel_65:
        MOV     B.0,C
        MOV     DPTR,#??lastStatus
        LCALL   ?Subroutine40 & 0xFFFF
??CrossCallReturnLabel_66:
        JB      B.0,??gizProtocolModuleStatus_5
        CPL     C
??gizProtocolModuleStatus_5:
        JC      ??CrossCallReturnLabel_3
// 1281     {
// 1282         lastStatus.types.binding = status->ststus.types.binding;
        MOVX    A,@DPTR
        ANL     A,#0xf7
        LCALL   ?Subroutine28 & 0xFFFF
??CrossCallReturnLabel_40:
        ANL     A,#0x8
        LCALL   ?Subroutine8 & 0xFFFF
// 1283         if(1 == status->ststus.types.binding)
??CrossCallReturnLabel_0:
        ANL     A,#0x8
        MOV     DPTR,#gizwitsProtocol + 132
        JZ      ??gizProtocolModuleStatus_6
// 1284         {
// 1285             gizwitsProtocol.wifiStatusEvent.event[gizwitsProtocol.wifiStatusEvent.num] = WIFI_OPEN_BINDING;
        LCALL   ??Subroutine67_0 & 0xFFFF
// 1286             gizwitsProtocol.wifiStatusEvent.num++;
// 1287             GIZWITS_LOG("WiFi status: in binding mode\n");
// 1288         }
??CrossCallReturnLabel_149:
        MOV     A,#0x3
        SJMP    ??gizProtocolModuleStatus_7
// 1289         else
// 1290         {
// 1291             gizwitsProtocol.wifiStatusEvent.event[gizwitsProtocol.wifiStatusEvent.num] = WIFI_CLOSE_BINDING;
??gizProtocolModuleStatus_6:
        LCALL   ??Subroutine67_0 & 0xFFFF
// 1292             gizwitsProtocol.wifiStatusEvent.num++;
// 1293             GIZWITS_LOG("WiFi status: out binding mode\n");
// 1294         }
// 1295     }
??CrossCallReturnLabel_150:
        MOV     A,#0x4
??gizProtocolModuleStatus_7:
        LCALL   ?Subroutine9 & 0xFFFF
// 1296 
// 1297     //router status
// 1298     if(lastStatus.types.con_route != status->ststus.types.con_route)
??CrossCallReturnLabel_3:
        MOV     DPL,R6
        MOV     DPH,R7
        INC     DPTR
        INC     DPTR
        INC     DPTR
        INC     DPTR
        INC     DPTR
        INC     DPTR
        INC     DPTR
        INC     DPTR
        MOVX    A,@DPTR
        SWAP    A
        ANL     A,#0xf
        MOV     C,0xE0 /* A   */.0
        MOV     B.0,C
        MOV     DPTR,#??lastStatus
        MOVX    A,@DPTR
        SWAP    A
        ANL     A,#0xf
        MOV     C,0xE0 /* A   */.0
        JB      B.0,??gizProtocolModuleStatus_8
        CPL     C
??gizProtocolModuleStatus_8:
        JC      ??CrossCallReturnLabel_167
// 1299     {
// 1300         lastStatus.types.con_route = status->ststus.types.con_route;
        MOVX    A,@DPTR
        ANL     A,#0xef
        LCALL   ?Subroutine28 & 0xFFFF
??CrossCallReturnLabel_41:
        ANL     A,#0x10
        LCALL   ?Subroutine8 & 0xFFFF
// 1301         if(1 == status->ststus.types.con_route)
??CrossCallReturnLabel_1:
        ANL     A,#0x10
        MOV     DPTR,#gizwitsProtocol + 132
        JZ      ??gizProtocolModuleStatus_9
// 1302         {
// 1303             gizwitsProtocol.wifiStatusEvent.event[gizwitsProtocol.wifiStatusEvent.num] = WIFI_CON_ROUTER;
        LCALL   ??Subroutine67_0 & 0xFFFF
// 1304             gizwitsProtocol.wifiStatusEvent.num++;
// 1305             GIZWITS_LOG("WiFi status: connected router\n");
// 1306         }
??CrossCallReturnLabel_151:
        MOV     A,#0x5
        SJMP    ??gizProtocolModuleStatus_10
// 1307         else
// 1308         {
// 1309             gizwitsProtocol.wifiStatusEvent.event[gizwitsProtocol.wifiStatusEvent.num] = WIFI_DISCON_ROUTER;
??gizProtocolModuleStatus_9:
        LCALL   ??Subroutine67_0 & 0xFFFF
// 1310             gizwitsProtocol.wifiStatusEvent.num++;
// 1311             GIZWITS_LOG("WiFi status: disconnected router\n");
// 1312         }
// 1313     }
??CrossCallReturnLabel_152:
        MOV     A,#0x6
??gizProtocolModuleStatus_10:
        LCALL   ??Subroutine68_0 & 0xFFFF
// 1314 
// 1315     //M2M server status
// 1316     if(lastStatus.types.con_m2m != status->ststus.types.con_m2m)
??CrossCallReturnLabel_167:
        MOV     DPL,R6
        MOV     DPH,R7
        INC     DPTR
        INC     DPTR
        INC     DPTR
        INC     DPTR
        INC     DPTR
        INC     DPTR
        INC     DPTR
        INC     DPTR
        MOVX    A,@DPTR
        SWAP    A
        RRC     A
        ANL     A,#0x7
        MOV     C,0xE0 /* A   */.0
        MOV     B.0,C
        MOV     DPTR,#??lastStatus
        MOVX    A,@DPTR
        SWAP    A
        RRC     A
        ANL     A,#0x7
        MOV     C,0xE0 /* A   */.0
        JB      B.0,??gizProtocolModuleStatus_11
        CPL     C
??gizProtocolModuleStatus_11:
        JC      ??CrossCallReturnLabel_4
// 1317     {
// 1318         lastStatus.types.con_m2m = status->ststus.types.con_m2m;
        MOVX    A,@DPTR
        ANL     A,#0xdf
        LCALL   ?Subroutine28 & 0xFFFF
??CrossCallReturnLabel_42:
        ANL     A,#0x20
        LCALL   ?Subroutine8 & 0xFFFF
// 1319         if(1 == status->ststus.types.con_m2m)
??CrossCallReturnLabel_2:
        ANL     A,#0x20
        MOV     DPTR,#gizwitsProtocol + 132
        JZ      ??gizProtocolModuleStatus_12
// 1320         {
// 1321             gizwitsProtocol.wifiStatusEvent.event[gizwitsProtocol.wifiStatusEvent.num] = WIFI_CON_M2M;
        LCALL   ??Subroutine67_0 & 0xFFFF
// 1322             gizwitsProtocol.wifiStatusEvent.num++;
// 1323             GIZWITS_LOG("WiFi status: connected m2m\n");
// 1324         }
??CrossCallReturnLabel_153:
        MOV     A,#0x7
        SJMP    ??gizProtocolModuleStatus_13
// 1325         else
// 1326         {
// 1327             gizwitsProtocol.wifiStatusEvent.event[gizwitsProtocol.wifiStatusEvent.num] = WIFI_DISCON_M2M;
??gizProtocolModuleStatus_12:
        LCALL   ??Subroutine67_0 & 0xFFFF
// 1328             gizwitsProtocol.wifiStatusEvent.num++;
// 1329             GIZWITS_LOG("WiFi status: disconnected m2m\n");
// 1330         }
// 1331     }
??CrossCallReturnLabel_154:
        MOV     A,#0x8
??gizProtocolModuleStatus_13:
        LCALL   ?Subroutine9 & 0xFFFF
// 1332 
// 1333     //APP status
// 1334     if(lastStatus.types.app != status->ststus.types.app)
??CrossCallReturnLabel_4:
        MOV     DPL,R6
        MOV     DPH,R7
        INC     DPTR
        INC     DPTR
        INC     DPTR
        INC     DPTR
        INC     DPTR
        INC     DPTR
        INC     DPTR
        INC     DPTR
        LCALL   ?Subroutine30 & 0xFFFF
??CrossCallReturnLabel_46:
        LCALL   ?US_SHR
        MOV     A,?V0 + 0
        MOV     C,0xE0 /* A   */.0
        MOV     B.0,C
        MOV     DPTR,#??lastStatus
        LCALL   ?Subroutine30 & 0xFFFF
??CrossCallReturnLabel_47:
        LCALL   ?US_SHR
        MOV     A,?V0 + 0
        MOV     C,0xE0 /* A   */.0
        JB      B.0,??gizProtocolModuleStatus_14
        CPL     C
??gizProtocolModuleStatus_14:
        JC      ??CrossCallReturnLabel_5
// 1335     {
// 1336         lastStatus.types.app = status->ststus.types.app;
        LCALL   ?Subroutine49 & 0xFFFF
??CrossCallReturnLabel_80:
        MOV     DPTR,#??lastStatus
        MOVX    A,@DPTR
        MOV     R2,A
        INC     DPTR
        MOVX    A,@DPTR
        ANL     A,#0xf7
        MOV     R3,A
        MOV     DPL,?V0 + 0
        MOV     DPH,?V0 + 1
        INC     DPTR
        MOVX    A,@DPTR
        ANL     A,#0x8
        LCALL   ?Subroutine14 & 0xFFFF
// 1337         if(1 == status->ststus.types.app)
??CrossCallReturnLabel_12:
        ANL     A,#0x8
        MOV     DPTR,#gizwitsProtocol + 132
        JZ      ??gizProtocolModuleStatus_15
// 1338         {
// 1339             gizwitsProtocol.wifiStatusEvent.event[gizwitsProtocol.wifiStatusEvent.num] = WIFI_CON_APP;
        LCALL   ??Subroutine67_0 & 0xFFFF
// 1340             gizwitsProtocol.wifiStatusEvent.num++;
// 1341             GIZWITS_LOG("WiFi status: app connect\n");
// 1342         }
??CrossCallReturnLabel_155:
        MOV     A,#0xb
        SJMP    ??gizProtocolModuleStatus_16
// 1343         else
// 1344         {
// 1345             gizwitsProtocol.wifiStatusEvent.event[gizwitsProtocol.wifiStatusEvent.num] = WIFI_DISCON_APP;
??gizProtocolModuleStatus_15:
        LCALL   ??Subroutine67_0 & 0xFFFF
// 1346             gizwitsProtocol.wifiStatusEvent.num++;
// 1347             GIZWITS_LOG("WiFi status: no app connect\n");
// 1348         }
// 1349     }
??CrossCallReturnLabel_156:
        MOV     A,#0xc
??gizProtocolModuleStatus_16:
        LCALL   ?Subroutine9 & 0xFFFF
// 1350 
// 1351     //test mode status
// 1352     if(lastStatus.types.test != status->ststus.types.test)
??CrossCallReturnLabel_5:
        MOV     DPL,R6
        MOV     DPH,R7
        INC     DPTR
        INC     DPTR
        INC     DPTR
        INC     DPTR
        INC     DPTR
        INC     DPTR
        INC     DPTR
        INC     DPTR
        LCALL   ?Subroutine31 & 0xFFFF
??CrossCallReturnLabel_48:
        LCALL   ?US_SHR
        MOV     A,?V0 + 0
        MOV     C,0xE0 /* A   */.0
        MOV     B.0,C
        MOV     DPTR,#??lastStatus
        LCALL   ?Subroutine31 & 0xFFFF
??CrossCallReturnLabel_49:
        LCALL   ?US_SHR
        MOV     A,?V0 + 0
        MOV     C,0xE0 /* A   */.0
        JB      B.0,??gizProtocolModuleStatus_17
        CPL     C
??gizProtocolModuleStatus_17:
        JC      ??CrossCallReturnLabel_6
// 1353     {
// 1354         lastStatus.types.test = status->ststus.types.test;
        MOV     A,R6
        ADD     A,#0x8
        MOV     R0,A
        MOV     A,R7
        ADDC    A,#0x0
        MOV     R1,A
        MOV     ?V0 + 0,R0
        MOV     ?V0 + 1,R1
        MOV     DPTR,#??lastStatus
        MOVX    A,@DPTR
        MOV     R2,A
        INC     DPTR
        MOVX    A,@DPTR
        ANL     A,#0xef
        MOV     R3,A
        MOV     DPL,R0
        MOV     DPH,R1
        INC     DPTR
        MOVX    A,@DPTR
        ANL     A,#0x10
        LCALL   ?Subroutine14 & 0xFFFF
// 1355         if(1 == status->ststus.types.test)
??CrossCallReturnLabel_13:
        ANL     A,#0x10
        MOV     DPTR,#gizwitsProtocol + 132
        JZ      ??gizProtocolModuleStatus_18
// 1356         {
// 1357             gizwitsProtocol.wifiStatusEvent.event[gizwitsProtocol.wifiStatusEvent.num] = WIFI_OPEN_TESTMODE;
        LCALL   ??Subroutine67_0 & 0xFFFF
// 1358             gizwitsProtocol.wifiStatusEvent.num++;
// 1359             GIZWITS_LOG("WiFi status: in test mode\n");
// 1360         }
??CrossCallReturnLabel_157:
        MOV     A,#0x9
        SJMP    ??gizProtocolModuleStatus_19
// 1361         else
// 1362         {
// 1363             gizwitsProtocol.wifiStatusEvent.event[gizwitsProtocol.wifiStatusEvent.num] = WIFI_CLOSE_TESTMODE;
??gizProtocolModuleStatus_18:
        LCALL   ??Subroutine67_0 & 0xFFFF
// 1364             gizwitsProtocol.wifiStatusEvent.num++;
// 1365             GIZWITS_LOG("WiFi status: out test mode\n");
// 1366         }
// 1367     }
??CrossCallReturnLabel_158:
        MOV     A,#0xa
??gizProtocolModuleStatus_19:
        LCALL   ?Subroutine9 & 0xFFFF
// 1368 
// 1369     gizwitsProtocol.wifiStatusEvent.event[gizwitsProtocol.wifiStatusEvent.num] = WIFI_RSSI;
??CrossCallReturnLabel_6:
        LCALL   ?Subroutine22 & 0xFFFF
??CrossCallReturnLabel_161:
        MOV     A,#0xd
        LCALL   ?Subroutine9 & 0xFFFF
// 1370     gizwitsProtocol.wifiStatusEvent.num++;
// 1371     gizwitsProtocol.wifiStatusData.rssi = status->ststus.types.rssi;
??CrossCallReturnLabel_7:
        MOV     DPL,R6
        MOV     DPH,R7
        INC     DPTR
        INC     DPTR
        INC     DPTR
        INC     DPTR
        INC     DPTR
        INC     DPTR
        INC     DPTR
        INC     DPTR
        INC     DPTR
        MOVX    A,@DPTR
        ANL     A,#0x7
        MOV     DPTR,#gizwitsProtocol + 234
        MOVX    @DPTR,A
// 1372     GIZWITS_LOG("RSSI is %d \n", gizwitsProtocol.wifiStatusData.rssi);
// 1373 
// 1374     gizwitsProtocol.issuedFlag = WIFI_STATUS_TYPE;
        MOV     DPTR,#gizwitsProtocol
        MOV     A,#0x2
        MOVX    @DPTR,A
// 1375 
// 1376     return 0;
        MOV     R1,#0x0
??gizProtocolModuleStatus_1:
        LJMP    ??Subroutine69_0 & 0xFFFF
        CFI EndBlock cfiBlock174
// 1377 }

        RSEG BANKED_CODE:CODE:NOROOT(0)
?Subroutine49:
        CFI Block cfiCond175 Using cfiCommon0
        CFI NoFunction
        CFI Conditional ??CrossCallReturnLabel_79
        CFI R6 load(1, XDATA, add(CFA_XSP16, literal(-12)))
        CFI VB load(1, XDATA, add(CFA_XSP16, literal(-11)))
        CFI V0 load(1, XDATA, add(CFA_XSP16, literal(-10)))
        CFI V1 load(1, XDATA, add(CFA_XSP16, literal(-9)))
        CFI V2 load(1, XDATA, add(CFA_XSP16, literal(-8)))
        CFI V3 load(1, XDATA, add(CFA_XSP16, literal(-7)))
        CFI R7 load(1, XDATA, add(CFA_XSP16, literal(-6)))
        CFI ?RET_LOW load(1, XDATA, add(CFA_XSP16, literal(-5)))
        CFI ?RET_HIGH load(1, XDATA, add(CFA_XSP16, literal(-4)))
        CFI ?BRET_EXT load(1, XDATA, add(CFA_XSP16, literal(-3)))
        CFI DPL0 load(1, XDATA, add(CFA_XSP16, literal(-2)))
        CFI DPH0 load(1, XDATA, add(CFA_XSP16, literal(-1)))
        CFI CFA_SP SP+0
        CFI CFA_XSP16 add(XSP16, 12)
        CFI Block cfiCond176 Using cfiCommon0
        CFI (cfiCond176) NoFunction
        CFI (cfiCond176) Conditional ??CrossCallReturnLabel_80
        CFI (cfiCond176) R6 load(1, XDATA, add(CFA_XSP16, literal(-12)))
        CFI (cfiCond176) VB load(1, XDATA, add(CFA_XSP16, literal(-11)))
        CFI (cfiCond176) V0 load(1, XDATA, add(CFA_XSP16, literal(-10)))
        CFI (cfiCond176) V1 load(1, XDATA, add(CFA_XSP16, literal(-9)))
        CFI (cfiCond176) V2 load(1, XDATA, add(CFA_XSP16, literal(-8)))
        CFI (cfiCond176) V3 load(1, XDATA, add(CFA_XSP16, literal(-7)))
        CFI (cfiCond176) R7 load(1, XDATA, add(CFA_XSP16, literal(-6)))
        CFI (cfiCond176) ?RET_LOW load(1, XDATA, add(CFA_XSP16, literal(-5)))
        CFI (cfiCond176) ?RET_HIGH load(1, XDATA, add(CFA_XSP16, literal(-4)))
        CFI (cfiCond176) ?BRET_EXT load(1, XDATA, add(CFA_XSP16, literal(-3)))
        CFI (cfiCond176) DPL0 load(1, XDATA, add(CFA_XSP16, literal(-2)))
        CFI (cfiCond176) DPH0 load(1, XDATA, add(CFA_XSP16, literal(-1)))
        CFI (cfiCond176) CFA_SP SP+0
        CFI (cfiCond176) CFA_XSP16 add(XSP16, 12)
        CFI Block cfiPicker177 Using cfiCommon1
        CFI (cfiPicker177) NoFunction
        CFI (cfiPicker177) Picker
        MOV     A,R6
        ADD     A,#0x8
        MOV     ?V0 + 0,A
        MOV     A,R7
        ADDC    A,#0x0
        MOV     ?V0 + 1,A
        RET
        CFI EndBlock cfiCond175
        CFI EndBlock cfiCond176
        CFI EndBlock cfiPicker177

        RSEG BANKED_CODE:CODE:NOROOT(0)
?Subroutine40:
        CFI Block cfiCond178 Using cfiCommon0
        CFI NoFunction
        CFI Conditional ??CrossCallReturnLabel_65
        CFI R6 load(1, XDATA, add(CFA_XSP16, literal(-12)))
        CFI VB load(1, XDATA, add(CFA_XSP16, literal(-11)))
        CFI V0 load(1, XDATA, add(CFA_XSP16, literal(-10)))
        CFI V1 load(1, XDATA, add(CFA_XSP16, literal(-9)))
        CFI V2 load(1, XDATA, add(CFA_XSP16, literal(-8)))
        CFI V3 load(1, XDATA, add(CFA_XSP16, literal(-7)))
        CFI R7 load(1, XDATA, add(CFA_XSP16, literal(-6)))
        CFI ?RET_LOW load(1, XDATA, add(CFA_XSP16, literal(-5)))
        CFI ?RET_HIGH load(1, XDATA, add(CFA_XSP16, literal(-4)))
        CFI ?BRET_EXT load(1, XDATA, add(CFA_XSP16, literal(-3)))
        CFI DPL0 load(1, XDATA, add(CFA_XSP16, literal(-2)))
        CFI DPH0 load(1, XDATA, add(CFA_XSP16, literal(-1)))
        CFI CFA_SP SP+0
        CFI CFA_XSP16 add(XSP16, 12)
        CFI Block cfiCond179 Using cfiCommon0
        CFI (cfiCond179) NoFunction
        CFI (cfiCond179) Conditional ??CrossCallReturnLabel_66
        CFI (cfiCond179) R6 load(1, XDATA, add(CFA_XSP16, literal(-12)))
        CFI (cfiCond179) VB load(1, XDATA, add(CFA_XSP16, literal(-11)))
        CFI (cfiCond179) V0 load(1, XDATA, add(CFA_XSP16, literal(-10)))
        CFI (cfiCond179) V1 load(1, XDATA, add(CFA_XSP16, literal(-9)))
        CFI (cfiCond179) V2 load(1, XDATA, add(CFA_XSP16, literal(-8)))
        CFI (cfiCond179) V3 load(1, XDATA, add(CFA_XSP16, literal(-7)))
        CFI (cfiCond179) R7 load(1, XDATA, add(CFA_XSP16, literal(-6)))
        CFI (cfiCond179) ?RET_LOW load(1, XDATA, add(CFA_XSP16, literal(-5)))
        CFI (cfiCond179) ?RET_HIGH load(1, XDATA, add(CFA_XSP16, literal(-4)))
        CFI (cfiCond179) ?BRET_EXT load(1, XDATA, add(CFA_XSP16, literal(-3)))
        CFI (cfiCond179) DPL0 load(1, XDATA, add(CFA_XSP16, literal(-2)))
        CFI (cfiCond179) DPH0 load(1, XDATA, add(CFA_XSP16, literal(-1)))
        CFI (cfiCond179) CFA_SP SP+0
        CFI (cfiCond179) CFA_XSP16 add(XSP16, 12)
        CFI Block cfiPicker180 Using cfiCommon1
        CFI (cfiPicker180) NoFunction
        CFI (cfiPicker180) Picker
        MOVX    A,@DPTR
        RRC     A
        RRC     A
        RRC     A
        ANL     A,#0x1f
        MOV     C,0xE0 /* A   */.0
        RET
        CFI EndBlock cfiCond178
        CFI EndBlock cfiCond179
        CFI EndBlock cfiPicker180

        RSEG BANKED_CODE:CODE:NOROOT(0)
?Subroutine31:
        CFI Block cfiCond181 Using cfiCommon0
        CFI NoFunction
        CFI Conditional ??CrossCallReturnLabel_48
        CFI R6 load(1, XDATA, add(CFA_XSP16, literal(-12)))
        CFI VB load(1, XDATA, add(CFA_XSP16, literal(-11)))
        CFI V0 load(1, XDATA, add(CFA_XSP16, literal(-10)))
        CFI V1 load(1, XDATA, add(CFA_XSP16, literal(-9)))
        CFI V2 load(1, XDATA, add(CFA_XSP16, literal(-8)))
        CFI V3 load(1, XDATA, add(CFA_XSP16, literal(-7)))
        CFI R7 load(1, XDATA, add(CFA_XSP16, literal(-6)))
        CFI ?RET_LOW load(1, XDATA, add(CFA_XSP16, literal(-5)))
        CFI ?RET_HIGH load(1, XDATA, add(CFA_XSP16, literal(-4)))
        CFI ?BRET_EXT load(1, XDATA, add(CFA_XSP16, literal(-3)))
        CFI DPL0 load(1, XDATA, add(CFA_XSP16, literal(-2)))
        CFI DPH0 load(1, XDATA, add(CFA_XSP16, literal(-1)))
        CFI CFA_SP SP+0
        CFI CFA_XSP16 add(XSP16, 12)
        CFI Block cfiCond182 Using cfiCommon0
        CFI (cfiCond182) NoFunction
        CFI (cfiCond182) Conditional ??CrossCallReturnLabel_49
        CFI (cfiCond182) R6 load(1, XDATA, add(CFA_XSP16, literal(-12)))
        CFI (cfiCond182) VB load(1, XDATA, add(CFA_XSP16, literal(-11)))
        CFI (cfiCond182) V0 load(1, XDATA, add(CFA_XSP16, literal(-10)))
        CFI (cfiCond182) V1 load(1, XDATA, add(CFA_XSP16, literal(-9)))
        CFI (cfiCond182) V2 load(1, XDATA, add(CFA_XSP16, literal(-8)))
        CFI (cfiCond182) V3 load(1, XDATA, add(CFA_XSP16, literal(-7)))
        CFI (cfiCond182) R7 load(1, XDATA, add(CFA_XSP16, literal(-6)))
        CFI (cfiCond182) ?RET_LOW load(1, XDATA, add(CFA_XSP16, literal(-5)))
        CFI (cfiCond182) ?RET_HIGH load(1, XDATA, add(CFA_XSP16, literal(-4)))
        CFI (cfiCond182) ?BRET_EXT load(1, XDATA, add(CFA_XSP16, literal(-3)))
        CFI (cfiCond182) DPL0 load(1, XDATA, add(CFA_XSP16, literal(-2)))
        CFI (cfiCond182) DPH0 load(1, XDATA, add(CFA_XSP16, literal(-1)))
        CFI (cfiCond182) CFA_SP SP+0
        CFI (cfiCond182) CFA_XSP16 add(XSP16, 12)
        CFI Block cfiPicker183 Using cfiCommon1
        CFI (cfiPicker183) NoFunction
        CFI (cfiPicker183) Picker
        LCALL   ?Subroutine56 & 0xFFFF
??CrossCallReturnLabel_90:
        MOV     A,#0xc
        MOV     R0,#?V0 + 0
        RET
        CFI EndBlock cfiCond181
        CFI EndBlock cfiCond182
        CFI EndBlock cfiPicker183

        RSEG BANKED_CODE:CODE:NOROOT(0)
?Subroutine56:
        CFI Block cfiCond184 Using cfiCommon0
        CFI NoFunction
        CFI Conditional ??CrossCallReturnLabel_87
        CFI R6 load(1, XDATA, add(CFA_XSP16, literal(-24)))
        CFI VB load(1, XDATA, add(CFA_XSP16, literal(-23)))
        CFI V0 load(1, XDATA, add(CFA_XSP16, literal(-22)))
        CFI V1 load(1, XDATA, add(CFA_XSP16, literal(-21)))
        CFI V2 load(1, XDATA, add(CFA_XSP16, literal(-20)))
        CFI V3 load(1, XDATA, add(CFA_XSP16, literal(-19)))
        CFI V4 load(1, XDATA, add(CFA_XSP16, literal(-18)))
        CFI V5 load(1, XDATA, add(CFA_XSP16, literal(-17)))
        CFI V6 load(1, XDATA, add(CFA_XSP16, literal(-16)))
        CFI V7 load(1, XDATA, add(CFA_XSP16, literal(-15)))
        CFI V8 load(1, XDATA, add(CFA_XSP16, literal(-14)))
        CFI V9 load(1, XDATA, add(CFA_XSP16, literal(-13)))
        CFI V10 load(1, XDATA, add(CFA_XSP16, literal(-12)))
        CFI V11 load(1, XDATA, add(CFA_XSP16, literal(-11)))
        CFI V12 load(1, XDATA, add(CFA_XSP16, literal(-10)))
        CFI V13 load(1, XDATA, add(CFA_XSP16, literal(-9)))
        CFI V14 load(1, XDATA, add(CFA_XSP16, literal(-8)))
        CFI V15 load(1, XDATA, add(CFA_XSP16, literal(-7)))
        CFI R7 load(1, XDATA, add(CFA_XSP16, literal(-6)))
        CFI ?RET_LOW load(1, XDATA, add(CFA_XSP16, literal(-5)))
        CFI ?RET_HIGH load(1, XDATA, add(CFA_XSP16, literal(-4)))
        CFI ?BRET_EXT load(1, XDATA, add(CFA_XSP16, literal(-3)))
        CFI DPL0 load(1, XDATA, add(CFA_XSP16, literal(-2)))
        CFI DPH0 load(1, XDATA, add(CFA_XSP16, literal(-1)))
        CFI CFA_SP SP+0
        CFI CFA_XSP16 add(XSP16, 28)
        CFI Block cfiCond185 Using cfiCommon0
        CFI (cfiCond185) NoFunction
        CFI (cfiCond185) Conditional ??CrossCallReturnLabel_88
        CFI (cfiCond185) R6 load(1, XDATA, add(CFA_XSP16, literal(-16)))
        CFI (cfiCond185) VB load(1, XDATA, add(CFA_XSP16, literal(-15)))
        CFI (cfiCond185) V0 load(1, XDATA, add(CFA_XSP16, literal(-14)))
        CFI (cfiCond185) V1 load(1, XDATA, add(CFA_XSP16, literal(-13)))
        CFI (cfiCond185) V2 load(1, XDATA, add(CFA_XSP16, literal(-12)))
        CFI (cfiCond185) V3 load(1, XDATA, add(CFA_XSP16, literal(-11)))
        CFI (cfiCond185) V4 load(1, XDATA, add(CFA_XSP16, literal(-10)))
        CFI (cfiCond185) V5 load(1, XDATA, add(CFA_XSP16, literal(-9)))
        CFI (cfiCond185) V6 load(1, XDATA, add(CFA_XSP16, literal(-8)))
        CFI (cfiCond185) V7 load(1, XDATA, add(CFA_XSP16, literal(-7)))
        CFI (cfiCond185) R7 load(1, XDATA, add(CFA_XSP16, literal(-6)))
        CFI (cfiCond185) ?RET_LOW load(1, XDATA, add(CFA_XSP16, literal(-5)))
        CFI (cfiCond185) ?RET_HIGH load(1, XDATA, add(CFA_XSP16, literal(-4)))
        CFI (cfiCond185) ?BRET_EXT load(1, XDATA, add(CFA_XSP16, literal(-3)))
        CFI (cfiCond185) DPL0 load(1, XDATA, add(CFA_XSP16, literal(-2)))
        CFI (cfiCond185) DPH0 load(1, XDATA, add(CFA_XSP16, literal(-1)))
        CFI (cfiCond185) CFA_SP SP+0
        CFI (cfiCond185) CFA_XSP16 add(XSP16, 37)
        CFI Block cfiCond186 Using cfiCommon0
        CFI (cfiCond186) NoFunction
        CFI (cfiCond186) Conditional ??CrossCallReturnLabel_90, ??CrossCallReturnLabel_48
        CFI (cfiCond186) R6 load(1, XDATA, add(CFA_XSP16, literal(-12)))
        CFI (cfiCond186) VB load(1, XDATA, add(CFA_XSP16, literal(-11)))
        CFI (cfiCond186) V0 load(1, XDATA, add(CFA_XSP16, literal(-10)))
        CFI (cfiCond186) V1 load(1, XDATA, add(CFA_XSP16, literal(-9)))
        CFI (cfiCond186) V2 load(1, XDATA, add(CFA_XSP16, literal(-8)))
        CFI (cfiCond186) V3 load(1, XDATA, add(CFA_XSP16, literal(-7)))
        CFI (cfiCond186) R7 load(1, XDATA, add(CFA_XSP16, literal(-6)))
        CFI (cfiCond186) ?RET_LOW load(1, XDATA, add(CFA_XSP16, literal(-5)))
        CFI (cfiCond186) ?RET_HIGH load(1, XDATA, add(CFA_XSP16, literal(-4)))
        CFI (cfiCond186) ?BRET_EXT load(1, XDATA, add(CFA_XSP16, literal(-3)))
        CFI (cfiCond186) DPL0 load(1, XDATA, add(CFA_XSP16, literal(-2)))
        CFI (cfiCond186) DPH0 load(1, XDATA, add(CFA_XSP16, literal(-1)))
        CFI (cfiCond186) CFA_SP SP+0
        CFI (cfiCond186) CFA_XSP16 add(XSP16, 12)
        CFI Block cfiCond187 Using cfiCommon0
        CFI (cfiCond187) NoFunction
        CFI (cfiCond187) Conditional ??CrossCallReturnLabel_90, ??CrossCallReturnLabel_49
        CFI (cfiCond187) R6 load(1, XDATA, add(CFA_XSP16, literal(-12)))
        CFI (cfiCond187) VB load(1, XDATA, add(CFA_XSP16, literal(-11)))
        CFI (cfiCond187) V0 load(1, XDATA, add(CFA_XSP16, literal(-10)))
        CFI (cfiCond187) V1 load(1, XDATA, add(CFA_XSP16, literal(-9)))
        CFI (cfiCond187) V2 load(1, XDATA, add(CFA_XSP16, literal(-8)))
        CFI (cfiCond187) V3 load(1, XDATA, add(CFA_XSP16, literal(-7)))
        CFI (cfiCond187) R7 load(1, XDATA, add(CFA_XSP16, literal(-6)))
        CFI (cfiCond187) ?RET_LOW load(1, XDATA, add(CFA_XSP16, literal(-5)))
        CFI (cfiCond187) ?RET_HIGH load(1, XDATA, add(CFA_XSP16, literal(-4)))
        CFI (cfiCond187) ?BRET_EXT load(1, XDATA, add(CFA_XSP16, literal(-3)))
        CFI (cfiCond187) DPL0 load(1, XDATA, add(CFA_XSP16, literal(-2)))
        CFI (cfiCond187) DPH0 load(1, XDATA, add(CFA_XSP16, literal(-1)))
        CFI (cfiCond187) CFA_SP SP+0
        CFI (cfiCond187) CFA_XSP16 add(XSP16, 12)
        CFI Block cfiCond188 Using cfiCommon0
        CFI (cfiCond188) NoFunction
        CFI (cfiCond188) Conditional ??CrossCallReturnLabel_89, ??CrossCallReturnLabel_46
        CFI (cfiCond188) R6 load(1, XDATA, add(CFA_XSP16, literal(-12)))
        CFI (cfiCond188) VB load(1, XDATA, add(CFA_XSP16, literal(-11)))
        CFI (cfiCond188) V0 load(1, XDATA, add(CFA_XSP16, literal(-10)))
        CFI (cfiCond188) V1 load(1, XDATA, add(CFA_XSP16, literal(-9)))
        CFI (cfiCond188) V2 load(1, XDATA, add(CFA_XSP16, literal(-8)))
        CFI (cfiCond188) V3 load(1, XDATA, add(CFA_XSP16, literal(-7)))
        CFI (cfiCond188) R7 load(1, XDATA, add(CFA_XSP16, literal(-6)))
        CFI (cfiCond188) ?RET_LOW load(1, XDATA, add(CFA_XSP16, literal(-5)))
        CFI (cfiCond188) ?RET_HIGH load(1, XDATA, add(CFA_XSP16, literal(-4)))
        CFI (cfiCond188) ?BRET_EXT load(1, XDATA, add(CFA_XSP16, literal(-3)))
        CFI (cfiCond188) DPL0 load(1, XDATA, add(CFA_XSP16, literal(-2)))
        CFI (cfiCond188) DPH0 load(1, XDATA, add(CFA_XSP16, literal(-1)))
        CFI (cfiCond188) CFA_SP SP+0
        CFI (cfiCond188) CFA_XSP16 add(XSP16, 12)
        CFI Block cfiCond189 Using cfiCommon0
        CFI (cfiCond189) NoFunction
        CFI (cfiCond189) Conditional ??CrossCallReturnLabel_89, ??CrossCallReturnLabel_47
        CFI (cfiCond189) R6 load(1, XDATA, add(CFA_XSP16, literal(-12)))
        CFI (cfiCond189) VB load(1, XDATA, add(CFA_XSP16, literal(-11)))
        CFI (cfiCond189) V0 load(1, XDATA, add(CFA_XSP16, literal(-10)))
        CFI (cfiCond189) V1 load(1, XDATA, add(CFA_XSP16, literal(-9)))
        CFI (cfiCond189) V2 load(1, XDATA, add(CFA_XSP16, literal(-8)))
        CFI (cfiCond189) V3 load(1, XDATA, add(CFA_XSP16, literal(-7)))
        CFI (cfiCond189) R7 load(1, XDATA, add(CFA_XSP16, literal(-6)))
        CFI (cfiCond189) ?RET_LOW load(1, XDATA, add(CFA_XSP16, literal(-5)))
        CFI (cfiCond189) ?RET_HIGH load(1, XDATA, add(CFA_XSP16, literal(-4)))
        CFI (cfiCond189) ?BRET_EXT load(1, XDATA, add(CFA_XSP16, literal(-3)))
        CFI (cfiCond189) DPL0 load(1, XDATA, add(CFA_XSP16, literal(-2)))
        CFI (cfiCond189) DPH0 load(1, XDATA, add(CFA_XSP16, literal(-1)))
        CFI (cfiCond189) CFA_SP SP+0
        CFI (cfiCond189) CFA_XSP16 add(XSP16, 12)
        CFI Block cfiPicker190 Using cfiCommon1
        CFI (cfiPicker190) NoFunction
        CFI (cfiPicker190) Picker
        MOVX    A,@DPTR
        MOV     ?V0 + 0,A
        INC     DPTR
        MOVX    A,@DPTR
        MOV     ?V0 + 1,A
        RET
        CFI EndBlock cfiCond184
        CFI EndBlock cfiCond185
        CFI EndBlock cfiCond186
        CFI EndBlock cfiCond187
        CFI EndBlock cfiCond188
        CFI EndBlock cfiCond189
        CFI EndBlock cfiPicker190

        RSEG BANKED_CODE:CODE:NOROOT(0)
?Subroutine30:
        CFI Block cfiCond191 Using cfiCommon0
        CFI NoFunction
        CFI Conditional ??CrossCallReturnLabel_46
        CFI R6 load(1, XDATA, add(CFA_XSP16, literal(-12)))
        CFI VB load(1, XDATA, add(CFA_XSP16, literal(-11)))
        CFI V0 load(1, XDATA, add(CFA_XSP16, literal(-10)))
        CFI V1 load(1, XDATA, add(CFA_XSP16, literal(-9)))
        CFI V2 load(1, XDATA, add(CFA_XSP16, literal(-8)))
        CFI V3 load(1, XDATA, add(CFA_XSP16, literal(-7)))
        CFI R7 load(1, XDATA, add(CFA_XSP16, literal(-6)))
        CFI ?RET_LOW load(1, XDATA, add(CFA_XSP16, literal(-5)))
        CFI ?RET_HIGH load(1, XDATA, add(CFA_XSP16, literal(-4)))
        CFI ?BRET_EXT load(1, XDATA, add(CFA_XSP16, literal(-3)))
        CFI DPL0 load(1, XDATA, add(CFA_XSP16, literal(-2)))
        CFI DPH0 load(1, XDATA, add(CFA_XSP16, literal(-1)))
        CFI CFA_SP SP+0
        CFI CFA_XSP16 add(XSP16, 12)
        CFI Block cfiCond192 Using cfiCommon0
        CFI (cfiCond192) NoFunction
        CFI (cfiCond192) Conditional ??CrossCallReturnLabel_47
        CFI (cfiCond192) R6 load(1, XDATA, add(CFA_XSP16, literal(-12)))
        CFI (cfiCond192) VB load(1, XDATA, add(CFA_XSP16, literal(-11)))
        CFI (cfiCond192) V0 load(1, XDATA, add(CFA_XSP16, literal(-10)))
        CFI (cfiCond192) V1 load(1, XDATA, add(CFA_XSP16, literal(-9)))
        CFI (cfiCond192) V2 load(1, XDATA, add(CFA_XSP16, literal(-8)))
        CFI (cfiCond192) V3 load(1, XDATA, add(CFA_XSP16, literal(-7)))
        CFI (cfiCond192) R7 load(1, XDATA, add(CFA_XSP16, literal(-6)))
        CFI (cfiCond192) ?RET_LOW load(1, XDATA, add(CFA_XSP16, literal(-5)))
        CFI (cfiCond192) ?RET_HIGH load(1, XDATA, add(CFA_XSP16, literal(-4)))
        CFI (cfiCond192) ?BRET_EXT load(1, XDATA, add(CFA_XSP16, literal(-3)))
        CFI (cfiCond192) DPL0 load(1, XDATA, add(CFA_XSP16, literal(-2)))
        CFI (cfiCond192) DPH0 load(1, XDATA, add(CFA_XSP16, literal(-1)))
        CFI (cfiCond192) CFA_SP SP+0
        CFI (cfiCond192) CFA_XSP16 add(XSP16, 12)
        CFI Block cfiPicker193 Using cfiCommon1
        CFI (cfiPicker193) NoFunction
        CFI (cfiPicker193) Picker
        LCALL   ?Subroutine56 & 0xFFFF
??CrossCallReturnLabel_89:
        MOV     A,#0xb
        MOV     R0,#?V0 + 0
        RET
        CFI EndBlock cfiCond191
        CFI EndBlock cfiCond192
        CFI EndBlock cfiPicker193

        RSEG BANKED_CODE:CODE:NOROOT(0)
?Subroutine29:
        CFI Block cfiCond194 Using cfiCommon0
        CFI NoFunction
        CFI Conditional ??CrossCallReturnLabel_43
        CFI R6 load(1, XDATA, add(CFA_XSP16, literal(-20)))
        CFI VB load(1, XDATA, add(CFA_XSP16, literal(-19)))
        CFI V0 load(1, XDATA, add(CFA_XSP16, literal(-18)))
        CFI V1 load(1, XDATA, add(CFA_XSP16, literal(-17)))
        CFI V2 load(1, XDATA, add(CFA_XSP16, literal(-16)))
        CFI V3 load(1, XDATA, add(CFA_XSP16, literal(-15)))
        CFI V4 load(1, XDATA, add(CFA_XSP16, literal(-14)))
        CFI V5 load(1, XDATA, add(CFA_XSP16, literal(-13)))
        CFI V6 load(1, XDATA, add(CFA_XSP16, literal(-12)))
        CFI V7 load(1, XDATA, add(CFA_XSP16, literal(-11)))
        CFI V8 load(1, XDATA, add(CFA_XSP16, literal(-10)))
        CFI V9 load(1, XDATA, add(CFA_XSP16, literal(-9)))
        CFI V10 load(1, XDATA, add(CFA_XSP16, literal(-8)))
        CFI V11 load(1, XDATA, add(CFA_XSP16, literal(-7)))
        CFI R7 load(1, XDATA, add(CFA_XSP16, literal(-6)))
        CFI ?RET_LOW load(1, XDATA, add(CFA_XSP16, literal(-5)))
        CFI ?RET_HIGH load(1, XDATA, add(CFA_XSP16, literal(-4)))
        CFI ?BRET_EXT load(1, XDATA, add(CFA_XSP16, literal(-3)))
        CFI DPL0 load(1, XDATA, add(CFA_XSP16, literal(-2)))
        CFI DPH0 load(1, XDATA, add(CFA_XSP16, literal(-1)))
        CFI CFA_SP SP+0
        CFI CFA_XSP16 add(XSP16, 21)
        CFI Block cfiCond195 Using cfiCommon0
        CFI (cfiCond195) NoFunction
        CFI (cfiCond195) Conditional ??CrossCallReturnLabel_44
        CFI (cfiCond195) R6 load(1, XDATA, add(CFA_XSP16, literal(-12)))
        CFI (cfiCond195) VB load(1, XDATA, add(CFA_XSP16, literal(-11)))
        CFI (cfiCond195) V0 load(1, XDATA, add(CFA_XSP16, literal(-10)))
        CFI (cfiCond195) V1 load(1, XDATA, add(CFA_XSP16, literal(-9)))
        CFI (cfiCond195) V2 load(1, XDATA, add(CFA_XSP16, literal(-8)))
        CFI (cfiCond195) V3 load(1, XDATA, add(CFA_XSP16, literal(-7)))
        CFI (cfiCond195) R7 load(1, XDATA, add(CFA_XSP16, literal(-6)))
        CFI (cfiCond195) ?RET_LOW load(1, XDATA, add(CFA_XSP16, literal(-5)))
        CFI (cfiCond195) ?RET_HIGH load(1, XDATA, add(CFA_XSP16, literal(-4)))
        CFI (cfiCond195) ?BRET_EXT load(1, XDATA, add(CFA_XSP16, literal(-3)))
        CFI (cfiCond195) DPL0 load(1, XDATA, add(CFA_XSP16, literal(-2)))
        CFI (cfiCond195) DPH0 load(1, XDATA, add(CFA_XSP16, literal(-1)))
        CFI (cfiCond195) CFA_SP SP+0
        CFI (cfiCond195) CFA_XSP16 add(XSP16, 12)
        CFI Block cfiCond196 Using cfiCommon0
        CFI (cfiCond196) NoFunction
        CFI (cfiCond196) Conditional ??CrossCallReturnLabel_45
        CFI (cfiCond196) R6 load(1, XDATA, add(CFA_XSP16, literal(-24)))
        CFI (cfiCond196) VB load(1, XDATA, add(CFA_XSP16, literal(-23)))
        CFI (cfiCond196) V0 load(1, XDATA, add(CFA_XSP16, literal(-22)))
        CFI (cfiCond196) V1 load(1, XDATA, add(CFA_XSP16, literal(-21)))
        CFI (cfiCond196) V2 load(1, XDATA, add(CFA_XSP16, literal(-20)))
        CFI (cfiCond196) V3 load(1, XDATA, add(CFA_XSP16, literal(-19)))
        CFI (cfiCond196) V4 load(1, XDATA, add(CFA_XSP16, literal(-18)))
        CFI (cfiCond196) V5 load(1, XDATA, add(CFA_XSP16, literal(-17)))
        CFI (cfiCond196) V6 load(1, XDATA, add(CFA_XSP16, literal(-16)))
        CFI (cfiCond196) V7 load(1, XDATA, add(CFA_XSP16, literal(-15)))
        CFI (cfiCond196) V8 load(1, XDATA, add(CFA_XSP16, literal(-14)))
        CFI (cfiCond196) V9 load(1, XDATA, add(CFA_XSP16, literal(-13)))
        CFI (cfiCond196) V10 load(1, XDATA, add(CFA_XSP16, literal(-12)))
        CFI (cfiCond196) V11 load(1, XDATA, add(CFA_XSP16, literal(-11)))
        CFI (cfiCond196) V12 load(1, XDATA, add(CFA_XSP16, literal(-10)))
        CFI (cfiCond196) V13 load(1, XDATA, add(CFA_XSP16, literal(-9)))
        CFI (cfiCond196) V14 load(1, XDATA, add(CFA_XSP16, literal(-8)))
        CFI (cfiCond196) V15 load(1, XDATA, add(CFA_XSP16, literal(-7)))
        CFI (cfiCond196) R7 load(1, XDATA, add(CFA_XSP16, literal(-6)))
        CFI (cfiCond196) ?RET_LOW load(1, XDATA, add(CFA_XSP16, literal(-5)))
        CFI (cfiCond196) ?RET_HIGH load(1, XDATA, add(CFA_XSP16, literal(-4)))
        CFI (cfiCond196) ?BRET_EXT load(1, XDATA, add(CFA_XSP16, literal(-3)))
        CFI (cfiCond196) DPL0 load(1, XDATA, add(CFA_XSP16, literal(-2)))
        CFI (cfiCond196) DPH0 load(1, XDATA, add(CFA_XSP16, literal(-1)))
        CFI (cfiCond196) CFA_SP SP+0
        CFI (cfiCond196) CFA_XSP16 add(XSP16, 92)
        CFI Block cfiPicker197 Using cfiCommon1
        CFI (cfiPicker197) NoFunction
        CFI (cfiPicker197) Picker
        LCALL   ??Subroutine72_0 & 0xFFFF
??CrossCallReturnLabel_179:
        LCALL   ??gizProtocolExchangeBytes?relay
        RET
        CFI EndBlock cfiCond194
        CFI EndBlock cfiCond195
        CFI EndBlock cfiCond196
        CFI EndBlock cfiPicker197

        RSEG BANKED_CODE:CODE:NOROOT(0)
?Subroutine28:
        CFI Block cfiCond198 Using cfiCommon0
        CFI NoFunction
        CFI Conditional ??CrossCallReturnLabel_40
        CFI R6 load(1, XDATA, add(CFA_XSP16, literal(-12)))
        CFI VB load(1, XDATA, add(CFA_XSP16, literal(-11)))
        CFI V0 load(1, XDATA, add(CFA_XSP16, literal(-10)))
        CFI V1 load(1, XDATA, add(CFA_XSP16, literal(-9)))
        CFI V2 load(1, XDATA, add(CFA_XSP16, literal(-8)))
        CFI V3 load(1, XDATA, add(CFA_XSP16, literal(-7)))
        CFI R7 load(1, XDATA, add(CFA_XSP16, literal(-6)))
        CFI ?RET_LOW load(1, XDATA, add(CFA_XSP16, literal(-5)))
        CFI ?RET_HIGH load(1, XDATA, add(CFA_XSP16, literal(-4)))
        CFI ?BRET_EXT load(1, XDATA, add(CFA_XSP16, literal(-3)))
        CFI DPL0 load(1, XDATA, add(CFA_XSP16, literal(-2)))
        CFI DPH0 load(1, XDATA, add(CFA_XSP16, literal(-1)))
        CFI CFA_SP SP+0
        CFI CFA_XSP16 add(XSP16, 12)
        CFI Block cfiCond199 Using cfiCommon0
        CFI (cfiCond199) NoFunction
        CFI (cfiCond199) Conditional ??CrossCallReturnLabel_41
        CFI (cfiCond199) R6 load(1, XDATA, add(CFA_XSP16, literal(-12)))
        CFI (cfiCond199) VB load(1, XDATA, add(CFA_XSP16, literal(-11)))
        CFI (cfiCond199) V0 load(1, XDATA, add(CFA_XSP16, literal(-10)))
        CFI (cfiCond199) V1 load(1, XDATA, add(CFA_XSP16, literal(-9)))
        CFI (cfiCond199) V2 load(1, XDATA, add(CFA_XSP16, literal(-8)))
        CFI (cfiCond199) V3 load(1, XDATA, add(CFA_XSP16, literal(-7)))
        CFI (cfiCond199) R7 load(1, XDATA, add(CFA_XSP16, literal(-6)))
        CFI (cfiCond199) ?RET_LOW load(1, XDATA, add(CFA_XSP16, literal(-5)))
        CFI (cfiCond199) ?RET_HIGH load(1, XDATA, add(CFA_XSP16, literal(-4)))
        CFI (cfiCond199) ?BRET_EXT load(1, XDATA, add(CFA_XSP16, literal(-3)))
        CFI (cfiCond199) DPL0 load(1, XDATA, add(CFA_XSP16, literal(-2)))
        CFI (cfiCond199) DPH0 load(1, XDATA, add(CFA_XSP16, literal(-1)))
        CFI (cfiCond199) CFA_SP SP+0
        CFI (cfiCond199) CFA_XSP16 add(XSP16, 12)
        CFI Block cfiCond200 Using cfiCommon0
        CFI (cfiCond200) NoFunction
        CFI (cfiCond200) Conditional ??CrossCallReturnLabel_42
        CFI (cfiCond200) R6 load(1, XDATA, add(CFA_XSP16, literal(-12)))
        CFI (cfiCond200) VB load(1, XDATA, add(CFA_XSP16, literal(-11)))
        CFI (cfiCond200) V0 load(1, XDATA, add(CFA_XSP16, literal(-10)))
        CFI (cfiCond200) V1 load(1, XDATA, add(CFA_XSP16, literal(-9)))
        CFI (cfiCond200) V2 load(1, XDATA, add(CFA_XSP16, literal(-8)))
        CFI (cfiCond200) V3 load(1, XDATA, add(CFA_XSP16, literal(-7)))
        CFI (cfiCond200) R7 load(1, XDATA, add(CFA_XSP16, literal(-6)))
        CFI (cfiCond200) ?RET_LOW load(1, XDATA, add(CFA_XSP16, literal(-5)))
        CFI (cfiCond200) ?RET_HIGH load(1, XDATA, add(CFA_XSP16, literal(-4)))
        CFI (cfiCond200) ?BRET_EXT load(1, XDATA, add(CFA_XSP16, literal(-3)))
        CFI (cfiCond200) DPL0 load(1, XDATA, add(CFA_XSP16, literal(-2)))
        CFI (cfiCond200) DPH0 load(1, XDATA, add(CFA_XSP16, literal(-1)))
        CFI (cfiCond200) CFA_SP SP+0
        CFI (cfiCond200) CFA_XSP16 add(XSP16, 12)
        CFI Block cfiPicker201 Using cfiCommon1
        CFI (cfiPicker201) NoFunction
        CFI (cfiPicker201) Picker
        MOV     R2,A
        INC     DPTR
        MOVX    A,@DPTR
        MOV     R3,A
        MOV     DPL,?V0 + 0
        MOV     DPH,?V0 + 1
        MOVX    A,@DPTR
        RET
        CFI EndBlock cfiCond198
        CFI EndBlock cfiCond199
        CFI EndBlock cfiCond200
        CFI EndBlock cfiPicker201

        RSEG BANKED_CODE:CODE:NOROOT(0)
?Subroutine22:
        CFI Block cfiCond202 Using cfiCommon0
        CFI NoFunction
        CFI Conditional ??CrossCallReturnLabel_159
        CFI R6 load(1, XDATA, add(CFA_XSP16, literal(-12)))
        CFI VB load(1, XDATA, add(CFA_XSP16, literal(-11)))
        CFI V0 load(1, XDATA, add(CFA_XSP16, literal(-10)))
        CFI V1 load(1, XDATA, add(CFA_XSP16, literal(-9)))
        CFI V2 load(1, XDATA, add(CFA_XSP16, literal(-8)))
        CFI V3 load(1, XDATA, add(CFA_XSP16, literal(-7)))
        CFI R7 load(1, XDATA, add(CFA_XSP16, literal(-6)))
        CFI ?RET_LOW load(1, XDATA, add(CFA_XSP16, literal(-5)))
        CFI ?RET_HIGH load(1, XDATA, add(CFA_XSP16, literal(-4)))
        CFI ?BRET_EXT load(1, XDATA, add(CFA_XSP16, literal(-3)))
        CFI DPL0 load(1, XDATA, add(CFA_XSP16, literal(-2)))
        CFI DPH0 load(1, XDATA, add(CFA_XSP16, literal(-1)))
        CFI CFA_SP SP+0
        CFI CFA_XSP16 add(XSP16, 12)
        CFI Block cfiCond203 Using cfiCommon0
        CFI (cfiCond203) NoFunction
        CFI (cfiCond203) Conditional ??CrossCallReturnLabel_160
        CFI (cfiCond203) R6 load(1, XDATA, add(CFA_XSP16, literal(-12)))
        CFI (cfiCond203) VB load(1, XDATA, add(CFA_XSP16, literal(-11)))
        CFI (cfiCond203) V0 load(1, XDATA, add(CFA_XSP16, literal(-10)))
        CFI (cfiCond203) V1 load(1, XDATA, add(CFA_XSP16, literal(-9)))
        CFI (cfiCond203) V2 load(1, XDATA, add(CFA_XSP16, literal(-8)))
        CFI (cfiCond203) V3 load(1, XDATA, add(CFA_XSP16, literal(-7)))
        CFI (cfiCond203) R7 load(1, XDATA, add(CFA_XSP16, literal(-6)))
        CFI (cfiCond203) ?RET_LOW load(1, XDATA, add(CFA_XSP16, literal(-5)))
        CFI (cfiCond203) ?RET_HIGH load(1, XDATA, add(CFA_XSP16, literal(-4)))
        CFI (cfiCond203) ?BRET_EXT load(1, XDATA, add(CFA_XSP16, literal(-3)))
        CFI (cfiCond203) DPL0 load(1, XDATA, add(CFA_XSP16, literal(-2)))
        CFI (cfiCond203) DPH0 load(1, XDATA, add(CFA_XSP16, literal(-1)))
        CFI (cfiCond203) CFA_SP SP+0
        CFI (cfiCond203) CFA_XSP16 add(XSP16, 12)
        CFI Block cfiCond204 Using cfiCommon0
        CFI (cfiCond204) NoFunction
        CFI (cfiCond204) Conditional ??CrossCallReturnLabel_161
        CFI (cfiCond204) R6 load(1, XDATA, add(CFA_XSP16, literal(-12)))
        CFI (cfiCond204) VB load(1, XDATA, add(CFA_XSP16, literal(-11)))
        CFI (cfiCond204) V0 load(1, XDATA, add(CFA_XSP16, literal(-10)))
        CFI (cfiCond204) V1 load(1, XDATA, add(CFA_XSP16, literal(-9)))
        CFI (cfiCond204) V2 load(1, XDATA, add(CFA_XSP16, literal(-8)))
        CFI (cfiCond204) V3 load(1, XDATA, add(CFA_XSP16, literal(-7)))
        CFI (cfiCond204) R7 load(1, XDATA, add(CFA_XSP16, literal(-6)))
        CFI (cfiCond204) ?RET_LOW load(1, XDATA, add(CFA_XSP16, literal(-5)))
        CFI (cfiCond204) ?RET_HIGH load(1, XDATA, add(CFA_XSP16, literal(-4)))
        CFI (cfiCond204) ?BRET_EXT load(1, XDATA, add(CFA_XSP16, literal(-3)))
        CFI (cfiCond204) DPL0 load(1, XDATA, add(CFA_XSP16, literal(-2)))
        CFI (cfiCond204) DPH0 load(1, XDATA, add(CFA_XSP16, literal(-1)))
        CFI (cfiCond204) CFA_SP SP+0
        CFI (cfiCond204) CFA_XSP16 add(XSP16, 12)
        CFI Block cfiPicker205 Using cfiCommon1
        CFI (cfiPicker205) NoFunction
        CFI (cfiPicker205) Picker
        MOV     DPTR,#gizwitsProtocol + 132
        CFI EndBlock cfiCond202
        CFI EndBlock cfiCond203
        CFI EndBlock cfiCond204
        CFI EndBlock cfiPicker205
        REQUIRE ??Subroutine67_0
        ; // Fall through to label ??Subroutine67_0

        RSEG BANKED_CODE:CODE:NOROOT(0)
??Subroutine67_0:
        CFI Block cfiCond206 Using cfiCommon0
        CFI NoFunction
        CFI Conditional ??CrossCallReturnLabel_149
        CFI R6 load(1, XDATA, add(CFA_XSP16, literal(-12)))
        CFI VB load(1, XDATA, add(CFA_XSP16, literal(-11)))
        CFI V0 load(1, XDATA, add(CFA_XSP16, literal(-10)))
        CFI V1 load(1, XDATA, add(CFA_XSP16, literal(-9)))
        CFI V2 load(1, XDATA, add(CFA_XSP16, literal(-8)))
        CFI V3 load(1, XDATA, add(CFA_XSP16, literal(-7)))
        CFI R7 load(1, XDATA, add(CFA_XSP16, literal(-6)))
        CFI ?RET_LOW load(1, XDATA, add(CFA_XSP16, literal(-5)))
        CFI ?RET_HIGH load(1, XDATA, add(CFA_XSP16, literal(-4)))
        CFI ?BRET_EXT load(1, XDATA, add(CFA_XSP16, literal(-3)))
        CFI DPL0 load(1, XDATA, add(CFA_XSP16, literal(-2)))
        CFI DPH0 load(1, XDATA, add(CFA_XSP16, literal(-1)))
        CFI CFA_SP SP+0
        CFI CFA_XSP16 add(XSP16, 12)
        CFI Block cfiCond207 Using cfiCommon0
        CFI (cfiCond207) NoFunction
        CFI (cfiCond207) Conditional ??CrossCallReturnLabel_150
        CFI (cfiCond207) R6 load(1, XDATA, add(CFA_XSP16, literal(-12)))
        CFI (cfiCond207) VB load(1, XDATA, add(CFA_XSP16, literal(-11)))
        CFI (cfiCond207) V0 load(1, XDATA, add(CFA_XSP16, literal(-10)))
        CFI (cfiCond207) V1 load(1, XDATA, add(CFA_XSP16, literal(-9)))
        CFI (cfiCond207) V2 load(1, XDATA, add(CFA_XSP16, literal(-8)))
        CFI (cfiCond207) V3 load(1, XDATA, add(CFA_XSP16, literal(-7)))
        CFI (cfiCond207) R7 load(1, XDATA, add(CFA_XSP16, literal(-6)))
        CFI (cfiCond207) ?RET_LOW load(1, XDATA, add(CFA_XSP16, literal(-5)))
        CFI (cfiCond207) ?RET_HIGH load(1, XDATA, add(CFA_XSP16, literal(-4)))
        CFI (cfiCond207) ?BRET_EXT load(1, XDATA, add(CFA_XSP16, literal(-3)))
        CFI (cfiCond207) DPL0 load(1, XDATA, add(CFA_XSP16, literal(-2)))
        CFI (cfiCond207) DPH0 load(1, XDATA, add(CFA_XSP16, literal(-1)))
        CFI (cfiCond207) CFA_SP SP+0
        CFI (cfiCond207) CFA_XSP16 add(XSP16, 12)
        CFI Block cfiCond208 Using cfiCommon0
        CFI (cfiCond208) NoFunction
        CFI (cfiCond208) Conditional ??CrossCallReturnLabel_151
        CFI (cfiCond208) R6 load(1, XDATA, add(CFA_XSP16, literal(-12)))
        CFI (cfiCond208) VB load(1, XDATA, add(CFA_XSP16, literal(-11)))
        CFI (cfiCond208) V0 load(1, XDATA, add(CFA_XSP16, literal(-10)))
        CFI (cfiCond208) V1 load(1, XDATA, add(CFA_XSP16, literal(-9)))
        CFI (cfiCond208) V2 load(1, XDATA, add(CFA_XSP16, literal(-8)))
        CFI (cfiCond208) V3 load(1, XDATA, add(CFA_XSP16, literal(-7)))
        CFI (cfiCond208) R7 load(1, XDATA, add(CFA_XSP16, literal(-6)))
        CFI (cfiCond208) ?RET_LOW load(1, XDATA, add(CFA_XSP16, literal(-5)))
        CFI (cfiCond208) ?RET_HIGH load(1, XDATA, add(CFA_XSP16, literal(-4)))
        CFI (cfiCond208) ?BRET_EXT load(1, XDATA, add(CFA_XSP16, literal(-3)))
        CFI (cfiCond208) DPL0 load(1, XDATA, add(CFA_XSP16, literal(-2)))
        CFI (cfiCond208) DPH0 load(1, XDATA, add(CFA_XSP16, literal(-1)))
        CFI (cfiCond208) CFA_SP SP+0
        CFI (cfiCond208) CFA_XSP16 add(XSP16, 12)
        CFI Block cfiCond209 Using cfiCommon0
        CFI (cfiCond209) NoFunction
        CFI (cfiCond209) Conditional ??CrossCallReturnLabel_152
        CFI (cfiCond209) R6 load(1, XDATA, add(CFA_XSP16, literal(-12)))
        CFI (cfiCond209) VB load(1, XDATA, add(CFA_XSP16, literal(-11)))
        CFI (cfiCond209) V0 load(1, XDATA, add(CFA_XSP16, literal(-10)))
        CFI (cfiCond209) V1 load(1, XDATA, add(CFA_XSP16, literal(-9)))
        CFI (cfiCond209) V2 load(1, XDATA, add(CFA_XSP16, literal(-8)))
        CFI (cfiCond209) V3 load(1, XDATA, add(CFA_XSP16, literal(-7)))
        CFI (cfiCond209) R7 load(1, XDATA, add(CFA_XSP16, literal(-6)))
        CFI (cfiCond209) ?RET_LOW load(1, XDATA, add(CFA_XSP16, literal(-5)))
        CFI (cfiCond209) ?RET_HIGH load(1, XDATA, add(CFA_XSP16, literal(-4)))
        CFI (cfiCond209) ?BRET_EXT load(1, XDATA, add(CFA_XSP16, literal(-3)))
        CFI (cfiCond209) DPL0 load(1, XDATA, add(CFA_XSP16, literal(-2)))
        CFI (cfiCond209) DPH0 load(1, XDATA, add(CFA_XSP16, literal(-1)))
        CFI (cfiCond209) CFA_SP SP+0
        CFI (cfiCond209) CFA_XSP16 add(XSP16, 12)
        CFI Block cfiCond210 Using cfiCommon0
        CFI (cfiCond210) NoFunction
        CFI (cfiCond210) Conditional ??CrossCallReturnLabel_153
        CFI (cfiCond210) R6 load(1, XDATA, add(CFA_XSP16, literal(-12)))
        CFI (cfiCond210) VB load(1, XDATA, add(CFA_XSP16, literal(-11)))
        CFI (cfiCond210) V0 load(1, XDATA, add(CFA_XSP16, literal(-10)))
        CFI (cfiCond210) V1 load(1, XDATA, add(CFA_XSP16, literal(-9)))
        CFI (cfiCond210) V2 load(1, XDATA, add(CFA_XSP16, literal(-8)))
        CFI (cfiCond210) V3 load(1, XDATA, add(CFA_XSP16, literal(-7)))
        CFI (cfiCond210) R7 load(1, XDATA, add(CFA_XSP16, literal(-6)))
        CFI (cfiCond210) ?RET_LOW load(1, XDATA, add(CFA_XSP16, literal(-5)))
        CFI (cfiCond210) ?RET_HIGH load(1, XDATA, add(CFA_XSP16, literal(-4)))
        CFI (cfiCond210) ?BRET_EXT load(1, XDATA, add(CFA_XSP16, literal(-3)))
        CFI (cfiCond210) DPL0 load(1, XDATA, add(CFA_XSP16, literal(-2)))
        CFI (cfiCond210) DPH0 load(1, XDATA, add(CFA_XSP16, literal(-1)))
        CFI (cfiCond210) CFA_SP SP+0
        CFI (cfiCond210) CFA_XSP16 add(XSP16, 12)
        CFI Block cfiCond211 Using cfiCommon0
        CFI (cfiCond211) NoFunction
        CFI (cfiCond211) Conditional ??CrossCallReturnLabel_154
        CFI (cfiCond211) R6 load(1, XDATA, add(CFA_XSP16, literal(-12)))
        CFI (cfiCond211) VB load(1, XDATA, add(CFA_XSP16, literal(-11)))
        CFI (cfiCond211) V0 load(1, XDATA, add(CFA_XSP16, literal(-10)))
        CFI (cfiCond211) V1 load(1, XDATA, add(CFA_XSP16, literal(-9)))
        CFI (cfiCond211) V2 load(1, XDATA, add(CFA_XSP16, literal(-8)))
        CFI (cfiCond211) V3 load(1, XDATA, add(CFA_XSP16, literal(-7)))
        CFI (cfiCond211) R7 load(1, XDATA, add(CFA_XSP16, literal(-6)))
        CFI (cfiCond211) ?RET_LOW load(1, XDATA, add(CFA_XSP16, literal(-5)))
        CFI (cfiCond211) ?RET_HIGH load(1, XDATA, add(CFA_XSP16, literal(-4)))
        CFI (cfiCond211) ?BRET_EXT load(1, XDATA, add(CFA_XSP16, literal(-3)))
        CFI (cfiCond211) DPL0 load(1, XDATA, add(CFA_XSP16, literal(-2)))
        CFI (cfiCond211) DPH0 load(1, XDATA, add(CFA_XSP16, literal(-1)))
        CFI (cfiCond211) CFA_SP SP+0
        CFI (cfiCond211) CFA_XSP16 add(XSP16, 12)
        CFI Block cfiCond212 Using cfiCommon0
        CFI (cfiCond212) NoFunction
        CFI (cfiCond212) Conditional ??CrossCallReturnLabel_155
        CFI (cfiCond212) R6 load(1, XDATA, add(CFA_XSP16, literal(-12)))
        CFI (cfiCond212) VB load(1, XDATA, add(CFA_XSP16, literal(-11)))
        CFI (cfiCond212) V0 load(1, XDATA, add(CFA_XSP16, literal(-10)))
        CFI (cfiCond212) V1 load(1, XDATA, add(CFA_XSP16, literal(-9)))
        CFI (cfiCond212) V2 load(1, XDATA, add(CFA_XSP16, literal(-8)))
        CFI (cfiCond212) V3 load(1, XDATA, add(CFA_XSP16, literal(-7)))
        CFI (cfiCond212) R7 load(1, XDATA, add(CFA_XSP16, literal(-6)))
        CFI (cfiCond212) ?RET_LOW load(1, XDATA, add(CFA_XSP16, literal(-5)))
        CFI (cfiCond212) ?RET_HIGH load(1, XDATA, add(CFA_XSP16, literal(-4)))
        CFI (cfiCond212) ?BRET_EXT load(1, XDATA, add(CFA_XSP16, literal(-3)))
        CFI (cfiCond212) DPL0 load(1, XDATA, add(CFA_XSP16, literal(-2)))
        CFI (cfiCond212) DPH0 load(1, XDATA, add(CFA_XSP16, literal(-1)))
        CFI (cfiCond212) CFA_SP SP+0
        CFI (cfiCond212) CFA_XSP16 add(XSP16, 12)
        CFI Block cfiCond213 Using cfiCommon0
        CFI (cfiCond213) NoFunction
        CFI (cfiCond213) Conditional ??CrossCallReturnLabel_156
        CFI (cfiCond213) R6 load(1, XDATA, add(CFA_XSP16, literal(-12)))
        CFI (cfiCond213) VB load(1, XDATA, add(CFA_XSP16, literal(-11)))
        CFI (cfiCond213) V0 load(1, XDATA, add(CFA_XSP16, literal(-10)))
        CFI (cfiCond213) V1 load(1, XDATA, add(CFA_XSP16, literal(-9)))
        CFI (cfiCond213) V2 load(1, XDATA, add(CFA_XSP16, literal(-8)))
        CFI (cfiCond213) V3 load(1, XDATA, add(CFA_XSP16, literal(-7)))
        CFI (cfiCond213) R7 load(1, XDATA, add(CFA_XSP16, literal(-6)))
        CFI (cfiCond213) ?RET_LOW load(1, XDATA, add(CFA_XSP16, literal(-5)))
        CFI (cfiCond213) ?RET_HIGH load(1, XDATA, add(CFA_XSP16, literal(-4)))
        CFI (cfiCond213) ?BRET_EXT load(1, XDATA, add(CFA_XSP16, literal(-3)))
        CFI (cfiCond213) DPL0 load(1, XDATA, add(CFA_XSP16, literal(-2)))
        CFI (cfiCond213) DPH0 load(1, XDATA, add(CFA_XSP16, literal(-1)))
        CFI (cfiCond213) CFA_SP SP+0
        CFI (cfiCond213) CFA_XSP16 add(XSP16, 12)
        CFI Block cfiCond214 Using cfiCommon0
        CFI (cfiCond214) NoFunction
        CFI (cfiCond214) Conditional ??CrossCallReturnLabel_157
        CFI (cfiCond214) R6 load(1, XDATA, add(CFA_XSP16, literal(-12)))
        CFI (cfiCond214) VB load(1, XDATA, add(CFA_XSP16, literal(-11)))
        CFI (cfiCond214) V0 load(1, XDATA, add(CFA_XSP16, literal(-10)))
        CFI (cfiCond214) V1 load(1, XDATA, add(CFA_XSP16, literal(-9)))
        CFI (cfiCond214) V2 load(1, XDATA, add(CFA_XSP16, literal(-8)))
        CFI (cfiCond214) V3 load(1, XDATA, add(CFA_XSP16, literal(-7)))
        CFI (cfiCond214) R7 load(1, XDATA, add(CFA_XSP16, literal(-6)))
        CFI (cfiCond214) ?RET_LOW load(1, XDATA, add(CFA_XSP16, literal(-5)))
        CFI (cfiCond214) ?RET_HIGH load(1, XDATA, add(CFA_XSP16, literal(-4)))
        CFI (cfiCond214) ?BRET_EXT load(1, XDATA, add(CFA_XSP16, literal(-3)))
        CFI (cfiCond214) DPL0 load(1, XDATA, add(CFA_XSP16, literal(-2)))
        CFI (cfiCond214) DPH0 load(1, XDATA, add(CFA_XSP16, literal(-1)))
        CFI (cfiCond214) CFA_SP SP+0
        CFI (cfiCond214) CFA_XSP16 add(XSP16, 12)
        CFI Block cfiCond215 Using cfiCommon0
        CFI (cfiCond215) NoFunction
        CFI (cfiCond215) Conditional ??CrossCallReturnLabel_158
        CFI (cfiCond215) R6 load(1, XDATA, add(CFA_XSP16, literal(-12)))
        CFI (cfiCond215) VB load(1, XDATA, add(CFA_XSP16, literal(-11)))
        CFI (cfiCond215) V0 load(1, XDATA, add(CFA_XSP16, literal(-10)))
        CFI (cfiCond215) V1 load(1, XDATA, add(CFA_XSP16, literal(-9)))
        CFI (cfiCond215) V2 load(1, XDATA, add(CFA_XSP16, literal(-8)))
        CFI (cfiCond215) V3 load(1, XDATA, add(CFA_XSP16, literal(-7)))
        CFI (cfiCond215) R7 load(1, XDATA, add(CFA_XSP16, literal(-6)))
        CFI (cfiCond215) ?RET_LOW load(1, XDATA, add(CFA_XSP16, literal(-5)))
        CFI (cfiCond215) ?RET_HIGH load(1, XDATA, add(CFA_XSP16, literal(-4)))
        CFI (cfiCond215) ?BRET_EXT load(1, XDATA, add(CFA_XSP16, literal(-3)))
        CFI (cfiCond215) DPL0 load(1, XDATA, add(CFA_XSP16, literal(-2)))
        CFI (cfiCond215) DPH0 load(1, XDATA, add(CFA_XSP16, literal(-1)))
        CFI (cfiCond215) CFA_SP SP+0
        CFI (cfiCond215) CFA_XSP16 add(XSP16, 12)
        CFI Block cfiCond216 Using cfiCommon0
        CFI (cfiCond216) NoFunction
        CFI (cfiCond216) Conditional ??CrossCallReturnLabel_159
        CFI (cfiCond216) R6 load(1, XDATA, add(CFA_XSP16, literal(-12)))
        CFI (cfiCond216) VB load(1, XDATA, add(CFA_XSP16, literal(-11)))
        CFI (cfiCond216) V0 load(1, XDATA, add(CFA_XSP16, literal(-10)))
        CFI (cfiCond216) V1 load(1, XDATA, add(CFA_XSP16, literal(-9)))
        CFI (cfiCond216) V2 load(1, XDATA, add(CFA_XSP16, literal(-8)))
        CFI (cfiCond216) V3 load(1, XDATA, add(CFA_XSP16, literal(-7)))
        CFI (cfiCond216) R7 load(1, XDATA, add(CFA_XSP16, literal(-6)))
        CFI (cfiCond216) ?RET_LOW load(1, XDATA, add(CFA_XSP16, literal(-5)))
        CFI (cfiCond216) ?RET_HIGH load(1, XDATA, add(CFA_XSP16, literal(-4)))
        CFI (cfiCond216) ?BRET_EXT load(1, XDATA, add(CFA_XSP16, literal(-3)))
        CFI (cfiCond216) DPL0 load(1, XDATA, add(CFA_XSP16, literal(-2)))
        CFI (cfiCond216) DPH0 load(1, XDATA, add(CFA_XSP16, literal(-1)))
        CFI (cfiCond216) CFA_SP SP+0
        CFI (cfiCond216) CFA_XSP16 add(XSP16, 12)
        CFI Block cfiCond217 Using cfiCommon0
        CFI (cfiCond217) NoFunction
        CFI (cfiCond217) Conditional ??CrossCallReturnLabel_160
        CFI (cfiCond217) R6 load(1, XDATA, add(CFA_XSP16, literal(-12)))
        CFI (cfiCond217) VB load(1, XDATA, add(CFA_XSP16, literal(-11)))
        CFI (cfiCond217) V0 load(1, XDATA, add(CFA_XSP16, literal(-10)))
        CFI (cfiCond217) V1 load(1, XDATA, add(CFA_XSP16, literal(-9)))
        CFI (cfiCond217) V2 load(1, XDATA, add(CFA_XSP16, literal(-8)))
        CFI (cfiCond217) V3 load(1, XDATA, add(CFA_XSP16, literal(-7)))
        CFI (cfiCond217) R7 load(1, XDATA, add(CFA_XSP16, literal(-6)))
        CFI (cfiCond217) ?RET_LOW load(1, XDATA, add(CFA_XSP16, literal(-5)))
        CFI (cfiCond217) ?RET_HIGH load(1, XDATA, add(CFA_XSP16, literal(-4)))
        CFI (cfiCond217) ?BRET_EXT load(1, XDATA, add(CFA_XSP16, literal(-3)))
        CFI (cfiCond217) DPL0 load(1, XDATA, add(CFA_XSP16, literal(-2)))
        CFI (cfiCond217) DPH0 load(1, XDATA, add(CFA_XSP16, literal(-1)))
        CFI (cfiCond217) CFA_SP SP+0
        CFI (cfiCond217) CFA_XSP16 add(XSP16, 12)
        CFI Block cfiCond218 Using cfiCommon0
        CFI (cfiCond218) NoFunction
        CFI (cfiCond218) Conditional ??CrossCallReturnLabel_161
        CFI (cfiCond218) R6 load(1, XDATA, add(CFA_XSP16, literal(-12)))
        CFI (cfiCond218) VB load(1, XDATA, add(CFA_XSP16, literal(-11)))
        CFI (cfiCond218) V0 load(1, XDATA, add(CFA_XSP16, literal(-10)))
        CFI (cfiCond218) V1 load(1, XDATA, add(CFA_XSP16, literal(-9)))
        CFI (cfiCond218) V2 load(1, XDATA, add(CFA_XSP16, literal(-8)))
        CFI (cfiCond218) V3 load(1, XDATA, add(CFA_XSP16, literal(-7)))
        CFI (cfiCond218) R7 load(1, XDATA, add(CFA_XSP16, literal(-6)))
        CFI (cfiCond218) ?RET_LOW load(1, XDATA, add(CFA_XSP16, literal(-5)))
        CFI (cfiCond218) ?RET_HIGH load(1, XDATA, add(CFA_XSP16, literal(-4)))
        CFI (cfiCond218) ?BRET_EXT load(1, XDATA, add(CFA_XSP16, literal(-3)))
        CFI (cfiCond218) DPL0 load(1, XDATA, add(CFA_XSP16, literal(-2)))
        CFI (cfiCond218) DPH0 load(1, XDATA, add(CFA_XSP16, literal(-1)))
        CFI (cfiCond218) CFA_SP SP+0
        CFI (cfiCond218) CFA_XSP16 add(XSP16, 12)
        CFI Block cfiPicker219 Using cfiCommon1
        CFI (cfiPicker219) NoFunction
        CFI (cfiPicker219) Picker
        LCALL   ?Subroutine57 & 0xFFFF
??CrossCallReturnLabel_163:
        RET
        CFI EndBlock cfiCond206
        CFI EndBlock cfiCond207
        CFI EndBlock cfiCond208
        CFI EndBlock cfiCond209
        CFI EndBlock cfiCond210
        CFI EndBlock cfiCond211
        CFI EndBlock cfiCond212
        CFI EndBlock cfiCond213
        CFI EndBlock cfiCond214
        CFI EndBlock cfiCond215
        CFI EndBlock cfiCond216
        CFI EndBlock cfiCond217
        CFI EndBlock cfiCond218
        CFI EndBlock cfiPicker219

        RSEG BANKED_CODE:CODE:NOROOT(0)
?Subroutine57:
        CFI Block cfiCond220 Using cfiCommon0
        CFI NoFunction
        CFI Conditional ??CrossCallReturnLabel_163, ??CrossCallReturnLabel_159
        CFI R6 load(1, XDATA, add(CFA_XSP16, literal(-12)))
        CFI VB load(1, XDATA, add(CFA_XSP16, literal(-11)))
        CFI V0 load(1, XDATA, add(CFA_XSP16, literal(-10)))
        CFI V1 load(1, XDATA, add(CFA_XSP16, literal(-9)))
        CFI V2 load(1, XDATA, add(CFA_XSP16, literal(-8)))
        CFI V3 load(1, XDATA, add(CFA_XSP16, literal(-7)))
        CFI R7 load(1, XDATA, add(CFA_XSP16, literal(-6)))
        CFI ?RET_LOW load(1, XDATA, add(CFA_XSP16, literal(-5)))
        CFI ?RET_HIGH load(1, XDATA, add(CFA_XSP16, literal(-4)))
        CFI ?BRET_EXT load(1, XDATA, add(CFA_XSP16, literal(-3)))
        CFI DPL0 load(1, XDATA, add(CFA_XSP16, literal(-2)))
        CFI DPH0 load(1, XDATA, add(CFA_XSP16, literal(-1)))
        CFI CFA_SP SP+0
        CFI CFA_XSP16 add(XSP16, 12)
        CFI Block cfiCond221 Using cfiCommon0
        CFI (cfiCond221) NoFunction
        CFI (cfiCond221) Conditional ??CrossCallReturnLabel_163, ??CrossCallReturnLabel_160
        CFI (cfiCond221) R6 load(1, XDATA, add(CFA_XSP16, literal(-12)))
        CFI (cfiCond221) VB load(1, XDATA, add(CFA_XSP16, literal(-11)))
        CFI (cfiCond221) V0 load(1, XDATA, add(CFA_XSP16, literal(-10)))
        CFI (cfiCond221) V1 load(1, XDATA, add(CFA_XSP16, literal(-9)))
        CFI (cfiCond221) V2 load(1, XDATA, add(CFA_XSP16, literal(-8)))
        CFI (cfiCond221) V3 load(1, XDATA, add(CFA_XSP16, literal(-7)))
        CFI (cfiCond221) R7 load(1, XDATA, add(CFA_XSP16, literal(-6)))
        CFI (cfiCond221) ?RET_LOW load(1, XDATA, add(CFA_XSP16, literal(-5)))
        CFI (cfiCond221) ?RET_HIGH load(1, XDATA, add(CFA_XSP16, literal(-4)))
        CFI (cfiCond221) ?BRET_EXT load(1, XDATA, add(CFA_XSP16, literal(-3)))
        CFI (cfiCond221) DPL0 load(1, XDATA, add(CFA_XSP16, literal(-2)))
        CFI (cfiCond221) DPH0 load(1, XDATA, add(CFA_XSP16, literal(-1)))
        CFI (cfiCond221) CFA_SP SP+0
        CFI (cfiCond221) CFA_XSP16 add(XSP16, 12)
        CFI Block cfiCond222 Using cfiCommon0
        CFI (cfiCond222) NoFunction
        CFI (cfiCond222) Conditional ??CrossCallReturnLabel_163, ??CrossCallReturnLabel_161
        CFI (cfiCond222) R6 load(1, XDATA, add(CFA_XSP16, literal(-12)))
        CFI (cfiCond222) VB load(1, XDATA, add(CFA_XSP16, literal(-11)))
        CFI (cfiCond222) V0 load(1, XDATA, add(CFA_XSP16, literal(-10)))
        CFI (cfiCond222) V1 load(1, XDATA, add(CFA_XSP16, literal(-9)))
        CFI (cfiCond222) V2 load(1, XDATA, add(CFA_XSP16, literal(-8)))
        CFI (cfiCond222) V3 load(1, XDATA, add(CFA_XSP16, literal(-7)))
        CFI (cfiCond222) R7 load(1, XDATA, add(CFA_XSP16, literal(-6)))
        CFI (cfiCond222) ?RET_LOW load(1, XDATA, add(CFA_XSP16, literal(-5)))
        CFI (cfiCond222) ?RET_HIGH load(1, XDATA, add(CFA_XSP16, literal(-4)))
        CFI (cfiCond222) ?BRET_EXT load(1, XDATA, add(CFA_XSP16, literal(-3)))
        CFI (cfiCond222) DPL0 load(1, XDATA, add(CFA_XSP16, literal(-2)))
        CFI (cfiCond222) DPH0 load(1, XDATA, add(CFA_XSP16, literal(-1)))
        CFI (cfiCond222) CFA_SP SP+0
        CFI (cfiCond222) CFA_XSP16 add(XSP16, 12)
        CFI Block cfiCond223 Using cfiCommon0
        CFI (cfiCond223) NoFunction
        CFI (cfiCond223) Conditional ??CrossCallReturnLabel_163, ??CrossCallReturnLabel_149
        CFI (cfiCond223) R6 load(1, XDATA, add(CFA_XSP16, literal(-12)))
        CFI (cfiCond223) VB load(1, XDATA, add(CFA_XSP16, literal(-11)))
        CFI (cfiCond223) V0 load(1, XDATA, add(CFA_XSP16, literal(-10)))
        CFI (cfiCond223) V1 load(1, XDATA, add(CFA_XSP16, literal(-9)))
        CFI (cfiCond223) V2 load(1, XDATA, add(CFA_XSP16, literal(-8)))
        CFI (cfiCond223) V3 load(1, XDATA, add(CFA_XSP16, literal(-7)))
        CFI (cfiCond223) R7 load(1, XDATA, add(CFA_XSP16, literal(-6)))
        CFI (cfiCond223) ?RET_LOW load(1, XDATA, add(CFA_XSP16, literal(-5)))
        CFI (cfiCond223) ?RET_HIGH load(1, XDATA, add(CFA_XSP16, literal(-4)))
        CFI (cfiCond223) ?BRET_EXT load(1, XDATA, add(CFA_XSP16, literal(-3)))
        CFI (cfiCond223) DPL0 load(1, XDATA, add(CFA_XSP16, literal(-2)))
        CFI (cfiCond223) DPH0 load(1, XDATA, add(CFA_XSP16, literal(-1)))
        CFI (cfiCond223) CFA_SP SP+0
        CFI (cfiCond223) CFA_XSP16 add(XSP16, 12)
        CFI Block cfiCond224 Using cfiCommon0
        CFI (cfiCond224) NoFunction
        CFI (cfiCond224) Conditional ??CrossCallReturnLabel_163, ??CrossCallReturnLabel_150
        CFI (cfiCond224) R6 load(1, XDATA, add(CFA_XSP16, literal(-12)))
        CFI (cfiCond224) VB load(1, XDATA, add(CFA_XSP16, literal(-11)))
        CFI (cfiCond224) V0 load(1, XDATA, add(CFA_XSP16, literal(-10)))
        CFI (cfiCond224) V1 load(1, XDATA, add(CFA_XSP16, literal(-9)))
        CFI (cfiCond224) V2 load(1, XDATA, add(CFA_XSP16, literal(-8)))
        CFI (cfiCond224) V3 load(1, XDATA, add(CFA_XSP16, literal(-7)))
        CFI (cfiCond224) R7 load(1, XDATA, add(CFA_XSP16, literal(-6)))
        CFI (cfiCond224) ?RET_LOW load(1, XDATA, add(CFA_XSP16, literal(-5)))
        CFI (cfiCond224) ?RET_HIGH load(1, XDATA, add(CFA_XSP16, literal(-4)))
        CFI (cfiCond224) ?BRET_EXT load(1, XDATA, add(CFA_XSP16, literal(-3)))
        CFI (cfiCond224) DPL0 load(1, XDATA, add(CFA_XSP16, literal(-2)))
        CFI (cfiCond224) DPH0 load(1, XDATA, add(CFA_XSP16, literal(-1)))
        CFI (cfiCond224) CFA_SP SP+0
        CFI (cfiCond224) CFA_XSP16 add(XSP16, 12)
        CFI Block cfiCond225 Using cfiCommon0
        CFI (cfiCond225) NoFunction
        CFI (cfiCond225) Conditional ??CrossCallReturnLabel_163, ??CrossCallReturnLabel_151
        CFI (cfiCond225) R6 load(1, XDATA, add(CFA_XSP16, literal(-12)))
        CFI (cfiCond225) VB load(1, XDATA, add(CFA_XSP16, literal(-11)))
        CFI (cfiCond225) V0 load(1, XDATA, add(CFA_XSP16, literal(-10)))
        CFI (cfiCond225) V1 load(1, XDATA, add(CFA_XSP16, literal(-9)))
        CFI (cfiCond225) V2 load(1, XDATA, add(CFA_XSP16, literal(-8)))
        CFI (cfiCond225) V3 load(1, XDATA, add(CFA_XSP16, literal(-7)))
        CFI (cfiCond225) R7 load(1, XDATA, add(CFA_XSP16, literal(-6)))
        CFI (cfiCond225) ?RET_LOW load(1, XDATA, add(CFA_XSP16, literal(-5)))
        CFI (cfiCond225) ?RET_HIGH load(1, XDATA, add(CFA_XSP16, literal(-4)))
        CFI (cfiCond225) ?BRET_EXT load(1, XDATA, add(CFA_XSP16, literal(-3)))
        CFI (cfiCond225) DPL0 load(1, XDATA, add(CFA_XSP16, literal(-2)))
        CFI (cfiCond225) DPH0 load(1, XDATA, add(CFA_XSP16, literal(-1)))
        CFI (cfiCond225) CFA_SP SP+0
        CFI (cfiCond225) CFA_XSP16 add(XSP16, 12)
        CFI Block cfiCond226 Using cfiCommon0
        CFI (cfiCond226) NoFunction
        CFI (cfiCond226) Conditional ??CrossCallReturnLabel_163, ??CrossCallReturnLabel_152
        CFI (cfiCond226) R6 load(1, XDATA, add(CFA_XSP16, literal(-12)))
        CFI (cfiCond226) VB load(1, XDATA, add(CFA_XSP16, literal(-11)))
        CFI (cfiCond226) V0 load(1, XDATA, add(CFA_XSP16, literal(-10)))
        CFI (cfiCond226) V1 load(1, XDATA, add(CFA_XSP16, literal(-9)))
        CFI (cfiCond226) V2 load(1, XDATA, add(CFA_XSP16, literal(-8)))
        CFI (cfiCond226) V3 load(1, XDATA, add(CFA_XSP16, literal(-7)))
        CFI (cfiCond226) R7 load(1, XDATA, add(CFA_XSP16, literal(-6)))
        CFI (cfiCond226) ?RET_LOW load(1, XDATA, add(CFA_XSP16, literal(-5)))
        CFI (cfiCond226) ?RET_HIGH load(1, XDATA, add(CFA_XSP16, literal(-4)))
        CFI (cfiCond226) ?BRET_EXT load(1, XDATA, add(CFA_XSP16, literal(-3)))
        CFI (cfiCond226) DPL0 load(1, XDATA, add(CFA_XSP16, literal(-2)))
        CFI (cfiCond226) DPH0 load(1, XDATA, add(CFA_XSP16, literal(-1)))
        CFI (cfiCond226) CFA_SP SP+0
        CFI (cfiCond226) CFA_XSP16 add(XSP16, 12)
        CFI Block cfiCond227 Using cfiCommon0
        CFI (cfiCond227) NoFunction
        CFI (cfiCond227) Conditional ??CrossCallReturnLabel_163, ??CrossCallReturnLabel_153
        CFI (cfiCond227) R6 load(1, XDATA, add(CFA_XSP16, literal(-12)))
        CFI (cfiCond227) VB load(1, XDATA, add(CFA_XSP16, literal(-11)))
        CFI (cfiCond227) V0 load(1, XDATA, add(CFA_XSP16, literal(-10)))
        CFI (cfiCond227) V1 load(1, XDATA, add(CFA_XSP16, literal(-9)))
        CFI (cfiCond227) V2 load(1, XDATA, add(CFA_XSP16, literal(-8)))
        CFI (cfiCond227) V3 load(1, XDATA, add(CFA_XSP16, literal(-7)))
        CFI (cfiCond227) R7 load(1, XDATA, add(CFA_XSP16, literal(-6)))
        CFI (cfiCond227) ?RET_LOW load(1, XDATA, add(CFA_XSP16, literal(-5)))
        CFI (cfiCond227) ?RET_HIGH load(1, XDATA, add(CFA_XSP16, literal(-4)))
        CFI (cfiCond227) ?BRET_EXT load(1, XDATA, add(CFA_XSP16, literal(-3)))
        CFI (cfiCond227) DPL0 load(1, XDATA, add(CFA_XSP16, literal(-2)))
        CFI (cfiCond227) DPH0 load(1, XDATA, add(CFA_XSP16, literal(-1)))
        CFI (cfiCond227) CFA_SP SP+0
        CFI (cfiCond227) CFA_XSP16 add(XSP16, 12)
        CFI Block cfiCond228 Using cfiCommon0
        CFI (cfiCond228) NoFunction
        CFI (cfiCond228) Conditional ??CrossCallReturnLabel_163, ??CrossCallReturnLabel_154
        CFI (cfiCond228) R6 load(1, XDATA, add(CFA_XSP16, literal(-12)))
        CFI (cfiCond228) VB load(1, XDATA, add(CFA_XSP16, literal(-11)))
        CFI (cfiCond228) V0 load(1, XDATA, add(CFA_XSP16, literal(-10)))
        CFI (cfiCond228) V1 load(1, XDATA, add(CFA_XSP16, literal(-9)))
        CFI (cfiCond228) V2 load(1, XDATA, add(CFA_XSP16, literal(-8)))
        CFI (cfiCond228) V3 load(1, XDATA, add(CFA_XSP16, literal(-7)))
        CFI (cfiCond228) R7 load(1, XDATA, add(CFA_XSP16, literal(-6)))
        CFI (cfiCond228) ?RET_LOW load(1, XDATA, add(CFA_XSP16, literal(-5)))
        CFI (cfiCond228) ?RET_HIGH load(1, XDATA, add(CFA_XSP16, literal(-4)))
        CFI (cfiCond228) ?BRET_EXT load(1, XDATA, add(CFA_XSP16, literal(-3)))
        CFI (cfiCond228) DPL0 load(1, XDATA, add(CFA_XSP16, literal(-2)))
        CFI (cfiCond228) DPH0 load(1, XDATA, add(CFA_XSP16, literal(-1)))
        CFI (cfiCond228) CFA_SP SP+0
        CFI (cfiCond228) CFA_XSP16 add(XSP16, 12)
        CFI Block cfiCond229 Using cfiCommon0
        CFI (cfiCond229) NoFunction
        CFI (cfiCond229) Conditional ??CrossCallReturnLabel_163, ??CrossCallReturnLabel_155
        CFI (cfiCond229) R6 load(1, XDATA, add(CFA_XSP16, literal(-12)))
        CFI (cfiCond229) VB load(1, XDATA, add(CFA_XSP16, literal(-11)))
        CFI (cfiCond229) V0 load(1, XDATA, add(CFA_XSP16, literal(-10)))
        CFI (cfiCond229) V1 load(1, XDATA, add(CFA_XSP16, literal(-9)))
        CFI (cfiCond229) V2 load(1, XDATA, add(CFA_XSP16, literal(-8)))
        CFI (cfiCond229) V3 load(1, XDATA, add(CFA_XSP16, literal(-7)))
        CFI (cfiCond229) R7 load(1, XDATA, add(CFA_XSP16, literal(-6)))
        CFI (cfiCond229) ?RET_LOW load(1, XDATA, add(CFA_XSP16, literal(-5)))
        CFI (cfiCond229) ?RET_HIGH load(1, XDATA, add(CFA_XSP16, literal(-4)))
        CFI (cfiCond229) ?BRET_EXT load(1, XDATA, add(CFA_XSP16, literal(-3)))
        CFI (cfiCond229) DPL0 load(1, XDATA, add(CFA_XSP16, literal(-2)))
        CFI (cfiCond229) DPH0 load(1, XDATA, add(CFA_XSP16, literal(-1)))
        CFI (cfiCond229) CFA_SP SP+0
        CFI (cfiCond229) CFA_XSP16 add(XSP16, 12)
        CFI Block cfiCond230 Using cfiCommon0
        CFI (cfiCond230) NoFunction
        CFI (cfiCond230) Conditional ??CrossCallReturnLabel_163, ??CrossCallReturnLabel_156
        CFI (cfiCond230) R6 load(1, XDATA, add(CFA_XSP16, literal(-12)))
        CFI (cfiCond230) VB load(1, XDATA, add(CFA_XSP16, literal(-11)))
        CFI (cfiCond230) V0 load(1, XDATA, add(CFA_XSP16, literal(-10)))
        CFI (cfiCond230) V1 load(1, XDATA, add(CFA_XSP16, literal(-9)))
        CFI (cfiCond230) V2 load(1, XDATA, add(CFA_XSP16, literal(-8)))
        CFI (cfiCond230) V3 load(1, XDATA, add(CFA_XSP16, literal(-7)))
        CFI (cfiCond230) R7 load(1, XDATA, add(CFA_XSP16, literal(-6)))
        CFI (cfiCond230) ?RET_LOW load(1, XDATA, add(CFA_XSP16, literal(-5)))
        CFI (cfiCond230) ?RET_HIGH load(1, XDATA, add(CFA_XSP16, literal(-4)))
        CFI (cfiCond230) ?BRET_EXT load(1, XDATA, add(CFA_XSP16, literal(-3)))
        CFI (cfiCond230) DPL0 load(1, XDATA, add(CFA_XSP16, literal(-2)))
        CFI (cfiCond230) DPH0 load(1, XDATA, add(CFA_XSP16, literal(-1)))
        CFI (cfiCond230) CFA_SP SP+0
        CFI (cfiCond230) CFA_XSP16 add(XSP16, 12)
        CFI Block cfiCond231 Using cfiCommon0
        CFI (cfiCond231) NoFunction
        CFI (cfiCond231) Conditional ??CrossCallReturnLabel_163, ??CrossCallReturnLabel_157
        CFI (cfiCond231) R6 load(1, XDATA, add(CFA_XSP16, literal(-12)))
        CFI (cfiCond231) VB load(1, XDATA, add(CFA_XSP16, literal(-11)))
        CFI (cfiCond231) V0 load(1, XDATA, add(CFA_XSP16, literal(-10)))
        CFI (cfiCond231) V1 load(1, XDATA, add(CFA_XSP16, literal(-9)))
        CFI (cfiCond231) V2 load(1, XDATA, add(CFA_XSP16, literal(-8)))
        CFI (cfiCond231) V3 load(1, XDATA, add(CFA_XSP16, literal(-7)))
        CFI (cfiCond231) R7 load(1, XDATA, add(CFA_XSP16, literal(-6)))
        CFI (cfiCond231) ?RET_LOW load(1, XDATA, add(CFA_XSP16, literal(-5)))
        CFI (cfiCond231) ?RET_HIGH load(1, XDATA, add(CFA_XSP16, literal(-4)))
        CFI (cfiCond231) ?BRET_EXT load(1, XDATA, add(CFA_XSP16, literal(-3)))
        CFI (cfiCond231) DPL0 load(1, XDATA, add(CFA_XSP16, literal(-2)))
        CFI (cfiCond231) DPH0 load(1, XDATA, add(CFA_XSP16, literal(-1)))
        CFI (cfiCond231) CFA_SP SP+0
        CFI (cfiCond231) CFA_XSP16 add(XSP16, 12)
        CFI Block cfiCond232 Using cfiCommon0
        CFI (cfiCond232) NoFunction
        CFI (cfiCond232) Conditional ??CrossCallReturnLabel_163, ??CrossCallReturnLabel_158
        CFI (cfiCond232) R6 load(1, XDATA, add(CFA_XSP16, literal(-12)))
        CFI (cfiCond232) VB load(1, XDATA, add(CFA_XSP16, literal(-11)))
        CFI (cfiCond232) V0 load(1, XDATA, add(CFA_XSP16, literal(-10)))
        CFI (cfiCond232) V1 load(1, XDATA, add(CFA_XSP16, literal(-9)))
        CFI (cfiCond232) V2 load(1, XDATA, add(CFA_XSP16, literal(-8)))
        CFI (cfiCond232) V3 load(1, XDATA, add(CFA_XSP16, literal(-7)))
        CFI (cfiCond232) R7 load(1, XDATA, add(CFA_XSP16, literal(-6)))
        CFI (cfiCond232) ?RET_LOW load(1, XDATA, add(CFA_XSP16, literal(-5)))
        CFI (cfiCond232) ?RET_HIGH load(1, XDATA, add(CFA_XSP16, literal(-4)))
        CFI (cfiCond232) ?BRET_EXT load(1, XDATA, add(CFA_XSP16, literal(-3)))
        CFI (cfiCond232) DPL0 load(1, XDATA, add(CFA_XSP16, literal(-2)))
        CFI (cfiCond232) DPH0 load(1, XDATA, add(CFA_XSP16, literal(-1)))
        CFI (cfiCond232) CFA_SP SP+0
        CFI (cfiCond232) CFA_XSP16 add(XSP16, 12)
        CFI Block cfiCond233 Using cfiCommon0
        CFI (cfiCond233) NoFunction
        CFI (cfiCond233) Conditional ??CrossCallReturnLabel_162, ??CrossCallReturnLabel_164
        CFI (cfiCond233) R6 load(1, XDATA, add(CFA_XSP16, literal(-12)))
        CFI (cfiCond233) VB load(1, XDATA, add(CFA_XSP16, literal(-11)))
        CFI (cfiCond233) V0 load(1, XDATA, add(CFA_XSP16, literal(-10)))
        CFI (cfiCond233) V1 load(1, XDATA, add(CFA_XSP16, literal(-9)))
        CFI (cfiCond233) V2 load(1, XDATA, add(CFA_XSP16, literal(-8)))
        CFI (cfiCond233) V3 load(1, XDATA, add(CFA_XSP16, literal(-7)))
        CFI (cfiCond233) R7 load(1, XDATA, add(CFA_XSP16, literal(-6)))
        CFI (cfiCond233) ?RET_LOW load(1, XDATA, add(CFA_XSP16, literal(-5)))
        CFI (cfiCond233) ?RET_HIGH load(1, XDATA, add(CFA_XSP16, literal(-4)))
        CFI (cfiCond233) ?BRET_EXT load(1, XDATA, add(CFA_XSP16, literal(-3)))
        CFI (cfiCond233) DPL0 load(1, XDATA, add(CFA_XSP16, literal(-2)))
        CFI (cfiCond233) DPH0 load(1, XDATA, add(CFA_XSP16, literal(-1)))
        CFI (cfiCond233) CFA_SP SP+0
        CFI (cfiCond233) CFA_XSP16 add(XSP16, 12)
        CFI Block cfiCond234 Using cfiCommon0
        CFI (cfiCond234) NoFunction
        CFI (cfiCond234) Conditional ??CrossCallReturnLabel_162, ??CrossCallReturnLabel_165
        CFI (cfiCond234) R6 load(1, XDATA, add(CFA_XSP16, literal(-12)))
        CFI (cfiCond234) VB load(1, XDATA, add(CFA_XSP16, literal(-11)))
        CFI (cfiCond234) V0 load(1, XDATA, add(CFA_XSP16, literal(-10)))
        CFI (cfiCond234) V1 load(1, XDATA, add(CFA_XSP16, literal(-9)))
        CFI (cfiCond234) V2 load(1, XDATA, add(CFA_XSP16, literal(-8)))
        CFI (cfiCond234) V3 load(1, XDATA, add(CFA_XSP16, literal(-7)))
        CFI (cfiCond234) R7 load(1, XDATA, add(CFA_XSP16, literal(-6)))
        CFI (cfiCond234) ?RET_LOW load(1, XDATA, add(CFA_XSP16, literal(-5)))
        CFI (cfiCond234) ?RET_HIGH load(1, XDATA, add(CFA_XSP16, literal(-4)))
        CFI (cfiCond234) ?BRET_EXT load(1, XDATA, add(CFA_XSP16, literal(-3)))
        CFI (cfiCond234) DPL0 load(1, XDATA, add(CFA_XSP16, literal(-2)))
        CFI (cfiCond234) DPH0 load(1, XDATA, add(CFA_XSP16, literal(-1)))
        CFI (cfiCond234) CFA_SP SP+0
        CFI (cfiCond234) CFA_XSP16 add(XSP16, 12)
        CFI Block cfiPicker235 Using cfiCommon1
        CFI (cfiPicker235) NoFunction
        CFI (cfiPicker235) Picker
        MOVX    A,@DPTR
        MOV     R0,A
        MOV     A,#(gizwitsProtocol + 133) & 0xff
        ADD     A,R0
        MOV     DPL,A
        MOV     A,#((gizwitsProtocol + 133) >> 8) & 0xff
        ADDC    A,#0x0
        MOV     DPH,A
        RET
        CFI EndBlock cfiCond220
        CFI EndBlock cfiCond221
        CFI EndBlock cfiCond222
        CFI EndBlock cfiCond223
        CFI EndBlock cfiCond224
        CFI EndBlock cfiCond225
        CFI EndBlock cfiCond226
        CFI EndBlock cfiCond227
        CFI EndBlock cfiCond228
        CFI EndBlock cfiCond229
        CFI EndBlock cfiCond230
        CFI EndBlock cfiCond231
        CFI EndBlock cfiCond232
        CFI EndBlock cfiCond233
        CFI EndBlock cfiCond234
        CFI EndBlock cfiPicker235

        RSEG BANKED_CODE:CODE:NOROOT(0)
?Subroutine14:
        CFI Block cfiCond236 Using cfiCommon0
        CFI NoFunction
        CFI Conditional ??CrossCallReturnLabel_12
        CFI R6 load(1, XDATA, add(CFA_XSP16, literal(-12)))
        CFI VB load(1, XDATA, add(CFA_XSP16, literal(-11)))
        CFI V0 load(1, XDATA, add(CFA_XSP16, literal(-10)))
        CFI V1 load(1, XDATA, add(CFA_XSP16, literal(-9)))
        CFI V2 load(1, XDATA, add(CFA_XSP16, literal(-8)))
        CFI V3 load(1, XDATA, add(CFA_XSP16, literal(-7)))
        CFI R7 load(1, XDATA, add(CFA_XSP16, literal(-6)))
        CFI ?RET_LOW load(1, XDATA, add(CFA_XSP16, literal(-5)))
        CFI ?RET_HIGH load(1, XDATA, add(CFA_XSP16, literal(-4)))
        CFI ?BRET_EXT load(1, XDATA, add(CFA_XSP16, literal(-3)))
        CFI DPL0 load(1, XDATA, add(CFA_XSP16, literal(-2)))
        CFI DPH0 load(1, XDATA, add(CFA_XSP16, literal(-1)))
        CFI CFA_SP SP+0
        CFI CFA_XSP16 add(XSP16, 12)
        CFI Block cfiCond237 Using cfiCommon0
        CFI (cfiCond237) NoFunction
        CFI (cfiCond237) Conditional ??CrossCallReturnLabel_13
        CFI (cfiCond237) R6 load(1, XDATA, add(CFA_XSP16, literal(-12)))
        CFI (cfiCond237) VB load(1, XDATA, add(CFA_XSP16, literal(-11)))
        CFI (cfiCond237) V0 load(1, XDATA, add(CFA_XSP16, literal(-10)))
        CFI (cfiCond237) V1 load(1, XDATA, add(CFA_XSP16, literal(-9)))
        CFI (cfiCond237) V2 load(1, XDATA, add(CFA_XSP16, literal(-8)))
        CFI (cfiCond237) V3 load(1, XDATA, add(CFA_XSP16, literal(-7)))
        CFI (cfiCond237) R7 load(1, XDATA, add(CFA_XSP16, literal(-6)))
        CFI (cfiCond237) ?RET_LOW load(1, XDATA, add(CFA_XSP16, literal(-5)))
        CFI (cfiCond237) ?RET_HIGH load(1, XDATA, add(CFA_XSP16, literal(-4)))
        CFI (cfiCond237) ?BRET_EXT load(1, XDATA, add(CFA_XSP16, literal(-3)))
        CFI (cfiCond237) DPL0 load(1, XDATA, add(CFA_XSP16, literal(-2)))
        CFI (cfiCond237) DPH0 load(1, XDATA, add(CFA_XSP16, literal(-1)))
        CFI (cfiCond237) CFA_SP SP+0
        CFI (cfiCond237) CFA_XSP16 add(XSP16, 12)
        CFI Block cfiPicker238 Using cfiCommon1
        CFI (cfiPicker238) NoFunction
        CFI (cfiPicker238) Picker
        MOV     R1,A
        MOV     A,R2
        MOV     R0,A
        MOV     A,R3
        ORL     A,R1
        LCALL   ?Subroutine52 & 0xFFFF
??CrossCallReturnLabel_83:
        INC     DPTR
        MOVX    A,@DPTR
        RET
        CFI EndBlock cfiCond236
        CFI EndBlock cfiCond237
        CFI EndBlock cfiPicker238

        RSEG BANKED_CODE:CODE:NOROOT(0)
?Subroutine10:
        CFI Block cfiCond239 Using cfiCommon0
        CFI NoFunction
        CFI Conditional ??CrossCallReturnLabel_164
        CFI R6 load(1, XDATA, add(CFA_XSP16, literal(-12)))
        CFI VB load(1, XDATA, add(CFA_XSP16, literal(-11)))
        CFI V0 load(1, XDATA, add(CFA_XSP16, literal(-10)))
        CFI V1 load(1, XDATA, add(CFA_XSP16, literal(-9)))
        CFI V2 load(1, XDATA, add(CFA_XSP16, literal(-8)))
        CFI V3 load(1, XDATA, add(CFA_XSP16, literal(-7)))
        CFI R7 load(1, XDATA, add(CFA_XSP16, literal(-6)))
        CFI ?RET_LOW load(1, XDATA, add(CFA_XSP16, literal(-5)))
        CFI ?RET_HIGH load(1, XDATA, add(CFA_XSP16, literal(-4)))
        CFI ?BRET_EXT load(1, XDATA, add(CFA_XSP16, literal(-3)))
        CFI DPL0 load(1, XDATA, add(CFA_XSP16, literal(-2)))
        CFI DPH0 load(1, XDATA, add(CFA_XSP16, literal(-1)))
        CFI CFA_SP SP+0
        CFI CFA_XSP16 add(XSP16, 12)
        CFI Block cfiCond240 Using cfiCommon0
        CFI (cfiCond240) NoFunction
        CFI (cfiCond240) Conditional ??CrossCallReturnLabel_165
        CFI (cfiCond240) R6 load(1, XDATA, add(CFA_XSP16, literal(-12)))
        CFI (cfiCond240) VB load(1, XDATA, add(CFA_XSP16, literal(-11)))
        CFI (cfiCond240) V0 load(1, XDATA, add(CFA_XSP16, literal(-10)))
        CFI (cfiCond240) V1 load(1, XDATA, add(CFA_XSP16, literal(-9)))
        CFI (cfiCond240) V2 load(1, XDATA, add(CFA_XSP16, literal(-8)))
        CFI (cfiCond240) V3 load(1, XDATA, add(CFA_XSP16, literal(-7)))
        CFI (cfiCond240) R7 load(1, XDATA, add(CFA_XSP16, literal(-6)))
        CFI (cfiCond240) ?RET_LOW load(1, XDATA, add(CFA_XSP16, literal(-5)))
        CFI (cfiCond240) ?RET_HIGH load(1, XDATA, add(CFA_XSP16, literal(-4)))
        CFI (cfiCond240) ?BRET_EXT load(1, XDATA, add(CFA_XSP16, literal(-3)))
        CFI (cfiCond240) DPL0 load(1, XDATA, add(CFA_XSP16, literal(-2)))
        CFI (cfiCond240) DPH0 load(1, XDATA, add(CFA_XSP16, literal(-1)))
        CFI (cfiCond240) CFA_SP SP+0
        CFI (cfiCond240) CFA_XSP16 add(XSP16, 12)
        CFI Block cfiPicker241 Using cfiCommon1
        CFI (cfiPicker241) NoFunction
        CFI (cfiPicker241) Picker
        MOV     DPTR,#gizwitsProtocol + 132
        LCALL   ?Subroutine57 & 0xFFFF
??CrossCallReturnLabel_162:
        CLR     A
        CFI EndBlock cfiCond239
        CFI EndBlock cfiCond240
        CFI EndBlock cfiPicker241
        REQUIRE ??Subroutine68_0
        ; // Fall through to label ??Subroutine68_0

        RSEG BANKED_CODE:CODE:NOROOT(0)
??Subroutine68_0:
        CFI Block cfiCond242 Using cfiCommon0
        CFI NoFunction
        CFI Conditional ??CrossCallReturnLabel_166
        CFI R6 load(1, XDATA, add(CFA_XSP16, literal(-12)))
        CFI VB load(1, XDATA, add(CFA_XSP16, literal(-11)))
        CFI V0 load(1, XDATA, add(CFA_XSP16, literal(-10)))
        CFI V1 load(1, XDATA, add(CFA_XSP16, literal(-9)))
        CFI V2 load(1, XDATA, add(CFA_XSP16, literal(-8)))
        CFI V3 load(1, XDATA, add(CFA_XSP16, literal(-7)))
        CFI R7 load(1, XDATA, add(CFA_XSP16, literal(-6)))
        CFI ?RET_LOW load(1, XDATA, add(CFA_XSP16, literal(-5)))
        CFI ?RET_HIGH load(1, XDATA, add(CFA_XSP16, literal(-4)))
        CFI ?BRET_EXT load(1, XDATA, add(CFA_XSP16, literal(-3)))
        CFI DPL0 load(1, XDATA, add(CFA_XSP16, literal(-2)))
        CFI DPH0 load(1, XDATA, add(CFA_XSP16, literal(-1)))
        CFI CFA_SP SP+0
        CFI CFA_XSP16 add(XSP16, 12)
        CFI Block cfiCond243 Using cfiCommon0
        CFI (cfiCond243) NoFunction
        CFI (cfiCond243) Conditional ??CrossCallReturnLabel_167
        CFI (cfiCond243) R6 load(1, XDATA, add(CFA_XSP16, literal(-12)))
        CFI (cfiCond243) VB load(1, XDATA, add(CFA_XSP16, literal(-11)))
        CFI (cfiCond243) V0 load(1, XDATA, add(CFA_XSP16, literal(-10)))
        CFI (cfiCond243) V1 load(1, XDATA, add(CFA_XSP16, literal(-9)))
        CFI (cfiCond243) V2 load(1, XDATA, add(CFA_XSP16, literal(-8)))
        CFI (cfiCond243) V3 load(1, XDATA, add(CFA_XSP16, literal(-7)))
        CFI (cfiCond243) R7 load(1, XDATA, add(CFA_XSP16, literal(-6)))
        CFI (cfiCond243) ?RET_LOW load(1, XDATA, add(CFA_XSP16, literal(-5)))
        CFI (cfiCond243) ?RET_HIGH load(1, XDATA, add(CFA_XSP16, literal(-4)))
        CFI (cfiCond243) ?BRET_EXT load(1, XDATA, add(CFA_XSP16, literal(-3)))
        CFI (cfiCond243) DPL0 load(1, XDATA, add(CFA_XSP16, literal(-2)))
        CFI (cfiCond243) DPH0 load(1, XDATA, add(CFA_XSP16, literal(-1)))
        CFI (cfiCond243) CFA_SP SP+0
        CFI (cfiCond243) CFA_XSP16 add(XSP16, 12)
        CFI Block cfiCond244 Using cfiCommon0
        CFI (cfiCond244) NoFunction
        CFI (cfiCond244) Conditional ??CrossCallReturnLabel_164
        CFI (cfiCond244) R6 load(1, XDATA, add(CFA_XSP16, literal(-12)))
        CFI (cfiCond244) VB load(1, XDATA, add(CFA_XSP16, literal(-11)))
        CFI (cfiCond244) V0 load(1, XDATA, add(CFA_XSP16, literal(-10)))
        CFI (cfiCond244) V1 load(1, XDATA, add(CFA_XSP16, literal(-9)))
        CFI (cfiCond244) V2 load(1, XDATA, add(CFA_XSP16, literal(-8)))
        CFI (cfiCond244) V3 load(1, XDATA, add(CFA_XSP16, literal(-7)))
        CFI (cfiCond244) R7 load(1, XDATA, add(CFA_XSP16, literal(-6)))
        CFI (cfiCond244) ?RET_LOW load(1, XDATA, add(CFA_XSP16, literal(-5)))
        CFI (cfiCond244) ?RET_HIGH load(1, XDATA, add(CFA_XSP16, literal(-4)))
        CFI (cfiCond244) ?BRET_EXT load(1, XDATA, add(CFA_XSP16, literal(-3)))
        CFI (cfiCond244) DPL0 load(1, XDATA, add(CFA_XSP16, literal(-2)))
        CFI (cfiCond244) DPH0 load(1, XDATA, add(CFA_XSP16, literal(-1)))
        CFI (cfiCond244) CFA_SP SP+0
        CFI (cfiCond244) CFA_XSP16 add(XSP16, 12)
        CFI Block cfiCond245 Using cfiCommon0
        CFI (cfiCond245) NoFunction
        CFI (cfiCond245) Conditional ??CrossCallReturnLabel_165
        CFI (cfiCond245) R6 load(1, XDATA, add(CFA_XSP16, literal(-12)))
        CFI (cfiCond245) VB load(1, XDATA, add(CFA_XSP16, literal(-11)))
        CFI (cfiCond245) V0 load(1, XDATA, add(CFA_XSP16, literal(-10)))
        CFI (cfiCond245) V1 load(1, XDATA, add(CFA_XSP16, literal(-9)))
        CFI (cfiCond245) V2 load(1, XDATA, add(CFA_XSP16, literal(-8)))
        CFI (cfiCond245) V3 load(1, XDATA, add(CFA_XSP16, literal(-7)))
        CFI (cfiCond245) R7 load(1, XDATA, add(CFA_XSP16, literal(-6)))
        CFI (cfiCond245) ?RET_LOW load(1, XDATA, add(CFA_XSP16, literal(-5)))
        CFI (cfiCond245) ?RET_HIGH load(1, XDATA, add(CFA_XSP16, literal(-4)))
        CFI (cfiCond245) ?BRET_EXT load(1, XDATA, add(CFA_XSP16, literal(-3)))
        CFI (cfiCond245) DPL0 load(1, XDATA, add(CFA_XSP16, literal(-2)))
        CFI (cfiCond245) DPH0 load(1, XDATA, add(CFA_XSP16, literal(-1)))
        CFI (cfiCond245) CFA_SP SP+0
        CFI (cfiCond245) CFA_XSP16 add(XSP16, 12)
        CFI Block cfiPicker246 Using cfiCommon1
        CFI (cfiPicker246) NoFunction
        CFI (cfiPicker246) Picker
        MOVX    @DPTR,A
        MOV     DPTR,#gizwitsProtocol + 132
        MOVX    A,@DPTR
        ADD     A,#0x1
        MOVX    @DPTR,A
        RET
        CFI EndBlock cfiCond242
        CFI EndBlock cfiCond243
        CFI EndBlock cfiCond244
        CFI EndBlock cfiCond245
        CFI EndBlock cfiPicker246

        RSEG BANKED_CODE:CODE:NOROOT(0)
?Subroutine9:
        CFI Block cfiCond247 Using cfiCommon0
        CFI NoFunction
        CFI Conditional ??CrossCallReturnLabel_3
        CFI R6 load(1, XDATA, add(CFA_XSP16, literal(-12)))
        CFI VB load(1, XDATA, add(CFA_XSP16, literal(-11)))
        CFI V0 load(1, XDATA, add(CFA_XSP16, literal(-10)))
        CFI V1 load(1, XDATA, add(CFA_XSP16, literal(-9)))
        CFI V2 load(1, XDATA, add(CFA_XSP16, literal(-8)))
        CFI V3 load(1, XDATA, add(CFA_XSP16, literal(-7)))
        CFI R7 load(1, XDATA, add(CFA_XSP16, literal(-6)))
        CFI ?RET_LOW load(1, XDATA, add(CFA_XSP16, literal(-5)))
        CFI ?RET_HIGH load(1, XDATA, add(CFA_XSP16, literal(-4)))
        CFI ?BRET_EXT load(1, XDATA, add(CFA_XSP16, literal(-3)))
        CFI DPL0 load(1, XDATA, add(CFA_XSP16, literal(-2)))
        CFI DPH0 load(1, XDATA, add(CFA_XSP16, literal(-1)))
        CFI CFA_SP SP+0
        CFI CFA_XSP16 add(XSP16, 12)
        CFI Block cfiCond248 Using cfiCommon0
        CFI (cfiCond248) NoFunction
        CFI (cfiCond248) Conditional ??CrossCallReturnLabel_4
        CFI (cfiCond248) R6 load(1, XDATA, add(CFA_XSP16, literal(-12)))
        CFI (cfiCond248) VB load(1, XDATA, add(CFA_XSP16, literal(-11)))
        CFI (cfiCond248) V0 load(1, XDATA, add(CFA_XSP16, literal(-10)))
        CFI (cfiCond248) V1 load(1, XDATA, add(CFA_XSP16, literal(-9)))
        CFI (cfiCond248) V2 load(1, XDATA, add(CFA_XSP16, literal(-8)))
        CFI (cfiCond248) V3 load(1, XDATA, add(CFA_XSP16, literal(-7)))
        CFI (cfiCond248) R7 load(1, XDATA, add(CFA_XSP16, literal(-6)))
        CFI (cfiCond248) ?RET_LOW load(1, XDATA, add(CFA_XSP16, literal(-5)))
        CFI (cfiCond248) ?RET_HIGH load(1, XDATA, add(CFA_XSP16, literal(-4)))
        CFI (cfiCond248) ?BRET_EXT load(1, XDATA, add(CFA_XSP16, literal(-3)))
        CFI (cfiCond248) DPL0 load(1, XDATA, add(CFA_XSP16, literal(-2)))
        CFI (cfiCond248) DPH0 load(1, XDATA, add(CFA_XSP16, literal(-1)))
        CFI (cfiCond248) CFA_SP SP+0
        CFI (cfiCond248) CFA_XSP16 add(XSP16, 12)
        CFI Block cfiCond249 Using cfiCommon0
        CFI (cfiCond249) NoFunction
        CFI (cfiCond249) Conditional ??CrossCallReturnLabel_5
        CFI (cfiCond249) R6 load(1, XDATA, add(CFA_XSP16, literal(-12)))
        CFI (cfiCond249) VB load(1, XDATA, add(CFA_XSP16, literal(-11)))
        CFI (cfiCond249) V0 load(1, XDATA, add(CFA_XSP16, literal(-10)))
        CFI (cfiCond249) V1 load(1, XDATA, add(CFA_XSP16, literal(-9)))
        CFI (cfiCond249) V2 load(1, XDATA, add(CFA_XSP16, literal(-8)))
        CFI (cfiCond249) V3 load(1, XDATA, add(CFA_XSP16, literal(-7)))
        CFI (cfiCond249) R7 load(1, XDATA, add(CFA_XSP16, literal(-6)))
        CFI (cfiCond249) ?RET_LOW load(1, XDATA, add(CFA_XSP16, literal(-5)))
        CFI (cfiCond249) ?RET_HIGH load(1, XDATA, add(CFA_XSP16, literal(-4)))
        CFI (cfiCond249) ?BRET_EXT load(1, XDATA, add(CFA_XSP16, literal(-3)))
        CFI (cfiCond249) DPL0 load(1, XDATA, add(CFA_XSP16, literal(-2)))
        CFI (cfiCond249) DPH0 load(1, XDATA, add(CFA_XSP16, literal(-1)))
        CFI (cfiCond249) CFA_SP SP+0
        CFI (cfiCond249) CFA_XSP16 add(XSP16, 12)
        CFI Block cfiCond250 Using cfiCommon0
        CFI (cfiCond250) NoFunction
        CFI (cfiCond250) Conditional ??CrossCallReturnLabel_6
        CFI (cfiCond250) R6 load(1, XDATA, add(CFA_XSP16, literal(-12)))
        CFI (cfiCond250) VB load(1, XDATA, add(CFA_XSP16, literal(-11)))
        CFI (cfiCond250) V0 load(1, XDATA, add(CFA_XSP16, literal(-10)))
        CFI (cfiCond250) V1 load(1, XDATA, add(CFA_XSP16, literal(-9)))
        CFI (cfiCond250) V2 load(1, XDATA, add(CFA_XSP16, literal(-8)))
        CFI (cfiCond250) V3 load(1, XDATA, add(CFA_XSP16, literal(-7)))
        CFI (cfiCond250) R7 load(1, XDATA, add(CFA_XSP16, literal(-6)))
        CFI (cfiCond250) ?RET_LOW load(1, XDATA, add(CFA_XSP16, literal(-5)))
        CFI (cfiCond250) ?RET_HIGH load(1, XDATA, add(CFA_XSP16, literal(-4)))
        CFI (cfiCond250) ?BRET_EXT load(1, XDATA, add(CFA_XSP16, literal(-3)))
        CFI (cfiCond250) DPL0 load(1, XDATA, add(CFA_XSP16, literal(-2)))
        CFI (cfiCond250) DPH0 load(1, XDATA, add(CFA_XSP16, literal(-1)))
        CFI (cfiCond250) CFA_SP SP+0
        CFI (cfiCond250) CFA_XSP16 add(XSP16, 12)
        CFI Block cfiCond251 Using cfiCommon0
        CFI (cfiCond251) NoFunction
        CFI (cfiCond251) Conditional ??CrossCallReturnLabel_7
        CFI (cfiCond251) R6 load(1, XDATA, add(CFA_XSP16, literal(-12)))
        CFI (cfiCond251) VB load(1, XDATA, add(CFA_XSP16, literal(-11)))
        CFI (cfiCond251) V0 load(1, XDATA, add(CFA_XSP16, literal(-10)))
        CFI (cfiCond251) V1 load(1, XDATA, add(CFA_XSP16, literal(-9)))
        CFI (cfiCond251) V2 load(1, XDATA, add(CFA_XSP16, literal(-8)))
        CFI (cfiCond251) V3 load(1, XDATA, add(CFA_XSP16, literal(-7)))
        CFI (cfiCond251) R7 load(1, XDATA, add(CFA_XSP16, literal(-6)))
        CFI (cfiCond251) ?RET_LOW load(1, XDATA, add(CFA_XSP16, literal(-5)))
        CFI (cfiCond251) ?RET_HIGH load(1, XDATA, add(CFA_XSP16, literal(-4)))
        CFI (cfiCond251) ?BRET_EXT load(1, XDATA, add(CFA_XSP16, literal(-3)))
        CFI (cfiCond251) DPL0 load(1, XDATA, add(CFA_XSP16, literal(-2)))
        CFI (cfiCond251) DPH0 load(1, XDATA, add(CFA_XSP16, literal(-1)))
        CFI (cfiCond251) CFA_SP SP+0
        CFI (cfiCond251) CFA_XSP16 add(XSP16, 12)
        CFI Block cfiPicker252 Using cfiCommon1
        CFI (cfiPicker252) NoFunction
        CFI (cfiPicker252) Picker
        MOVX    @DPTR,A
        MOV     DPTR,#gizwitsProtocol + 132
        MOVX    A,@DPTR
        INC     A
        MOVX    @DPTR,A
        RET
        CFI EndBlock cfiCond247
        CFI EndBlock cfiCond248
        CFI EndBlock cfiCond249
        CFI EndBlock cfiCond250
        CFI EndBlock cfiCond251
        CFI EndBlock cfiPicker252

        RSEG BANKED_CODE:CODE:NOROOT(0)
?Subroutine8:
        CFI Block cfiCond253 Using cfiCommon0
        CFI NoFunction
        CFI Conditional ??CrossCallReturnLabel_0
        CFI R6 load(1, XDATA, add(CFA_XSP16, literal(-12)))
        CFI VB load(1, XDATA, add(CFA_XSP16, literal(-11)))
        CFI V0 load(1, XDATA, add(CFA_XSP16, literal(-10)))
        CFI V1 load(1, XDATA, add(CFA_XSP16, literal(-9)))
        CFI V2 load(1, XDATA, add(CFA_XSP16, literal(-8)))
        CFI V3 load(1, XDATA, add(CFA_XSP16, literal(-7)))
        CFI R7 load(1, XDATA, add(CFA_XSP16, literal(-6)))
        CFI ?RET_LOW load(1, XDATA, add(CFA_XSP16, literal(-5)))
        CFI ?RET_HIGH load(1, XDATA, add(CFA_XSP16, literal(-4)))
        CFI ?BRET_EXT load(1, XDATA, add(CFA_XSP16, literal(-3)))
        CFI DPL0 load(1, XDATA, add(CFA_XSP16, literal(-2)))
        CFI DPH0 load(1, XDATA, add(CFA_XSP16, literal(-1)))
        CFI CFA_SP SP+0
        CFI CFA_XSP16 add(XSP16, 12)
        CFI Block cfiCond254 Using cfiCommon0
        CFI (cfiCond254) NoFunction
        CFI (cfiCond254) Conditional ??CrossCallReturnLabel_1
        CFI (cfiCond254) R6 load(1, XDATA, add(CFA_XSP16, literal(-12)))
        CFI (cfiCond254) VB load(1, XDATA, add(CFA_XSP16, literal(-11)))
        CFI (cfiCond254) V0 load(1, XDATA, add(CFA_XSP16, literal(-10)))
        CFI (cfiCond254) V1 load(1, XDATA, add(CFA_XSP16, literal(-9)))
        CFI (cfiCond254) V2 load(1, XDATA, add(CFA_XSP16, literal(-8)))
        CFI (cfiCond254) V3 load(1, XDATA, add(CFA_XSP16, literal(-7)))
        CFI (cfiCond254) R7 load(1, XDATA, add(CFA_XSP16, literal(-6)))
        CFI (cfiCond254) ?RET_LOW load(1, XDATA, add(CFA_XSP16, literal(-5)))
        CFI (cfiCond254) ?RET_HIGH load(1, XDATA, add(CFA_XSP16, literal(-4)))
        CFI (cfiCond254) ?BRET_EXT load(1, XDATA, add(CFA_XSP16, literal(-3)))
        CFI (cfiCond254) DPL0 load(1, XDATA, add(CFA_XSP16, literal(-2)))
        CFI (cfiCond254) DPH0 load(1, XDATA, add(CFA_XSP16, literal(-1)))
        CFI (cfiCond254) CFA_SP SP+0
        CFI (cfiCond254) CFA_XSP16 add(XSP16, 12)
        CFI Block cfiCond255 Using cfiCommon0
        CFI (cfiCond255) NoFunction
        CFI (cfiCond255) Conditional ??CrossCallReturnLabel_2
        CFI (cfiCond255) R6 load(1, XDATA, add(CFA_XSP16, literal(-12)))
        CFI (cfiCond255) VB load(1, XDATA, add(CFA_XSP16, literal(-11)))
        CFI (cfiCond255) V0 load(1, XDATA, add(CFA_XSP16, literal(-10)))
        CFI (cfiCond255) V1 load(1, XDATA, add(CFA_XSP16, literal(-9)))
        CFI (cfiCond255) V2 load(1, XDATA, add(CFA_XSP16, literal(-8)))
        CFI (cfiCond255) V3 load(1, XDATA, add(CFA_XSP16, literal(-7)))
        CFI (cfiCond255) R7 load(1, XDATA, add(CFA_XSP16, literal(-6)))
        CFI (cfiCond255) ?RET_LOW load(1, XDATA, add(CFA_XSP16, literal(-5)))
        CFI (cfiCond255) ?RET_HIGH load(1, XDATA, add(CFA_XSP16, literal(-4)))
        CFI (cfiCond255) ?BRET_EXT load(1, XDATA, add(CFA_XSP16, literal(-3)))
        CFI (cfiCond255) DPL0 load(1, XDATA, add(CFA_XSP16, literal(-2)))
        CFI (cfiCond255) DPH0 load(1, XDATA, add(CFA_XSP16, literal(-1)))
        CFI (cfiCond255) CFA_SP SP+0
        CFI (cfiCond255) CFA_XSP16 add(XSP16, 12)
        CFI Block cfiPicker256 Using cfiCommon1
        CFI (cfiPicker256) NoFunction
        CFI (cfiPicker256) Picker
        MOV     R0,A
        MOV     A,R2
        ORL     A,R0
        MOV     R0,A
        MOV     A,R3
        LCALL   ?Subroutine52 & 0xFFFF
??CrossCallReturnLabel_84:
        MOVX    A,@DPTR
        RET
        CFI EndBlock cfiCond253
        CFI EndBlock cfiCond254
        CFI EndBlock cfiCond255
        CFI EndBlock cfiPicker256

        RSEG BANKED_CODE:CODE:NOROOT(0)
?Subroutine52:
        CFI Block cfiCond257 Using cfiCommon0
        CFI NoFunction
        CFI Conditional ??CrossCallReturnLabel_83, ??CrossCallReturnLabel_12
        CFI R6 load(1, XDATA, add(CFA_XSP16, literal(-12)))
        CFI VB load(1, XDATA, add(CFA_XSP16, literal(-11)))
        CFI V0 load(1, XDATA, add(CFA_XSP16, literal(-10)))
        CFI V1 load(1, XDATA, add(CFA_XSP16, literal(-9)))
        CFI V2 load(1, XDATA, add(CFA_XSP16, literal(-8)))
        CFI V3 load(1, XDATA, add(CFA_XSP16, literal(-7)))
        CFI R7 load(1, XDATA, add(CFA_XSP16, literal(-6)))
        CFI ?RET_LOW load(1, XDATA, add(CFA_XSP16, literal(-5)))
        CFI ?RET_HIGH load(1, XDATA, add(CFA_XSP16, literal(-4)))
        CFI ?BRET_EXT load(1, XDATA, add(CFA_XSP16, literal(-3)))
        CFI DPL0 load(1, XDATA, add(CFA_XSP16, literal(-2)))
        CFI DPH0 load(1, XDATA, add(CFA_XSP16, literal(-1)))
        CFI CFA_SP SP+0
        CFI CFA_XSP16 add(XSP16, 12)
        CFI Block cfiCond258 Using cfiCommon0
        CFI (cfiCond258) NoFunction
        CFI (cfiCond258) Conditional ??CrossCallReturnLabel_83, ??CrossCallReturnLabel_13
        CFI (cfiCond258) R6 load(1, XDATA, add(CFA_XSP16, literal(-12)))
        CFI (cfiCond258) VB load(1, XDATA, add(CFA_XSP16, literal(-11)))
        CFI (cfiCond258) V0 load(1, XDATA, add(CFA_XSP16, literal(-10)))
        CFI (cfiCond258) V1 load(1, XDATA, add(CFA_XSP16, literal(-9)))
        CFI (cfiCond258) V2 load(1, XDATA, add(CFA_XSP16, literal(-8)))
        CFI (cfiCond258) V3 load(1, XDATA, add(CFA_XSP16, literal(-7)))
        CFI (cfiCond258) R7 load(1, XDATA, add(CFA_XSP16, literal(-6)))
        CFI (cfiCond258) ?RET_LOW load(1, XDATA, add(CFA_XSP16, literal(-5)))
        CFI (cfiCond258) ?RET_HIGH load(1, XDATA, add(CFA_XSP16, literal(-4)))
        CFI (cfiCond258) ?BRET_EXT load(1, XDATA, add(CFA_XSP16, literal(-3)))
        CFI (cfiCond258) DPL0 load(1, XDATA, add(CFA_XSP16, literal(-2)))
        CFI (cfiCond258) DPH0 load(1, XDATA, add(CFA_XSP16, literal(-1)))
        CFI (cfiCond258) CFA_SP SP+0
        CFI (cfiCond258) CFA_XSP16 add(XSP16, 12)
        CFI Block cfiCond259 Using cfiCommon0
        CFI (cfiCond259) NoFunction
        CFI (cfiCond259) Conditional ??CrossCallReturnLabel_84, ??CrossCallReturnLabel_0
        CFI (cfiCond259) R6 load(1, XDATA, add(CFA_XSP16, literal(-12)))
        CFI (cfiCond259) VB load(1, XDATA, add(CFA_XSP16, literal(-11)))
        CFI (cfiCond259) V0 load(1, XDATA, add(CFA_XSP16, literal(-10)))
        CFI (cfiCond259) V1 load(1, XDATA, add(CFA_XSP16, literal(-9)))
        CFI (cfiCond259) V2 load(1, XDATA, add(CFA_XSP16, literal(-8)))
        CFI (cfiCond259) V3 load(1, XDATA, add(CFA_XSP16, literal(-7)))
        CFI (cfiCond259) R7 load(1, XDATA, add(CFA_XSP16, literal(-6)))
        CFI (cfiCond259) ?RET_LOW load(1, XDATA, add(CFA_XSP16, literal(-5)))
        CFI (cfiCond259) ?RET_HIGH load(1, XDATA, add(CFA_XSP16, literal(-4)))
        CFI (cfiCond259) ?BRET_EXT load(1, XDATA, add(CFA_XSP16, literal(-3)))
        CFI (cfiCond259) DPL0 load(1, XDATA, add(CFA_XSP16, literal(-2)))
        CFI (cfiCond259) DPH0 load(1, XDATA, add(CFA_XSP16, literal(-1)))
        CFI (cfiCond259) CFA_SP SP+0
        CFI (cfiCond259) CFA_XSP16 add(XSP16, 12)
        CFI Block cfiCond260 Using cfiCommon0
        CFI (cfiCond260) NoFunction
        CFI (cfiCond260) Conditional ??CrossCallReturnLabel_84, ??CrossCallReturnLabel_1
        CFI (cfiCond260) R6 load(1, XDATA, add(CFA_XSP16, literal(-12)))
        CFI (cfiCond260) VB load(1, XDATA, add(CFA_XSP16, literal(-11)))
        CFI (cfiCond260) V0 load(1, XDATA, add(CFA_XSP16, literal(-10)))
        CFI (cfiCond260) V1 load(1, XDATA, add(CFA_XSP16, literal(-9)))
        CFI (cfiCond260) V2 load(1, XDATA, add(CFA_XSP16, literal(-8)))
        CFI (cfiCond260) V3 load(1, XDATA, add(CFA_XSP16, literal(-7)))
        CFI (cfiCond260) R7 load(1, XDATA, add(CFA_XSP16, literal(-6)))
        CFI (cfiCond260) ?RET_LOW load(1, XDATA, add(CFA_XSP16, literal(-5)))
        CFI (cfiCond260) ?RET_HIGH load(1, XDATA, add(CFA_XSP16, literal(-4)))
        CFI (cfiCond260) ?BRET_EXT load(1, XDATA, add(CFA_XSP16, literal(-3)))
        CFI (cfiCond260) DPL0 load(1, XDATA, add(CFA_XSP16, literal(-2)))
        CFI (cfiCond260) DPH0 load(1, XDATA, add(CFA_XSP16, literal(-1)))
        CFI (cfiCond260) CFA_SP SP+0
        CFI (cfiCond260) CFA_XSP16 add(XSP16, 12)
        CFI Block cfiCond261 Using cfiCommon0
        CFI (cfiCond261) NoFunction
        CFI (cfiCond261) Conditional ??CrossCallReturnLabel_84, ??CrossCallReturnLabel_2
        CFI (cfiCond261) R6 load(1, XDATA, add(CFA_XSP16, literal(-12)))
        CFI (cfiCond261) VB load(1, XDATA, add(CFA_XSP16, literal(-11)))
        CFI (cfiCond261) V0 load(1, XDATA, add(CFA_XSP16, literal(-10)))
        CFI (cfiCond261) V1 load(1, XDATA, add(CFA_XSP16, literal(-9)))
        CFI (cfiCond261) V2 load(1, XDATA, add(CFA_XSP16, literal(-8)))
        CFI (cfiCond261) V3 load(1, XDATA, add(CFA_XSP16, literal(-7)))
        CFI (cfiCond261) R7 load(1, XDATA, add(CFA_XSP16, literal(-6)))
        CFI (cfiCond261) ?RET_LOW load(1, XDATA, add(CFA_XSP16, literal(-5)))
        CFI (cfiCond261) ?RET_HIGH load(1, XDATA, add(CFA_XSP16, literal(-4)))
        CFI (cfiCond261) ?BRET_EXT load(1, XDATA, add(CFA_XSP16, literal(-3)))
        CFI (cfiCond261) DPL0 load(1, XDATA, add(CFA_XSP16, literal(-2)))
        CFI (cfiCond261) DPH0 load(1, XDATA, add(CFA_XSP16, literal(-1)))
        CFI (cfiCond261) CFA_SP SP+0
        CFI (cfiCond261) CFA_XSP16 add(XSP16, 12)
        CFI Block cfiPicker262 Using cfiCommon1
        CFI (cfiPicker262) NoFunction
        CFI (cfiPicker262) Picker
        MOV     R1,A
        MOV     DPTR,#??lastStatus
        LCALL   ??Subroutine74_0 & 0xFFFF
??CrossCallReturnLabel_194:
        MOV     DPL,?V0 + 0
        MOV     DPH,?V0 + 1
        RET
        CFI EndBlock cfiCond257
        CFI EndBlock cfiCond258
        CFI EndBlock cfiCond259
        CFI EndBlock cfiCond260
        CFI EndBlock cfiCond261
        CFI EndBlock cfiPicker262

        RSEG XDATA_Z:XDATA:NOROOT(0)
        DATA16
??lastStatus:
        DS 2
        REQUIRE __INIT_XDATA_Z
// 1378 
// 1379 
// 1380 /**@name Gizwits Áî®Êà∑APIÊé•Âè£
// 1381 * @{
// 1382 */
// 1383 
// 1384 /**
// 1385 * @brief gizwitsÂçèËÆÆÂàùÂßãÂåñÊé•Âè?
// 1386 * Áî®Êà∑Ë∞ÉÁî®ËØ•Êé•Âè£ÂèØ‰ª•ÂÆåÊàêGizwitsÂçèËÆÆÁõ∏ÂÖ≥ÂàùÂßãÂåñÔºàÂåÖÊã¨ÂçèËÆÆÁõ∏ÂÖ≥ÂÆöÊó∂Âô®„ÄÅ‰∏≤Âè£ÁöÑÂàùÂßãÔº?
// 1387 * Áî®Êà∑ÂèØÂú®Âú®Ê≠§Êé•Âè£ÂÜÖÂÆåÊàêÊï∞ÊçÆÁÇπÁöÑÂàùÂßãÂåñÁä∂ÊÄÅËÆæÁΩ?
// 1388 * @param none
// 1389 * @return none
// 1390 */

        RSEG BANKED_CODE:CODE:NOROOT(0)
// 1391 void gizwitsInit(void)
gizwitsInit:
        CFI Block cfiBlock263 Using cfiCommon0
        CFI Function gizwitsInit
        CODE
// 1392 {    
        FUNCALL gizwitsInit, osal_memset
        LOCFRAME ISTACK, 2, STACK
        LOCFRAME PSTACK, 0, STACK
        LOCFRAME XSTACK, 0, STACK
        LOCFRAME IOVERLAY, 0, STATIC
        LOCFRAME DOVERLAY, 0, STATIC
        ARGFRAME ISTACK, 2, STACK
        ARGFRAME PSTACK, 0, STACK
        ARGFRAME XSTACK, 0, STACK
        ARGFRAME IOVERLAY, 0, STATIC
        ARGFRAME DOVERLAY, 0, STATIC
        PUSH    DPL
        CFI DPL0 Frame(CFA_SP, 4)
        CFI CFA_SP SP+-4
        PUSH    DPH
        CFI DPH0 Frame(CFA_SP, 5)
        CFI CFA_SP SP+-5
        ; Saved register size: 2
        ; Auto size: 0
// 1393     pRb.rbCapacity = RB_MAX_LEN;
        MOV     DPTR,#pRb
        MOV     A,#0x3e
        MOVX    @DPTR,A
        INC     DPTR
        CLR     A
        MOVX    @DPTR,A
// 1394     pRb.rbBuff = rbBuf;
        MOV     DPTR,#pRb + 6
        MOV     A,#rbBuf & 0xff
        MOVX    @DPTR,A
        INC     DPTR
        MOV     A,#(rbBuf >> 8) & 0xff
        MOVX    @DPTR,A
// 1395     rbCreate(&pRb);
        MOV     DPTR,#pRb + 2
        MOV     A,#rbBuf & 0xff
        MOVX    @DPTR,A
        INC     DPTR
        MOV     A,#(rbBuf >> 8) & 0xff
        MOVX    @DPTR,A
        INC     DPTR
        MOV     A,#rbBuf & 0xff
        MOVX    @DPTR,A
        INC     DPTR
        MOV     A,#(rbBuf >> 8) & 0xff
        MOVX    @DPTR,A
// 1396     
// 1397     osal_memset((uint8 *)&gizwitsProtocol, 0, sizeof(gizwitsProtocol_t));
        ; Setup parameters for call to function osal_memset
        MOV     R4,#-0xa
        MOV     R5,#0x0
        MOV     R1,#0x0
        MOV     R2,#gizwitsProtocol & 0xff
        MOV     R3,#(gizwitsProtocol >> 8) & 0xff
        LCALL   ??osal_memset?relay
// 1398 }
        LJMP    ?Subroutine3 & 0xFFFF
        CFI EndBlock cfiBlock263
// 1399 
// 1400 /**
// 1401 * @brief WiFiÈÖçÁΩÆÊé•Âè£
// 1402 
// 1403 * Áî®Êà∑ÂèØ‰ª•Ë∞ÉÁî®ËØ•Êé•Âè£‰ΩøWiFiÊ®°ÁªÑËøõÂÖ•Áõ∏Â∫îÁöÑÈÖçÁΩÆÊ®°ÂºèÊàñËÄÖÂ§ç‰ΩçÊ®°Áª?
// 1404 * @param[in] mode ÈÖçÁΩÆÊ®°ÂºèÈÄâÊã©Ôº?x0Ôº?Ê®°ÁªÑÂ§ç‰Ωç ;0x01Ôº?SoftApÊ®°Âºè ;0x02Ôº?AirLinkÊ®°Âºè ;0x03Ôº?‰∫ßÊµãÊ®°ÂºèÊ®°Âºè; 0x04:ÂÖÅËÆ∏Áî®Êà∑ÁªëÂÆöËÆæÂ§á
// 1405 
// 1406 * @return ÈîôËØØÂëΩ‰ª§Á†?*/

        RSEG BANKED_CODE:CODE:NOROOT(0)
// 1407 uint32 gizwitsSetMode(uint8 mode)
gizwitsSetMode:
        CFI Block cfiBlock264 Using cfiCommon0
        CFI Function gizwitsSetMode
        CODE
// 1408 {
        FUNCALL gizwitsSetMode, gizProtocolHeadInit
        LOCFRAME ISTACK, 0, STACK
        LOCFRAME PSTACK, 0, STACK
        LOCFRAME XSTACK, 22, STACK
        LOCFRAME IOVERLAY, 0, STATIC
        LOCFRAME DOVERLAY, 0, STATIC
        ARGFRAME ISTACK, 0, STACK
        ARGFRAME PSTACK, 0, STACK
        ARGFRAME XSTACK, 22, STACK
        ARGFRAME IOVERLAY, 0, STATIC
        ARGFRAME DOVERLAY, 0, STATIC
        FUNCALL gizwitsSetMode, gizProtocolExchangeBytes
        LOCFRAME ISTACK, 0, STACK
        LOCFRAME PSTACK, 0, STACK
        LOCFRAME XSTACK, 22, STACK
        LOCFRAME IOVERLAY, 0, STATIC
        LOCFRAME DOVERLAY, 0, STATIC
        ARGFRAME ISTACK, 0, STACK
        ARGFRAME PSTACK, 0, STACK
        ARGFRAME XSTACK, 22, STACK
        ARGFRAME IOVERLAY, 0, STATIC
        ARGFRAME DOVERLAY, 0, STATIC
        FUNCALL gizwitsSetMode, gizProtocolSum
        LOCFRAME ISTACK, 0, STACK
        LOCFRAME PSTACK, 0, STACK
        LOCFRAME XSTACK, 26, STACK
        LOCFRAME IOVERLAY, 0, STATIC
        LOCFRAME DOVERLAY, 0, STATIC
        ARGFRAME ISTACK, 0, STACK
        ARGFRAME PSTACK, 0, STACK
        ARGFRAME XSTACK, 26, STACK
        ARGFRAME IOVERLAY, 0, STATIC
        ARGFRAME DOVERLAY, 0, STATIC
        FUNCALL gizwitsSetMode, uartWrite
        LOCFRAME ISTACK, 0, STACK
        LOCFRAME PSTACK, 0, STACK
        LOCFRAME XSTACK, 26, STACK
        LOCFRAME IOVERLAY, 0, STATIC
        LOCFRAME DOVERLAY, 0, STATIC
        ARGFRAME ISTACK, 0, STACK
        ARGFRAME PSTACK, 0, STACK
        ARGFRAME XSTACK, 26, STACK
        ARGFRAME IOVERLAY, 0, STATIC
        ARGFRAME DOVERLAY, 0, STATIC
        FUNCALL gizwitsSetMode, gizProtocolWaitAck
        LOCFRAME ISTACK, 0, STACK
        LOCFRAME PSTACK, 0, STACK
        LOCFRAME XSTACK, 26, STACK
        LOCFRAME IOVERLAY, 0, STATIC
        LOCFRAME DOVERLAY, 0, STATIC
        ARGFRAME ISTACK, 0, STACK
        ARGFRAME PSTACK, 0, STACK
        ARGFRAME XSTACK, 26, STACK
        ARGFRAME IOVERLAY, 0, STATIC
        ARGFRAME DOVERLAY, 0, STATIC
        MOV     A,#-0xc
        LCALL   ?BANKED_ENTER_XDATA
        CFI DPH0 load(1, XDATA, add(CFA_XSP16, literal(-1)))
        CFI DPL0 load(1, XDATA, add(CFA_XSP16, literal(-2)))
        CFI ?BRET_EXT load(1, XDATA, add(CFA_XSP16, literal(-3)))
        CFI ?RET_HIGH load(1, XDATA, add(CFA_XSP16, literal(-4)))
        CFI ?RET_LOW load(1, XDATA, add(CFA_XSP16, literal(-5)))
        CFI R7 load(1, XDATA, add(CFA_XSP16, literal(-6)))
        CFI V3 load(1, XDATA, add(CFA_XSP16, literal(-7)))
        CFI V2 load(1, XDATA, add(CFA_XSP16, literal(-8)))
        CFI V1 load(1, XDATA, add(CFA_XSP16, literal(-9)))
        CFI V0 load(1, XDATA, add(CFA_XSP16, literal(-10)))
        CFI VB load(1, XDATA, add(CFA_XSP16, literal(-11)))
        CFI R6 load(1, XDATA, add(CFA_XSP16, literal(-12)))
        CFI CFA_SP SP+0
        CFI CFA_XSP16 add(XSP16, 12)
        ; Saved register size: 12
        ; Auto size: 10
        MOV     A,#-0xa
        LCALL   ?ALLOC_XSTACK8
        CFI CFA_XSP16 add(XSP16, 22)
        MOV     A,R1
        MOV     R6,A
// 1409     uint32 ret = 0;
        MOV     DPTR,#__Constant_0
        MOV     R0,#?V0 + 0
        LCALL   ?L_MOV_X
// 1410     protocolCfgMode_t cfgMode;
// 1411     protocolCommon_t setDefault;
// 1412 
// 1413     switch(mode)
        MOV     A,#0x2
        XRL     A,R6
        JNZ     ??gizwitsSetMode_0
// 1414     {
// 1415 //        case WIFI_RESET_MODE:
// 1416 //            gizProtocolHeadInit((protocolHead_t *)&setDefault);
// 1417 //            setDefault.head.cmd = CMD_SET_DEFAULT;
// 1418 //            setDefault.head.sn = gizwitsProtocol.sn++;
// 1419 //            setDefault.head.len = gizProtocolExchangeBytes(sizeof(protocolCommon_t)-4);
// 1420 //            setDefault.sum = gizProtocolSum((uint8 *)&setDefault, sizeof(protocolCommon_t));
// 1421 //            ret = uartWrite((uint8 *)&setDefault, sizeof(protocolCommon_t));
// 1422 //            if(ret < 0)
// 1423 //            {
// 1424 //                GIZWITS_LOG("ERROR: uart write error %d \n", ret);
// 1425 //            }
// 1426 //
// 1427 //            gizProtocolWaitAck((uint8 *)&setDefault, sizeof(protocolCommon_t));   
// 1428 //            break;
// 1429 //        case WIFI_SOFTAP_MODE:
// 1430 //            gizProtocolHeadInit((protocolHead_t *)&cfgMode);
// 1431 //            cfgMode.head.cmd = CMD_WIFI_CONFIG;
// 1432 //            cfgMode.head.sn = gizwitsProtocol.sn++;
// 1433 //            cfgMode.cfgMode = mode;
// 1434 //            cfgMode.head.len = gizProtocolExchangeBytes(sizeof(protocolCfgMode_t)-4);
// 1435 //            cfgMode.sum = gizProtocolSum((uint8 *)&cfgMode, sizeof(protocolCfgMode_t));
// 1436 //            ret = uartWrite((uint8 *)&cfgMode, sizeof(protocolCfgMode_t));
// 1437 //            if(ret < 0)
// 1438 //            {
// 1439 //                GIZWITS_LOG("ERROR: uart write error %d \n", ret);
// 1440 //            }
// 1441 //            gizProtocolWaitAck((uint8 *)&cfgMode, sizeof(protocolCfgMode_t)); 
// 1442 //            break;
// 1443         case WIFI_AIRLINK_MODE:
// 1444             gizProtocolHeadInit((protocolHead_t *)&cfgMode);
        ; Setup parameters for call to function gizProtocolHeadInit
        LCALL   ?Subroutine48 & 0xFFFF
// 1445             cfgMode.head.cmd = CMD_WIFI_CONFIG;
??CrossCallReturnLabel_77:
        LCALL   ?XSTACK_DISP0_8
        MOV     A,#0x9
        LCALL   ?Subroutine20 & 0xFFFF
// 1446             cfgMode.head.sn = gizwitsProtocol.sn++;
??CrossCallReturnLabel_24:
        LCALL   ?L_MOV_X
        MOV     A,#0x5
        LCALL   ?XSTACK_DISP0_8
        LCALL   ?Subroutine21 & 0xFFFF
??CrossCallReturnLabel_27:
        LCALL   ?L_MOV_X
        MOV     DPTR,#gizwitsProtocol + 67
        MOV     R0,#?V0 + 0
        LCALL   ?L_ADD_TO_X
// 1447             cfgMode.cfgMode = mode;
        MOV     A,#0x8
        LCALL   ?XSTACK_DISP0_8
        MOV     A,#0x2
        LCALL   ?Subroutine19 & 0xFFFF
// 1448             cfgMode.head.len = gizProtocolExchangeBytes(sizeof(protocolCfgMode_t)-4);
??CrossCallReturnLabel_23:
        LCALL   ?XSTACK_DISP0_8
        LCALL   ?Subroutine12 & 0xFFFF
// 1449             cfgMode.sum = gizProtocolSum((uint8 *)&cfgMode, sizeof(protocolCfgMode_t));
??CrossCallReturnLabel_130:
        ; Setup parameters for call to function gizProtocolSum
        MOV     DPTR,#__Constant_a
        LCALL   ?PUSH_XSTACK8_X_FOUR
        CFI CFA_XSP16 add(XSP16, 26)
        MOV     A,#0x4
        LCALL   ?XSTACK_DISP0_8
        LCALL   ?Subroutine45 & 0xFFFF
??CrossCallReturnLabel_145:
        LCALL   ?DEALLOC_XSTACK8
        CFI CFA_XSP16 add(XSP16, 22)
        MOV     A,#0x9
        LCALL   ?XSTACK_DISP0_8
        MOV     A,R1
        MOVX    @DPTR,A
// 1450             ret = uartWrite((uint8 *)&cfgMode, sizeof(protocolCfgMode_t));
        ; Setup parameters for call to function uartWrite
        MOV     DPTR,#__Constant_a
        LCALL   ?PUSH_XSTACK8_X_FOUR
        CFI CFA_XSP16 add(XSP16, 26)
        MOV     A,#0x4
        LCALL   ?XSTACK_DISP0_8
        LCALL   ?Subroutine46 & 0xFFFF
??CrossCallReturnLabel_137:
        LCALL   ?DEALLOC_XSTACK8
        CFI CFA_XSP16 add(XSP16, 22)
        MOV     ?V0 + 0,R2
        MOV     ?V0 + 1,R3
        MOV     ?V0 + 2,R4
        MOV     ?V0 + 3,R5
// 1451             if(ret == 0)
// 1452             {
// 1453                 GIZWITS_LOG("ERROR: uart write error %d \n", ret);
// 1454             }
// 1455             gizProtocolWaitAck((uint8 *)&cfgMode, sizeof(protocolCfgMode_t)); 
        ; Setup parameters for call to function gizProtocolWaitAck
        MOV     DPTR,#__Constant_a
        LCALL   ?PUSH_XSTACK8_X_FOUR
        CFI CFA_XSP16 add(XSP16, 26)
        MOV     A,#0x4
        LCALL   ?XSTACK_DISP0_8
        MOV     R2,DPL
        MOV     R3,DPH
        LCALL   ??gizProtocolWaitAck?relay
        MOV     A,#0x4
        LCALL   ?DEALLOC_XSTACK8
        CFI CFA_XSP16 add(XSP16, 22)
// 1456             break;
// 1457 //        case WIFI_PRODUCTION_TEST:
// 1458 //            gizProtocolHeadInit((protocolHead_t *)&setDefault);
// 1459 //            setDefault.head.cmd = CMD_PRODUCTION_TEST;
// 1460 //            setDefault.head.sn = gizwitsProtocol.sn++;
// 1461 //            setDefault.head.len = gizProtocolExchangeBytes(sizeof(protocolCommon_t)-4);
// 1462 //            setDefault.sum = gizProtocolSum((uint8 *)&setDefault, sizeof(protocolCommon_t));
// 1463 //            ret = uartWrite((uint8 *)&setDefault, sizeof(protocolCommon_t));
// 1464 //            if(ret < 0)
// 1465 //            {
// 1466 //                GIZWITS_LOG("ERROR: uart write error %d \n", ret);
// 1467 //            }
// 1468 //
// 1469 //            gizProtocolWaitAck((uint8 *)&setDefault, sizeof(protocolCommon_t));
// 1470 //            break;
// 1471 //        case WIFI_NINABLE_MODE:
// 1472 //            gizProtocolHeadInit((protocolHead_t *)&setDefault);
// 1473 //            setDefault.head.cmd = CMD_NINABLE_MODE;
// 1474 //            setDefault.head.sn = gizwitsProtocol.sn++;
// 1475 //            setDefault.head.len = gizProtocolExchangeBytes(sizeof(protocolCommon_t)-4);
// 1476 //            setDefault.sum = gizProtocolSum((uint8 *)&setDefault, sizeof(protocolCommon_t));
// 1477 //            ret = uartWrite((uint8 *)&setDefault, sizeof(protocolCommon_t));
// 1478 //            if(ret < 0)
// 1479 //            {
// 1480 //                GIZWITS_LOG("ERROR: uart write error %d \n", ret);
// 1481 //            }
// 1482 //
// 1483 //            gizProtocolWaitAck((uint8 *)&setDefault, sizeof(protocolCommon_t)); 
// 1484 //            break;
// 1485         default:
// 1486             GIZWITS_LOG("ERROR: CfgMode error!\n");
// 1487             break;
// 1488     }
// 1489 
// 1490     return ret;
??gizwitsSetMode_0:
        MOV     R2,?V0 + 0
        MOV     R3,?V0 + 1
        MOV     R4,?V0 + 2
        MOV     R5,?V0 + 3
        MOV     A,#0xa
        CFI EndBlock cfiBlock264
        REQUIRE ?Subroutine7
        ; // Fall through to label ?Subroutine7
// 1491 }

        RSEG BANKED_CODE:CODE:NOROOT(0)
?Subroutine7:
        CFI Block cfiBlock265 Using cfiCommon0
        CFI NoFunction
        CFI CFA_SP SP+0
        CFI CFA_XSP16 add(XSP16, 22)
        CFI VB load(1, XDATA, add(CFA_XSP16, literal(-11)))
        CFI DPL0 load(1, XDATA, add(CFA_XSP16, literal(-2)))
        CFI DPH0 load(1, XDATA, add(CFA_XSP16, literal(-1)))
        CFI R6 load(1, XDATA, add(CFA_XSP16, literal(-12)))
        CFI R7 load(1, XDATA, add(CFA_XSP16, literal(-6)))
        CFI V0 load(1, XDATA, add(CFA_XSP16, literal(-10)))
        CFI V1 load(1, XDATA, add(CFA_XSP16, literal(-9)))
        CFI V2 load(1, XDATA, add(CFA_XSP16, literal(-8)))
        CFI V3 load(1, XDATA, add(CFA_XSP16, literal(-7)))
        CFI ?BRET_EXT load(1, XDATA, add(CFA_XSP16, literal(-3)))
        CFI ?RET_HIGH load(1, XDATA, add(CFA_XSP16, literal(-4)))
        CFI ?RET_LOW load(1, XDATA, add(CFA_XSP16, literal(-5)))
        CFI Invalid
        LCALL   ?DEALLOC_XSTACK8
        CFI EndBlock cfiBlock265
        REQUIRE ??Subroutine69_0
        ; // Fall through to label ??Subroutine69_0

        RSEG BANKED_CODE:CODE:NOROOT(0)
??Subroutine69_0:
        CFI Block cfiBlock266 Using cfiCommon0
        CFI NoFunction
        CFI CFA_SP SP+0
        CFI CFA_XSP16 add(XSP16, 12)
        CFI VB load(1, XDATA, add(CFA_XSP16, literal(-11)))
        CFI DPL0 load(1, XDATA, add(CFA_XSP16, literal(-2)))
        CFI DPH0 load(1, XDATA, add(CFA_XSP16, literal(-1)))
        CFI R6 load(1, XDATA, add(CFA_XSP16, literal(-12)))
        CFI R7 load(1, XDATA, add(CFA_XSP16, literal(-6)))
        CFI V0 load(1, XDATA, add(CFA_XSP16, literal(-10)))
        CFI V1 load(1, XDATA, add(CFA_XSP16, literal(-9)))
        CFI V2 load(1, XDATA, add(CFA_XSP16, literal(-8)))
        CFI V3 load(1, XDATA, add(CFA_XSP16, literal(-7)))
        CFI ?BRET_EXT load(1, XDATA, add(CFA_XSP16, literal(-3)))
        CFI ?RET_HIGH load(1, XDATA, add(CFA_XSP16, literal(-4)))
        CFI ?RET_LOW load(1, XDATA, add(CFA_XSP16, literal(-5)))
        MOV     R7,#0x4
        LJMP    ?BANKED_LEAVE_XDATA
        CFI EndBlock cfiBlock266

        RSEG BANKED_CODE:CODE:NOROOT(0)
?Subroutine48:
        CFI Block cfiCond267 Using cfiCommon0
        CFI NoFunction
        CFI Conditional ??CrossCallReturnLabel_75
        CFI R6 load(1, XDATA, add(CFA_XSP16, literal(-11)))
        CFI VB load(1, XDATA, add(CFA_XSP16, literal(-10)))
        CFI V0 load(1, XDATA, add(CFA_XSP16, literal(-9)))
        CFI V1 load(1, XDATA, add(CFA_XSP16, literal(-8)))
        CFI V2 load(1, XDATA, add(CFA_XSP16, literal(-7)))
        CFI R7 load(1, XDATA, add(CFA_XSP16, literal(-6)))
        CFI ?RET_LOW load(1, XDATA, add(CFA_XSP16, literal(-5)))
        CFI ?RET_HIGH load(1, XDATA, add(CFA_XSP16, literal(-4)))
        CFI ?BRET_EXT load(1, XDATA, add(CFA_XSP16, literal(-3)))
        CFI DPL0 load(1, XDATA, add(CFA_XSP16, literal(-2)))
        CFI DPH0 load(1, XDATA, add(CFA_XSP16, literal(-1)))
        CFI CFA_SP SP+0
        CFI CFA_XSP16 add(XSP16, 126)
        CFI Block cfiCond268 Using cfiCommon0
        CFI (cfiCond268) NoFunction
        CFI (cfiCond268) Conditional ??CrossCallReturnLabel_76
        CFI (cfiCond268) R6 load(1, XDATA, add(CFA_XSP16, literal(-9)))
        CFI (cfiCond268) VB load(1, XDATA, add(CFA_XSP16, literal(-8)))
        CFI (cfiCond268) V0 load(1, XDATA, add(CFA_XSP16, literal(-7)))
        CFI (cfiCond268) R7 load(1, XDATA, add(CFA_XSP16, literal(-6)))
        CFI (cfiCond268) ?RET_LOW load(1, XDATA, add(CFA_XSP16, literal(-5)))
        CFI (cfiCond268) ?RET_HIGH load(1, XDATA, add(CFA_XSP16, literal(-4)))
        CFI (cfiCond268) ?BRET_EXT load(1, XDATA, add(CFA_XSP16, literal(-3)))
        CFI (cfiCond268) DPL0 load(1, XDATA, add(CFA_XSP16, literal(-2)))
        CFI (cfiCond268) DPH0 load(1, XDATA, add(CFA_XSP16, literal(-1)))
        CFI (cfiCond268) CFA_SP SP+0
        CFI (cfiCond268) CFA_XSP16 add(XSP16, 19)
        CFI Block cfiCond269 Using cfiCommon0
        CFI (cfiCond269) NoFunction
        CFI (cfiCond269) Conditional ??CrossCallReturnLabel_77
        CFI (cfiCond269) R6 load(1, XDATA, add(CFA_XSP16, literal(-12)))
        CFI (cfiCond269) VB load(1, XDATA, add(CFA_XSP16, literal(-11)))
        CFI (cfiCond269) V0 load(1, XDATA, add(CFA_XSP16, literal(-10)))
        CFI (cfiCond269) V1 load(1, XDATA, add(CFA_XSP16, literal(-9)))
        CFI (cfiCond269) V2 load(1, XDATA, add(CFA_XSP16, literal(-8)))
        CFI (cfiCond269) V3 load(1, XDATA, add(CFA_XSP16, literal(-7)))
        CFI (cfiCond269) R7 load(1, XDATA, add(CFA_XSP16, literal(-6)))
        CFI (cfiCond269) ?RET_LOW load(1, XDATA, add(CFA_XSP16, literal(-5)))
        CFI (cfiCond269) ?RET_HIGH load(1, XDATA, add(CFA_XSP16, literal(-4)))
        CFI (cfiCond269) ?BRET_EXT load(1, XDATA, add(CFA_XSP16, literal(-3)))
        CFI (cfiCond269) DPL0 load(1, XDATA, add(CFA_XSP16, literal(-2)))
        CFI (cfiCond269) DPH0 load(1, XDATA, add(CFA_XSP16, literal(-1)))
        CFI (cfiCond269) CFA_SP SP+0
        CFI (cfiCond269) CFA_XSP16 add(XSP16, 22)
        CFI Block cfiCond270 Using cfiCommon0
        CFI (cfiCond270) NoFunction
        CFI (cfiCond270) Conditional ??CrossCallReturnLabel_78
        CFI (cfiCond270) R6 load(1, XDATA, add(CFA_XSP16, literal(-12)))
        CFI (cfiCond270) VB load(1, XDATA, add(CFA_XSP16, literal(-11)))
        CFI (cfiCond270) V0 load(1, XDATA, add(CFA_XSP16, literal(-10)))
        CFI (cfiCond270) V1 load(1, XDATA, add(CFA_XSP16, literal(-9)))
        CFI (cfiCond270) V2 load(1, XDATA, add(CFA_XSP16, literal(-8)))
        CFI (cfiCond270) V3 load(1, XDATA, add(CFA_XSP16, literal(-7)))
        CFI (cfiCond270) R7 load(1, XDATA, add(CFA_XSP16, literal(-6)))
        CFI (cfiCond270) ?RET_LOW load(1, XDATA, add(CFA_XSP16, literal(-5)))
        CFI (cfiCond270) ?RET_HIGH load(1, XDATA, add(CFA_XSP16, literal(-4)))
        CFI (cfiCond270) ?BRET_EXT load(1, XDATA, add(CFA_XSP16, literal(-3)))
        CFI (cfiCond270) DPL0 load(1, XDATA, add(CFA_XSP16, literal(-2)))
        CFI (cfiCond270) DPH0 load(1, XDATA, add(CFA_XSP16, literal(-1)))
        CFI (cfiCond270) CFA_SP SP+0
        CFI (cfiCond270) CFA_XSP16 add(XSP16, 21)
        CFI Block cfiPicker271 Using cfiCommon1
        CFI (cfiPicker271) NoFunction
        CFI (cfiPicker271) Picker
        MOV     DPL,?XSP + 0
        MOV     DPH,?XSP + 1
        MOV     R2,DPL
        MOV     R3,DPH
        LCALL   ??gizProtocolHeadInit?relay
        MOV     A,#0x4
        RET
        CFI EndBlock cfiCond267
        CFI EndBlock cfiCond268
        CFI EndBlock cfiCond269
        CFI EndBlock cfiCond270
        CFI EndBlock cfiPicker271

        RSEG BANKED_CODE:CODE:NOROOT(0)
?Subroutine19:
        CFI Block cfiCond272 Using cfiCommon0
        CFI NoFunction
        CFI Conditional ??CrossCallReturnLabel_22
        CFI R6 load(1, XDATA, add(CFA_XSP16, literal(-9)))
        CFI VB load(1, XDATA, add(CFA_XSP16, literal(-8)))
        CFI V0 load(1, XDATA, add(CFA_XSP16, literal(-7)))
        CFI R7 load(1, XDATA, add(CFA_XSP16, literal(-6)))
        CFI ?RET_LOW load(1, XDATA, add(CFA_XSP16, literal(-5)))
        CFI ?RET_HIGH load(1, XDATA, add(CFA_XSP16, literal(-4)))
        CFI ?BRET_EXT load(1, XDATA, add(CFA_XSP16, literal(-3)))
        CFI DPL0 load(1, XDATA, add(CFA_XSP16, literal(-2)))
        CFI DPH0 load(1, XDATA, add(CFA_XSP16, literal(-1)))
        CFI CFA_SP SP+0
        CFI CFA_XSP16 add(XSP16, 19)
        CFI Block cfiCond273 Using cfiCommon0
        CFI (cfiCond273) NoFunction
        CFI (cfiCond273) Conditional ??CrossCallReturnLabel_23
        CFI (cfiCond273) R6 load(1, XDATA, add(CFA_XSP16, literal(-12)))
        CFI (cfiCond273) VB load(1, XDATA, add(CFA_XSP16, literal(-11)))
        CFI (cfiCond273) V0 load(1, XDATA, add(CFA_XSP16, literal(-10)))
        CFI (cfiCond273) V1 load(1, XDATA, add(CFA_XSP16, literal(-9)))
        CFI (cfiCond273) V2 load(1, XDATA, add(CFA_XSP16, literal(-8)))
        CFI (cfiCond273) V3 load(1, XDATA, add(CFA_XSP16, literal(-7)))
        CFI (cfiCond273) R7 load(1, XDATA, add(CFA_XSP16, literal(-6)))
        CFI (cfiCond273) ?RET_LOW load(1, XDATA, add(CFA_XSP16, literal(-5)))
        CFI (cfiCond273) ?RET_HIGH load(1, XDATA, add(CFA_XSP16, literal(-4)))
        CFI (cfiCond273) ?BRET_EXT load(1, XDATA, add(CFA_XSP16, literal(-3)))
        CFI (cfiCond273) DPL0 load(1, XDATA, add(CFA_XSP16, literal(-2)))
        CFI (cfiCond273) DPH0 load(1, XDATA, add(CFA_XSP16, literal(-1)))
        CFI (cfiCond273) CFA_SP SP+0
        CFI (cfiCond273) CFA_XSP16 add(XSP16, 22)
        CFI Block cfiPicker274 Using cfiCommon1
        CFI (cfiPicker274) NoFunction
        CFI (cfiPicker274) Picker
        MOVX    @DPTR,A
        ; Setup parameters for call to function gizProtocolExchangeBytes
        ; Setup parameters for call to function gizProtocolExchangeBytes
        MOV     R2,#0x6
        LCALL   ??Subroutine63_0 & 0xFFFF
??CrossCallReturnLabel_122:
        RET
        CFI EndBlock cfiCond272
        CFI EndBlock cfiCond273
        CFI EndBlock cfiPicker274
// 1492 
// 1493 /**
// 1494 * @brief Ëé∑ÂèñÁΩëÁªúÊó∂Èó¥ÁöÑÊé•Âè?
// 1495 * ÂØπÂ∫îÂçèËÆÆ 4.13 MCUËØ∑Ê±ÇËé∑ÂèñÁΩëÁªúÊó∂Èó¥ ‰∏≠ÁöÑ ËÆæÂ§áMCUÂèëÈÄ?
// 1496 * @param[in] none
// 1497 * @return none
// 1498 */

        RSEG BANKED_CODE:CODE:NOROOT(0)
// 1499 void gizwitsGetNTP(void)
gizwitsGetNTP:
        CFI Block cfiBlock275 Using cfiCommon0
        CFI Function gizwitsGetNTP
        CODE
// 1500 {
        FUNCALL gizwitsGetNTP, gizProtocolHeadInit
        LOCFRAME ISTACK, 0, STACK
        LOCFRAME PSTACK, 0, STACK
        LOCFRAME XSTACK, 21, STACK
        LOCFRAME IOVERLAY, 0, STATIC
        LOCFRAME DOVERLAY, 0, STATIC
        ARGFRAME ISTACK, 0, STACK
        ARGFRAME PSTACK, 0, STACK
        ARGFRAME XSTACK, 21, STACK
        ARGFRAME IOVERLAY, 0, STATIC
        ARGFRAME DOVERLAY, 0, STATIC
        FUNCALL gizwitsGetNTP, gizProtocolExchangeBytes
        LOCFRAME ISTACK, 0, STACK
        LOCFRAME PSTACK, 0, STACK
        LOCFRAME XSTACK, 21, STACK
        LOCFRAME IOVERLAY, 0, STATIC
        LOCFRAME DOVERLAY, 0, STATIC
        ARGFRAME ISTACK, 0, STACK
        ARGFRAME PSTACK, 0, STACK
        ARGFRAME XSTACK, 21, STACK
        ARGFRAME IOVERLAY, 0, STATIC
        ARGFRAME DOVERLAY, 0, STATIC
        FUNCALL gizwitsGetNTP, gizProtocolSum
        LOCFRAME ISTACK, 0, STACK
        LOCFRAME PSTACK, 0, STACK
        LOCFRAME XSTACK, 25, STACK
        LOCFRAME IOVERLAY, 0, STATIC
        LOCFRAME DOVERLAY, 0, STATIC
        ARGFRAME ISTACK, 0, STACK
        ARGFRAME PSTACK, 0, STACK
        ARGFRAME XSTACK, 25, STACK
        ARGFRAME IOVERLAY, 0, STATIC
        ARGFRAME DOVERLAY, 0, STATIC
        FUNCALL gizwitsGetNTP, uartWrite
        LOCFRAME ISTACK, 0, STACK
        LOCFRAME PSTACK, 0, STACK
        LOCFRAME XSTACK, 25, STACK
        LOCFRAME IOVERLAY, 0, STATIC
        LOCFRAME DOVERLAY, 0, STATIC
        ARGFRAME ISTACK, 0, STACK
        ARGFRAME PSTACK, 0, STACK
        ARGFRAME XSTACK, 25, STACK
        ARGFRAME IOVERLAY, 0, STATIC
        ARGFRAME DOVERLAY, 0, STATIC
        FUNCALL gizwitsGetNTP, gizProtocolWaitAck
        LOCFRAME ISTACK, 0, STACK
        LOCFRAME PSTACK, 0, STACK
        LOCFRAME XSTACK, 25, STACK
        LOCFRAME IOVERLAY, 0, STATIC
        LOCFRAME DOVERLAY, 0, STATIC
        ARGFRAME ISTACK, 0, STACK
        ARGFRAME PSTACK, 0, STACK
        ARGFRAME XSTACK, 25, STACK
        ARGFRAME IOVERLAY, 0, STATIC
        ARGFRAME DOVERLAY, 0, STATIC
        MOV     A,#-0xc
        LCALL   ?BANKED_ENTER_XDATA
        CFI DPH0 load(1, XDATA, add(CFA_XSP16, literal(-1)))
        CFI DPL0 load(1, XDATA, add(CFA_XSP16, literal(-2)))
        CFI ?BRET_EXT load(1, XDATA, add(CFA_XSP16, literal(-3)))
        CFI ?RET_HIGH load(1, XDATA, add(CFA_XSP16, literal(-4)))
        CFI ?RET_LOW load(1, XDATA, add(CFA_XSP16, literal(-5)))
        CFI R7 load(1, XDATA, add(CFA_XSP16, literal(-6)))
        CFI V3 load(1, XDATA, add(CFA_XSP16, literal(-7)))
        CFI V2 load(1, XDATA, add(CFA_XSP16, literal(-8)))
        CFI V1 load(1, XDATA, add(CFA_XSP16, literal(-9)))
        CFI V0 load(1, XDATA, add(CFA_XSP16, literal(-10)))
        CFI VB load(1, XDATA, add(CFA_XSP16, literal(-11)))
        CFI R6 load(1, XDATA, add(CFA_XSP16, literal(-12)))
        CFI CFA_SP SP+0
        CFI CFA_XSP16 add(XSP16, 12)
        ; Saved register size: 12
        ; Auto size: 9
        MOV     A,#-0x9
        LCALL   ?ALLOC_XSTACK8
        CFI CFA_XSP16 add(XSP16, 21)
// 1501     int32 ret = 0;
// 1502     protocolCommon_t getNTP;
// 1503 
// 1504     gizProtocolHeadInit((protocolHead_t *)&getNTP);
        ; Setup parameters for call to function gizProtocolHeadInit
        LCALL   ?Subroutine48 & 0xFFFF
// 1505     getNTP.head.cmd = CMD_GET_NTP;
??CrossCallReturnLabel_78:
        LCALL   ?XSTACK_DISP0_8
        MOV     A,#0x17
        LCALL   ?Subroutine20 & 0xFFFF
// 1506     getNTP.head.sn = gizwitsProtocol.sn++;
??CrossCallReturnLabel_25:
        LCALL   ?L_MOV_X
        MOV     A,#0x5
        LCALL   ?XSTACK_DISP0_8
        LCALL   ?Subroutine21 & 0xFFFF
??CrossCallReturnLabel_28:
        LCALL   ?L_MOV_X
        MOV     DPTR,#gizwitsProtocol + 67
        MOV     R0,#?V0 + 0
        LCALL   ?L_ADD_TO_X
// 1507     getNTP.head.len = gizProtocolExchangeBytes(sizeof(protocolCommon_t)-4);
        ; Setup parameters for call to function gizProtocolExchangeBytes
        LCALL   ?Subroutine59 & 0xFFFF
??CrossCallReturnLabel_120:
        LCALL   ?XSTACK_DISP0_8
        LCALL   ?Subroutine12 & 0xFFFF
// 1508     getNTP.sum = gizProtocolSum((uint8 *)&getNTP, sizeof(protocolCommon_t));
??CrossCallReturnLabel_131:
        ; Setup parameters for call to function gizProtocolSum
        MOV     DPTR,#__Constant_9
        LCALL   ?PUSH_XSTACK8_X_FOUR
        CFI CFA_XSP16 add(XSP16, 25)
        MOV     A,#0x4
        LCALL   ?XSTACK_DISP0_8
        LCALL   ?Subroutine45 & 0xFFFF
??CrossCallReturnLabel_146:
        LCALL   ?DEALLOC_XSTACK8
        CFI CFA_XSP16 add(XSP16, 21)
        MOV     A,#0x8
        LCALL   ?XSTACK_DISP0_8
        MOV     A,R1
        MOVX    @DPTR,A
// 1509     ret = uartWrite((uint8 *)&getNTP, sizeof(protocolCommon_t));
        ; Setup parameters for call to function uartWrite
        MOV     DPTR,#__Constant_9
        LCALL   ?PUSH_XSTACK8_X_FOUR
        CFI CFA_XSP16 add(XSP16, 25)
        MOV     A,#0x4
        LCALL   ?XSTACK_DISP0_8
        LCALL   ?Subroutine46 & 0xFFFF
??CrossCallReturnLabel_138:
        LCALL   ?DEALLOC_XSTACK8
        CFI CFA_XSP16 add(XSP16, 21)
// 1510     if(ret < 0)
// 1511     {
// 1512         GIZWITS_LOG("ERROR[NTP]: uart write error %d \n", ret);
// 1513     }
// 1514 
// 1515     gizProtocolWaitAck((uint8 *)&getNTP, sizeof(protocolCommon_t));
        ; Setup parameters for call to function gizProtocolWaitAck
        MOV     DPTR,#__Constant_9
        LCALL   ?PUSH_XSTACK8_X_FOUR
        CFI CFA_XSP16 add(XSP16, 25)
        MOV     A,#0x4
        LCALL   ?XSTACK_DISP0_8
        MOV     R2,DPL
        MOV     R3,DPH
        LCALL   ??gizProtocolWaitAck?relay
        MOV     A,#0x4
        LCALL   ?DEALLOC_XSTACK8
        CFI CFA_XSP16 add(XSP16, 21)
// 1516 }
        MOV     A,#0x9
        LJMP    ?Subroutine7 & 0xFFFF
        CFI EndBlock cfiBlock275

        RSEG BANKED_CODE:CODE:NOROOT(0)
?Subroutine21:
        CFI Block cfiCond276 Using cfiCommon0
        CFI NoFunction
        CFI Conditional ??CrossCallReturnLabel_27
        CFI R6 load(1, XDATA, add(CFA_XSP16, literal(-12)))
        CFI VB load(1, XDATA, add(CFA_XSP16, literal(-11)))
        CFI V0 load(1, XDATA, add(CFA_XSP16, literal(-10)))
        CFI V1 load(1, XDATA, add(CFA_XSP16, literal(-9)))
        CFI V2 load(1, XDATA, add(CFA_XSP16, literal(-8)))
        CFI V3 load(1, XDATA, add(CFA_XSP16, literal(-7)))
        CFI R7 load(1, XDATA, add(CFA_XSP16, literal(-6)))
        CFI ?RET_LOW load(1, XDATA, add(CFA_XSP16, literal(-5)))
        CFI ?RET_HIGH load(1, XDATA, add(CFA_XSP16, literal(-4)))
        CFI ?BRET_EXT load(1, XDATA, add(CFA_XSP16, literal(-3)))
        CFI DPL0 load(1, XDATA, add(CFA_XSP16, literal(-2)))
        CFI DPH0 load(1, XDATA, add(CFA_XSP16, literal(-1)))
        CFI CFA_SP SP+0
        CFI CFA_XSP16 add(XSP16, 22)
        CFI Block cfiCond277 Using cfiCommon0
        CFI (cfiCond277) NoFunction
        CFI (cfiCond277) Conditional ??CrossCallReturnLabel_28
        CFI (cfiCond277) R6 load(1, XDATA, add(CFA_XSP16, literal(-12)))
        CFI (cfiCond277) VB load(1, XDATA, add(CFA_XSP16, literal(-11)))
        CFI (cfiCond277) V0 load(1, XDATA, add(CFA_XSP16, literal(-10)))
        CFI (cfiCond277) V1 load(1, XDATA, add(CFA_XSP16, literal(-9)))
        CFI (cfiCond277) V2 load(1, XDATA, add(CFA_XSP16, literal(-8)))
        CFI (cfiCond277) V3 load(1, XDATA, add(CFA_XSP16, literal(-7)))
        CFI (cfiCond277) R7 load(1, XDATA, add(CFA_XSP16, literal(-6)))
        CFI (cfiCond277) ?RET_LOW load(1, XDATA, add(CFA_XSP16, literal(-5)))
        CFI (cfiCond277) ?RET_HIGH load(1, XDATA, add(CFA_XSP16, literal(-4)))
        CFI (cfiCond277) ?BRET_EXT load(1, XDATA, add(CFA_XSP16, literal(-3)))
        CFI (cfiCond277) DPL0 load(1, XDATA, add(CFA_XSP16, literal(-2)))
        CFI (cfiCond277) DPH0 load(1, XDATA, add(CFA_XSP16, literal(-1)))
        CFI (cfiCond277) CFA_SP SP+0
        CFI (cfiCond277) CFA_XSP16 add(XSP16, 21)
        CFI Block cfiCond278 Using cfiCommon0
        CFI (cfiCond278) NoFunction
        CFI (cfiCond278) Conditional ??CrossCallReturnLabel_29
        CFI (cfiCond278) R6 load(1, XDATA, add(CFA_XSP16, literal(-16)))
        CFI (cfiCond278) VB load(1, XDATA, add(CFA_XSP16, literal(-15)))
        CFI (cfiCond278) V0 load(1, XDATA, add(CFA_XSP16, literal(-14)))
        CFI (cfiCond278) V1 load(1, XDATA, add(CFA_XSP16, literal(-13)))
        CFI (cfiCond278) V2 load(1, XDATA, add(CFA_XSP16, literal(-12)))
        CFI (cfiCond278) V3 load(1, XDATA, add(CFA_XSP16, literal(-11)))
        CFI (cfiCond278) V4 load(1, XDATA, add(CFA_XSP16, literal(-10)))
        CFI (cfiCond278) V5 load(1, XDATA, add(CFA_XSP16, literal(-9)))
        CFI (cfiCond278) V6 load(1, XDATA, add(CFA_XSP16, literal(-8)))
        CFI (cfiCond278) V7 load(1, XDATA, add(CFA_XSP16, literal(-7)))
        CFI (cfiCond278) R7 load(1, XDATA, add(CFA_XSP16, literal(-6)))
        CFI (cfiCond278) ?RET_LOW load(1, XDATA, add(CFA_XSP16, literal(-5)))
        CFI (cfiCond278) ?RET_HIGH load(1, XDATA, add(CFA_XSP16, literal(-4)))
        CFI (cfiCond278) ?BRET_EXT load(1, XDATA, add(CFA_XSP16, literal(-3)))
        CFI (cfiCond278) DPL0 load(1, XDATA, add(CFA_XSP16, literal(-2)))
        CFI (cfiCond278) DPH0 load(1, XDATA, add(CFA_XSP16, literal(-1)))
        CFI (cfiCond278) CFA_SP SP+0
        CFI (cfiCond278) CFA_XSP16 add(XSP16, 47)
        CFI Block cfiPicker279 Using cfiCommon1
        CFI (cfiPicker279) NoFunction
        CFI (cfiPicker279) Picker
        MOV     A,?V0 + 0
        MOVX    @DPTR,A
        MOV     DPTR,#__Constant_1
        MOV     R0,#?V0 + 0
        RET
        CFI EndBlock cfiCond276
        CFI EndBlock cfiCond277
        CFI EndBlock cfiCond278
        CFI EndBlock cfiPicker279

        RSEG BANKED_CODE:CODE:NOROOT(0)
?Subroutine20:
        CFI Block cfiCond280 Using cfiCommon0
        CFI NoFunction
        CFI Conditional ??CrossCallReturnLabel_24
        CFI R6 load(1, XDATA, add(CFA_XSP16, literal(-12)))
        CFI VB load(1, XDATA, add(CFA_XSP16, literal(-11)))
        CFI V0 load(1, XDATA, add(CFA_XSP16, literal(-10)))
        CFI V1 load(1, XDATA, add(CFA_XSP16, literal(-9)))
        CFI V2 load(1, XDATA, add(CFA_XSP16, literal(-8)))
        CFI V3 load(1, XDATA, add(CFA_XSP16, literal(-7)))
        CFI R7 load(1, XDATA, add(CFA_XSP16, literal(-6)))
        CFI ?RET_LOW load(1, XDATA, add(CFA_XSP16, literal(-5)))
        CFI ?RET_HIGH load(1, XDATA, add(CFA_XSP16, literal(-4)))
        CFI ?BRET_EXT load(1, XDATA, add(CFA_XSP16, literal(-3)))
        CFI DPL0 load(1, XDATA, add(CFA_XSP16, literal(-2)))
        CFI DPH0 load(1, XDATA, add(CFA_XSP16, literal(-1)))
        CFI CFA_SP SP+0
        CFI CFA_XSP16 add(XSP16, 22)
        CFI Block cfiCond281 Using cfiCommon0
        CFI (cfiCond281) NoFunction
        CFI (cfiCond281) Conditional ??CrossCallReturnLabel_25
        CFI (cfiCond281) R6 load(1, XDATA, add(CFA_XSP16, literal(-12)))
        CFI (cfiCond281) VB load(1, XDATA, add(CFA_XSP16, literal(-11)))
        CFI (cfiCond281) V0 load(1, XDATA, add(CFA_XSP16, literal(-10)))
        CFI (cfiCond281) V1 load(1, XDATA, add(CFA_XSP16, literal(-9)))
        CFI (cfiCond281) V2 load(1, XDATA, add(CFA_XSP16, literal(-8)))
        CFI (cfiCond281) V3 load(1, XDATA, add(CFA_XSP16, literal(-7)))
        CFI (cfiCond281) R7 load(1, XDATA, add(CFA_XSP16, literal(-6)))
        CFI (cfiCond281) ?RET_LOW load(1, XDATA, add(CFA_XSP16, literal(-5)))
        CFI (cfiCond281) ?RET_HIGH load(1, XDATA, add(CFA_XSP16, literal(-4)))
        CFI (cfiCond281) ?BRET_EXT load(1, XDATA, add(CFA_XSP16, literal(-3)))
        CFI (cfiCond281) DPL0 load(1, XDATA, add(CFA_XSP16, literal(-2)))
        CFI (cfiCond281) DPH0 load(1, XDATA, add(CFA_XSP16, literal(-1)))
        CFI (cfiCond281) CFA_SP SP+0
        CFI (cfiCond281) CFA_XSP16 add(XSP16, 21)
        CFI Block cfiCond282 Using cfiCommon0
        CFI (cfiCond282) NoFunction
        CFI (cfiCond282) Conditional ??CrossCallReturnLabel_26
        CFI (cfiCond282) R6 load(1, XDATA, add(CFA_XSP16, literal(-16)))
        CFI (cfiCond282) VB load(1, XDATA, add(CFA_XSP16, literal(-15)))
        CFI (cfiCond282) V0 load(1, XDATA, add(CFA_XSP16, literal(-14)))
        CFI (cfiCond282) V1 load(1, XDATA, add(CFA_XSP16, literal(-13)))
        CFI (cfiCond282) V2 load(1, XDATA, add(CFA_XSP16, literal(-12)))
        CFI (cfiCond282) V3 load(1, XDATA, add(CFA_XSP16, literal(-11)))
        CFI (cfiCond282) V4 load(1, XDATA, add(CFA_XSP16, literal(-10)))
        CFI (cfiCond282) V5 load(1, XDATA, add(CFA_XSP16, literal(-9)))
        CFI (cfiCond282) V6 load(1, XDATA, add(CFA_XSP16, literal(-8)))
        CFI (cfiCond282) V7 load(1, XDATA, add(CFA_XSP16, literal(-7)))
        CFI (cfiCond282) R7 load(1, XDATA, add(CFA_XSP16, literal(-6)))
        CFI (cfiCond282) ?RET_LOW load(1, XDATA, add(CFA_XSP16, literal(-5)))
        CFI (cfiCond282) ?RET_HIGH load(1, XDATA, add(CFA_XSP16, literal(-4)))
        CFI (cfiCond282) ?BRET_EXT load(1, XDATA, add(CFA_XSP16, literal(-3)))
        CFI (cfiCond282) DPL0 load(1, XDATA, add(CFA_XSP16, literal(-2)))
        CFI (cfiCond282) DPH0 load(1, XDATA, add(CFA_XSP16, literal(-1)))
        CFI (cfiCond282) CFA_SP SP+0
        CFI (cfiCond282) CFA_XSP16 add(XSP16, 47)
        CFI Block cfiPicker283 Using cfiCommon1
        CFI (cfiPicker283) NoFunction
        CFI (cfiPicker283) Picker
        MOVX    @DPTR,A
        MOV     DPTR,#gizwitsProtocol + 67
        MOV     R0,#?V0 + 0
        RET
        CFI EndBlock cfiCond280
        CFI EndBlock cfiCond281
        CFI EndBlock cfiCond282
        CFI EndBlock cfiPicker283
// 1517 
// 1518 /**
// 1519 * @brief ÂçèËÆÆÂ§ÑÁêÜÂáΩÊï∞
// 1520 
// 1521 * ËØ•ÂáΩÊï∞‰∏≠ÂÆåÊàê‰∫ÜÁõ∏Â∫îÂçèËÆÆÊï∞ÊçÆÁöÑÂ§ÑÁêÜÂèäÊï∞ÊçÆ‰∏ªÂä®‰∏äÊä•ÁöÑÁõ∏ÂÖ≥Êìç‰Ωú
// 1522 
// 1523 * @param [in] currentData ÂæÖ‰∏äÊä•ÁöÑÂçèËÆÆÊï∞ÊçÆÊåáÈíà
// 1524 * @return none
// 1525 */

        RSEG BANKED_CODE:CODE:NOROOT(0)
// 1526 int32 gizwitsHandle(dataPoint_t *currentData)
gizwitsHandle:
        CFI Block cfiBlock284 Using cfiCommon0
        CFI Function gizwitsHandle
        CODE
// 1527 {
        FUNCALL gizwitsHandle, gizGetTimerCount
        LOCFRAME ISTACK, 0, STACK
        LOCFRAME PSTACK, 0, STACK
        LOCFRAME XSTACK, 92, STACK
        LOCFRAME IOVERLAY, 0, STATIC
        LOCFRAME DOVERLAY, 0, STATIC
        ARGFRAME ISTACK, 0, STACK
        ARGFRAME PSTACK, 0, STACK
        ARGFRAME XSTACK, 92, STACK
        ARGFRAME IOVERLAY, 0, STATIC
        ARGFRAME DOVERLAY, 0, STATIC
        FUNCALL gizwitsHandle, uartWrite
        LOCFRAME ISTACK, 0, STACK
        LOCFRAME PSTACK, 0, STACK
        LOCFRAME XSTACK, 96, STACK
        LOCFRAME IOVERLAY, 0, STATIC
        LOCFRAME DOVERLAY, 0, STATIC
        ARGFRAME ISTACK, 0, STACK
        ARGFRAME PSTACK, 0, STACK
        ARGFRAME XSTACK, 96, STACK
        ARGFRAME IOVERLAY, 0, STATIC
        ARGFRAME DOVERLAY, 0, STATIC
        FUNCALL gizwitsHandle, gizGetTimerCount
        LOCFRAME ISTACK, 0, STACK
        LOCFRAME PSTACK, 0, STACK
        LOCFRAME XSTACK, 92, STACK
        LOCFRAME IOVERLAY, 0, STATIC
        LOCFRAME DOVERLAY, 0, STATIC
        ARGFRAME ISTACK, 0, STACK
        ARGFRAME PSTACK, 0, STACK
        ARGFRAME XSTACK, 92, STACK
        ARGFRAME IOVERLAY, 0, STATIC
        ARGFRAME DOVERLAY, 0, STATIC
        FUNCALL gizwitsHandle, osal_memset
        LOCFRAME ISTACK, 0, STACK
        LOCFRAME PSTACK, 0, STACK
        LOCFRAME XSTACK, 92, STACK
        LOCFRAME IOVERLAY, 0, STATIC
        LOCFRAME DOVERLAY, 0, STATIC
        ARGFRAME ISTACK, 0, STACK
        ARGFRAME PSTACK, 0, STACK
        ARGFRAME XSTACK, 92, STACK
        ARGFRAME IOVERLAY, 0, STATIC
        ARGFRAME DOVERLAY, 0, STATIC
        FUNCALL gizwitsHandle, gizProtocolGetOnePacket
        LOCFRAME ISTACK, 0, STACK
        LOCFRAME PSTACK, 0, STACK
        LOCFRAME XSTACK, 94, STACK
        LOCFRAME IOVERLAY, 0, STATIC
        LOCFRAME DOVERLAY, 0, STATIC
        ARGFRAME ISTACK, 0, STACK
        ARGFRAME PSTACK, 0, STACK
        ARGFRAME XSTACK, 94, STACK
        ARGFRAME IOVERLAY, 0, STATIC
        ARGFRAME DOVERLAY, 0, STATIC
        FUNCALL gizwitsHandle, gizProtocolGetDeviceInfo
        LOCFRAME ISTACK, 0, STACK
        LOCFRAME PSTACK, 0, STACK
        LOCFRAME XSTACK, 92, STACK
        LOCFRAME IOVERLAY, 0, STATIC
        LOCFRAME DOVERLAY, 0, STATIC
        ARGFRAME ISTACK, 0, STACK
        ARGFRAME PSTACK, 0, STACK
        ARGFRAME XSTACK, 92, STACK
        ARGFRAME IOVERLAY, 0, STATIC
        ARGFRAME DOVERLAY, 0, STATIC
        FUNCALL gizwitsHandle, gizwitsEventProcess
        LOCFRAME ISTACK, 0, STACK
        LOCFRAME PSTACK, 0, STACK
        LOCFRAME XSTACK, 96, STACK
        LOCFRAME IOVERLAY, 0, STATIC
        LOCFRAME DOVERLAY, 0, STATIC
        ARGFRAME ISTACK, 0, STACK
        ARGFRAME PSTACK, 0, STACK
        ARGFRAME XSTACK, 96, STACK
        ARGFRAME IOVERLAY, 0, STATIC
        ARGFRAME DOVERLAY, 0, STATIC
        FUNCALL gizwitsHandle, osal_memset
        LOCFRAME ISTACK, 0, STACK
        LOCFRAME PSTACK, 0, STACK
        LOCFRAME XSTACK, 92, STACK
        LOCFRAME IOVERLAY, 0, STATIC
        LOCFRAME DOVERLAY, 0, STATIC
        ARGFRAME ISTACK, 0, STACK
        ARGFRAME PSTACK, 0, STACK
        ARGFRAME XSTACK, 92, STACK
        ARGFRAME IOVERLAY, 0, STATIC
        ARGFRAME DOVERLAY, 0, STATIC
        FUNCALL gizwitsHandle, gizProtocolIssuedProcess
        LOCFRAME ISTACK, 0, STACK
        LOCFRAME PSTACK, 0, STACK
        LOCFRAME XSTACK, 98, STACK
        LOCFRAME IOVERLAY, 0, STATIC
        LOCFRAME DOVERLAY, 0, STATIC
        ARGFRAME ISTACK, 0, STACK
        ARGFRAME PSTACK, 0, STACK
        ARGFRAME XSTACK, 98, STACK
        ARGFRAME IOVERLAY, 0, STATIC
        ARGFRAME DOVERLAY, 0, STATIC
        FUNCALL gizwitsHandle, gizProtocolIssuedDataAck
        LOCFRAME ISTACK, 0, STACK
        LOCFRAME PSTACK, 0, STACK
        LOCFRAME XSTACK, 96, STACK
        LOCFRAME IOVERLAY, 0, STATIC
        LOCFRAME DOVERLAY, 0, STATIC
        ARGFRAME ISTACK, 0, STACK
        ARGFRAME PSTACK, 0, STACK
        ARGFRAME XSTACK, 96, STACK
        ARGFRAME IOVERLAY, 0, STATIC
        ARGFRAME DOVERLAY, 0, STATIC
        FUNCALL gizwitsHandle, gizProtocolCommonAck
        LOCFRAME ISTACK, 0, STACK
        LOCFRAME PSTACK, 0, STACK
        LOCFRAME XSTACK, 92, STACK
        LOCFRAME IOVERLAY, 0, STATIC
        LOCFRAME DOVERLAY, 0, STATIC
        ARGFRAME ISTACK, 0, STACK
        ARGFRAME PSTACK, 0, STACK
        ARGFRAME XSTACK, 92, STACK
        ARGFRAME IOVERLAY, 0, STATIC
        ARGFRAME DOVERLAY, 0, STATIC
        FUNCALL gizwitsHandle, gizProtocolCommonAck
        LOCFRAME ISTACK, 0, STACK
        LOCFRAME PSTACK, 0, STACK
        LOCFRAME XSTACK, 92, STACK
        LOCFRAME IOVERLAY, 0, STATIC
        LOCFRAME DOVERLAY, 0, STATIC
        ARGFRAME ISTACK, 0, STACK
        ARGFRAME PSTACK, 0, STACK
        ARGFRAME XSTACK, 92, STACK
        ARGFRAME IOVERLAY, 0, STATIC
        ARGFRAME DOVERLAY, 0, STATIC
        FUNCALL gizwitsHandle, gizProtocolModuleStatus
        LOCFRAME ISTACK, 0, STACK
        LOCFRAME PSTACK, 0, STACK
        LOCFRAME XSTACK, 92, STACK
        LOCFRAME IOVERLAY, 0, STATIC
        LOCFRAME DOVERLAY, 0, STATIC
        ARGFRAME ISTACK, 0, STACK
        ARGFRAME PSTACK, 0, STACK
        ARGFRAME XSTACK, 92, STACK
        ARGFRAME IOVERLAY, 0, STATIC
        ARGFRAME DOVERLAY, 0, STATIC
        FUNCALL gizwitsHandle, gizProtocolWaitAckCheck
        LOCFRAME ISTACK, 0, STACK
        LOCFRAME PSTACK, 0, STACK
        LOCFRAME XSTACK, 92, STACK
        LOCFRAME IOVERLAY, 0, STATIC
        LOCFRAME DOVERLAY, 0, STATIC
        ARGFRAME ISTACK, 0, STACK
        ARGFRAME PSTACK, 0, STACK
        ARGFRAME XSTACK, 92, STACK
        ARGFRAME IOVERLAY, 0, STATIC
        ARGFRAME DOVERLAY, 0, STATIC
        FUNCALL gizwitsHandle, gizProtocolCommonAck
        LOCFRAME ISTACK, 0, STACK
        LOCFRAME PSTACK, 0, STACK
        LOCFRAME XSTACK, 92, STACK
        LOCFRAME IOVERLAY, 0, STATIC
        LOCFRAME DOVERLAY, 0, STATIC
        ARGFRAME ISTACK, 0, STACK
        ARGFRAME PSTACK, 0, STACK
        ARGFRAME XSTACK, 92, STACK
        ARGFRAME IOVERLAY, 0, STATIC
        ARGFRAME DOVERLAY, 0, STATIC
        FUNCALL gizwitsHandle, gizGetTimerCount
        LOCFRAME ISTACK, 0, STACK
        LOCFRAME PSTACK, 0, STACK
        LOCFRAME XSTACK, 92, STACK
        LOCFRAME IOVERLAY, 0, STATIC
        LOCFRAME DOVERLAY, 0, STATIC
        ARGFRAME ISTACK, 0, STACK
        ARGFRAME PSTACK, 0, STACK
        ARGFRAME XSTACK, 92, STACK
        ARGFRAME IOVERLAY, 0, STATIC
        ARGFRAME DOVERLAY, 0, STATIC
        FUNCALL gizwitsHandle, gizGetTimerCount
        LOCFRAME ISTACK, 0, STACK
        LOCFRAME PSTACK, 0, STACK
        LOCFRAME XSTACK, 92, STACK
        LOCFRAME IOVERLAY, 0, STATIC
        LOCFRAME DOVERLAY, 0, STATIC
        ARGFRAME ISTACK, 0, STACK
        ARGFRAME PSTACK, 0, STACK
        ARGFRAME XSTACK, 92, STACK
        ARGFRAME IOVERLAY, 0, STATIC
        ARGFRAME DOVERLAY, 0, STATIC
        FUNCALL gizwitsHandle, mcuRestart
        LOCFRAME ISTACK, 0, STACK
        LOCFRAME PSTACK, 0, STACK
        LOCFRAME XSTACK, 92, STACK
        LOCFRAME IOVERLAY, 0, STATIC
        LOCFRAME DOVERLAY, 0, STATIC
        ARGFRAME ISTACK, 0, STACK
        ARGFRAME PSTACK, 0, STACK
        ARGFRAME XSTACK, 92, STACK
        ARGFRAME IOVERLAY, 0, STATIC
        ARGFRAME DOVERLAY, 0, STATIC
        FUNCALL gizwitsHandle, gizProtocolWaitAckCheck
        LOCFRAME ISTACK, 0, STACK
        LOCFRAME PSTACK, 0, STACK
        LOCFRAME XSTACK, 92, STACK
        LOCFRAME IOVERLAY, 0, STATIC
        LOCFRAME DOVERLAY, 0, STATIC
        ARGFRAME ISTACK, 0, STACK
        ARGFRAME PSTACK, 0, STACK
        ARGFRAME XSTACK, 92, STACK
        ARGFRAME IOVERLAY, 0, STATIC
        ARGFRAME DOVERLAY, 0, STATIC
        FUNCALL gizwitsHandle, osal_memcpy
        LOCFRAME ISTACK, 0, STACK
        LOCFRAME PSTACK, 0, STACK
        LOCFRAME XSTACK, 95, STACK
        LOCFRAME IOVERLAY, 0, STATIC
        LOCFRAME DOVERLAY, 0, STATIC
        ARGFRAME ISTACK, 0, STACK
        ARGFRAME PSTACK, 0, STACK
        ARGFRAME XSTACK, 95, STACK
        ARGFRAME IOVERLAY, 0, STATIC
        ARGFRAME DOVERLAY, 0, STATIC
        FUNCALL gizwitsHandle, gizProtocolExchangeBytes
        LOCFRAME ISTACK, 0, STACK
        LOCFRAME PSTACK, 0, STACK
        LOCFRAME XSTACK, 92, STACK
        LOCFRAME IOVERLAY, 0, STATIC
        LOCFRAME DOVERLAY, 0, STATIC
        ARGFRAME ISTACK, 0, STACK
        ARGFRAME PSTACK, 0, STACK
        ARGFRAME XSTACK, 92, STACK
        ARGFRAME IOVERLAY, 0, STATIC
        ARGFRAME DOVERLAY, 0, STATIC
        FUNCALL gizwitsHandle, gizwitsEventProcess
        LOCFRAME ISTACK, 0, STACK
        LOCFRAME PSTACK, 0, STACK
        LOCFRAME XSTACK, 96, STACK
        LOCFRAME IOVERLAY, 0, STATIC
        LOCFRAME DOVERLAY, 0, STATIC
        ARGFRAME ISTACK, 0, STACK
        ARGFRAME PSTACK, 0, STACK
        ARGFRAME XSTACK, 96, STACK
        ARGFRAME IOVERLAY, 0, STATIC
        ARGFRAME DOVERLAY, 0, STATIC
        FUNCALL gizwitsHandle, osal_memset
        LOCFRAME ISTACK, 0, STACK
        LOCFRAME PSTACK, 0, STACK
        LOCFRAME XSTACK, 92, STACK
        LOCFRAME IOVERLAY, 0, STATIC
        LOCFRAME DOVERLAY, 0, STATIC
        ARGFRAME ISTACK, 0, STACK
        ARGFRAME PSTACK, 0, STACK
        ARGFRAME XSTACK, 92, STACK
        ARGFRAME IOVERLAY, 0, STATIC
        ARGFRAME DOVERLAY, 0, STATIC
        FUNCALL gizwitsHandle, gizProtocolErrorCmd
        LOCFRAME ISTACK, 0, STACK
        LOCFRAME PSTACK, 0, STACK
        LOCFRAME XSTACK, 92, STACK
        LOCFRAME IOVERLAY, 0, STATIC
        LOCFRAME DOVERLAY, 0, STATIC
        ARGFRAME ISTACK, 0, STACK
        ARGFRAME PSTACK, 0, STACK
        ARGFRAME XSTACK, 92, STACK
        ARGFRAME IOVERLAY, 0, STATIC
        ARGFRAME DOVERLAY, 0, STATIC
        FUNCALL gizwitsHandle, gizProtocolErrorCmd
        LOCFRAME ISTACK, 0, STACK
        LOCFRAME PSTACK, 0, STACK
        LOCFRAME XSTACK, 92, STACK
        LOCFRAME IOVERLAY, 0, STATIC
        LOCFRAME DOVERLAY, 0, STATIC
        ARGFRAME ISTACK, 0, STACK
        ARGFRAME PSTACK, 0, STACK
        ARGFRAME XSTACK, 92, STACK
        ARGFRAME IOVERLAY, 0, STATIC
        ARGFRAME DOVERLAY, 0, STATIC
        FUNCALL gizwitsHandle, gizwitsEventProcess
        LOCFRAME ISTACK, 0, STACK
        LOCFRAME PSTACK, 0, STACK
        LOCFRAME XSTACK, 96, STACK
        LOCFRAME IOVERLAY, 0, STATIC
        LOCFRAME DOVERLAY, 0, STATIC
        ARGFRAME ISTACK, 0, STACK
        ARGFRAME PSTACK, 0, STACK
        ARGFRAME XSTACK, 96, STACK
        ARGFRAME IOVERLAY, 0, STATIC
        ARGFRAME DOVERLAY, 0, STATIC
        FUNCALL gizwitsHandle, osal_memset
        LOCFRAME ISTACK, 0, STACK
        LOCFRAME PSTACK, 0, STACK
        LOCFRAME XSTACK, 92, STACK
        LOCFRAME IOVERLAY, 0, STATIC
        LOCFRAME DOVERLAY, 0, STATIC
        ARGFRAME ISTACK, 0, STACK
        ARGFRAME PSTACK, 0, STACK
        ARGFRAME XSTACK, 92, STACK
        ARGFRAME IOVERLAY, 0, STATIC
        ARGFRAME DOVERLAY, 0, STATIC
        FUNCALL gizwitsHandle, gizwitsEventProcess
        LOCFRAME ISTACK, 0, STACK
        LOCFRAME PSTACK, 0, STACK
        LOCFRAME XSTACK, 96, STACK
        LOCFRAME IOVERLAY, 0, STATIC
        LOCFRAME DOVERLAY, 0, STATIC
        ARGFRAME ISTACK, 0, STACK
        ARGFRAME PSTACK, 0, STACK
        ARGFRAME XSTACK, 96, STACK
        ARGFRAME IOVERLAY, 0, STATIC
        ARGFRAME DOVERLAY, 0, STATIC
        FUNCALL gizwitsHandle, osal_memcpy
        LOCFRAME ISTACK, 0, STACK
        LOCFRAME PSTACK, 0, STACK
        LOCFRAME XSTACK, 95, STACK
        LOCFRAME IOVERLAY, 0, STATIC
        LOCFRAME DOVERLAY, 0, STATIC
        ARGFRAME ISTACK, 0, STACK
        ARGFRAME PSTACK, 0, STACK
        ARGFRAME XSTACK, 95, STACK
        ARGFRAME IOVERLAY, 0, STATIC
        ARGFRAME DOVERLAY, 0, STATIC
        FUNCALL gizwitsHandle, osal_memcpy
        LOCFRAME ISTACK, 0, STACK
        LOCFRAME PSTACK, 0, STACK
        LOCFRAME XSTACK, 95, STACK
        LOCFRAME IOVERLAY, 0, STATIC
        LOCFRAME DOVERLAY, 0, STATIC
        ARGFRAME ISTACK, 0, STACK
        ARGFRAME PSTACK, 0, STACK
        ARGFRAME XSTACK, 95, STACK
        ARGFRAME IOVERLAY, 0, STATIC
        ARGFRAME DOVERLAY, 0, STATIC
        FUNCALL gizwitsHandle, osal_mem_free
        LOCFRAME ISTACK, 0, STACK
        LOCFRAME PSTACK, 0, STACK
        LOCFRAME XSTACK, 92, STACK
        LOCFRAME IOVERLAY, 0, STATIC
        LOCFRAME DOVERLAY, 0, STATIC
        ARGFRAME ISTACK, 0, STACK
        ARGFRAME PSTACK, 0, STACK
        ARGFRAME XSTACK, 92, STACK
        ARGFRAME IOVERLAY, 0, STATIC
        ARGFRAME DOVERLAY, 0, STATIC
        FUNCALL gizwitsHandle, osal_memcpy
        LOCFRAME ISTACK, 0, STACK
        LOCFRAME PSTACK, 0, STACK
        LOCFRAME XSTACK, 95, STACK
        LOCFRAME IOVERLAY, 0, STATIC
        LOCFRAME DOVERLAY, 0, STATIC
        ARGFRAME ISTACK, 0, STACK
        ARGFRAME PSTACK, 0, STACK
        ARGFRAME XSTACK, 95, STACK
        ARGFRAME IOVERLAY, 0, STATIC
        ARGFRAME DOVERLAY, 0, STATIC
        FUNCALL gizwitsHandle, osal_mem_free
        LOCFRAME ISTACK, 0, STACK
        LOCFRAME PSTACK, 0, STACK
        LOCFRAME XSTACK, 92, STACK
        LOCFRAME IOVERLAY, 0, STATIC
        LOCFRAME DOVERLAY, 0, STATIC
        ARGFRAME ISTACK, 0, STACK
        ARGFRAME PSTACK, 0, STACK
        ARGFRAME XSTACK, 92, STACK
        ARGFRAME IOVERLAY, 0, STATIC
        ARGFRAME DOVERLAY, 0, STATIC
        FUNCALL gizwitsHandle, osal_memcpy
        LOCFRAME ISTACK, 0, STACK
        LOCFRAME PSTACK, 0, STACK
        LOCFRAME XSTACK, 95, STACK
        LOCFRAME IOVERLAY, 0, STATIC
        LOCFRAME DOVERLAY, 0, STATIC
        ARGFRAME ISTACK, 0, STACK
        ARGFRAME PSTACK, 0, STACK
        ARGFRAME XSTACK, 95, STACK
        ARGFRAME IOVERLAY, 0, STATIC
        ARGFRAME DOVERLAY, 0, STATIC
        FUNCALL gizwitsHandle, gizDevReportPolicy
        LOCFRAME ISTACK, 0, STACK
        LOCFRAME PSTACK, 0, STACK
        LOCFRAME XSTACK, 92, STACK
        LOCFRAME IOVERLAY, 0, STATIC
        LOCFRAME DOVERLAY, 0, STATIC
        ARGFRAME ISTACK, 0, STACK
        ARGFRAME PSTACK, 0, STACK
        ARGFRAME XSTACK, 92, STACK
        ARGFRAME IOVERLAY, 0, STATIC
        ARGFRAME DOVERLAY, 0, STATIC
        MOV     A,#-0x18
        LCALL   ?BANKED_ENTER_XDATA
        CFI DPH0 load(1, XDATA, add(CFA_XSP16, literal(-1)))
        CFI DPL0 load(1, XDATA, add(CFA_XSP16, literal(-2)))
        CFI ?BRET_EXT load(1, XDATA, add(CFA_XSP16, literal(-3)))
        CFI ?RET_HIGH load(1, XDATA, add(CFA_XSP16, literal(-4)))
        CFI ?RET_LOW load(1, XDATA, add(CFA_XSP16, literal(-5)))
        CFI R7 load(1, XDATA, add(CFA_XSP16, literal(-6)))
        CFI V15 load(1, XDATA, add(CFA_XSP16, literal(-7)))
        CFI V14 load(1, XDATA, add(CFA_XSP16, literal(-8)))
        CFI V13 load(1, XDATA, add(CFA_XSP16, literal(-9)))
        CFI V12 load(1, XDATA, add(CFA_XSP16, literal(-10)))
        CFI V11 load(1, XDATA, add(CFA_XSP16, literal(-11)))
        CFI V10 load(1, XDATA, add(CFA_XSP16, literal(-12)))
        CFI V9 load(1, XDATA, add(CFA_XSP16, literal(-13)))
        CFI V8 load(1, XDATA, add(CFA_XSP16, literal(-14)))
        CFI V7 load(1, XDATA, add(CFA_XSP16, literal(-15)))
        CFI V6 load(1, XDATA, add(CFA_XSP16, literal(-16)))
        CFI V5 load(1, XDATA, add(CFA_XSP16, literal(-17)))
        CFI V4 load(1, XDATA, add(CFA_XSP16, literal(-18)))
        CFI V3 load(1, XDATA, add(CFA_XSP16, literal(-19)))
        CFI V2 load(1, XDATA, add(CFA_XSP16, literal(-20)))
        CFI V1 load(1, XDATA, add(CFA_XSP16, literal(-21)))
        CFI V0 load(1, XDATA, add(CFA_XSP16, literal(-22)))
        CFI VB load(1, XDATA, add(CFA_XSP16, literal(-23)))
        CFI R6 load(1, XDATA, add(CFA_XSP16, literal(-24)))
        CFI CFA_SP SP+0
        CFI CFA_XSP16 add(XSP16, 24)
        ; Saved register size: 24
        ; Auto size: 68
        MOV     A,#-0x44
        LCALL   ?ALLOC_XSTACK8
        CFI CFA_XSP16 add(XSP16, 92)
        MOV     ?V0 + 0,R2
        MOV     ?V0 + 1,R3
// 1528     int8 ret = 0;
// 1529     uint16 i = 0;
// 1530     uint8 ackData[RB_MAX_LEN];
// 1531     uint16 protocolLen = 0;
        MOV     DPL,?XSP + 0
        MOV     DPH,?XSP + 1
        CLR     A
        MOVX    @DPTR,A
        INC     DPTR
        MOVX    @DPTR,A
// 1532     uint32 ackLen = 0;
        MOV     DPTR,#__Constant_0
        LCALL   ?XLOAD_R2345
        MOV     A,#0x2
        LCALL   ?XSTACK_DISP0_8
        LCALL   ?XSTORE_R2345
// 1533     protocolHead_t *recvHead = NULL;
// 1534     static Node * nodeptr=NULL;
// 1535     Node * deletnodeptr;
// 1536     static Node * updatenodeptr=NULL;
// 1537     if(NULL == currentData)
        MOV     A,?V0 + 0
        ORL     A,?V0 + 1
        JNZ     ??gizwitsHandle_0
// 1538     {
// 1539         GIZWITS_LOG("GizwitsHandle Error , Illegal Param\n");
// 1540         return -1;
        MOV     R2,#-0x1
??gizwitsHandle_1:
        MOV     R3,#-0x1
        MOV     R4,#-0x1
        MOV     R5,#-0x1
        LJMP    ??gizwitsHandle_2 & 0xFFFF
// 1541     }
// 1542 
// 1543     /*ÈáçÂèëÊú∫Âà∂*/
// 1544     gizProtocolAckHandle();
??gizwitsHandle_0:
        MOV     DPTR,#gizwitsProtocol + 76
        MOVX    A,@DPTR
        XRL     A,#0x1
        JNZ     ??gizwitsHandle_3
        MOV     DPTR,#gizwitsProtocol + 75
        MOVX    A,@DPTR
        CLR     C
        SUBB    A,#0x2
        JNC     ??gizwitsHandle_4
        ; Setup parameters for call to function gizGetTimerCount
        LCALL   ?Subroutine44 & 0xFFFF
??CrossCallReturnLabel_71:
        MOV     DPTR,#gizwitsProtocol + 110
        MOV     R0,#?V0 + 4
        LCALL   ?L_SUB_X
        MOV     DPTR,#__Constant_7d1
        MOV     R0,#?V0 + 4
        LCALL   ?UL_GE_X
        JNC     ??gizwitsHandle_3
        MOV     DPTR,#gizwitsProtocol + 76
        MOVX    A,@DPTR
        JZ      ??gizwitsHandle_5
        ; Setup parameters for call to function uartWrite
        MOV     DPTR,#gizwitsProtocol + 108
        LCALL   ?Subroutine24 & 0xFFFF
??CrossCallReturnLabel_34:
        LCALL   ?PUSH_XSTACK_I_FOUR
        CFI CFA_XSP16 add(XSP16, 96)
        MOV     R2,#(gizwitsProtocol + 77) & 0xff
        MOV     R3,#((gizwitsProtocol + 77) >> 8) & 0xff
        LCALL   ??Subroutine65_0 & 0xFFFF
??CrossCallReturnLabel_140:
        LCALL   ?DEALLOC_XSTACK8
        CFI CFA_XSP16 add(XSP16, 92)
        ; Setup parameters for call to function gizGetTimerCount
        LCALL   ??gizGetTimerCount?relay
        MOV     DPTR,#gizwitsProtocol + 110
        LCALL   ?XSTORE_R2345
??gizwitsHandle_5:
        MOV     DPTR,#gizwitsProtocol + 75
        MOVX    A,@DPTR
        INC     A
        MOVX    @DPTR,A
        SJMP    ??gizwitsHandle_3
??gizwitsHandle_4:
        ; Setup parameters for call to function osal_memset
        MOV     R4,#0x27
        MOV     R5,#0x0
        MOV     R1,#0x0
        MOV     R2,#(gizwitsProtocol + 75) & 0xff
        MOV     R3,#((gizwitsProtocol + 75) >> 8) & 0xff
        LCALL   ??osal_memset?relay
// 1545     ret = gizProtocolGetOnePacket(&pRb, gizwitsProtocol.protocolBuf, &protocolLen);
??gizwitsHandle_3:
        ; Setup parameters for call to function gizProtocolGetOnePacket
        MOV     DPL,?XSP + 0
        MOV     DPH,?XSP + 1
        MOV     ?V0 + 2,DPL
        MOV     ?V0 + 3,DPH
        MOV     R0,#?V0 + 2
        LCALL   ?PUSH_XSTACK_I_TWO
        CFI CFA_XSP16 add(XSP16, 94)
        MOV     R4,#(gizwitsProtocol + 1) & 0xff
        MOV     R5,#((gizwitsProtocol + 1) >> 8) & 0xff
        MOV     R2,#pRb & 0xff
        MOV     R3,#(pRb >> 8) & 0xff
        LCALL   ??gizProtocolGetOnePacket?relay
        MOV     A,#0x2
        LCALL   ?DEALLOC_XSTACK8
        CFI CFA_XSP16 add(XSP16, 92)
        MOV     A,R1
        MOV     R0,A
// 1546 
// 1547     if(0 == ret)
        JZ      $+5
        LJMP    ??gizwitsHandle_6 & 0xFFFF
// 1548     {
// 1549         GIZWITS_LOG("Get One Packet!\n");
// 1550         
// 1551 #ifdef PROTOCOL_DEBUG
// 1552         GIZWITS_LOG("WiFi2MCU[%4d:%4d]: ", gizGetTimerCount(), protocolLen);
// 1553         for(i=0; i<protocolLen;i++)
// 1554         {
// 1555             GIZWITS_LOG("%02x ", gizwitsProtocol.protocolBuf[i]);
// 1556         }
// 1557         GIZWITS_LOG("\n");
// 1558 #endif
// 1559 
// 1560         recvHead = (protocolHead_t *)gizwitsProtocol.protocolBuf;
// 1561         switch (recvHead->cmd)
        MOV     DPTR,#gizwitsProtocol + 5
        MOVX    A,@DPTR
        DEC     A
        JZ      ??gizwitsHandle_7
        ADD     A,#-0x2
        JNZ     $+5
        LJMP    ??gizwitsHandle_8 & 0xFFFF
        ADD     A,#-0x3
        JNZ     $+5
        LJMP    ??gizwitsHandle_9 & 0xFFFF
        DEC     A
        JNZ     $+5
        LJMP    ??gizwitsHandle_10 & 0xFFFF
        ADD     A,#-0x3
        JNZ     $+5
        LJMP    ??gizwitsHandle_9 & 0xFFFF
        ADD     A,#-0x2
        JNZ     $+5
        LJMP    ??gizwitsHandle_9 & 0xFFFF
        DEC     A
        JNZ     $+5
        LJMP    ??gizwitsHandle_11 & 0xFFFF
        ADD     A,#-0x2
        JNZ     $+5
        LJMP    ??gizwitsHandle_12 & 0xFFFF
        ADD     A,#-0x2
        JZ      ??gizwitsHandle_13
        ADD     A,#-0x3
        JNZ     $+5
        LJMP    ??gizwitsHandle_9 & 0xFFFF
        ADD     A,#-0x2
        JNZ     $+5
        LJMP    ??gizwitsHandle_9 & 0xFFFF
        ADD     A,#-0x2
        JNZ     $+5
        LJMP    ??gizwitsHandle_14 & 0xFFFF
        LJMP    ??gizwitsHandle_15 & 0xFFFF
// 1562         {
// 1563             case CMD_GET_DEVICE_INTO:
// 1564                 gizProtocolGetDeviceInfo(recvHead);
??gizwitsHandle_7:
        ; Setup parameters for call to function gizProtocolGetDeviceInfo
        MOV     R2,#(gizwitsProtocol + 1) & 0xff
        MOV     R3,#((gizwitsProtocol + 1) >> 8) & 0xff
        LCALL   ??gizProtocolGetDeviceInfo?relay
// 1565                 break;
// 1566             case CMD_ISSUED_P0:
// 1567                 if(0 == gizProtocolIssuedProcess(gizwitsProtocol.protocolBuf, protocolLen, ackData, &ackLen))
// 1568                 {
// 1569                     gizProtocolIssuedDataAck(recvHead, ackData, ackLen);
// 1570                 }
// 1571                 break;
// 1572             case CMD_HEARTBEAT:
// 1573                 gizProtocolCommonAck(recvHead);
// 1574                 break;
// 1575             case CMD_WIFISTATUS:
// 1576                 gizProtocolCommonAck(recvHead);
// 1577                 gizProtocolModuleStatus((protocolWifiStatus_t *)recvHead);
// 1578                 break;
// 1579             case ACK_REPORT_P0:
// 1580             case ACK_WIFI_CONFIG:
// 1581             case ACK_SET_DEFAULT:
// 1582             case ACK_NINABLE_MODE:
// 1583                 gizProtocolWaitAckCheck(recvHead);
// 1584                 break;
// 1585             case CMD_MCU_REBOOT:
// 1586                 gizProtocolCommonAck(recvHead);
// 1587                 GIZWITS_LOG("report:MCU reboot!\n");
// 1588                 
// 1589                 gizProtocolReboot();
// 1590                 break;
// 1591             case CMD_ERROR_PACKAGE:
// 1592                 break;
// 1593             case ACK_PRODUCTION_TEST:
// 1594                 gizProtocolWaitAckCheck(recvHead);
// 1595                 GIZWITS_LOG("Ack PRODUCTION_MODE success \n");
// 1596                 break;           
// 1597             case ACK_GET_NTP:
// 1598                 gizProtocolWaitAckCheck(recvHead);
// 1599                 gizProtocolNTP(recvHead);
// 1600                 GIZWITS_LOG("Ack GET_UTT success \n");
// 1601                 break;   
// 1602             default:
// 1603                 gizProtocolErrorCmd(recvHead,ERROR_CMD);
// 1604                 GIZWITS_LOG("ERROR: cmd code error!\n");
// 1605                 break;
// 1606         }
// 1607     }
// 1608     else if(-2 == ret)
// 1609     {
// 1610         //Ê†°È™åÂ§±Ë¥•ÔºåÊä•ÂëäÂºÇÂ∏?        recvHead = (protocolHead_t *)gizwitsProtocol.protocolBuf;
// 1611         gizProtocolErrorCmd(recvHead,ERROR_ACK_SUM);
// 1612         GIZWITS_LOG("ERROR: check sum error!\n");
// 1613         return -2;
// 1614     }
// 1615     
// 1616     switch(gizwitsProtocol.issuedFlag)
??gizwitsHandle_13:
        MOV     DPTR,#gizwitsProtocol
        MOVX    A,@DPTR
        DEC     A
        JZ      ??gizwitsHandle_16
        DEC     A
        JNZ     $+5
        LJMP    ??gizwitsHandle_17 & 0xFFFF
        DEC     A
        JNZ     $+5
        LJMP    ??gizwitsHandle_18 & 0xFFFF
        DEC     A
        JNZ     $+5
        LJMP    ??gizwitsHandle_19 & 0xFFFF
        LJMP    ??gizwitsHandle_20 & 0xFFFF
// 1617     {
// 1618         case ACTION_CONTROL_TYPE:
// 1619             gizwitsProtocol.issuedFlag = STATELESS_TYPE;
??gizwitsHandle_16:
        CLR     A
        MOVX    @DPTR,A
// 1620             gizwitsEventProcess(&gizwitsProtocol.issuedProcessEvent, (uint8 *)&gizwitsProtocol.gizCurrentDataPoint, sizeof(dataPoint_t));
        ; Setup parameters for call to function gizwitsEventProcess
        MOV     DPTR,#__Constant_14
        LCALL   ?PUSH_XSTACK8_X_FOUR
        CFI CFA_XSP16 add(XSP16, 96)
        MOV     R4,#(gizwitsProtocol + 194) & 0xff
        MOV     R5,#((gizwitsProtocol + 194) >> 8) & 0xff
        LCALL   ?Subroutine50 & 0xFFFF
??CrossCallReturnLabel_168:
        LCALL   ?DEALLOC_XSTACK8
        CFI CFA_XSP16 add(XSP16, 92)
// 1621             osal_memset((uint8 *)&gizwitsProtocol.issuedProcessEvent,0x0,sizeof(gizwitsProtocol.issuedProcessEvent));  
        ; Setup parameters for call to function osal_memset
        MOV     R4,#0x12
        MOV     R5,#0x0
        MOV     R1,#0x0
        MOV     R2,#(gizwitsProtocol + 114) & 0xff
        MOV     R3,#((gizwitsProtocol + 114) >> 8) & 0xff
??gizwitsHandle_21:
        LCALL   ??osal_memset?relay
// 1622             break;
        LJMP    ??gizwitsHandle_22 & 0xFFFF
??gizwitsHandle_8:
        ; Setup parameters for call to function gizProtocolIssuedProcess
        MOV     A,#0x2
        LCALL   ?XSTACK_DISP0_8
        MOV     ?V0 + 2,DPL
        MOV     ?V0 + 3,DPH
        MOV     R0,#?V0 + 2
        LCALL   ?PUSH_XSTACK_I_TWO
        CFI CFA_XSP16 add(XSP16, 94)
        MOV     A,#0x2
        LCALL   ?XSTACK_DISP0_8
        LCALL   ?Subroutine24 & 0xFFFF
??CrossCallReturnLabel_35:
        LCALL   ?PUSH_XSTACK_I_FOUR
        CFI CFA_XSP16 add(XSP16, 98)
        MOV     A,#0xc
        LCALL   ?XSTACK_DISP0_8
        MOV     R4,DPL
        MOV     R5,DPH
        MOV     R2,#(gizwitsProtocol + 1) & 0xff
        MOV     R3,#((gizwitsProtocol + 1) >> 8) & 0xff
        LCALL   ??gizProtocolIssuedProcess?relay
        MOV     A,#0x6
        LCALL   ?DEALLOC_XSTACK8
        CFI CFA_XSP16 add(XSP16, 92)
        MOV     A,R1
        JNZ     ??gizwitsHandle_13
        ; Setup parameters for call to function gizProtocolIssuedDataAck
        MOV     A,#0x2
        LCALL   ?XSTACK_DISP0_8
        LCALL   ?PUSH_XSTACK8_X_FOUR
        CFI CFA_XSP16 add(XSP16, 96)
        MOV     A,#0xa
        LCALL   ?XSTACK_DISP0_8
        MOV     R4,DPL
        MOV     R5,DPH
        MOV     R2,#(gizwitsProtocol + 1) & 0xff
        MOV     R3,#((gizwitsProtocol + 1) >> 8) & 0xff
        LCALL   ??gizProtocolIssuedDataAck?relay
        MOV     A,#0x4
        LCALL   ?DEALLOC_XSTACK8
        CFI CFA_XSP16 add(XSP16, 92)
        LJMP    ??gizwitsHandle_13 & 0xFFFF
??gizwitsHandle_10:
        ; Setup parameters for call to function gizProtocolCommonAck
        MOV     R2,#(gizwitsProtocol + 1) & 0xff
        MOV     R3,#((gizwitsProtocol + 1) >> 8) & 0xff
        LCALL   ??gizProtocolCommonAck?relay
        LJMP    ??gizwitsHandle_13 & 0xFFFF
??gizwitsHandle_11:
        ; Setup parameters for call to function gizProtocolCommonAck
        MOV     R2,#(gizwitsProtocol + 1) & 0xff
        MOV     R3,#((gizwitsProtocol + 1) >> 8) & 0xff
        LCALL   ??gizProtocolCommonAck?relay
        ; Setup parameters for call to function gizProtocolModuleStatus
        MOV     R2,#(gizwitsProtocol + 1) & 0xff
        MOV     R3,#((gizwitsProtocol + 1) >> 8) & 0xff
        LCALL   ??gizProtocolModuleStatus?relay
        LJMP    ??gizwitsHandle_13 & 0xFFFF
??gizwitsHandle_9:
        ; Setup parameters for call to function gizProtocolWaitAckCheck
        MOV     R2,#(gizwitsProtocol + 1) & 0xff
        MOV     R3,#((gizwitsProtocol + 1) >> 8) & 0xff
        LCALL   ??gizProtocolWaitAckCheck?relay
        LJMP    ??gizwitsHandle_13 & 0xFFFF
??gizwitsHandle_12:
        ; Setup parameters for call to function gizProtocolCommonAck
        MOV     R2,#(gizwitsProtocol + 1) & 0xff
        MOV     R3,#((gizwitsProtocol + 1) >> 8) & 0xff
        LCALL   ??gizProtocolCommonAck?relay
        ; Setup parameters for call to function gizGetTimerCount
        LCALL   ?Subroutine44 & 0xFFFF
??CrossCallReturnLabel_72:
        ; Setup parameters for call to function gizGetTimerCount
        LCALL   ??gizGetTimerCount?relay
        MOV     ?V0 + 8,R2
        MOV     ?V0 + 9,R3
        MOV     ?V0 + 10,R4
        MOV     ?V0 + 11,R5
        MOV     R0,#?V0 + 8
        MOV     R1,#?V0 + 4
        LCALL   ?L_SUB
        MOV     DPTR,#__Constant_259
        MOV     R0,#?V0 + 8
        LCALL   ?UL_GE_X
        JNC     ??CrossCallReturnLabel_72
        ; Setup parameters for call to function mcuRestart
        LCALL   ??mcuRestart?relay
        LJMP    ??gizwitsHandle_13 & 0xFFFF
??gizwitsHandle_14:
        ; Setup parameters for call to function gizProtocolWaitAckCheck
        MOV     R2,#(gizwitsProtocol + 1) & 0xff
        MOV     R3,#((gizwitsProtocol + 1) >> 8) & 0xff
        LCALL   ??gizProtocolWaitAckCheck?relay
        ; Setup parameters for call to function osal_memcpy
        MOV     ?V0 + 4,#(gizwitsProtocol + 9) & 0xff
        MOV     ?V0 + 5,#((gizwitsProtocol + 9) >> 8) & 0xff
        MOV     ?V0 + 6,#0x0
        MOV     R0,#?V0 + 4
        LCALL   ?PUSH_XSTACK_I_THREE
        CFI CFA_XSP16 add(XSP16, 95)
        MOV     R4,#0xb
        MOV     R5,#0x0
        MOV     R2,#(gizwitsProtocol + 235) & 0xff
        MOV     R3,#((gizwitsProtocol + 235) >> 8) & 0xff
        LCALL   ??Subroutine62_0 & 0xFFFF
??CrossCallReturnLabel_118:
        LCALL   ?DEALLOC_XSTACK8
        CFI CFA_XSP16 add(XSP16, 92)
        ; Setup parameters for call to function gizProtocolExchangeBytes
        MOV     DPTR,#gizwitsProtocol + 235
        LCALL   ?Subroutine29 & 0xFFFF
??CrossCallReturnLabel_45:
        MOV     DPTR,#gizwitsProtocol + 235
        LCALL   ?Subroutine12 & 0xFFFF
??CrossCallReturnLabel_132:
        MOV     DPTR,#gizwitsProtocol + 242
        MOV     R0,#?V0 + 12
        LCALL   ?L_MOV_X
        MOV     ?V0 + 8,?V0 + 12
        MOV     ?V0 + 9,?V0 + 13
        MOV     ?V0 + 10,?V0 + 14
        MOV     ?V0 + 11,?V0 + 15
        MOV     A,#0x18
        MOV     R0,#?V0 + 8
        LCALL   ?L_SHL
        MOV     ?V0 + 4,?V0 + 12
        MOV     ?V0 + 5,?V0 + 13
        MOV     ?V0 + 6,?V0 + 14
        MOV     ?V0 + 7,?V0 + 15
        MOV     DPTR,#__Constant_ff00
        MOV     R0,#?V0 + 4
        LCALL   ?L_AND_X
        MOV     A,#0x8
        MOV     R0,#?V0 + 4
        LCALL   ?L_SHL
        MOV     R0,#?V0 + 8
        MOV     R1,#?V0 + 4
        LCALL   ?L_IOR
        MOV     ?V0 + 4,?V0 + 12
        MOV     ?V0 + 5,?V0 + 13
        MOV     ?V0 + 6,?V0 + 14
        MOV     ?V0 + 7,?V0 + 15
        MOV     A,#0x8
        MOV     R0,#?V0 + 4
        LCALL   ?UL_SHR
        MOV     DPTR,#__Constant_ff00
        MOV     R0,#?V0 + 4
        LCALL   ?L_AND_X
        MOV     R0,#?V0 + 8
        MOV     R1,#?V0 + 4
        LCALL   ?L_IOR
        MOV     A,#0x18
        MOV     R0,#?V0 + 12
        LCALL   ?UL_SHR
        MOV     R0,#?V0 + 8
        MOV     R1,#?V0 + 12
        LCALL   ?L_IOR
        MOV     DPTR,#gizwitsProtocol + 242
        MOV     R0,#?V0 + 8
        LCALL   ?L_MOV_TO_X
        MOV     DPTR,#gizwitsProtocol + 150
        MOVX    A,@DPTR
        MOV     R0,A
        MOV     A,#(gizwitsProtocol + 151) & 0xff
        ADD     A,R0
        MOV     DPL,A
        MOV     A,#((gizwitsProtocol + 151) >> 8) & 0xff
        ADDC    A,#0x0
        MOV     DPH,A
        MOV     A,#0xe
        MOVX    @DPTR,A
        MOV     DPTR,#gizwitsProtocol + 150
        MOVX    A,@DPTR
        INC     A
        MOVX    @DPTR,A
        MOV     DPTR,#gizwitsProtocol
        MOV     A,#0x4
        MOVX    @DPTR,A
// 1623         case WIFI_STATUS_TYPE:
// 1624             gizwitsProtocol.issuedFlag = STATELESS_TYPE;
// 1625             gizwitsEventProcess(&gizwitsProtocol.wifiStatusEvent, (uint8 *)&gizwitsProtocol.wifiStatusData, sizeof(moduleStatusInfo_t));
// 1626             osal_memset((uint8 *)&gizwitsProtocol.wifiStatusEvent,0x0,sizeof(gizwitsProtocol.wifiStatusEvent));
// 1627             break;
// 1628         case ACTION_W2D_TRANSPARENT_TYPE:
// 1629             gizwitsProtocol.issuedFlag = STATELESS_TYPE;
// 1630             gizwitsEventProcess(&gizwitsProtocol.issuedProcessEvent, (uint8 *)gizwitsProtocol.transparentBuff, gizwitsProtocol.transparentLen);
// 1631             break;
// 1632         case GET_NTP_TYPE:
// 1633             gizwitsProtocol.issuedFlag = STATELESS_TYPE;
??gizwitsHandle_19:
        CLR     A
        MOVX    @DPTR,A
// 1634             gizwitsEventProcess(&gizwitsProtocol.NTPEvent, (uint8 *)&gizwitsProtocol.TimeNTP, sizeof(protocolTime_t));
        ; Setup parameters for call to function gizwitsEventProcess
        MOV     DPTR,#__Constant_b
        LCALL   ?PUSH_XSTACK8_X_FOUR
        CFI CFA_XSP16 add(XSP16, 96)
        MOV     R4,#(gizwitsProtocol + 235) & 0xff
        MOV     R5,#((gizwitsProtocol + 235) >> 8) & 0xff
        MOV     R2,#(gizwitsProtocol + 150) & 0xff
        MOV     R3,#((gizwitsProtocol + 150) >> 8) & 0xff
        LCALL   ??Subroutine70_0 & 0xFFFF
??CrossCallReturnLabel_170:
        LCALL   ?DEALLOC_XSTACK8
        CFI CFA_XSP16 add(XSP16, 92)
// 1635             osal_memset((uint8 *)&gizwitsProtocol.NTPEvent,0x0,sizeof(gizwitsProtocol.NTPEvent));
        ; Setup parameters for call to function osal_memset
        MOV     R4,#0x12
        MOV     R5,#0x0
        MOV     R1,#0x0
        MOV     R2,#(gizwitsProtocol + 150) & 0xff
        MOV     R3,#((gizwitsProtocol + 150) >> 8) & 0xff
        LJMP    ??gizwitsHandle_21 & 0xFFFF
??gizwitsHandle_15:
        ; Setup parameters for call to function gizProtocolErrorCmd
        MOV     R1,#0x2
        MOV     R2,#(gizwitsProtocol + 1) & 0xff
        MOV     R3,#((gizwitsProtocol + 1) >> 8) & 0xff
        LCALL   ??gizProtocolErrorCmd?relay
        LJMP    ??gizwitsHandle_13 & 0xFFFF
??gizwitsHandle_6:
        MOV     A,#-0x2
        XRL     A,R0
        JZ      $+5
        LJMP    ??gizwitsHandle_13 & 0xFFFF
        ; Setup parameters for call to function gizProtocolErrorCmd
        MOV     R1,#0x1
        MOV     R2,#0x0
        MOV     R3,#0x0
        LCALL   ??gizProtocolErrorCmd?relay
        MOV     R2,#-0x2
        LJMP    ??gizwitsHandle_1 & 0xFFFF
??gizwitsHandle_17:
        CLR     A
        MOVX    @DPTR,A
        ; Setup parameters for call to function gizwitsEventProcess
        MOV     DPTR,#__Constant_1
        LCALL   ?PUSH_XSTACK8_X_FOUR
        CFI CFA_XSP16 add(XSP16, 96)
        MOV     R4,#(gizwitsProtocol + 234) & 0xff
        MOV     R5,#((gizwitsProtocol + 234) >> 8) & 0xff
        MOV     R2,#(gizwitsProtocol + 132) & 0xff
        MOV     R3,#((gizwitsProtocol + 132) >> 8) & 0xff
        LCALL   ??Subroutine70_0 & 0xFFFF
??CrossCallReturnLabel_171:
        LCALL   ?DEALLOC_XSTACK8
        CFI CFA_XSP16 add(XSP16, 92)
        ; Setup parameters for call to function osal_memset
        MOV     R4,#0x12
        MOV     R5,#0x0
        MOV     R1,#0x0
        MOV     R2,#(gizwitsProtocol + 132) & 0xff
        MOV     R3,#((gizwitsProtocol + 132) >> 8) & 0xff
        LJMP    ??gizwitsHandle_21 & 0xFFFF
??gizwitsHandle_18:
        CLR     A
        MOVX    @DPTR,A
        ; Setup parameters for call to function gizwitsEventProcess
        MOV     DPTR,#gizwitsProtocol + 63
        LCALL   ?PUSH_XSTACK8_X_FOUR
        CFI CFA_XSP16 add(XSP16, 96)
        MOV     R4,#(gizwitsProtocol + 32) & 0xff
        MOV     R5,#((gizwitsProtocol + 32) >> 8) & 0xff
        LCALL   ?Subroutine50 & 0xFFFF
??CrossCallReturnLabel_169:
        LCALL   ?DEALLOC_XSTACK8
        CFI CFA_XSP16 add(XSP16, 92)
        LJMP    ??gizwitsHandle_22 & 0xFFFF
// 1636             break;  
// 1637         default:
// 1638           if(MacToAppFlag ==1){
??gizwitsHandle_20:
        MOV     DPTR,#MacToAppFlag
        MOVX    A,@DPTR
        XRL     A,#0x1
        JZ      $+5
        LJMP    ??gizwitsHandle_23 & 0xFFFF
// 1639             if(nodeptr == NULL){
        LCALL   ?Subroutine25 & 0xFFFF
??CrossCallReturnLabel_189:
        JNZ     ??gizwitsHandle_24
// 1640               nodeptr = nodelist;
        MOV     DPTR,#nodelist
        LCALL   ??Subroutine71_0 & 0xFFFF
??CrossCallReturnLabel_173:
        MOV     DPTR,#??nodeptr
        LCALL   ??Subroutine74_0 & 0xFFFF
// 1641               for(i=0;i<20;i++)
// 1642                 currentDataPoint.valueaa1[i]=0;
??CrossCallReturnLabel_191:
        CLR     A
        MOV     DPTR,#currentDataPoint
        MOV     R0,#0x14
??gizwitsHandle_25:
        MOVX    @DPTR,A
        INC     DPTR
        DJNZ    R0,??gizwitsHandle_25
// 1643             }
// 1644             for(i=0;nodeptr&&i<=1;nodeptr=nodeptr->next,i++)
??gizwitsHandle_24:
        MOV     R6,#0x0
        MOV     R7,#0x0
        SJMP    ??CrossCallReturnLabel_11
??gizwitsHandle_26:
        CLR     C
        MOV     A,R6
        SUBB    A,#0x2
        MOV     A,R7
        SUBB    A,#0x0
        JNC     ??gizwitsHandle_27
// 1645             {
// 1646               osal_memcpy((uint8 *)&currentDataPoint.valueaa1[3+8*i],(uint8 *)&nodeptr->extaddr, 8);
        ; Setup parameters for call to function osal_memcpy
        MOV     DPTR,#??nodeptr
        LCALL   ?Subroutine23 & 0xFFFF
// 1647             }
??CrossCallReturnLabel_30:
        LCALL   ?PUSH_XSTACK_I_THREE
        CFI CFA_XSP16 add(XSP16, 95)
        MOV     R4,#0x8
        MOV     R5,#0x0
        MOV     ?V0 + 2,R6
        MOV     ?V0 + 3,R7
        MOV     A,#0x3
        MOV     R0,#?V0 + 2
        LCALL   ?S_SHL
        LCALL   ?Subroutine51 & 0xFFFF
??CrossCallReturnLabel_81:
        LCALL   ??Subroutine62_0 & 0xFFFF
??CrossCallReturnLabel_114:
        LCALL   ?DEALLOC_XSTACK8
        CFI CFA_XSP16 add(XSP16, 92)
        MOV     DPTR,#??nodeptr
        LCALL   ?Subroutine26 & 0xFFFF
??CrossCallReturnLabel_36:
        MOV     DPTR,#??nodeptr
        LCALL   ?Subroutine13 & 0xFFFF
??CrossCallReturnLabel_11:
        LCALL   ?Subroutine25 & 0xFFFF
??CrossCallReturnLabel_190:
        JNZ     ??gizwitsHandle_26
// 1648 
// 1649             if(nodeptr == NULL){
// 1650               MacToAppFlag = 0;
        MOV     DPTR,#MacToAppFlag
        CLR     A
        MOVX    @DPTR,A
// 1651             }
// 1652             currentDataPoint.valueaa1[0]=0x10;
??gizwitsHandle_27:
        MOV     DPTR,#currentDataPoint
        MOV     A,#0x10
        MOVX    @DPTR,A
// 1653             currentDataPoint.valueaa1[1]=i;
        MOV     A,R6
        INC     DPTR
        MOVX    @DPTR,A
// 1654             if(i==1)
        MOV     A,#0x1
        XRL     A,R6
        JNZ     ??gizwitsHandle_28
        MOV     A,R7
??gizwitsHandle_28:
        JZ      $+5
        LJMP    ??gizwitsHandle_22 & 0xFFFF
// 1655               for(i=11;i<20;i++)
// 1656                 currentDataPoint.valueaa1[i]=0;
        CLR     A
        MOV     DPTR,#currentDataPoint + 11
        MOV     R0,#0x9
??gizwitsHandle_29:
        MOVX    @DPTR,A
        INC     DPTR
        DJNZ    R0,??gizwitsHandle_29
        LJMP    ??gizwitsHandle_22 & 0xFFFF
// 1657           }
// 1658           else if(deletnodelist){
??gizwitsHandle_23:
        MOV     DPTR,#deletnodelist
        LCALL   ??Subroutine73_0 & 0xFFFF
??CrossCallReturnLabel_187:
        JNZ     $+5
        LJMP    ??gizwitsHandle_30 & 0xFFFF
// 1659             AutoUpateMac = 1;
        MOV     DPTR,#AutoUpateMac
        MOV     A,#0x1
        LCALL   ?Subroutine11 & 0xFFFF
// 1660             deletnodeptr = deletnodelist->next;
??CrossCallReturnLabel_8:
        MOV     R6,A
        INC     DPTR
        MOVX    A,@DPTR
        MOV     R7,A
// 1661             for(i=0;i<20;i++)
// 1662               currentDataPoint.valueaa1[i]=0;
        CLR     A
        MOV     DPTR,#currentDataPoint
        MOV     R0,#0x14
??gizwitsHandle_31:
        MOVX    @DPTR,A
        INC     DPTR
        DJNZ    R0,??gizwitsHandle_31
// 1663             osal_memcpy((uint8 *)&currentDataPoint.valueaa1[3],(uint8 *)&deletnodelist->extaddr, 8);
        ; Setup parameters for call to function osal_memcpy
        MOV     DPTR,#deletnodelist
        LCALL   ?Subroutine23 & 0xFFFF
??CrossCallReturnLabel_31:
        LCALL   ?PUSH_XSTACK_I_THREE
        CFI CFA_XSP16 add(XSP16, 95)
        MOV     R4,#0x8
        MOV     R5,#0x0
        MOV     R2,#(currentDataPoint + 3) & 0xff
        MOV     R3,#((currentDataPoint + 3) >> 8) & 0xff
        LCALL   ??Subroutine62_0 & 0xFFFF
??CrossCallReturnLabel_115:
        LCALL   ?DEALLOC_XSTACK8
        CFI CFA_XSP16 add(XSP16, 92)
// 1664             osal_mem_free(((Node*)deletnodelist));
        ; Setup parameters for call to function osal_mem_free
        LCALL   ?Subroutine37 & 0xFFFF
// 1665             deletnodelist = deletnodeptr;
??CrossCallReturnLabel_61:
        MOV     DPTR,#deletnodelist
        MOV     A,R6
        MOVX    @DPTR,A
        INC     DPTR
        MOV     A,R7
        LCALL   ?Subroutine11 & 0xFFFF
// 1666             if(deletnodelist->next){
??CrossCallReturnLabel_9:
        MOV     R0,A
        INC     DPTR
        MOVX    A,@DPTR
        MOV     R1,A
        MOV     A,R0
        ORL     A,R1
        JZ      ??gizwitsHandle_32
// 1667               deletnodeptr = deletnodelist->next;
        LCALL   ?Subroutine54 & 0xFFFF
??CrossCallReturnLabel_198:
        MOV     R6,A
        INC     DPTR
        MOVX    A,@DPTR
        MOV     R7,A
// 1668               osal_memcpy((uint8 *)&currentDataPoint.valueaa1[3+8],(uint8 *)&deletnodelist->extaddr, 8);
        ; Setup parameters for call to function osal_memcpy
        MOV     DPTR,#deletnodelist
        LCALL   ?Subroutine58 & 0xFFFF
??CrossCallReturnLabel_91:
        MOV     R0,#?V0 + 4
        LCALL   ?PUSH_XSTACK_I_THREE
        CFI CFA_XSP16 add(XSP16, 95)
        MOV     R4,#0x8
        MOV     R5,#0x0
        MOV     R2,#(currentDataPoint + 11) & 0xff
        MOV     R3,#((currentDataPoint + 11) >> 8) & 0xff
        LCALL   ??Subroutine62_0 & 0xFFFF
??CrossCallReturnLabel_116:
        LCALL   ?DEALLOC_XSTACK8
        CFI CFA_XSP16 add(XSP16, 92)
// 1669               currentDataPoint.valueaa1[0] = 0x20;
        MOV     DPTR,#currentDataPoint
        MOV     A,#0x20
        MOVX    @DPTR,A
// 1670               currentDataPoint.valueaa1[1] = 2;
        INC     DPTR
        MOV     A,#0x2
        MOVX    @DPTR,A
// 1671               osal_mem_free(((Node*)deletnodelist));
        ; Setup parameters for call to function osal_mem_free
        LCALL   ?Subroutine37 & 0xFFFF
// 1672               deletnodelist = deletnodeptr;
??CrossCallReturnLabel_62:
        MOV     A,R6
        MOV     R0,A
        MOV     A,R7
        MOV     R1,A
        MOV     DPTR,#deletnodelist
        MOV     A,R0
        MOVX    @DPTR,A
        INC     DPTR
        MOV     A,R1
        SJMP    ??gizwitsHandle_33
// 1673             }
// 1674             else{
// 1675               currentDataPoint.valueaa1[0] = 0x20;
??gizwitsHandle_32:
        MOV     DPTR,#currentDataPoint
        MOV     A,#0x20
        MOVX    @DPTR,A
// 1676               currentDataPoint.valueaa1[1] = 1;
        INC     DPTR
        MOV     A,#0x1
??gizwitsHandle_33:
        MOVX    @DPTR,A
// 1677             }
// 1678             AutoUpateMac = 0;
        MOV     DPTR,#AutoUpateMac
        CLR     A
        SJMP    ??gizwitsHandle_34
// 1679           }
// 1680           else if(NewMacUpate){
??gizwitsHandle_30:
        MOV     DPTR,#NewMacUpate
        MOVX    A,@DPTR
        JZ      ??gizwitsHandle_22
// 1681             updatenodeptr = nodelist;
        MOV     DPTR,#nodelist
        LCALL   ??Subroutine71_0 & 0xFFFF
??CrossCallReturnLabel_174:
        MOV     DPTR,#??updatenodeptr
        LCALL   ??Subroutine74_0 & 0xFFFF
// 1682             for(i=0;updatenodeptr && i<2;i++){
??CrossCallReturnLabel_192:
        MOV     R6,#0x0
        MOV     R7,#0x0
        SJMP    ??CrossCallReturnLabel_10
??gizwitsHandle_35:
        CLR     C
        MOV     A,R6
        SUBB    A,#0x2
        MOV     A,R7
        SUBB    A,#0x0
        JNC     ??gizwitsHandle_36
// 1683               if(updatenodeptr->element){
        MOVX    A,@DPTR
        MOV     DPH,A
        MOV     DPL,R0
        MOVX    A,@DPTR
        JZ      ??gizwitsHandle_37
// 1684                 updatenodeptr->element = 0;
        MOV     DPTR,#??updatenodeptr + 1
        MOVX    A,@DPTR
        MOV     DPH,A
        MOV     DPL,R0
        CLR     A
        MOVX    @DPTR,A
// 1685                 osal_memcpy((uint8 *)&currentDataPoint.valueaa1[3+8*i],(uint8 *)&updatenodeptr->extaddr, 8);
        ; Setup parameters for call to function osal_memcpy
        MOV     DPTR,#??updatenodeptr
        LCALL   ?Subroutine23 & 0xFFFF
// 1686               }
??CrossCallReturnLabel_32:
        LCALL   ?PUSH_XSTACK_I_THREE
        CFI CFA_XSP16 add(XSP16, 95)
        MOV     R4,#0x8
        MOV     R5,#0x0
        MOV     ?V0 + 2,R6
        MOV     ?V0 + 3,R7
        MOV     A,#0x3
        MOV     R0,#?V0 + 2
        LCALL   ?S_SHL
        LCALL   ?Subroutine51 & 0xFFFF
??CrossCallReturnLabel_82:
        LCALL   ??Subroutine62_0 & 0xFFFF
??CrossCallReturnLabel_117:
        LCALL   ?DEALLOC_XSTACK8
        CFI CFA_XSP16 add(XSP16, 92)
// 1687               updatenodeptr = updatenodeptr->next;
??gizwitsHandle_37:
        MOV     DPTR,#??updatenodeptr
        LCALL   ?Subroutine26 & 0xFFFF
// 1688             }
??CrossCallReturnLabel_37:
        MOV     DPTR,#??updatenodeptr
        LCALL   ?Subroutine13 & 0xFFFF
??CrossCallReturnLabel_10:
        MOV     DPTR,#??updatenodeptr
        LCALL   ??Subroutine73_0 & 0xFFFF
??CrossCallReturnLabel_188:
        JNZ     ??gizwitsHandle_35
// 1689             if(updatenodeptr==NULL){
// 1690               NewMacUpate = 0;
        MOV     DPTR,#NewMacUpate
        CLR     A
        MOVX    @DPTR,A
// 1691             }
// 1692             currentDataPoint.valueaa1[0] = 0x10;
??gizwitsHandle_36:
        MOV     DPTR,#currentDataPoint
        MOV     A,#0x10
        MOVX    @DPTR,A
// 1693             currentDataPoint.valueaa1[1] = i;
        MOV     A,R6
        INC     DPTR
??gizwitsHandle_34:
        MOVX    @DPTR,A
// 1694           }
// 1695             break;
// 1696     }
// 1697 
// 1698     gizDevReportPolicy(currentData);
??gizwitsHandle_22:
        ; Setup parameters for call to function gizDevReportPolicy
        MOV     R2,?V0 + 0
        MOV     R3,?V0 + 1
        LCALL   ??gizDevReportPolicy?relay
// 1699 
// 1700     return 0;
        MOV     R2,#0x0
        MOV     R3,#0x0
        MOV     R4,#0x0
        MOV     R5,#0x0
??gizwitsHandle_2:
        MOV     A,#0x44
        LJMP    ?Subroutine0 & 0xFFFF
        CFI EndBlock cfiBlock284
// 1701 }

        RSEG BANKED_CODE:CODE:NOROOT(0)
?Subroutine51:
        CFI Block cfiCond285 Using cfiCommon0
        CFI NoFunction
        CFI Conditional ??CrossCallReturnLabel_81
        CFI R6 load(1, XDATA, add(CFA_XSP16, literal(-24)))
        CFI VB load(1, XDATA, add(CFA_XSP16, literal(-23)))
        CFI V0 load(1, XDATA, add(CFA_XSP16, literal(-22)))
        CFI V1 load(1, XDATA, add(CFA_XSP16, literal(-21)))
        CFI V2 load(1, XDATA, add(CFA_XSP16, literal(-20)))
        CFI V3 load(1, XDATA, add(CFA_XSP16, literal(-19)))
        CFI V4 load(1, XDATA, add(CFA_XSP16, literal(-18)))
        CFI V5 load(1, XDATA, add(CFA_XSP16, literal(-17)))
        CFI V6 load(1, XDATA, add(CFA_XSP16, literal(-16)))
        CFI V7 load(1, XDATA, add(CFA_XSP16, literal(-15)))
        CFI V8 load(1, XDATA, add(CFA_XSP16, literal(-14)))
        CFI V9 load(1, XDATA, add(CFA_XSP16, literal(-13)))
        CFI V10 load(1, XDATA, add(CFA_XSP16, literal(-12)))
        CFI V11 load(1, XDATA, add(CFA_XSP16, literal(-11)))
        CFI V12 load(1, XDATA, add(CFA_XSP16, literal(-10)))
        CFI V13 load(1, XDATA, add(CFA_XSP16, literal(-9)))
        CFI V14 load(1, XDATA, add(CFA_XSP16, literal(-8)))
        CFI V15 load(1, XDATA, add(CFA_XSP16, literal(-7)))
        CFI R7 load(1, XDATA, add(CFA_XSP16, literal(-6)))
        CFI ?RET_LOW load(1, XDATA, add(CFA_XSP16, literal(-5)))
        CFI ?RET_HIGH load(1, XDATA, add(CFA_XSP16, literal(-4)))
        CFI ?BRET_EXT load(1, XDATA, add(CFA_XSP16, literal(-3)))
        CFI DPL0 load(1, XDATA, add(CFA_XSP16, literal(-2)))
        CFI DPH0 load(1, XDATA, add(CFA_XSP16, literal(-1)))
        CFI CFA_SP SP+0
        CFI CFA_XSP16 add(XSP16, 95)
        CFI Block cfiCond286 Using cfiCommon0
        CFI (cfiCond286) NoFunction
        CFI (cfiCond286) Conditional ??CrossCallReturnLabel_82
        CFI (cfiCond286) R6 load(1, XDATA, add(CFA_XSP16, literal(-24)))
        CFI (cfiCond286) VB load(1, XDATA, add(CFA_XSP16, literal(-23)))
        CFI (cfiCond286) V0 load(1, XDATA, add(CFA_XSP16, literal(-22)))
        CFI (cfiCond286) V1 load(1, XDATA, add(CFA_XSP16, literal(-21)))
        CFI (cfiCond286) V2 load(1, XDATA, add(CFA_XSP16, literal(-20)))
        CFI (cfiCond286) V3 load(1, XDATA, add(CFA_XSP16, literal(-19)))
        CFI (cfiCond286) V4 load(1, XDATA, add(CFA_XSP16, literal(-18)))
        CFI (cfiCond286) V5 load(1, XDATA, add(CFA_XSP16, literal(-17)))
        CFI (cfiCond286) V6 load(1, XDATA, add(CFA_XSP16, literal(-16)))
        CFI (cfiCond286) V7 load(1, XDATA, add(CFA_XSP16, literal(-15)))
        CFI (cfiCond286) V8 load(1, XDATA, add(CFA_XSP16, literal(-14)))
        CFI (cfiCond286) V9 load(1, XDATA, add(CFA_XSP16, literal(-13)))
        CFI (cfiCond286) V10 load(1, XDATA, add(CFA_XSP16, literal(-12)))
        CFI (cfiCond286) V11 load(1, XDATA, add(CFA_XSP16, literal(-11)))
        CFI (cfiCond286) V12 load(1, XDATA, add(CFA_XSP16, literal(-10)))
        CFI (cfiCond286) V13 load(1, XDATA, add(CFA_XSP16, literal(-9)))
        CFI (cfiCond286) V14 load(1, XDATA, add(CFA_XSP16, literal(-8)))
        CFI (cfiCond286) V15 load(1, XDATA, add(CFA_XSP16, literal(-7)))
        CFI (cfiCond286) R7 load(1, XDATA, add(CFA_XSP16, literal(-6)))
        CFI (cfiCond286) ?RET_LOW load(1, XDATA, add(CFA_XSP16, literal(-5)))
        CFI (cfiCond286) ?RET_HIGH load(1, XDATA, add(CFA_XSP16, literal(-4)))
        CFI (cfiCond286) ?BRET_EXT load(1, XDATA, add(CFA_XSP16, literal(-3)))
        CFI (cfiCond286) DPL0 load(1, XDATA, add(CFA_XSP16, literal(-2)))
        CFI (cfiCond286) DPH0 load(1, XDATA, add(CFA_XSP16, literal(-1)))
        CFI (cfiCond286) CFA_SP SP+0
        CFI (cfiCond286) CFA_XSP16 add(XSP16, 95)
        CFI Block cfiPicker287 Using cfiCommon1
        CFI (cfiPicker287) NoFunction
        CFI (cfiPicker287) Picker
        MOV     A,#(currentDataPoint + 3) & 0xff
        ADD     A,?V0 + 2
        MOV     R2,A
        MOV     A,#((currentDataPoint + 3) >> 8) & 0xff
        ADDC    A,?V0 + 3
        MOV     R3,A
        RET
        CFI EndBlock cfiCond285
        CFI EndBlock cfiCond286
        CFI EndBlock cfiPicker287

        RSEG BANKED_CODE:CODE:NOROOT(0)
?Subroutine50:
        CFI Block cfiCond288 Using cfiCommon0
        CFI NoFunction
        CFI Conditional ??CrossCallReturnLabel_168
        CFI R6 load(1, XDATA, add(CFA_XSP16, literal(-24)))
        CFI VB load(1, XDATA, add(CFA_XSP16, literal(-23)))
        CFI V0 load(1, XDATA, add(CFA_XSP16, literal(-22)))
        CFI V1 load(1, XDATA, add(CFA_XSP16, literal(-21)))
        CFI V2 load(1, XDATA, add(CFA_XSP16, literal(-20)))
        CFI V3 load(1, XDATA, add(CFA_XSP16, literal(-19)))
        CFI V4 load(1, XDATA, add(CFA_XSP16, literal(-18)))
        CFI V5 load(1, XDATA, add(CFA_XSP16, literal(-17)))
        CFI V6 load(1, XDATA, add(CFA_XSP16, literal(-16)))
        CFI V7 load(1, XDATA, add(CFA_XSP16, literal(-15)))
        CFI V8 load(1, XDATA, add(CFA_XSP16, literal(-14)))
        CFI V9 load(1, XDATA, add(CFA_XSP16, literal(-13)))
        CFI V10 load(1, XDATA, add(CFA_XSP16, literal(-12)))
        CFI V11 load(1, XDATA, add(CFA_XSP16, literal(-11)))
        CFI V12 load(1, XDATA, add(CFA_XSP16, literal(-10)))
        CFI V13 load(1, XDATA, add(CFA_XSP16, literal(-9)))
        CFI V14 load(1, XDATA, add(CFA_XSP16, literal(-8)))
        CFI V15 load(1, XDATA, add(CFA_XSP16, literal(-7)))
        CFI R7 load(1, XDATA, add(CFA_XSP16, literal(-6)))
        CFI ?RET_LOW load(1, XDATA, add(CFA_XSP16, literal(-5)))
        CFI ?RET_HIGH load(1, XDATA, add(CFA_XSP16, literal(-4)))
        CFI ?BRET_EXT load(1, XDATA, add(CFA_XSP16, literal(-3)))
        CFI DPL0 load(1, XDATA, add(CFA_XSP16, literal(-2)))
        CFI DPH0 load(1, XDATA, add(CFA_XSP16, literal(-1)))
        CFI CFA_SP SP+0
        CFI CFA_XSP16 add(XSP16, 96)
        CFI Block cfiCond289 Using cfiCommon0
        CFI (cfiCond289) NoFunction
        CFI (cfiCond289) Conditional ??CrossCallReturnLabel_169
        CFI (cfiCond289) R6 load(1, XDATA, add(CFA_XSP16, literal(-24)))
        CFI (cfiCond289) VB load(1, XDATA, add(CFA_XSP16, literal(-23)))
        CFI (cfiCond289) V0 load(1, XDATA, add(CFA_XSP16, literal(-22)))
        CFI (cfiCond289) V1 load(1, XDATA, add(CFA_XSP16, literal(-21)))
        CFI (cfiCond289) V2 load(1, XDATA, add(CFA_XSP16, literal(-20)))
        CFI (cfiCond289) V3 load(1, XDATA, add(CFA_XSP16, literal(-19)))
        CFI (cfiCond289) V4 load(1, XDATA, add(CFA_XSP16, literal(-18)))
        CFI (cfiCond289) V5 load(1, XDATA, add(CFA_XSP16, literal(-17)))
        CFI (cfiCond289) V6 load(1, XDATA, add(CFA_XSP16, literal(-16)))
        CFI (cfiCond289) V7 load(1, XDATA, add(CFA_XSP16, literal(-15)))
        CFI (cfiCond289) V8 load(1, XDATA, add(CFA_XSP16, literal(-14)))
        CFI (cfiCond289) V9 load(1, XDATA, add(CFA_XSP16, literal(-13)))
        CFI (cfiCond289) V10 load(1, XDATA, add(CFA_XSP16, literal(-12)))
        CFI (cfiCond289) V11 load(1, XDATA, add(CFA_XSP16, literal(-11)))
        CFI (cfiCond289) V12 load(1, XDATA, add(CFA_XSP16, literal(-10)))
        CFI (cfiCond289) V13 load(1, XDATA, add(CFA_XSP16, literal(-9)))
        CFI (cfiCond289) V14 load(1, XDATA, add(CFA_XSP16, literal(-8)))
        CFI (cfiCond289) V15 load(1, XDATA, add(CFA_XSP16, literal(-7)))
        CFI (cfiCond289) R7 load(1, XDATA, add(CFA_XSP16, literal(-6)))
        CFI (cfiCond289) ?RET_LOW load(1, XDATA, add(CFA_XSP16, literal(-5)))
        CFI (cfiCond289) ?RET_HIGH load(1, XDATA, add(CFA_XSP16, literal(-4)))
        CFI (cfiCond289) ?BRET_EXT load(1, XDATA, add(CFA_XSP16, literal(-3)))
        CFI (cfiCond289) DPL0 load(1, XDATA, add(CFA_XSP16, literal(-2)))
        CFI (cfiCond289) DPH0 load(1, XDATA, add(CFA_XSP16, literal(-1)))
        CFI (cfiCond289) CFA_SP SP+0
        CFI (cfiCond289) CFA_XSP16 add(XSP16, 96)
        CFI Block cfiPicker290 Using cfiCommon1
        CFI (cfiPicker290) NoFunction
        CFI (cfiPicker290) Picker
        MOV     R2,#(gizwitsProtocol + 114) & 0xff
        MOV     R3,#((gizwitsProtocol + 114) >> 8) & 0xff
        CFI EndBlock cfiCond288
        CFI EndBlock cfiCond289
        CFI EndBlock cfiPicker290
        REQUIRE ??Subroutine70_0
        ; // Fall through to label ??Subroutine70_0

        RSEG BANKED_CODE:CODE:NOROOT(0)
??Subroutine70_0:
        CFI Block cfiCond291 Using cfiCommon0
        CFI NoFunction
        CFI Conditional ??CrossCallReturnLabel_170
        CFI R6 load(1, XDATA, add(CFA_XSP16, literal(-24)))
        CFI VB load(1, XDATA, add(CFA_XSP16, literal(-23)))
        CFI V0 load(1, XDATA, add(CFA_XSP16, literal(-22)))
        CFI V1 load(1, XDATA, add(CFA_XSP16, literal(-21)))
        CFI V2 load(1, XDATA, add(CFA_XSP16, literal(-20)))
        CFI V3 load(1, XDATA, add(CFA_XSP16, literal(-19)))
        CFI V4 load(1, XDATA, add(CFA_XSP16, literal(-18)))
        CFI V5 load(1, XDATA, add(CFA_XSP16, literal(-17)))
        CFI V6 load(1, XDATA, add(CFA_XSP16, literal(-16)))
        CFI V7 load(1, XDATA, add(CFA_XSP16, literal(-15)))
        CFI V8 load(1, XDATA, add(CFA_XSP16, literal(-14)))
        CFI V9 load(1, XDATA, add(CFA_XSP16, literal(-13)))
        CFI V10 load(1, XDATA, add(CFA_XSP16, literal(-12)))
        CFI V11 load(1, XDATA, add(CFA_XSP16, literal(-11)))
        CFI V12 load(1, XDATA, add(CFA_XSP16, literal(-10)))
        CFI V13 load(1, XDATA, add(CFA_XSP16, literal(-9)))
        CFI V14 load(1, XDATA, add(CFA_XSP16, literal(-8)))
        CFI V15 load(1, XDATA, add(CFA_XSP16, literal(-7)))
        CFI R7 load(1, XDATA, add(CFA_XSP16, literal(-6)))
        CFI ?RET_LOW load(1, XDATA, add(CFA_XSP16, literal(-5)))
        CFI ?RET_HIGH load(1, XDATA, add(CFA_XSP16, literal(-4)))
        CFI ?BRET_EXT load(1, XDATA, add(CFA_XSP16, literal(-3)))
        CFI DPL0 load(1, XDATA, add(CFA_XSP16, literal(-2)))
        CFI DPH0 load(1, XDATA, add(CFA_XSP16, literal(-1)))
        CFI CFA_SP SP+0
        CFI CFA_XSP16 add(XSP16, 96)
        CFI Block cfiCond292 Using cfiCommon0
        CFI (cfiCond292) NoFunction
        CFI (cfiCond292) Conditional ??CrossCallReturnLabel_171
        CFI (cfiCond292) R6 load(1, XDATA, add(CFA_XSP16, literal(-24)))
        CFI (cfiCond292) VB load(1, XDATA, add(CFA_XSP16, literal(-23)))
        CFI (cfiCond292) V0 load(1, XDATA, add(CFA_XSP16, literal(-22)))
        CFI (cfiCond292) V1 load(1, XDATA, add(CFA_XSP16, literal(-21)))
        CFI (cfiCond292) V2 load(1, XDATA, add(CFA_XSP16, literal(-20)))
        CFI (cfiCond292) V3 load(1, XDATA, add(CFA_XSP16, literal(-19)))
        CFI (cfiCond292) V4 load(1, XDATA, add(CFA_XSP16, literal(-18)))
        CFI (cfiCond292) V5 load(1, XDATA, add(CFA_XSP16, literal(-17)))
        CFI (cfiCond292) V6 load(1, XDATA, add(CFA_XSP16, literal(-16)))
        CFI (cfiCond292) V7 load(1, XDATA, add(CFA_XSP16, literal(-15)))
        CFI (cfiCond292) V8 load(1, XDATA, add(CFA_XSP16, literal(-14)))
        CFI (cfiCond292) V9 load(1, XDATA, add(CFA_XSP16, literal(-13)))
        CFI (cfiCond292) V10 load(1, XDATA, add(CFA_XSP16, literal(-12)))
        CFI (cfiCond292) V11 load(1, XDATA, add(CFA_XSP16, literal(-11)))
        CFI (cfiCond292) V12 load(1, XDATA, add(CFA_XSP16, literal(-10)))
        CFI (cfiCond292) V13 load(1, XDATA, add(CFA_XSP16, literal(-9)))
        CFI (cfiCond292) V14 load(1, XDATA, add(CFA_XSP16, literal(-8)))
        CFI (cfiCond292) V15 load(1, XDATA, add(CFA_XSP16, literal(-7)))
        CFI (cfiCond292) R7 load(1, XDATA, add(CFA_XSP16, literal(-6)))
        CFI (cfiCond292) ?RET_LOW load(1, XDATA, add(CFA_XSP16, literal(-5)))
        CFI (cfiCond292) ?RET_HIGH load(1, XDATA, add(CFA_XSP16, literal(-4)))
        CFI (cfiCond292) ?BRET_EXT load(1, XDATA, add(CFA_XSP16, literal(-3)))
        CFI (cfiCond292) DPL0 load(1, XDATA, add(CFA_XSP16, literal(-2)))
        CFI (cfiCond292) DPH0 load(1, XDATA, add(CFA_XSP16, literal(-1)))
        CFI (cfiCond292) CFA_SP SP+0
        CFI (cfiCond292) CFA_XSP16 add(XSP16, 96)
        CFI Block cfiCond293 Using cfiCommon0
        CFI (cfiCond293) NoFunction
        CFI (cfiCond293) Conditional ??CrossCallReturnLabel_168
        CFI (cfiCond293) R6 load(1, XDATA, add(CFA_XSP16, literal(-24)))
        CFI (cfiCond293) VB load(1, XDATA, add(CFA_XSP16, literal(-23)))
        CFI (cfiCond293) V0 load(1, XDATA, add(CFA_XSP16, literal(-22)))
        CFI (cfiCond293) V1 load(1, XDATA, add(CFA_XSP16, literal(-21)))
        CFI (cfiCond293) V2 load(1, XDATA, add(CFA_XSP16, literal(-20)))
        CFI (cfiCond293) V3 load(1, XDATA, add(CFA_XSP16, literal(-19)))
        CFI (cfiCond293) V4 load(1, XDATA, add(CFA_XSP16, literal(-18)))
        CFI (cfiCond293) V5 load(1, XDATA, add(CFA_XSP16, literal(-17)))
        CFI (cfiCond293) V6 load(1, XDATA, add(CFA_XSP16, literal(-16)))
        CFI (cfiCond293) V7 load(1, XDATA, add(CFA_XSP16, literal(-15)))
        CFI (cfiCond293) V8 load(1, XDATA, add(CFA_XSP16, literal(-14)))
        CFI (cfiCond293) V9 load(1, XDATA, add(CFA_XSP16, literal(-13)))
        CFI (cfiCond293) V10 load(1, XDATA, add(CFA_XSP16, literal(-12)))
        CFI (cfiCond293) V11 load(1, XDATA, add(CFA_XSP16, literal(-11)))
        CFI (cfiCond293) V12 load(1, XDATA, add(CFA_XSP16, literal(-10)))
        CFI (cfiCond293) V13 load(1, XDATA, add(CFA_XSP16, literal(-9)))
        CFI (cfiCond293) V14 load(1, XDATA, add(CFA_XSP16, literal(-8)))
        CFI (cfiCond293) V15 load(1, XDATA, add(CFA_XSP16, literal(-7)))
        CFI (cfiCond293) R7 load(1, XDATA, add(CFA_XSP16, literal(-6)))
        CFI (cfiCond293) ?RET_LOW load(1, XDATA, add(CFA_XSP16, literal(-5)))
        CFI (cfiCond293) ?RET_HIGH load(1, XDATA, add(CFA_XSP16, literal(-4)))
        CFI (cfiCond293) ?BRET_EXT load(1, XDATA, add(CFA_XSP16, literal(-3)))
        CFI (cfiCond293) DPL0 load(1, XDATA, add(CFA_XSP16, literal(-2)))
        CFI (cfiCond293) DPH0 load(1, XDATA, add(CFA_XSP16, literal(-1)))
        CFI (cfiCond293) CFA_SP SP+0
        CFI (cfiCond293) CFA_XSP16 add(XSP16, 96)
        CFI Block cfiCond294 Using cfiCommon0
        CFI (cfiCond294) NoFunction
        CFI (cfiCond294) Conditional ??CrossCallReturnLabel_169
        CFI (cfiCond294) R6 load(1, XDATA, add(CFA_XSP16, literal(-24)))
        CFI (cfiCond294) VB load(1, XDATA, add(CFA_XSP16, literal(-23)))
        CFI (cfiCond294) V0 load(1, XDATA, add(CFA_XSP16, literal(-22)))
        CFI (cfiCond294) V1 load(1, XDATA, add(CFA_XSP16, literal(-21)))
        CFI (cfiCond294) V2 load(1, XDATA, add(CFA_XSP16, literal(-20)))
        CFI (cfiCond294) V3 load(1, XDATA, add(CFA_XSP16, literal(-19)))
        CFI (cfiCond294) V4 load(1, XDATA, add(CFA_XSP16, literal(-18)))
        CFI (cfiCond294) V5 load(1, XDATA, add(CFA_XSP16, literal(-17)))
        CFI (cfiCond294) V6 load(1, XDATA, add(CFA_XSP16, literal(-16)))
        CFI (cfiCond294) V7 load(1, XDATA, add(CFA_XSP16, literal(-15)))
        CFI (cfiCond294) V8 load(1, XDATA, add(CFA_XSP16, literal(-14)))
        CFI (cfiCond294) V9 load(1, XDATA, add(CFA_XSP16, literal(-13)))
        CFI (cfiCond294) V10 load(1, XDATA, add(CFA_XSP16, literal(-12)))
        CFI (cfiCond294) V11 load(1, XDATA, add(CFA_XSP16, literal(-11)))
        CFI (cfiCond294) V12 load(1, XDATA, add(CFA_XSP16, literal(-10)))
        CFI (cfiCond294) V13 load(1, XDATA, add(CFA_XSP16, literal(-9)))
        CFI (cfiCond294) V14 load(1, XDATA, add(CFA_XSP16, literal(-8)))
        CFI (cfiCond294) V15 load(1, XDATA, add(CFA_XSP16, literal(-7)))
        CFI (cfiCond294) R7 load(1, XDATA, add(CFA_XSP16, literal(-6)))
        CFI (cfiCond294) ?RET_LOW load(1, XDATA, add(CFA_XSP16, literal(-5)))
        CFI (cfiCond294) ?RET_HIGH load(1, XDATA, add(CFA_XSP16, literal(-4)))
        CFI (cfiCond294) ?BRET_EXT load(1, XDATA, add(CFA_XSP16, literal(-3)))
        CFI (cfiCond294) DPL0 load(1, XDATA, add(CFA_XSP16, literal(-2)))
        CFI (cfiCond294) DPH0 load(1, XDATA, add(CFA_XSP16, literal(-1)))
        CFI (cfiCond294) CFA_SP SP+0
        CFI (cfiCond294) CFA_XSP16 add(XSP16, 96)
        CFI Block cfiPicker295 Using cfiCommon1
        CFI (cfiPicker295) NoFunction
        CFI (cfiPicker295) Picker
        LCALL   ??gizwitsEventProcess?relay
        MOV     A,#0x4
        RET
        CFI EndBlock cfiCond291
        CFI EndBlock cfiCond292
        CFI EndBlock cfiCond293
        CFI EndBlock cfiCond294
        CFI EndBlock cfiPicker295

        RSEG BANKED_CODE:CODE:NOROOT(0)
?Subroutine44:
        CFI Block cfiCond296 Using cfiCommon0
        CFI NoFunction
        CFI Conditional ??CrossCallReturnLabel_71
        CFI R6 load(1, XDATA, add(CFA_XSP16, literal(-24)))
        CFI VB load(1, XDATA, add(CFA_XSP16, literal(-23)))
        CFI V0 load(1, XDATA, add(CFA_XSP16, literal(-22)))
        CFI V1 load(1, XDATA, add(CFA_XSP16, literal(-21)))
        CFI V2 load(1, XDATA, add(CFA_XSP16, literal(-20)))
        CFI V3 load(1, XDATA, add(CFA_XSP16, literal(-19)))
        CFI V4 load(1, XDATA, add(CFA_XSP16, literal(-18)))
        CFI V5 load(1, XDATA, add(CFA_XSP16, literal(-17)))
        CFI V6 load(1, XDATA, add(CFA_XSP16, literal(-16)))
        CFI V7 load(1, XDATA, add(CFA_XSP16, literal(-15)))
        CFI V8 load(1, XDATA, add(CFA_XSP16, literal(-14)))
        CFI V9 load(1, XDATA, add(CFA_XSP16, literal(-13)))
        CFI V10 load(1, XDATA, add(CFA_XSP16, literal(-12)))
        CFI V11 load(1, XDATA, add(CFA_XSP16, literal(-11)))
        CFI V12 load(1, XDATA, add(CFA_XSP16, literal(-10)))
        CFI V13 load(1, XDATA, add(CFA_XSP16, literal(-9)))
        CFI V14 load(1, XDATA, add(CFA_XSP16, literal(-8)))
        CFI V15 load(1, XDATA, add(CFA_XSP16, literal(-7)))
        CFI R7 load(1, XDATA, add(CFA_XSP16, literal(-6)))
        CFI ?RET_LOW load(1, XDATA, add(CFA_XSP16, literal(-5)))
        CFI ?RET_HIGH load(1, XDATA, add(CFA_XSP16, literal(-4)))
        CFI ?BRET_EXT load(1, XDATA, add(CFA_XSP16, literal(-3)))
        CFI DPL0 load(1, XDATA, add(CFA_XSP16, literal(-2)))
        CFI DPH0 load(1, XDATA, add(CFA_XSP16, literal(-1)))
        CFI CFA_SP SP+0
        CFI CFA_XSP16 add(XSP16, 92)
        CFI Block cfiCond297 Using cfiCommon0
        CFI (cfiCond297) NoFunction
        CFI (cfiCond297) Conditional ??CrossCallReturnLabel_72
        CFI (cfiCond297) R6 load(1, XDATA, add(CFA_XSP16, literal(-24)))
        CFI (cfiCond297) VB load(1, XDATA, add(CFA_XSP16, literal(-23)))
        CFI (cfiCond297) V0 load(1, XDATA, add(CFA_XSP16, literal(-22)))
        CFI (cfiCond297) V1 load(1, XDATA, add(CFA_XSP16, literal(-21)))
        CFI (cfiCond297) V2 load(1, XDATA, add(CFA_XSP16, literal(-20)))
        CFI (cfiCond297) V3 load(1, XDATA, add(CFA_XSP16, literal(-19)))
        CFI (cfiCond297) V4 load(1, XDATA, add(CFA_XSP16, literal(-18)))
        CFI (cfiCond297) V5 load(1, XDATA, add(CFA_XSP16, literal(-17)))
        CFI (cfiCond297) V6 load(1, XDATA, add(CFA_XSP16, literal(-16)))
        CFI (cfiCond297) V7 load(1, XDATA, add(CFA_XSP16, literal(-15)))
        CFI (cfiCond297) V8 load(1, XDATA, add(CFA_XSP16, literal(-14)))
        CFI (cfiCond297) V9 load(1, XDATA, add(CFA_XSP16, literal(-13)))
        CFI (cfiCond297) V10 load(1, XDATA, add(CFA_XSP16, literal(-12)))
        CFI (cfiCond297) V11 load(1, XDATA, add(CFA_XSP16, literal(-11)))
        CFI (cfiCond297) V12 load(1, XDATA, add(CFA_XSP16, literal(-10)))
        CFI (cfiCond297) V13 load(1, XDATA, add(CFA_XSP16, literal(-9)))
        CFI (cfiCond297) V14 load(1, XDATA, add(CFA_XSP16, literal(-8)))
        CFI (cfiCond297) V15 load(1, XDATA, add(CFA_XSP16, literal(-7)))
        CFI (cfiCond297) R7 load(1, XDATA, add(CFA_XSP16, literal(-6)))
        CFI (cfiCond297) ?RET_LOW load(1, XDATA, add(CFA_XSP16, literal(-5)))
        CFI (cfiCond297) ?RET_HIGH load(1, XDATA, add(CFA_XSP16, literal(-4)))
        CFI (cfiCond297) ?BRET_EXT load(1, XDATA, add(CFA_XSP16, literal(-3)))
        CFI (cfiCond297) DPL0 load(1, XDATA, add(CFA_XSP16, literal(-2)))
        CFI (cfiCond297) DPH0 load(1, XDATA, add(CFA_XSP16, literal(-1)))
        CFI (cfiCond297) CFA_SP SP+0
        CFI (cfiCond297) CFA_XSP16 add(XSP16, 92)
        CFI Block cfiPicker298 Using cfiCommon1
        CFI (cfiPicker298) NoFunction
        CFI (cfiPicker298) Picker
        LCALL   ??gizGetTimerCount?relay
        MOV     ?V0 + 4,R2
        MOV     ?V0 + 5,R3
        MOV     ?V0 + 6,R4
        MOV     ?V0 + 7,R5
        RET
        CFI EndBlock cfiCond296
        CFI EndBlock cfiCond297
        CFI EndBlock cfiPicker298

        RSEG BANKED_CODE:CODE:NOROOT(0)
?Subroutine39:
        CFI Block cfiCond299 Using cfiCommon0
        CFI NoFunction
        CFI Conditional ??CrossCallReturnLabel_175
        CFI R6 load(1, XDATA, add(CFA_XSP16, literal(-24)))
        CFI VB load(1, XDATA, add(CFA_XSP16, literal(-23)))
        CFI V0 load(1, XDATA, add(CFA_XSP16, literal(-22)))
        CFI V1 load(1, XDATA, add(CFA_XSP16, literal(-21)))
        CFI V2 load(1, XDATA, add(CFA_XSP16, literal(-20)))
        CFI V3 load(1, XDATA, add(CFA_XSP16, literal(-19)))
        CFI V4 load(1, XDATA, add(CFA_XSP16, literal(-18)))
        CFI V5 load(1, XDATA, add(CFA_XSP16, literal(-17)))
        CFI V6 load(1, XDATA, add(CFA_XSP16, literal(-16)))
        CFI V7 load(1, XDATA, add(CFA_XSP16, literal(-15)))
        CFI V8 load(1, XDATA, add(CFA_XSP16, literal(-14)))
        CFI V9 load(1, XDATA, add(CFA_XSP16, literal(-13)))
        CFI V10 load(1, XDATA, add(CFA_XSP16, literal(-12)))
        CFI V11 load(1, XDATA, add(CFA_XSP16, literal(-11)))
        CFI V12 load(1, XDATA, add(CFA_XSP16, literal(-10)))
        CFI V13 load(1, XDATA, add(CFA_XSP16, literal(-9)))
        CFI V14 load(1, XDATA, add(CFA_XSP16, literal(-8)))
        CFI V15 load(1, XDATA, add(CFA_XSP16, literal(-7)))
        CFI R7 load(1, XDATA, add(CFA_XSP16, literal(-6)))
        CFI ?RET_LOW load(1, XDATA, add(CFA_XSP16, literal(-5)))
        CFI ?RET_HIGH load(1, XDATA, add(CFA_XSP16, literal(-4)))
        CFI ?BRET_EXT load(1, XDATA, add(CFA_XSP16, literal(-3)))
        CFI DPL0 load(1, XDATA, add(CFA_XSP16, literal(-2)))
        CFI DPH0 load(1, XDATA, add(CFA_XSP16, literal(-1)))
        CFI CFA_SP SP+-2
        CFI CFA_XSP16 add(XSP16, 28)
        CFI Block cfiCond300 Using cfiCommon0
        CFI (cfiCond300) NoFunction
        CFI (cfiCond300) Conditional ??CrossCallReturnLabel_176
        CFI (cfiCond300) R6 load(1, XDATA, add(CFA_XSP16, literal(-24)))
        CFI (cfiCond300) VB load(1, XDATA, add(CFA_XSP16, literal(-23)))
        CFI (cfiCond300) V0 load(1, XDATA, add(CFA_XSP16, literal(-22)))
        CFI (cfiCond300) V1 load(1, XDATA, add(CFA_XSP16, literal(-21)))
        CFI (cfiCond300) V2 load(1, XDATA, add(CFA_XSP16, literal(-20)))
        CFI (cfiCond300) V3 load(1, XDATA, add(CFA_XSP16, literal(-19)))
        CFI (cfiCond300) V4 load(1, XDATA, add(CFA_XSP16, literal(-18)))
        CFI (cfiCond300) V5 load(1, XDATA, add(CFA_XSP16, literal(-17)))
        CFI (cfiCond300) V6 load(1, XDATA, add(CFA_XSP16, literal(-16)))
        CFI (cfiCond300) V7 load(1, XDATA, add(CFA_XSP16, literal(-15)))
        CFI (cfiCond300) V8 load(1, XDATA, add(CFA_XSP16, literal(-14)))
        CFI (cfiCond300) V9 load(1, XDATA, add(CFA_XSP16, literal(-13)))
        CFI (cfiCond300) V10 load(1, XDATA, add(CFA_XSP16, literal(-12)))
        CFI (cfiCond300) V11 load(1, XDATA, add(CFA_XSP16, literal(-11)))
        CFI (cfiCond300) V12 load(1, XDATA, add(CFA_XSP16, literal(-10)))
        CFI (cfiCond300) V13 load(1, XDATA, add(CFA_XSP16, literal(-9)))
        CFI (cfiCond300) V14 load(1, XDATA, add(CFA_XSP16, literal(-8)))
        CFI (cfiCond300) V15 load(1, XDATA, add(CFA_XSP16, literal(-7)))
        CFI (cfiCond300) R7 load(1, XDATA, add(CFA_XSP16, literal(-6)))
        CFI (cfiCond300) ?RET_LOW load(1, XDATA, add(CFA_XSP16, literal(-5)))
        CFI (cfiCond300) ?RET_HIGH load(1, XDATA, add(CFA_XSP16, literal(-4)))
        CFI (cfiCond300) ?BRET_EXT load(1, XDATA, add(CFA_XSP16, literal(-3)))
        CFI (cfiCond300) DPL0 load(1, XDATA, add(CFA_XSP16, literal(-2)))
        CFI (cfiCond300) DPH0 load(1, XDATA, add(CFA_XSP16, literal(-1)))
        CFI (cfiCond300) CFA_SP SP+-2
        CFI (cfiCond300) CFA_XSP16 add(XSP16, 28)
        CFI Block cfiPicker301 Using cfiCommon1
        CFI (cfiPicker301) NoFunction
        CFI (cfiPicker301) Picker
        INC     DPTR
        INC     DPTR
        INC     DPTR
        INC     DPTR
        CFI EndBlock cfiCond299
        CFI EndBlock cfiCond300
        CFI EndBlock cfiPicker301
        REQUIRE ??Subroutine71_0
        ; // Fall through to label ??Subroutine71_0

        RSEG BANKED_CODE:CODE:NOROOT(0)
??Subroutine71_0:
        CFI Block cfiCond302 Using cfiCommon0
        CFI NoFunction
        CFI Conditional ??CrossCallReturnLabel_172
        CFI R6 load(1, XDATA, add(CFA_XSP16, literal(-24)))
        CFI VB load(1, XDATA, add(CFA_XSP16, literal(-23)))
        CFI V0 load(1, XDATA, add(CFA_XSP16, literal(-22)))
        CFI V1 load(1, XDATA, add(CFA_XSP16, literal(-21)))
        CFI V2 load(1, XDATA, add(CFA_XSP16, literal(-20)))
        CFI V3 load(1, XDATA, add(CFA_XSP16, literal(-19)))
        CFI V4 load(1, XDATA, add(CFA_XSP16, literal(-18)))
        CFI V5 load(1, XDATA, add(CFA_XSP16, literal(-17)))
        CFI V6 load(1, XDATA, add(CFA_XSP16, literal(-16)))
        CFI V7 load(1, XDATA, add(CFA_XSP16, literal(-15)))
        CFI V8 load(1, XDATA, add(CFA_XSP16, literal(-14)))
        CFI V9 load(1, XDATA, add(CFA_XSP16, literal(-13)))
        CFI V10 load(1, XDATA, add(CFA_XSP16, literal(-12)))
        CFI V11 load(1, XDATA, add(CFA_XSP16, literal(-11)))
        CFI V12 load(1, XDATA, add(CFA_XSP16, literal(-10)))
        CFI V13 load(1, XDATA, add(CFA_XSP16, literal(-9)))
        CFI V14 load(1, XDATA, add(CFA_XSP16, literal(-8)))
        CFI V15 load(1, XDATA, add(CFA_XSP16, literal(-7)))
        CFI R7 load(1, XDATA, add(CFA_XSP16, literal(-6)))
        CFI ?RET_LOW load(1, XDATA, add(CFA_XSP16, literal(-5)))
        CFI ?RET_HIGH load(1, XDATA, add(CFA_XSP16, literal(-4)))
        CFI ?BRET_EXT load(1, XDATA, add(CFA_XSP16, literal(-3)))
        CFI DPL0 load(1, XDATA, add(CFA_XSP16, literal(-2)))
        CFI DPH0 load(1, XDATA, add(CFA_XSP16, literal(-1)))
        CFI CFA_SP SP+0
        CFI CFA_XSP16 add(XSP16, 28)
        CFI Block cfiCond303 Using cfiCommon0
        CFI (cfiCond303) NoFunction
        CFI (cfiCond303) Conditional ??CrossCallReturnLabel_173
        CFI (cfiCond303) R6 load(1, XDATA, add(CFA_XSP16, literal(-24)))
        CFI (cfiCond303) VB load(1, XDATA, add(CFA_XSP16, literal(-23)))
        CFI (cfiCond303) V0 load(1, XDATA, add(CFA_XSP16, literal(-22)))
        CFI (cfiCond303) V1 load(1, XDATA, add(CFA_XSP16, literal(-21)))
        CFI (cfiCond303) V2 load(1, XDATA, add(CFA_XSP16, literal(-20)))
        CFI (cfiCond303) V3 load(1, XDATA, add(CFA_XSP16, literal(-19)))
        CFI (cfiCond303) V4 load(1, XDATA, add(CFA_XSP16, literal(-18)))
        CFI (cfiCond303) V5 load(1, XDATA, add(CFA_XSP16, literal(-17)))
        CFI (cfiCond303) V6 load(1, XDATA, add(CFA_XSP16, literal(-16)))
        CFI (cfiCond303) V7 load(1, XDATA, add(CFA_XSP16, literal(-15)))
        CFI (cfiCond303) V8 load(1, XDATA, add(CFA_XSP16, literal(-14)))
        CFI (cfiCond303) V9 load(1, XDATA, add(CFA_XSP16, literal(-13)))
        CFI (cfiCond303) V10 load(1, XDATA, add(CFA_XSP16, literal(-12)))
        CFI (cfiCond303) V11 load(1, XDATA, add(CFA_XSP16, literal(-11)))
        CFI (cfiCond303) V12 load(1, XDATA, add(CFA_XSP16, literal(-10)))
        CFI (cfiCond303) V13 load(1, XDATA, add(CFA_XSP16, literal(-9)))
        CFI (cfiCond303) V14 load(1, XDATA, add(CFA_XSP16, literal(-8)))
        CFI (cfiCond303) V15 load(1, XDATA, add(CFA_XSP16, literal(-7)))
        CFI (cfiCond303) R7 load(1, XDATA, add(CFA_XSP16, literal(-6)))
        CFI (cfiCond303) ?RET_LOW load(1, XDATA, add(CFA_XSP16, literal(-5)))
        CFI (cfiCond303) ?RET_HIGH load(1, XDATA, add(CFA_XSP16, literal(-4)))
        CFI (cfiCond303) ?BRET_EXT load(1, XDATA, add(CFA_XSP16, literal(-3)))
        CFI (cfiCond303) DPL0 load(1, XDATA, add(CFA_XSP16, literal(-2)))
        CFI (cfiCond303) DPH0 load(1, XDATA, add(CFA_XSP16, literal(-1)))
        CFI (cfiCond303) CFA_SP SP+0
        CFI (cfiCond303) CFA_XSP16 add(XSP16, 92)
        CFI Block cfiCond304 Using cfiCommon0
        CFI (cfiCond304) NoFunction
        CFI (cfiCond304) Conditional ??CrossCallReturnLabel_174
        CFI (cfiCond304) R6 load(1, XDATA, add(CFA_XSP16, literal(-24)))
        CFI (cfiCond304) VB load(1, XDATA, add(CFA_XSP16, literal(-23)))
        CFI (cfiCond304) V0 load(1, XDATA, add(CFA_XSP16, literal(-22)))
        CFI (cfiCond304) V1 load(1, XDATA, add(CFA_XSP16, literal(-21)))
        CFI (cfiCond304) V2 load(1, XDATA, add(CFA_XSP16, literal(-20)))
        CFI (cfiCond304) V3 load(1, XDATA, add(CFA_XSP16, literal(-19)))
        CFI (cfiCond304) V4 load(1, XDATA, add(CFA_XSP16, literal(-18)))
        CFI (cfiCond304) V5 load(1, XDATA, add(CFA_XSP16, literal(-17)))
        CFI (cfiCond304) V6 load(1, XDATA, add(CFA_XSP16, literal(-16)))
        CFI (cfiCond304) V7 load(1, XDATA, add(CFA_XSP16, literal(-15)))
        CFI (cfiCond304) V8 load(1, XDATA, add(CFA_XSP16, literal(-14)))
        CFI (cfiCond304) V9 load(1, XDATA, add(CFA_XSP16, literal(-13)))
        CFI (cfiCond304) V10 load(1, XDATA, add(CFA_XSP16, literal(-12)))
        CFI (cfiCond304) V11 load(1, XDATA, add(CFA_XSP16, literal(-11)))
        CFI (cfiCond304) V12 load(1, XDATA, add(CFA_XSP16, literal(-10)))
        CFI (cfiCond304) V13 load(1, XDATA, add(CFA_XSP16, literal(-9)))
        CFI (cfiCond304) V14 load(1, XDATA, add(CFA_XSP16, literal(-8)))
        CFI (cfiCond304) V15 load(1, XDATA, add(CFA_XSP16, literal(-7)))
        CFI (cfiCond304) R7 load(1, XDATA, add(CFA_XSP16, literal(-6)))
        CFI (cfiCond304) ?RET_LOW load(1, XDATA, add(CFA_XSP16, literal(-5)))
        CFI (cfiCond304) ?RET_HIGH load(1, XDATA, add(CFA_XSP16, literal(-4)))
        CFI (cfiCond304) ?BRET_EXT load(1, XDATA, add(CFA_XSP16, literal(-3)))
        CFI (cfiCond304) DPL0 load(1, XDATA, add(CFA_XSP16, literal(-2)))
        CFI (cfiCond304) DPH0 load(1, XDATA, add(CFA_XSP16, literal(-1)))
        CFI (cfiCond304) CFA_SP SP+0
        CFI (cfiCond304) CFA_XSP16 add(XSP16, 92)
        CFI Block cfiCond305 Using cfiCommon0
        CFI (cfiCond305) NoFunction
        CFI (cfiCond305) Conditional ??CrossCallReturnLabel_175
        CFI (cfiCond305) R6 load(1, XDATA, add(CFA_XSP16, literal(-24)))
        CFI (cfiCond305) VB load(1, XDATA, add(CFA_XSP16, literal(-23)))
        CFI (cfiCond305) V0 load(1, XDATA, add(CFA_XSP16, literal(-22)))
        CFI (cfiCond305) V1 load(1, XDATA, add(CFA_XSP16, literal(-21)))
        CFI (cfiCond305) V2 load(1, XDATA, add(CFA_XSP16, literal(-20)))
        CFI (cfiCond305) V3 load(1, XDATA, add(CFA_XSP16, literal(-19)))
        CFI (cfiCond305) V4 load(1, XDATA, add(CFA_XSP16, literal(-18)))
        CFI (cfiCond305) V5 load(1, XDATA, add(CFA_XSP16, literal(-17)))
        CFI (cfiCond305) V6 load(1, XDATA, add(CFA_XSP16, literal(-16)))
        CFI (cfiCond305) V7 load(1, XDATA, add(CFA_XSP16, literal(-15)))
        CFI (cfiCond305) V8 load(1, XDATA, add(CFA_XSP16, literal(-14)))
        CFI (cfiCond305) V9 load(1, XDATA, add(CFA_XSP16, literal(-13)))
        CFI (cfiCond305) V10 load(1, XDATA, add(CFA_XSP16, literal(-12)))
        CFI (cfiCond305) V11 load(1, XDATA, add(CFA_XSP16, literal(-11)))
        CFI (cfiCond305) V12 load(1, XDATA, add(CFA_XSP16, literal(-10)))
        CFI (cfiCond305) V13 load(1, XDATA, add(CFA_XSP16, literal(-9)))
        CFI (cfiCond305) V14 load(1, XDATA, add(CFA_XSP16, literal(-8)))
        CFI (cfiCond305) V15 load(1, XDATA, add(CFA_XSP16, literal(-7)))
        CFI (cfiCond305) R7 load(1, XDATA, add(CFA_XSP16, literal(-6)))
        CFI (cfiCond305) ?RET_LOW load(1, XDATA, add(CFA_XSP16, literal(-5)))
        CFI (cfiCond305) ?RET_HIGH load(1, XDATA, add(CFA_XSP16, literal(-4)))
        CFI (cfiCond305) ?BRET_EXT load(1, XDATA, add(CFA_XSP16, literal(-3)))
        CFI (cfiCond305) DPL0 load(1, XDATA, add(CFA_XSP16, literal(-2)))
        CFI (cfiCond305) DPH0 load(1, XDATA, add(CFA_XSP16, literal(-1)))
        CFI (cfiCond305) CFA_SP SP+-2
        CFI (cfiCond305) CFA_XSP16 add(XSP16, 28)
        CFI Block cfiCond306 Using cfiCommon0
        CFI (cfiCond306) NoFunction
        CFI (cfiCond306) Conditional ??CrossCallReturnLabel_176
        CFI (cfiCond306) R6 load(1, XDATA, add(CFA_XSP16, literal(-24)))
        CFI (cfiCond306) VB load(1, XDATA, add(CFA_XSP16, literal(-23)))
        CFI (cfiCond306) V0 load(1, XDATA, add(CFA_XSP16, literal(-22)))
        CFI (cfiCond306) V1 load(1, XDATA, add(CFA_XSP16, literal(-21)))
        CFI (cfiCond306) V2 load(1, XDATA, add(CFA_XSP16, literal(-20)))
        CFI (cfiCond306) V3 load(1, XDATA, add(CFA_XSP16, literal(-19)))
        CFI (cfiCond306) V4 load(1, XDATA, add(CFA_XSP16, literal(-18)))
        CFI (cfiCond306) V5 load(1, XDATA, add(CFA_XSP16, literal(-17)))
        CFI (cfiCond306) V6 load(1, XDATA, add(CFA_XSP16, literal(-16)))
        CFI (cfiCond306) V7 load(1, XDATA, add(CFA_XSP16, literal(-15)))
        CFI (cfiCond306) V8 load(1, XDATA, add(CFA_XSP16, literal(-14)))
        CFI (cfiCond306) V9 load(1, XDATA, add(CFA_XSP16, literal(-13)))
        CFI (cfiCond306) V10 load(1, XDATA, add(CFA_XSP16, literal(-12)))
        CFI (cfiCond306) V11 load(1, XDATA, add(CFA_XSP16, literal(-11)))
        CFI (cfiCond306) V12 load(1, XDATA, add(CFA_XSP16, literal(-10)))
        CFI (cfiCond306) V13 load(1, XDATA, add(CFA_XSP16, literal(-9)))
        CFI (cfiCond306) V14 load(1, XDATA, add(CFA_XSP16, literal(-8)))
        CFI (cfiCond306) V15 load(1, XDATA, add(CFA_XSP16, literal(-7)))
        CFI (cfiCond306) R7 load(1, XDATA, add(CFA_XSP16, literal(-6)))
        CFI (cfiCond306) ?RET_LOW load(1, XDATA, add(CFA_XSP16, literal(-5)))
        CFI (cfiCond306) ?RET_HIGH load(1, XDATA, add(CFA_XSP16, literal(-4)))
        CFI (cfiCond306) ?BRET_EXT load(1, XDATA, add(CFA_XSP16, literal(-3)))
        CFI (cfiCond306) DPL0 load(1, XDATA, add(CFA_XSP16, literal(-2)))
        CFI (cfiCond306) DPH0 load(1, XDATA, add(CFA_XSP16, literal(-1)))
        CFI (cfiCond306) CFA_SP SP+-2
        CFI (cfiCond306) CFA_XSP16 add(XSP16, 28)
        CFI Block cfiPicker307 Using cfiCommon1
        CFI (cfiPicker307) NoFunction
        CFI (cfiPicker307) Picker
        MOVX    A,@DPTR
        MOV     R0,A
        INC     DPTR
        MOVX    A,@DPTR
        MOV     R1,A
        RET
        CFI EndBlock cfiCond302
        CFI EndBlock cfiCond303
        CFI EndBlock cfiCond304
        CFI EndBlock cfiCond305
        CFI EndBlock cfiCond306
        CFI EndBlock cfiPicker307

        RSEG BANKED_CODE:CODE:NOROOT(0)
?Subroutine37:
        CFI Block cfiCond308 Using cfiCommon0
        CFI NoFunction
        CFI Conditional ??CrossCallReturnLabel_61
        CFI R6 load(1, XDATA, add(CFA_XSP16, literal(-24)))
        CFI VB load(1, XDATA, add(CFA_XSP16, literal(-23)))
        CFI V0 load(1, XDATA, add(CFA_XSP16, literal(-22)))
        CFI V1 load(1, XDATA, add(CFA_XSP16, literal(-21)))
        CFI V2 load(1, XDATA, add(CFA_XSP16, literal(-20)))
        CFI V3 load(1, XDATA, add(CFA_XSP16, literal(-19)))
        CFI V4 load(1, XDATA, add(CFA_XSP16, literal(-18)))
        CFI V5 load(1, XDATA, add(CFA_XSP16, literal(-17)))
        CFI V6 load(1, XDATA, add(CFA_XSP16, literal(-16)))
        CFI V7 load(1, XDATA, add(CFA_XSP16, literal(-15)))
        CFI V8 load(1, XDATA, add(CFA_XSP16, literal(-14)))
        CFI V9 load(1, XDATA, add(CFA_XSP16, literal(-13)))
        CFI V10 load(1, XDATA, add(CFA_XSP16, literal(-12)))
        CFI V11 load(1, XDATA, add(CFA_XSP16, literal(-11)))
        CFI V12 load(1, XDATA, add(CFA_XSP16, literal(-10)))
        CFI V13 load(1, XDATA, add(CFA_XSP16, literal(-9)))
        CFI V14 load(1, XDATA, add(CFA_XSP16, literal(-8)))
        CFI V15 load(1, XDATA, add(CFA_XSP16, literal(-7)))
        CFI R7 load(1, XDATA, add(CFA_XSP16, literal(-6)))
        CFI ?RET_LOW load(1, XDATA, add(CFA_XSP16, literal(-5)))
        CFI ?RET_HIGH load(1, XDATA, add(CFA_XSP16, literal(-4)))
        CFI ?BRET_EXT load(1, XDATA, add(CFA_XSP16, literal(-3)))
        CFI DPL0 load(1, XDATA, add(CFA_XSP16, literal(-2)))
        CFI DPH0 load(1, XDATA, add(CFA_XSP16, literal(-1)))
        CFI CFA_SP SP+0
        CFI CFA_XSP16 add(XSP16, 92)
        CFI Block cfiCond309 Using cfiCommon0
        CFI (cfiCond309) NoFunction
        CFI (cfiCond309) Conditional ??CrossCallReturnLabel_62
        CFI (cfiCond309) R6 load(1, XDATA, add(CFA_XSP16, literal(-24)))
        CFI (cfiCond309) VB load(1, XDATA, add(CFA_XSP16, literal(-23)))
        CFI (cfiCond309) V0 load(1, XDATA, add(CFA_XSP16, literal(-22)))
        CFI (cfiCond309) V1 load(1, XDATA, add(CFA_XSP16, literal(-21)))
        CFI (cfiCond309) V2 load(1, XDATA, add(CFA_XSP16, literal(-20)))
        CFI (cfiCond309) V3 load(1, XDATA, add(CFA_XSP16, literal(-19)))
        CFI (cfiCond309) V4 load(1, XDATA, add(CFA_XSP16, literal(-18)))
        CFI (cfiCond309) V5 load(1, XDATA, add(CFA_XSP16, literal(-17)))
        CFI (cfiCond309) V6 load(1, XDATA, add(CFA_XSP16, literal(-16)))
        CFI (cfiCond309) V7 load(1, XDATA, add(CFA_XSP16, literal(-15)))
        CFI (cfiCond309) V8 load(1, XDATA, add(CFA_XSP16, literal(-14)))
        CFI (cfiCond309) V9 load(1, XDATA, add(CFA_XSP16, literal(-13)))
        CFI (cfiCond309) V10 load(1, XDATA, add(CFA_XSP16, literal(-12)))
        CFI (cfiCond309) V11 load(1, XDATA, add(CFA_XSP16, literal(-11)))
        CFI (cfiCond309) V12 load(1, XDATA, add(CFA_XSP16, literal(-10)))
        CFI (cfiCond309) V13 load(1, XDATA, add(CFA_XSP16, literal(-9)))
        CFI (cfiCond309) V14 load(1, XDATA, add(CFA_XSP16, literal(-8)))
        CFI (cfiCond309) V15 load(1, XDATA, add(CFA_XSP16, literal(-7)))
        CFI (cfiCond309) R7 load(1, XDATA, add(CFA_XSP16, literal(-6)))
        CFI (cfiCond309) ?RET_LOW load(1, XDATA, add(CFA_XSP16, literal(-5)))
        CFI (cfiCond309) ?RET_HIGH load(1, XDATA, add(CFA_XSP16, literal(-4)))
        CFI (cfiCond309) ?BRET_EXT load(1, XDATA, add(CFA_XSP16, literal(-3)))
        CFI (cfiCond309) DPL0 load(1, XDATA, add(CFA_XSP16, literal(-2)))
        CFI (cfiCond309) DPH0 load(1, XDATA, add(CFA_XSP16, literal(-1)))
        CFI (cfiCond309) CFA_SP SP+0
        CFI (cfiCond309) CFA_XSP16 add(XSP16, 92)
        CFI Block cfiPicker310 Using cfiCommon1
        CFI (cfiPicker310) NoFunction
        CFI (cfiPicker310) Picker
        MOV     DPTR,#deletnodelist
        LCALL   ??Subroutine72_0 & 0xFFFF
??CrossCallReturnLabel_181:
        LCALL   ??osal_mem_free?relay
        RET
        CFI EndBlock cfiCond308
        CFI EndBlock cfiCond309
        CFI EndBlock cfiPicker310

        RSEG BANKED_CODE:CODE:NOROOT(0)
?Subroutine55:
        CFI Block cfiCond311 Using cfiCommon0
        CFI NoFunction
        CFI Conditional ??CrossCallReturnLabel_184, ??CrossCallReturnLabel_59
        CFI R6 load(1, XDATA, add(CFA_XSP16, literal(-24)))
        CFI VB load(1, XDATA, add(CFA_XSP16, literal(-23)))
        CFI V0 load(1, XDATA, add(CFA_XSP16, literal(-22)))
        CFI V1 load(1, XDATA, add(CFA_XSP16, literal(-21)))
        CFI V2 load(1, XDATA, add(CFA_XSP16, literal(-20)))
        CFI V3 load(1, XDATA, add(CFA_XSP16, literal(-19)))
        CFI V4 load(1, XDATA, add(CFA_XSP16, literal(-18)))
        CFI V5 load(1, XDATA, add(CFA_XSP16, literal(-17)))
        CFI V6 load(1, XDATA, add(CFA_XSP16, literal(-16)))
        CFI V7 load(1, XDATA, add(CFA_XSP16, literal(-15)))
        CFI V8 load(1, XDATA, add(CFA_XSP16, literal(-14)))
        CFI V9 load(1, XDATA, add(CFA_XSP16, literal(-13)))
        CFI V10 load(1, XDATA, add(CFA_XSP16, literal(-12)))
        CFI V11 load(1, XDATA, add(CFA_XSP16, literal(-11)))
        CFI V12 load(1, XDATA, add(CFA_XSP16, literal(-10)))
        CFI V13 load(1, XDATA, add(CFA_XSP16, literal(-9)))
        CFI V14 load(1, XDATA, add(CFA_XSP16, literal(-8)))
        CFI V15 load(1, XDATA, add(CFA_XSP16, literal(-7)))
        CFI R7 load(1, XDATA, add(CFA_XSP16, literal(-6)))
        CFI ?RET_LOW load(1, XDATA, add(CFA_XSP16, literal(-5)))
        CFI ?RET_HIGH load(1, XDATA, add(CFA_XSP16, literal(-4)))
        CFI ?BRET_EXT load(1, XDATA, add(CFA_XSP16, literal(-3)))
        CFI DPL0 load(1, XDATA, add(CFA_XSP16, literal(-2)))
        CFI DPH0 load(1, XDATA, add(CFA_XSP16, literal(-1)))
        CFI CFA_SP SP+0
        CFI CFA_XSP16 add(XSP16, 28)
        CFI Block cfiCond312 Using cfiCommon0
        CFI (cfiCond312) NoFunction
        CFI (cfiCond312) Conditional ??CrossCallReturnLabel_184, ??CrossCallReturnLabel_60
        CFI (cfiCond312) R6 load(1, XDATA, add(CFA_XSP16, literal(-24)))
        CFI (cfiCond312) VB load(1, XDATA, add(CFA_XSP16, literal(-23)))
        CFI (cfiCond312) V0 load(1, XDATA, add(CFA_XSP16, literal(-22)))
        CFI (cfiCond312) V1 load(1, XDATA, add(CFA_XSP16, literal(-21)))
        CFI (cfiCond312) V2 load(1, XDATA, add(CFA_XSP16, literal(-20)))
        CFI (cfiCond312) V3 load(1, XDATA, add(CFA_XSP16, literal(-19)))
        CFI (cfiCond312) V4 load(1, XDATA, add(CFA_XSP16, literal(-18)))
        CFI (cfiCond312) V5 load(1, XDATA, add(CFA_XSP16, literal(-17)))
        CFI (cfiCond312) V6 load(1, XDATA, add(CFA_XSP16, literal(-16)))
        CFI (cfiCond312) V7 load(1, XDATA, add(CFA_XSP16, literal(-15)))
        CFI (cfiCond312) V8 load(1, XDATA, add(CFA_XSP16, literal(-14)))
        CFI (cfiCond312) V9 load(1, XDATA, add(CFA_XSP16, literal(-13)))
        CFI (cfiCond312) V10 load(1, XDATA, add(CFA_XSP16, literal(-12)))
        CFI (cfiCond312) V11 load(1, XDATA, add(CFA_XSP16, literal(-11)))
        CFI (cfiCond312) V12 load(1, XDATA, add(CFA_XSP16, literal(-10)))
        CFI (cfiCond312) V13 load(1, XDATA, add(CFA_XSP16, literal(-9)))
        CFI (cfiCond312) V14 load(1, XDATA, add(CFA_XSP16, literal(-8)))
        CFI (cfiCond312) V15 load(1, XDATA, add(CFA_XSP16, literal(-7)))
        CFI (cfiCond312) R7 load(1, XDATA, add(CFA_XSP16, literal(-6)))
        CFI (cfiCond312) ?RET_LOW load(1, XDATA, add(CFA_XSP16, literal(-5)))
        CFI (cfiCond312) ?RET_HIGH load(1, XDATA, add(CFA_XSP16, literal(-4)))
        CFI (cfiCond312) ?BRET_EXT load(1, XDATA, add(CFA_XSP16, literal(-3)))
        CFI (cfiCond312) DPL0 load(1, XDATA, add(CFA_XSP16, literal(-2)))
        CFI (cfiCond312) DPH0 load(1, XDATA, add(CFA_XSP16, literal(-1)))
        CFI (cfiCond312) CFA_SP SP+0
        CFI (cfiCond312) CFA_XSP16 add(XSP16, 28)
        CFI Block cfiCond313 Using cfiCommon0
        CFI (cfiCond313) NoFunction
        CFI (cfiCond313) Conditional ??CrossCallReturnLabel_183, ??CrossCallReturnLabel_57
        CFI (cfiCond313) R6 load(1, XDATA, add(CFA_XSP16, literal(-24)))
        CFI (cfiCond313) VB load(1, XDATA, add(CFA_XSP16, literal(-23)))
        CFI (cfiCond313) V0 load(1, XDATA, add(CFA_XSP16, literal(-22)))
        CFI (cfiCond313) V1 load(1, XDATA, add(CFA_XSP16, literal(-21)))
        CFI (cfiCond313) V2 load(1, XDATA, add(CFA_XSP16, literal(-20)))
        CFI (cfiCond313) V3 load(1, XDATA, add(CFA_XSP16, literal(-19)))
        CFI (cfiCond313) V4 load(1, XDATA, add(CFA_XSP16, literal(-18)))
        CFI (cfiCond313) V5 load(1, XDATA, add(CFA_XSP16, literal(-17)))
        CFI (cfiCond313) V6 load(1, XDATA, add(CFA_XSP16, literal(-16)))
        CFI (cfiCond313) V7 load(1, XDATA, add(CFA_XSP16, literal(-15)))
        CFI (cfiCond313) V8 load(1, XDATA, add(CFA_XSP16, literal(-14)))
        CFI (cfiCond313) V9 load(1, XDATA, add(CFA_XSP16, literal(-13)))
        CFI (cfiCond313) V10 load(1, XDATA, add(CFA_XSP16, literal(-12)))
        CFI (cfiCond313) V11 load(1, XDATA, add(CFA_XSP16, literal(-11)))
        CFI (cfiCond313) V12 load(1, XDATA, add(CFA_XSP16, literal(-10)))
        CFI (cfiCond313) V13 load(1, XDATA, add(CFA_XSP16, literal(-9)))
        CFI (cfiCond313) V14 load(1, XDATA, add(CFA_XSP16, literal(-8)))
        CFI (cfiCond313) V15 load(1, XDATA, add(CFA_XSP16, literal(-7)))
        CFI (cfiCond313) R7 load(1, XDATA, add(CFA_XSP16, literal(-6)))
        CFI (cfiCond313) ?RET_LOW load(1, XDATA, add(CFA_XSP16, literal(-5)))
        CFI (cfiCond313) ?RET_HIGH load(1, XDATA, add(CFA_XSP16, literal(-4)))
        CFI (cfiCond313) ?BRET_EXT load(1, XDATA, add(CFA_XSP16, literal(-3)))
        CFI (cfiCond313) DPL0 load(1, XDATA, add(CFA_XSP16, literal(-2)))
        CFI (cfiCond313) DPH0 load(1, XDATA, add(CFA_XSP16, literal(-1)))
        CFI (cfiCond313) CFA_SP SP+0
        CFI (cfiCond313) CFA_XSP16 add(XSP16, 28)
        CFI Block cfiCond314 Using cfiCommon0
        CFI (cfiCond314) NoFunction
        CFI (cfiCond314) Conditional ??CrossCallReturnLabel_183, ??CrossCallReturnLabel_58
        CFI (cfiCond314) R6 load(1, XDATA, add(CFA_XSP16, literal(-24)))
        CFI (cfiCond314) VB load(1, XDATA, add(CFA_XSP16, literal(-23)))
        CFI (cfiCond314) V0 load(1, XDATA, add(CFA_XSP16, literal(-22)))
        CFI (cfiCond314) V1 load(1, XDATA, add(CFA_XSP16, literal(-21)))
        CFI (cfiCond314) V2 load(1, XDATA, add(CFA_XSP16, literal(-20)))
        CFI (cfiCond314) V3 load(1, XDATA, add(CFA_XSP16, literal(-19)))
        CFI (cfiCond314) V4 load(1, XDATA, add(CFA_XSP16, literal(-18)))
        CFI (cfiCond314) V5 load(1, XDATA, add(CFA_XSP16, literal(-17)))
        CFI (cfiCond314) V6 load(1, XDATA, add(CFA_XSP16, literal(-16)))
        CFI (cfiCond314) V7 load(1, XDATA, add(CFA_XSP16, literal(-15)))
        CFI (cfiCond314) V8 load(1, XDATA, add(CFA_XSP16, literal(-14)))
        CFI (cfiCond314) V9 load(1, XDATA, add(CFA_XSP16, literal(-13)))
        CFI (cfiCond314) V10 load(1, XDATA, add(CFA_XSP16, literal(-12)))
        CFI (cfiCond314) V11 load(1, XDATA, add(CFA_XSP16, literal(-11)))
        CFI (cfiCond314) V12 load(1, XDATA, add(CFA_XSP16, literal(-10)))
        CFI (cfiCond314) V13 load(1, XDATA, add(CFA_XSP16, literal(-9)))
        CFI (cfiCond314) V14 load(1, XDATA, add(CFA_XSP16, literal(-8)))
        CFI (cfiCond314) V15 load(1, XDATA, add(CFA_XSP16, literal(-7)))
        CFI (cfiCond314) R7 load(1, XDATA, add(CFA_XSP16, literal(-6)))
        CFI (cfiCond314) ?RET_LOW load(1, XDATA, add(CFA_XSP16, literal(-5)))
        CFI (cfiCond314) ?RET_HIGH load(1, XDATA, add(CFA_XSP16, literal(-4)))
        CFI (cfiCond314) ?BRET_EXT load(1, XDATA, add(CFA_XSP16, literal(-3)))
        CFI (cfiCond314) DPL0 load(1, XDATA, add(CFA_XSP16, literal(-2)))
        CFI (cfiCond314) DPH0 load(1, XDATA, add(CFA_XSP16, literal(-1)))
        CFI (cfiCond314) CFA_SP SP+0
        CFI (cfiCond314) CFA_XSP16 add(XSP16, 28)
        CFI Block cfiCond315 Using cfiCommon0
        CFI (cfiCond315) NoFunction
        CFI (cfiCond315) Conditional ??CrossCallReturnLabel_182
        CFI (cfiCond315) DPL0 Frame(CFA_SP, 4)
        CFI (cfiCond315) DPH0 Frame(CFA_SP, 5)
        CFI (cfiCond315) CFA_SP SP+-5
        CFI (cfiCond315) CFA_XSP16 add(XSP16, 4)
        CFI Block cfiPicker316 Using cfiCommon1
        CFI (cfiPicker316) NoFunction
        CFI (cfiPicker316) Picker
        MOV     DPL,?XSP + 0
        MOV     DPH,?XSP + 1
        CFI EndBlock cfiCond311
        CFI EndBlock cfiCond312
        CFI EndBlock cfiCond313
        CFI EndBlock cfiCond314
        CFI EndBlock cfiCond315
        CFI EndBlock cfiPicker316
        REQUIRE ??Subroutine72_0
        ; // Fall through to label ??Subroutine72_0

        RSEG BANKED_CODE:CODE:NOROOT(0)
??Subroutine72_0:
        CFI Block cfiCond317 Using cfiCommon0
        CFI NoFunction
        CFI Conditional ??CrossCallReturnLabel_177
        CFI R6 load(1, XDATA, add(CFA_XSP16, literal(-24)))
        CFI VB load(1, XDATA, add(CFA_XSP16, literal(-23)))
        CFI V0 load(1, XDATA, add(CFA_XSP16, literal(-22)))
        CFI V1 load(1, XDATA, add(CFA_XSP16, literal(-21)))
        CFI V2 load(1, XDATA, add(CFA_XSP16, literal(-20)))
        CFI V3 load(1, XDATA, add(CFA_XSP16, literal(-19)))
        CFI V4 load(1, XDATA, add(CFA_XSP16, literal(-18)))
        CFI V5 load(1, XDATA, add(CFA_XSP16, literal(-17)))
        CFI V6 load(1, XDATA, add(CFA_XSP16, literal(-16)))
        CFI V7 load(1, XDATA, add(CFA_XSP16, literal(-15)))
        CFI V8 load(1, XDATA, add(CFA_XSP16, literal(-14)))
        CFI V9 load(1, XDATA, add(CFA_XSP16, literal(-13)))
        CFI V10 load(1, XDATA, add(CFA_XSP16, literal(-12)))
        CFI V11 load(1, XDATA, add(CFA_XSP16, literal(-11)))
        CFI V12 load(1, XDATA, add(CFA_XSP16, literal(-10)))
        CFI V13 load(1, XDATA, add(CFA_XSP16, literal(-9)))
        CFI V14 load(1, XDATA, add(CFA_XSP16, literal(-8)))
        CFI V15 load(1, XDATA, add(CFA_XSP16, literal(-7)))
        CFI R7 load(1, XDATA, add(CFA_XSP16, literal(-6)))
        CFI ?RET_LOW load(1, XDATA, add(CFA_XSP16, literal(-5)))
        CFI ?RET_HIGH load(1, XDATA, add(CFA_XSP16, literal(-4)))
        CFI ?BRET_EXT load(1, XDATA, add(CFA_XSP16, literal(-3)))
        CFI DPL0 load(1, XDATA, add(CFA_XSP16, literal(-2)))
        CFI DPH0 load(1, XDATA, add(CFA_XSP16, literal(-1)))
        CFI CFA_SP SP+0
        CFI CFA_XSP16 add(XSP16, 28)
        CFI Block cfiCond318 Using cfiCommon0
        CFI (cfiCond318) NoFunction
        CFI (cfiCond318) Conditional ??CrossCallReturnLabel_178
        CFI (cfiCond318) R6 load(1, XDATA, add(CFA_XSP16, literal(-24)))
        CFI (cfiCond318) VB load(1, XDATA, add(CFA_XSP16, literal(-23)))
        CFI (cfiCond318) V0 load(1, XDATA, add(CFA_XSP16, literal(-22)))
        CFI (cfiCond318) V1 load(1, XDATA, add(CFA_XSP16, literal(-21)))
        CFI (cfiCond318) V2 load(1, XDATA, add(CFA_XSP16, literal(-20)))
        CFI (cfiCond318) V3 load(1, XDATA, add(CFA_XSP16, literal(-19)))
        CFI (cfiCond318) V4 load(1, XDATA, add(CFA_XSP16, literal(-18)))
        CFI (cfiCond318) V5 load(1, XDATA, add(CFA_XSP16, literal(-17)))
        CFI (cfiCond318) V6 load(1, XDATA, add(CFA_XSP16, literal(-16)))
        CFI (cfiCond318) V7 load(1, XDATA, add(CFA_XSP16, literal(-15)))
        CFI (cfiCond318) V8 load(1, XDATA, add(CFA_XSP16, literal(-14)))
        CFI (cfiCond318) V9 load(1, XDATA, add(CFA_XSP16, literal(-13)))
        CFI (cfiCond318) V10 load(1, XDATA, add(CFA_XSP16, literal(-12)))
        CFI (cfiCond318) V11 load(1, XDATA, add(CFA_XSP16, literal(-11)))
        CFI (cfiCond318) V12 load(1, XDATA, add(CFA_XSP16, literal(-10)))
        CFI (cfiCond318) V13 load(1, XDATA, add(CFA_XSP16, literal(-9)))
        CFI (cfiCond318) V14 load(1, XDATA, add(CFA_XSP16, literal(-8)))
        CFI (cfiCond318) V15 load(1, XDATA, add(CFA_XSP16, literal(-7)))
        CFI (cfiCond318) R7 load(1, XDATA, add(CFA_XSP16, literal(-6)))
        CFI (cfiCond318) ?RET_LOW load(1, XDATA, add(CFA_XSP16, literal(-5)))
        CFI (cfiCond318) ?RET_HIGH load(1, XDATA, add(CFA_XSP16, literal(-4)))
        CFI (cfiCond318) ?BRET_EXT load(1, XDATA, add(CFA_XSP16, literal(-3)))
        CFI (cfiCond318) DPL0 load(1, XDATA, add(CFA_XSP16, literal(-2)))
        CFI (cfiCond318) DPH0 load(1, XDATA, add(CFA_XSP16, literal(-1)))
        CFI (cfiCond318) CFA_SP SP+0
        CFI (cfiCond318) CFA_XSP16 add(XSP16, 30)
        CFI Block cfiCond319 Using cfiCommon0
        CFI (cfiCond319) NoFunction
        CFI (cfiCond319) Conditional ??CrossCallReturnLabel_180, ??CrossCallReturnLabel_55
        CFI (cfiCond319) R6 load(1, XDATA, add(CFA_XSP16, literal(-24)))
        CFI (cfiCond319) VB load(1, XDATA, add(CFA_XSP16, literal(-23)))
        CFI (cfiCond319) V0 load(1, XDATA, add(CFA_XSP16, literal(-22)))
        CFI (cfiCond319) V1 load(1, XDATA, add(CFA_XSP16, literal(-21)))
        CFI (cfiCond319) V2 load(1, XDATA, add(CFA_XSP16, literal(-20)))
        CFI (cfiCond319) V3 load(1, XDATA, add(CFA_XSP16, literal(-19)))
        CFI (cfiCond319) V4 load(1, XDATA, add(CFA_XSP16, literal(-18)))
        CFI (cfiCond319) V5 load(1, XDATA, add(CFA_XSP16, literal(-17)))
        CFI (cfiCond319) V6 load(1, XDATA, add(CFA_XSP16, literal(-16)))
        CFI (cfiCond319) V7 load(1, XDATA, add(CFA_XSP16, literal(-15)))
        CFI (cfiCond319) V8 load(1, XDATA, add(CFA_XSP16, literal(-14)))
        CFI (cfiCond319) V9 load(1, XDATA, add(CFA_XSP16, literal(-13)))
        CFI (cfiCond319) V10 load(1, XDATA, add(CFA_XSP16, literal(-12)))
        CFI (cfiCond319) V11 load(1, XDATA, add(CFA_XSP16, literal(-11)))
        CFI (cfiCond319) V12 load(1, XDATA, add(CFA_XSP16, literal(-10)))
        CFI (cfiCond319) V13 load(1, XDATA, add(CFA_XSP16, literal(-9)))
        CFI (cfiCond319) V14 load(1, XDATA, add(CFA_XSP16, literal(-8)))
        CFI (cfiCond319) V15 load(1, XDATA, add(CFA_XSP16, literal(-7)))
        CFI (cfiCond319) R7 load(1, XDATA, add(CFA_XSP16, literal(-6)))
        CFI (cfiCond319) ?RET_LOW load(1, XDATA, add(CFA_XSP16, literal(-5)))
        CFI (cfiCond319) ?RET_HIGH load(1, XDATA, add(CFA_XSP16, literal(-4)))
        CFI (cfiCond319) ?BRET_EXT load(1, XDATA, add(CFA_XSP16, literal(-3)))
        CFI (cfiCond319) DPL0 load(1, XDATA, add(CFA_XSP16, literal(-2)))
        CFI (cfiCond319) DPH0 load(1, XDATA, add(CFA_XSP16, literal(-1)))
        CFI (cfiCond319) CFA_SP SP+0
        CFI (cfiCond319) CFA_XSP16 add(XSP16, 31)
        CFI Block cfiCond320 Using cfiCommon0
        CFI (cfiCond320) NoFunction
        CFI (cfiCond320) Conditional ??CrossCallReturnLabel_180, ??CrossCallReturnLabel_56
        CFI (cfiCond320) R6 load(1, XDATA, add(CFA_XSP16, literal(-24)))
        CFI (cfiCond320) VB load(1, XDATA, add(CFA_XSP16, literal(-23)))
        CFI (cfiCond320) V0 load(1, XDATA, add(CFA_XSP16, literal(-22)))
        CFI (cfiCond320) V1 load(1, XDATA, add(CFA_XSP16, literal(-21)))
        CFI (cfiCond320) V2 load(1, XDATA, add(CFA_XSP16, literal(-20)))
        CFI (cfiCond320) V3 load(1, XDATA, add(CFA_XSP16, literal(-19)))
        CFI (cfiCond320) V4 load(1, XDATA, add(CFA_XSP16, literal(-18)))
        CFI (cfiCond320) V5 load(1, XDATA, add(CFA_XSP16, literal(-17)))
        CFI (cfiCond320) V6 load(1, XDATA, add(CFA_XSP16, literal(-16)))
        CFI (cfiCond320) V7 load(1, XDATA, add(CFA_XSP16, literal(-15)))
        CFI (cfiCond320) V8 load(1, XDATA, add(CFA_XSP16, literal(-14)))
        CFI (cfiCond320) V9 load(1, XDATA, add(CFA_XSP16, literal(-13)))
        CFI (cfiCond320) V10 load(1, XDATA, add(CFA_XSP16, literal(-12)))
        CFI (cfiCond320) V11 load(1, XDATA, add(CFA_XSP16, literal(-11)))
        CFI (cfiCond320) V12 load(1, XDATA, add(CFA_XSP16, literal(-10)))
        CFI (cfiCond320) V13 load(1, XDATA, add(CFA_XSP16, literal(-9)))
        CFI (cfiCond320) V14 load(1, XDATA, add(CFA_XSP16, literal(-8)))
        CFI (cfiCond320) V15 load(1, XDATA, add(CFA_XSP16, literal(-7)))
        CFI (cfiCond320) R7 load(1, XDATA, add(CFA_XSP16, literal(-6)))
        CFI (cfiCond320) ?RET_LOW load(1, XDATA, add(CFA_XSP16, literal(-5)))
        CFI (cfiCond320) ?RET_HIGH load(1, XDATA, add(CFA_XSP16, literal(-4)))
        CFI (cfiCond320) ?BRET_EXT load(1, XDATA, add(CFA_XSP16, literal(-3)))
        CFI (cfiCond320) DPL0 load(1, XDATA, add(CFA_XSP16, literal(-2)))
        CFI (cfiCond320) DPH0 load(1, XDATA, add(CFA_XSP16, literal(-1)))
        CFI (cfiCond320) CFA_SP SP+0
        CFI (cfiCond320) CFA_XSP16 add(XSP16, 31)
        CFI Block cfiCond321 Using cfiCommon0
        CFI (cfiCond321) NoFunction
        CFI (cfiCond321) Conditional ??CrossCallReturnLabel_179, ??CrossCallReturnLabel_43
        CFI (cfiCond321) R6 load(1, XDATA, add(CFA_XSP16, literal(-20)))
        CFI (cfiCond321) VB load(1, XDATA, add(CFA_XSP16, literal(-19)))
        CFI (cfiCond321) V0 load(1, XDATA, add(CFA_XSP16, literal(-18)))
        CFI (cfiCond321) V1 load(1, XDATA, add(CFA_XSP16, literal(-17)))
        CFI (cfiCond321) V2 load(1, XDATA, add(CFA_XSP16, literal(-16)))
        CFI (cfiCond321) V3 load(1, XDATA, add(CFA_XSP16, literal(-15)))
        CFI (cfiCond321) V4 load(1, XDATA, add(CFA_XSP16, literal(-14)))
        CFI (cfiCond321) V5 load(1, XDATA, add(CFA_XSP16, literal(-13)))
        CFI (cfiCond321) V6 load(1, XDATA, add(CFA_XSP16, literal(-12)))
        CFI (cfiCond321) V7 load(1, XDATA, add(CFA_XSP16, literal(-11)))
        CFI (cfiCond321) V8 load(1, XDATA, add(CFA_XSP16, literal(-10)))
        CFI (cfiCond321) V9 load(1, XDATA, add(CFA_XSP16, literal(-9)))
        CFI (cfiCond321) V10 load(1, XDATA, add(CFA_XSP16, literal(-8)))
        CFI (cfiCond321) V11 load(1, XDATA, add(CFA_XSP16, literal(-7)))
        CFI (cfiCond321) R7 load(1, XDATA, add(CFA_XSP16, literal(-6)))
        CFI (cfiCond321) ?RET_LOW load(1, XDATA, add(CFA_XSP16, literal(-5)))
        CFI (cfiCond321) ?RET_HIGH load(1, XDATA, add(CFA_XSP16, literal(-4)))
        CFI (cfiCond321) ?BRET_EXT load(1, XDATA, add(CFA_XSP16, literal(-3)))
        CFI (cfiCond321) DPL0 load(1, XDATA, add(CFA_XSP16, literal(-2)))
        CFI (cfiCond321) DPH0 load(1, XDATA, add(CFA_XSP16, literal(-1)))
        CFI (cfiCond321) CFA_SP SP+0
        CFI (cfiCond321) CFA_XSP16 add(XSP16, 21)
        CFI Block cfiCond322 Using cfiCommon0
        CFI (cfiCond322) NoFunction
        CFI (cfiCond322) Conditional ??CrossCallReturnLabel_179, ??CrossCallReturnLabel_44
        CFI (cfiCond322) R6 load(1, XDATA, add(CFA_XSP16, literal(-12)))
        CFI (cfiCond322) VB load(1, XDATA, add(CFA_XSP16, literal(-11)))
        CFI (cfiCond322) V0 load(1, XDATA, add(CFA_XSP16, literal(-10)))
        CFI (cfiCond322) V1 load(1, XDATA, add(CFA_XSP16, literal(-9)))
        CFI (cfiCond322) V2 load(1, XDATA, add(CFA_XSP16, literal(-8)))
        CFI (cfiCond322) V3 load(1, XDATA, add(CFA_XSP16, literal(-7)))
        CFI (cfiCond322) R7 load(1, XDATA, add(CFA_XSP16, literal(-6)))
        CFI (cfiCond322) ?RET_LOW load(1, XDATA, add(CFA_XSP16, literal(-5)))
        CFI (cfiCond322) ?RET_HIGH load(1, XDATA, add(CFA_XSP16, literal(-4)))
        CFI (cfiCond322) ?BRET_EXT load(1, XDATA, add(CFA_XSP16, literal(-3)))
        CFI (cfiCond322) DPL0 load(1, XDATA, add(CFA_XSP16, literal(-2)))
        CFI (cfiCond322) DPH0 load(1, XDATA, add(CFA_XSP16, literal(-1)))
        CFI (cfiCond322) CFA_SP SP+0
        CFI (cfiCond322) CFA_XSP16 add(XSP16, 12)
        CFI Block cfiCond323 Using cfiCommon0
        CFI (cfiCond323) NoFunction
        CFI (cfiCond323) Conditional ??CrossCallReturnLabel_179, ??CrossCallReturnLabel_45
        CFI (cfiCond323) R6 load(1, XDATA, add(CFA_XSP16, literal(-24)))
        CFI (cfiCond323) VB load(1, XDATA, add(CFA_XSP16, literal(-23)))
        CFI (cfiCond323) V0 load(1, XDATA, add(CFA_XSP16, literal(-22)))
        CFI (cfiCond323) V1 load(1, XDATA, add(CFA_XSP16, literal(-21)))
        CFI (cfiCond323) V2 load(1, XDATA, add(CFA_XSP16, literal(-20)))
        CFI (cfiCond323) V3 load(1, XDATA, add(CFA_XSP16, literal(-19)))
        CFI (cfiCond323) V4 load(1, XDATA, add(CFA_XSP16, literal(-18)))
        CFI (cfiCond323) V5 load(1, XDATA, add(CFA_XSP16, literal(-17)))
        CFI (cfiCond323) V6 load(1, XDATA, add(CFA_XSP16, literal(-16)))
        CFI (cfiCond323) V7 load(1, XDATA, add(CFA_XSP16, literal(-15)))
        CFI (cfiCond323) V8 load(1, XDATA, add(CFA_XSP16, literal(-14)))
        CFI (cfiCond323) V9 load(1, XDATA, add(CFA_XSP16, literal(-13)))
        CFI (cfiCond323) V10 load(1, XDATA, add(CFA_XSP16, literal(-12)))
        CFI (cfiCond323) V11 load(1, XDATA, add(CFA_XSP16, literal(-11)))
        CFI (cfiCond323) V12 load(1, XDATA, add(CFA_XSP16, literal(-10)))
        CFI (cfiCond323) V13 load(1, XDATA, add(CFA_XSP16, literal(-9)))
        CFI (cfiCond323) V14 load(1, XDATA, add(CFA_XSP16, literal(-8)))
        CFI (cfiCond323) V15 load(1, XDATA, add(CFA_XSP16, literal(-7)))
        CFI (cfiCond323) R7 load(1, XDATA, add(CFA_XSP16, literal(-6)))
        CFI (cfiCond323) ?RET_LOW load(1, XDATA, add(CFA_XSP16, literal(-5)))
        CFI (cfiCond323) ?RET_HIGH load(1, XDATA, add(CFA_XSP16, literal(-4)))
        CFI (cfiCond323) ?BRET_EXT load(1, XDATA, add(CFA_XSP16, literal(-3)))
        CFI (cfiCond323) DPL0 load(1, XDATA, add(CFA_XSP16, literal(-2)))
        CFI (cfiCond323) DPH0 load(1, XDATA, add(CFA_XSP16, literal(-1)))
        CFI (cfiCond323) CFA_SP SP+0
        CFI (cfiCond323) CFA_XSP16 add(XSP16, 92)
        CFI Block cfiCond324 Using cfiCommon0
        CFI (cfiCond324) NoFunction
        CFI (cfiCond324) Conditional ??CrossCallReturnLabel_181, ??CrossCallReturnLabel_61
        CFI (cfiCond324) R6 load(1, XDATA, add(CFA_XSP16, literal(-24)))
        CFI (cfiCond324) VB load(1, XDATA, add(CFA_XSP16, literal(-23)))
        CFI (cfiCond324) V0 load(1, XDATA, add(CFA_XSP16, literal(-22)))
        CFI (cfiCond324) V1 load(1, XDATA, add(CFA_XSP16, literal(-21)))
        CFI (cfiCond324) V2 load(1, XDATA, add(CFA_XSP16, literal(-20)))
        CFI (cfiCond324) V3 load(1, XDATA, add(CFA_XSP16, literal(-19)))
        CFI (cfiCond324) V4 load(1, XDATA, add(CFA_XSP16, literal(-18)))
        CFI (cfiCond324) V5 load(1, XDATA, add(CFA_XSP16, literal(-17)))
        CFI (cfiCond324) V6 load(1, XDATA, add(CFA_XSP16, literal(-16)))
        CFI (cfiCond324) V7 load(1, XDATA, add(CFA_XSP16, literal(-15)))
        CFI (cfiCond324) V8 load(1, XDATA, add(CFA_XSP16, literal(-14)))
        CFI (cfiCond324) V9 load(1, XDATA, add(CFA_XSP16, literal(-13)))
        CFI (cfiCond324) V10 load(1, XDATA, add(CFA_XSP16, literal(-12)))
        CFI (cfiCond324) V11 load(1, XDATA, add(CFA_XSP16, literal(-11)))
        CFI (cfiCond324) V12 load(1, XDATA, add(CFA_XSP16, literal(-10)))
        CFI (cfiCond324) V13 load(1, XDATA, add(CFA_XSP16, literal(-9)))
        CFI (cfiCond324) V14 load(1, XDATA, add(CFA_XSP16, literal(-8)))
        CFI (cfiCond324) V15 load(1, XDATA, add(CFA_XSP16, literal(-7)))
        CFI (cfiCond324) R7 load(1, XDATA, add(CFA_XSP16, literal(-6)))
        CFI (cfiCond324) ?RET_LOW load(1, XDATA, add(CFA_XSP16, literal(-5)))
        CFI (cfiCond324) ?RET_HIGH load(1, XDATA, add(CFA_XSP16, literal(-4)))
        CFI (cfiCond324) ?BRET_EXT load(1, XDATA, add(CFA_XSP16, literal(-3)))
        CFI (cfiCond324) DPL0 load(1, XDATA, add(CFA_XSP16, literal(-2)))
        CFI (cfiCond324) DPH0 load(1, XDATA, add(CFA_XSP16, literal(-1)))
        CFI (cfiCond324) CFA_SP SP+0
        CFI (cfiCond324) CFA_XSP16 add(XSP16, 92)
        CFI Block cfiCond325 Using cfiCommon0
        CFI (cfiCond325) NoFunction
        CFI (cfiCond325) Conditional ??CrossCallReturnLabel_181, ??CrossCallReturnLabel_62
        CFI (cfiCond325) R6 load(1, XDATA, add(CFA_XSP16, literal(-24)))
        CFI (cfiCond325) VB load(1, XDATA, add(CFA_XSP16, literal(-23)))
        CFI (cfiCond325) V0 load(1, XDATA, add(CFA_XSP16, literal(-22)))
        CFI (cfiCond325) V1 load(1, XDATA, add(CFA_XSP16, literal(-21)))
        CFI (cfiCond325) V2 load(1, XDATA, add(CFA_XSP16, literal(-20)))
        CFI (cfiCond325) V3 load(1, XDATA, add(CFA_XSP16, literal(-19)))
        CFI (cfiCond325) V4 load(1, XDATA, add(CFA_XSP16, literal(-18)))
        CFI (cfiCond325) V5 load(1, XDATA, add(CFA_XSP16, literal(-17)))
        CFI (cfiCond325) V6 load(1, XDATA, add(CFA_XSP16, literal(-16)))
        CFI (cfiCond325) V7 load(1, XDATA, add(CFA_XSP16, literal(-15)))
        CFI (cfiCond325) V8 load(1, XDATA, add(CFA_XSP16, literal(-14)))
        CFI (cfiCond325) V9 load(1, XDATA, add(CFA_XSP16, literal(-13)))
        CFI (cfiCond325) V10 load(1, XDATA, add(CFA_XSP16, literal(-12)))
        CFI (cfiCond325) V11 load(1, XDATA, add(CFA_XSP16, literal(-11)))
        CFI (cfiCond325) V12 load(1, XDATA, add(CFA_XSP16, literal(-10)))
        CFI (cfiCond325) V13 load(1, XDATA, add(CFA_XSP16, literal(-9)))
        CFI (cfiCond325) V14 load(1, XDATA, add(CFA_XSP16, literal(-8)))
        CFI (cfiCond325) V15 load(1, XDATA, add(CFA_XSP16, literal(-7)))
        CFI (cfiCond325) R7 load(1, XDATA, add(CFA_XSP16, literal(-6)))
        CFI (cfiCond325) ?RET_LOW load(1, XDATA, add(CFA_XSP16, literal(-5)))
        CFI (cfiCond325) ?RET_HIGH load(1, XDATA, add(CFA_XSP16, literal(-4)))
        CFI (cfiCond325) ?BRET_EXT load(1, XDATA, add(CFA_XSP16, literal(-3)))
        CFI (cfiCond325) DPL0 load(1, XDATA, add(CFA_XSP16, literal(-2)))
        CFI (cfiCond325) DPH0 load(1, XDATA, add(CFA_XSP16, literal(-1)))
        CFI (cfiCond325) CFA_SP SP+0
        CFI (cfiCond325) CFA_XSP16 add(XSP16, 92)
        CFI Block cfiCond326 Using cfiCommon0
        CFI (cfiCond326) NoFunction
        CFI (cfiCond326) Conditional ??CrossCallReturnLabel_184, ??CrossCallReturnLabel_59
        CFI (cfiCond326) R6 load(1, XDATA, add(CFA_XSP16, literal(-24)))
        CFI (cfiCond326) VB load(1, XDATA, add(CFA_XSP16, literal(-23)))
        CFI (cfiCond326) V0 load(1, XDATA, add(CFA_XSP16, literal(-22)))
        CFI (cfiCond326) V1 load(1, XDATA, add(CFA_XSP16, literal(-21)))
        CFI (cfiCond326) V2 load(1, XDATA, add(CFA_XSP16, literal(-20)))
        CFI (cfiCond326) V3 load(1, XDATA, add(CFA_XSP16, literal(-19)))
        CFI (cfiCond326) V4 load(1, XDATA, add(CFA_XSP16, literal(-18)))
        CFI (cfiCond326) V5 load(1, XDATA, add(CFA_XSP16, literal(-17)))
        CFI (cfiCond326) V6 load(1, XDATA, add(CFA_XSP16, literal(-16)))
        CFI (cfiCond326) V7 load(1, XDATA, add(CFA_XSP16, literal(-15)))
        CFI (cfiCond326) V8 load(1, XDATA, add(CFA_XSP16, literal(-14)))
        CFI (cfiCond326) V9 load(1, XDATA, add(CFA_XSP16, literal(-13)))
        CFI (cfiCond326) V10 load(1, XDATA, add(CFA_XSP16, literal(-12)))
        CFI (cfiCond326) V11 load(1, XDATA, add(CFA_XSP16, literal(-11)))
        CFI (cfiCond326) V12 load(1, XDATA, add(CFA_XSP16, literal(-10)))
        CFI (cfiCond326) V13 load(1, XDATA, add(CFA_XSP16, literal(-9)))
        CFI (cfiCond326) V14 load(1, XDATA, add(CFA_XSP16, literal(-8)))
        CFI (cfiCond326) V15 load(1, XDATA, add(CFA_XSP16, literal(-7)))
        CFI (cfiCond326) R7 load(1, XDATA, add(CFA_XSP16, literal(-6)))
        CFI (cfiCond326) ?RET_LOW load(1, XDATA, add(CFA_XSP16, literal(-5)))
        CFI (cfiCond326) ?RET_HIGH load(1, XDATA, add(CFA_XSP16, literal(-4)))
        CFI (cfiCond326) ?BRET_EXT load(1, XDATA, add(CFA_XSP16, literal(-3)))
        CFI (cfiCond326) DPL0 load(1, XDATA, add(CFA_XSP16, literal(-2)))
        CFI (cfiCond326) DPH0 load(1, XDATA, add(CFA_XSP16, literal(-1)))
        CFI (cfiCond326) CFA_SP SP+0
        CFI (cfiCond326) CFA_XSP16 add(XSP16, 28)
        CFI Block cfiCond327 Using cfiCommon0
        CFI (cfiCond327) NoFunction
        CFI (cfiCond327) Conditional ??CrossCallReturnLabel_184, ??CrossCallReturnLabel_60
        CFI (cfiCond327) R6 load(1, XDATA, add(CFA_XSP16, literal(-24)))
        CFI (cfiCond327) VB load(1, XDATA, add(CFA_XSP16, literal(-23)))
        CFI (cfiCond327) V0 load(1, XDATA, add(CFA_XSP16, literal(-22)))
        CFI (cfiCond327) V1 load(1, XDATA, add(CFA_XSP16, literal(-21)))
        CFI (cfiCond327) V2 load(1, XDATA, add(CFA_XSP16, literal(-20)))
        CFI (cfiCond327) V3 load(1, XDATA, add(CFA_XSP16, literal(-19)))
        CFI (cfiCond327) V4 load(1, XDATA, add(CFA_XSP16, literal(-18)))
        CFI (cfiCond327) V5 load(1, XDATA, add(CFA_XSP16, literal(-17)))
        CFI (cfiCond327) V6 load(1, XDATA, add(CFA_XSP16, literal(-16)))
        CFI (cfiCond327) V7 load(1, XDATA, add(CFA_XSP16, literal(-15)))
        CFI (cfiCond327) V8 load(1, XDATA, add(CFA_XSP16, literal(-14)))
        CFI (cfiCond327) V9 load(1, XDATA, add(CFA_XSP16, literal(-13)))
        CFI (cfiCond327) V10 load(1, XDATA, add(CFA_XSP16, literal(-12)))
        CFI (cfiCond327) V11 load(1, XDATA, add(CFA_XSP16, literal(-11)))
        CFI (cfiCond327) V12 load(1, XDATA, add(CFA_XSP16, literal(-10)))
        CFI (cfiCond327) V13 load(1, XDATA, add(CFA_XSP16, literal(-9)))
        CFI (cfiCond327) V14 load(1, XDATA, add(CFA_XSP16, literal(-8)))
        CFI (cfiCond327) V15 load(1, XDATA, add(CFA_XSP16, literal(-7)))
        CFI (cfiCond327) R7 load(1, XDATA, add(CFA_XSP16, literal(-6)))
        CFI (cfiCond327) ?RET_LOW load(1, XDATA, add(CFA_XSP16, literal(-5)))
        CFI (cfiCond327) ?RET_HIGH load(1, XDATA, add(CFA_XSP16, literal(-4)))
        CFI (cfiCond327) ?BRET_EXT load(1, XDATA, add(CFA_XSP16, literal(-3)))
        CFI (cfiCond327) DPL0 load(1, XDATA, add(CFA_XSP16, literal(-2)))
        CFI (cfiCond327) DPH0 load(1, XDATA, add(CFA_XSP16, literal(-1)))
        CFI (cfiCond327) CFA_SP SP+0
        CFI (cfiCond327) CFA_XSP16 add(XSP16, 28)
        CFI Block cfiCond328 Using cfiCommon0
        CFI (cfiCond328) NoFunction
        CFI (cfiCond328) Conditional ??CrossCallReturnLabel_183, ??CrossCallReturnLabel_57
        CFI (cfiCond328) R6 load(1, XDATA, add(CFA_XSP16, literal(-24)))
        CFI (cfiCond328) VB load(1, XDATA, add(CFA_XSP16, literal(-23)))
        CFI (cfiCond328) V0 load(1, XDATA, add(CFA_XSP16, literal(-22)))
        CFI (cfiCond328) V1 load(1, XDATA, add(CFA_XSP16, literal(-21)))
        CFI (cfiCond328) V2 load(1, XDATA, add(CFA_XSP16, literal(-20)))
        CFI (cfiCond328) V3 load(1, XDATA, add(CFA_XSP16, literal(-19)))
        CFI (cfiCond328) V4 load(1, XDATA, add(CFA_XSP16, literal(-18)))
        CFI (cfiCond328) V5 load(1, XDATA, add(CFA_XSP16, literal(-17)))
        CFI (cfiCond328) V6 load(1, XDATA, add(CFA_XSP16, literal(-16)))
        CFI (cfiCond328) V7 load(1, XDATA, add(CFA_XSP16, literal(-15)))
        CFI (cfiCond328) V8 load(1, XDATA, add(CFA_XSP16, literal(-14)))
        CFI (cfiCond328) V9 load(1, XDATA, add(CFA_XSP16, literal(-13)))
        CFI (cfiCond328) V10 load(1, XDATA, add(CFA_XSP16, literal(-12)))
        CFI (cfiCond328) V11 load(1, XDATA, add(CFA_XSP16, literal(-11)))
        CFI (cfiCond328) V12 load(1, XDATA, add(CFA_XSP16, literal(-10)))
        CFI (cfiCond328) V13 load(1, XDATA, add(CFA_XSP16, literal(-9)))
        CFI (cfiCond328) V14 load(1, XDATA, add(CFA_XSP16, literal(-8)))
        CFI (cfiCond328) V15 load(1, XDATA, add(CFA_XSP16, literal(-7)))
        CFI (cfiCond328) R7 load(1, XDATA, add(CFA_XSP16, literal(-6)))
        CFI (cfiCond328) ?RET_LOW load(1, XDATA, add(CFA_XSP16, literal(-5)))
        CFI (cfiCond328) ?RET_HIGH load(1, XDATA, add(CFA_XSP16, literal(-4)))
        CFI (cfiCond328) ?BRET_EXT load(1, XDATA, add(CFA_XSP16, literal(-3)))
        CFI (cfiCond328) DPL0 load(1, XDATA, add(CFA_XSP16, literal(-2)))
        CFI (cfiCond328) DPH0 load(1, XDATA, add(CFA_XSP16, literal(-1)))
        CFI (cfiCond328) CFA_SP SP+0
        CFI (cfiCond328) CFA_XSP16 add(XSP16, 28)
        CFI Block cfiCond329 Using cfiCommon0
        CFI (cfiCond329) NoFunction
        CFI (cfiCond329) Conditional ??CrossCallReturnLabel_183, ??CrossCallReturnLabel_58
        CFI (cfiCond329) R6 load(1, XDATA, add(CFA_XSP16, literal(-24)))
        CFI (cfiCond329) VB load(1, XDATA, add(CFA_XSP16, literal(-23)))
        CFI (cfiCond329) V0 load(1, XDATA, add(CFA_XSP16, literal(-22)))
        CFI (cfiCond329) V1 load(1, XDATA, add(CFA_XSP16, literal(-21)))
        CFI (cfiCond329) V2 load(1, XDATA, add(CFA_XSP16, literal(-20)))
        CFI (cfiCond329) V3 load(1, XDATA, add(CFA_XSP16, literal(-19)))
        CFI (cfiCond329) V4 load(1, XDATA, add(CFA_XSP16, literal(-18)))
        CFI (cfiCond329) V5 load(1, XDATA, add(CFA_XSP16, literal(-17)))
        CFI (cfiCond329) V6 load(1, XDATA, add(CFA_XSP16, literal(-16)))
        CFI (cfiCond329) V7 load(1, XDATA, add(CFA_XSP16, literal(-15)))
        CFI (cfiCond329) V8 load(1, XDATA, add(CFA_XSP16, literal(-14)))
        CFI (cfiCond329) V9 load(1, XDATA, add(CFA_XSP16, literal(-13)))
        CFI (cfiCond329) V10 load(1, XDATA, add(CFA_XSP16, literal(-12)))
        CFI (cfiCond329) V11 load(1, XDATA, add(CFA_XSP16, literal(-11)))
        CFI (cfiCond329) V12 load(1, XDATA, add(CFA_XSP16, literal(-10)))
        CFI (cfiCond329) V13 load(1, XDATA, add(CFA_XSP16, literal(-9)))
        CFI (cfiCond329) V14 load(1, XDATA, add(CFA_XSP16, literal(-8)))
        CFI (cfiCond329) V15 load(1, XDATA, add(CFA_XSP16, literal(-7)))
        CFI (cfiCond329) R7 load(1, XDATA, add(CFA_XSP16, literal(-6)))
        CFI (cfiCond329) ?RET_LOW load(1, XDATA, add(CFA_XSP16, literal(-5)))
        CFI (cfiCond329) ?RET_HIGH load(1, XDATA, add(CFA_XSP16, literal(-4)))
        CFI (cfiCond329) ?BRET_EXT load(1, XDATA, add(CFA_XSP16, literal(-3)))
        CFI (cfiCond329) DPL0 load(1, XDATA, add(CFA_XSP16, literal(-2)))
        CFI (cfiCond329) DPH0 load(1, XDATA, add(CFA_XSP16, literal(-1)))
        CFI (cfiCond329) CFA_SP SP+0
        CFI (cfiCond329) CFA_XSP16 add(XSP16, 28)
        CFI Block cfiCond330 Using cfiCommon0
        CFI (cfiCond330) NoFunction
        CFI (cfiCond330) Conditional ??CrossCallReturnLabel_182
        CFI (cfiCond330) DPL0 Frame(CFA_SP, 4)
        CFI (cfiCond330) DPH0 Frame(CFA_SP, 5)
        CFI (cfiCond330) CFA_SP SP+-5
        CFI (cfiCond330) CFA_XSP16 add(XSP16, 4)
        CFI Block cfiPicker331 Using cfiCommon1
        CFI (cfiPicker331) NoFunction
        CFI (cfiPicker331) Picker
        MOVX    A,@DPTR
        MOV     R2,A
        INC     DPTR
        MOVX    A,@DPTR
        MOV     R3,A
        RET
        CFI EndBlock cfiCond317
        CFI EndBlock cfiCond318
        CFI EndBlock cfiCond319
        CFI EndBlock cfiCond320
        CFI EndBlock cfiCond321
        CFI EndBlock cfiCond322
        CFI EndBlock cfiCond323
        CFI EndBlock cfiCond324
        CFI EndBlock cfiCond325
        CFI EndBlock cfiCond326
        CFI EndBlock cfiCond327
        CFI EndBlock cfiCond328
        CFI EndBlock cfiCond329
        CFI EndBlock cfiCond330
        CFI EndBlock cfiPicker331

        RSEG BANKED_CODE:CODE:NOROOT(0)
?Subroutine26:
        CFI Block cfiCond332 Using cfiCommon0
        CFI NoFunction
        CFI Conditional ??CrossCallReturnLabel_36
        CFI R6 load(1, XDATA, add(CFA_XSP16, literal(-24)))
        CFI VB load(1, XDATA, add(CFA_XSP16, literal(-23)))
        CFI V0 load(1, XDATA, add(CFA_XSP16, literal(-22)))
        CFI V1 load(1, XDATA, add(CFA_XSP16, literal(-21)))
        CFI V2 load(1, XDATA, add(CFA_XSP16, literal(-20)))
        CFI V3 load(1, XDATA, add(CFA_XSP16, literal(-19)))
        CFI V4 load(1, XDATA, add(CFA_XSP16, literal(-18)))
        CFI V5 load(1, XDATA, add(CFA_XSP16, literal(-17)))
        CFI V6 load(1, XDATA, add(CFA_XSP16, literal(-16)))
        CFI V7 load(1, XDATA, add(CFA_XSP16, literal(-15)))
        CFI V8 load(1, XDATA, add(CFA_XSP16, literal(-14)))
        CFI V9 load(1, XDATA, add(CFA_XSP16, literal(-13)))
        CFI V10 load(1, XDATA, add(CFA_XSP16, literal(-12)))
        CFI V11 load(1, XDATA, add(CFA_XSP16, literal(-11)))
        CFI V12 load(1, XDATA, add(CFA_XSP16, literal(-10)))
        CFI V13 load(1, XDATA, add(CFA_XSP16, literal(-9)))
        CFI V14 load(1, XDATA, add(CFA_XSP16, literal(-8)))
        CFI V15 load(1, XDATA, add(CFA_XSP16, literal(-7)))
        CFI R7 load(1, XDATA, add(CFA_XSP16, literal(-6)))
        CFI ?RET_LOW load(1, XDATA, add(CFA_XSP16, literal(-5)))
        CFI ?RET_HIGH load(1, XDATA, add(CFA_XSP16, literal(-4)))
        CFI ?BRET_EXT load(1, XDATA, add(CFA_XSP16, literal(-3)))
        CFI DPL0 load(1, XDATA, add(CFA_XSP16, literal(-2)))
        CFI DPH0 load(1, XDATA, add(CFA_XSP16, literal(-1)))
        CFI CFA_SP SP+0
        CFI CFA_XSP16 add(XSP16, 92)
        CFI Block cfiCond333 Using cfiCommon0
        CFI (cfiCond333) NoFunction
        CFI (cfiCond333) Conditional ??CrossCallReturnLabel_37
        CFI (cfiCond333) R6 load(1, XDATA, add(CFA_XSP16, literal(-24)))
        CFI (cfiCond333) VB load(1, XDATA, add(CFA_XSP16, literal(-23)))
        CFI (cfiCond333) V0 load(1, XDATA, add(CFA_XSP16, literal(-22)))
        CFI (cfiCond333) V1 load(1, XDATA, add(CFA_XSP16, literal(-21)))
        CFI (cfiCond333) V2 load(1, XDATA, add(CFA_XSP16, literal(-20)))
        CFI (cfiCond333) V3 load(1, XDATA, add(CFA_XSP16, literal(-19)))
        CFI (cfiCond333) V4 load(1, XDATA, add(CFA_XSP16, literal(-18)))
        CFI (cfiCond333) V5 load(1, XDATA, add(CFA_XSP16, literal(-17)))
        CFI (cfiCond333) V6 load(1, XDATA, add(CFA_XSP16, literal(-16)))
        CFI (cfiCond333) V7 load(1, XDATA, add(CFA_XSP16, literal(-15)))
        CFI (cfiCond333) V8 load(1, XDATA, add(CFA_XSP16, literal(-14)))
        CFI (cfiCond333) V9 load(1, XDATA, add(CFA_XSP16, literal(-13)))
        CFI (cfiCond333) V10 load(1, XDATA, add(CFA_XSP16, literal(-12)))
        CFI (cfiCond333) V11 load(1, XDATA, add(CFA_XSP16, literal(-11)))
        CFI (cfiCond333) V12 load(1, XDATA, add(CFA_XSP16, literal(-10)))
        CFI (cfiCond333) V13 load(1, XDATA, add(CFA_XSP16, literal(-9)))
        CFI (cfiCond333) V14 load(1, XDATA, add(CFA_XSP16, literal(-8)))
        CFI (cfiCond333) V15 load(1, XDATA, add(CFA_XSP16, literal(-7)))
        CFI (cfiCond333) R7 load(1, XDATA, add(CFA_XSP16, literal(-6)))
        CFI (cfiCond333) ?RET_LOW load(1, XDATA, add(CFA_XSP16, literal(-5)))
        CFI (cfiCond333) ?RET_HIGH load(1, XDATA, add(CFA_XSP16, literal(-4)))
        CFI (cfiCond333) ?BRET_EXT load(1, XDATA, add(CFA_XSP16, literal(-3)))
        CFI (cfiCond333) DPL0 load(1, XDATA, add(CFA_XSP16, literal(-2)))
        CFI (cfiCond333) DPH0 load(1, XDATA, add(CFA_XSP16, literal(-1)))
        CFI (cfiCond333) CFA_SP SP+0
        CFI (cfiCond333) CFA_XSP16 add(XSP16, 92)
        CFI Block cfiPicker334 Using cfiCommon1
        CFI (cfiPicker334) NoFunction
        CFI (cfiPicker334) Picker
        LCALL   ??Subroutine75_0 & 0xFFFF
??CrossCallReturnLabel_197:
        MOV     R0,A
        INC     DPTR
        MOVX    A,@DPTR
        MOV     R1,A
        RET
        CFI EndBlock cfiCond332
        CFI EndBlock cfiCond333
        CFI EndBlock cfiPicker334

        RSEG BANKED_CODE:CODE:NOROOT(0)
?Subroutine25:
        CFI Block cfiCond335 Using cfiCommon0
        CFI NoFunction
        CFI Conditional ??CrossCallReturnLabel_189
        CFI R6 load(1, XDATA, add(CFA_XSP16, literal(-24)))
        CFI VB load(1, XDATA, add(CFA_XSP16, literal(-23)))
        CFI V0 load(1, XDATA, add(CFA_XSP16, literal(-22)))
        CFI V1 load(1, XDATA, add(CFA_XSP16, literal(-21)))
        CFI V2 load(1, XDATA, add(CFA_XSP16, literal(-20)))
        CFI V3 load(1, XDATA, add(CFA_XSP16, literal(-19)))
        CFI V4 load(1, XDATA, add(CFA_XSP16, literal(-18)))
        CFI V5 load(1, XDATA, add(CFA_XSP16, literal(-17)))
        CFI V6 load(1, XDATA, add(CFA_XSP16, literal(-16)))
        CFI V7 load(1, XDATA, add(CFA_XSP16, literal(-15)))
        CFI V8 load(1, XDATA, add(CFA_XSP16, literal(-14)))
        CFI V9 load(1, XDATA, add(CFA_XSP16, literal(-13)))
        CFI V10 load(1, XDATA, add(CFA_XSP16, literal(-12)))
        CFI V11 load(1, XDATA, add(CFA_XSP16, literal(-11)))
        CFI V12 load(1, XDATA, add(CFA_XSP16, literal(-10)))
        CFI V13 load(1, XDATA, add(CFA_XSP16, literal(-9)))
        CFI V14 load(1, XDATA, add(CFA_XSP16, literal(-8)))
        CFI V15 load(1, XDATA, add(CFA_XSP16, literal(-7)))
        CFI R7 load(1, XDATA, add(CFA_XSP16, literal(-6)))
        CFI ?RET_LOW load(1, XDATA, add(CFA_XSP16, literal(-5)))
        CFI ?RET_HIGH load(1, XDATA, add(CFA_XSP16, literal(-4)))
        CFI ?BRET_EXT load(1, XDATA, add(CFA_XSP16, literal(-3)))
        CFI DPL0 load(1, XDATA, add(CFA_XSP16, literal(-2)))
        CFI DPH0 load(1, XDATA, add(CFA_XSP16, literal(-1)))
        CFI CFA_SP SP+0
        CFI CFA_XSP16 add(XSP16, 92)
        CFI Block cfiCond336 Using cfiCommon0
        CFI (cfiCond336) NoFunction
        CFI (cfiCond336) Conditional ??CrossCallReturnLabel_190
        CFI (cfiCond336) R6 load(1, XDATA, add(CFA_XSP16, literal(-24)))
        CFI (cfiCond336) VB load(1, XDATA, add(CFA_XSP16, literal(-23)))
        CFI (cfiCond336) V0 load(1, XDATA, add(CFA_XSP16, literal(-22)))
        CFI (cfiCond336) V1 load(1, XDATA, add(CFA_XSP16, literal(-21)))
        CFI (cfiCond336) V2 load(1, XDATA, add(CFA_XSP16, literal(-20)))
        CFI (cfiCond336) V3 load(1, XDATA, add(CFA_XSP16, literal(-19)))
        CFI (cfiCond336) V4 load(1, XDATA, add(CFA_XSP16, literal(-18)))
        CFI (cfiCond336) V5 load(1, XDATA, add(CFA_XSP16, literal(-17)))
        CFI (cfiCond336) V6 load(1, XDATA, add(CFA_XSP16, literal(-16)))
        CFI (cfiCond336) V7 load(1, XDATA, add(CFA_XSP16, literal(-15)))
        CFI (cfiCond336) V8 load(1, XDATA, add(CFA_XSP16, literal(-14)))
        CFI (cfiCond336) V9 load(1, XDATA, add(CFA_XSP16, literal(-13)))
        CFI (cfiCond336) V10 load(1, XDATA, add(CFA_XSP16, literal(-12)))
        CFI (cfiCond336) V11 load(1, XDATA, add(CFA_XSP16, literal(-11)))
        CFI (cfiCond336) V12 load(1, XDATA, add(CFA_XSP16, literal(-10)))
        CFI (cfiCond336) V13 load(1, XDATA, add(CFA_XSP16, literal(-9)))
        CFI (cfiCond336) V14 load(1, XDATA, add(CFA_XSP16, literal(-8)))
        CFI (cfiCond336) V15 load(1, XDATA, add(CFA_XSP16, literal(-7)))
        CFI (cfiCond336) R7 load(1, XDATA, add(CFA_XSP16, literal(-6)))
        CFI (cfiCond336) ?RET_LOW load(1, XDATA, add(CFA_XSP16, literal(-5)))
        CFI (cfiCond336) ?RET_HIGH load(1, XDATA, add(CFA_XSP16, literal(-4)))
        CFI (cfiCond336) ?BRET_EXT load(1, XDATA, add(CFA_XSP16, literal(-3)))
        CFI (cfiCond336) DPL0 load(1, XDATA, add(CFA_XSP16, literal(-2)))
        CFI (cfiCond336) DPH0 load(1, XDATA, add(CFA_XSP16, literal(-1)))
        CFI (cfiCond336) CFA_SP SP+0
        CFI (cfiCond336) CFA_XSP16 add(XSP16, 92)
        CFI Block cfiPicker337 Using cfiCommon1
        CFI (cfiPicker337) NoFunction
        CFI (cfiPicker337) Picker
        MOV     DPTR,#??nodeptr
        CFI EndBlock cfiCond335
        CFI EndBlock cfiCond336
        CFI EndBlock cfiPicker337
        REQUIRE ??Subroutine73_0
        ; // Fall through to label ??Subroutine73_0

        RSEG BANKED_CODE:CODE:NOROOT(0)
??Subroutine73_0:
        CFI Block cfiCond338 Using cfiCommon0
        CFI NoFunction
        CFI Conditional ??CrossCallReturnLabel_185
        CFI R6 load(1, XDATA, add(CFA_XSP16, literal(-24)))
        CFI VB load(1, XDATA, add(CFA_XSP16, literal(-23)))
        CFI V0 load(1, XDATA, add(CFA_XSP16, literal(-22)))
        CFI V1 load(1, XDATA, add(CFA_XSP16, literal(-21)))
        CFI V2 load(1, XDATA, add(CFA_XSP16, literal(-20)))
        CFI V3 load(1, XDATA, add(CFA_XSP16, literal(-19)))
        CFI V4 load(1, XDATA, add(CFA_XSP16, literal(-18)))
        CFI V5 load(1, XDATA, add(CFA_XSP16, literal(-17)))
        CFI V6 load(1, XDATA, add(CFA_XSP16, literal(-16)))
        CFI V7 load(1, XDATA, add(CFA_XSP16, literal(-15)))
        CFI V8 load(1, XDATA, add(CFA_XSP16, literal(-14)))
        CFI V9 load(1, XDATA, add(CFA_XSP16, literal(-13)))
        CFI V10 load(1, XDATA, add(CFA_XSP16, literal(-12)))
        CFI V11 load(1, XDATA, add(CFA_XSP16, literal(-11)))
        CFI V12 load(1, XDATA, add(CFA_XSP16, literal(-10)))
        CFI V13 load(1, XDATA, add(CFA_XSP16, literal(-9)))
        CFI V14 load(1, XDATA, add(CFA_XSP16, literal(-8)))
        CFI V15 load(1, XDATA, add(CFA_XSP16, literal(-7)))
        CFI R7 load(1, XDATA, add(CFA_XSP16, literal(-6)))
        CFI ?RET_LOW load(1, XDATA, add(CFA_XSP16, literal(-5)))
        CFI ?RET_HIGH load(1, XDATA, add(CFA_XSP16, literal(-4)))
        CFI ?BRET_EXT load(1, XDATA, add(CFA_XSP16, literal(-3)))
        CFI DPL0 load(1, XDATA, add(CFA_XSP16, literal(-2)))
        CFI DPH0 load(1, XDATA, add(CFA_XSP16, literal(-1)))
        CFI CFA_SP SP+0
        CFI CFA_XSP16 add(XSP16, 28)
        CFI Block cfiCond339 Using cfiCommon0
        CFI (cfiCond339) NoFunction
        CFI (cfiCond339) Conditional ??CrossCallReturnLabel_186
        CFI (cfiCond339) R6 load(1, XDATA, add(CFA_XSP16, literal(-24)))
        CFI (cfiCond339) VB load(1, XDATA, add(CFA_XSP16, literal(-23)))
        CFI (cfiCond339) V0 load(1, XDATA, add(CFA_XSP16, literal(-22)))
        CFI (cfiCond339) V1 load(1, XDATA, add(CFA_XSP16, literal(-21)))
        CFI (cfiCond339) V2 load(1, XDATA, add(CFA_XSP16, literal(-20)))
        CFI (cfiCond339) V3 load(1, XDATA, add(CFA_XSP16, literal(-19)))
        CFI (cfiCond339) V4 load(1, XDATA, add(CFA_XSP16, literal(-18)))
        CFI (cfiCond339) V5 load(1, XDATA, add(CFA_XSP16, literal(-17)))
        CFI (cfiCond339) V6 load(1, XDATA, add(CFA_XSP16, literal(-16)))
        CFI (cfiCond339) V7 load(1, XDATA, add(CFA_XSP16, literal(-15)))
        CFI (cfiCond339) V8 load(1, XDATA, add(CFA_XSP16, literal(-14)))
        CFI (cfiCond339) V9 load(1, XDATA, add(CFA_XSP16, literal(-13)))
        CFI (cfiCond339) V10 load(1, XDATA, add(CFA_XSP16, literal(-12)))
        CFI (cfiCond339) V11 load(1, XDATA, add(CFA_XSP16, literal(-11)))
        CFI (cfiCond339) V12 load(1, XDATA, add(CFA_XSP16, literal(-10)))
        CFI (cfiCond339) V13 load(1, XDATA, add(CFA_XSP16, literal(-9)))
        CFI (cfiCond339) V14 load(1, XDATA, add(CFA_XSP16, literal(-8)))
        CFI (cfiCond339) V15 load(1, XDATA, add(CFA_XSP16, literal(-7)))
        CFI (cfiCond339) R7 load(1, XDATA, add(CFA_XSP16, literal(-6)))
        CFI (cfiCond339) ?RET_LOW load(1, XDATA, add(CFA_XSP16, literal(-5)))
        CFI (cfiCond339) ?RET_HIGH load(1, XDATA, add(CFA_XSP16, literal(-4)))
        CFI (cfiCond339) ?BRET_EXT load(1, XDATA, add(CFA_XSP16, literal(-3)))
        CFI (cfiCond339) DPL0 load(1, XDATA, add(CFA_XSP16, literal(-2)))
        CFI (cfiCond339) DPH0 load(1, XDATA, add(CFA_XSP16, literal(-1)))
        CFI (cfiCond339) CFA_SP SP+0
        CFI (cfiCond339) CFA_XSP16 add(XSP16, 28)
        CFI Block cfiCond340 Using cfiCommon0
        CFI (cfiCond340) NoFunction
        CFI (cfiCond340) Conditional ??CrossCallReturnLabel_187
        CFI (cfiCond340) R6 load(1, XDATA, add(CFA_XSP16, literal(-24)))
        CFI (cfiCond340) VB load(1, XDATA, add(CFA_XSP16, literal(-23)))
        CFI (cfiCond340) V0 load(1, XDATA, add(CFA_XSP16, literal(-22)))
        CFI (cfiCond340) V1 load(1, XDATA, add(CFA_XSP16, literal(-21)))
        CFI (cfiCond340) V2 load(1, XDATA, add(CFA_XSP16, literal(-20)))
        CFI (cfiCond340) V3 load(1, XDATA, add(CFA_XSP16, literal(-19)))
        CFI (cfiCond340) V4 load(1, XDATA, add(CFA_XSP16, literal(-18)))
        CFI (cfiCond340) V5 load(1, XDATA, add(CFA_XSP16, literal(-17)))
        CFI (cfiCond340) V6 load(1, XDATA, add(CFA_XSP16, literal(-16)))
        CFI (cfiCond340) V7 load(1, XDATA, add(CFA_XSP16, literal(-15)))
        CFI (cfiCond340) V8 load(1, XDATA, add(CFA_XSP16, literal(-14)))
        CFI (cfiCond340) V9 load(1, XDATA, add(CFA_XSP16, literal(-13)))
        CFI (cfiCond340) V10 load(1, XDATA, add(CFA_XSP16, literal(-12)))
        CFI (cfiCond340) V11 load(1, XDATA, add(CFA_XSP16, literal(-11)))
        CFI (cfiCond340) V12 load(1, XDATA, add(CFA_XSP16, literal(-10)))
        CFI (cfiCond340) V13 load(1, XDATA, add(CFA_XSP16, literal(-9)))
        CFI (cfiCond340) V14 load(1, XDATA, add(CFA_XSP16, literal(-8)))
        CFI (cfiCond340) V15 load(1, XDATA, add(CFA_XSP16, literal(-7)))
        CFI (cfiCond340) R7 load(1, XDATA, add(CFA_XSP16, literal(-6)))
        CFI (cfiCond340) ?RET_LOW load(1, XDATA, add(CFA_XSP16, literal(-5)))
        CFI (cfiCond340) ?RET_HIGH load(1, XDATA, add(CFA_XSP16, literal(-4)))
        CFI (cfiCond340) ?BRET_EXT load(1, XDATA, add(CFA_XSP16, literal(-3)))
        CFI (cfiCond340) DPL0 load(1, XDATA, add(CFA_XSP16, literal(-2)))
        CFI (cfiCond340) DPH0 load(1, XDATA, add(CFA_XSP16, literal(-1)))
        CFI (cfiCond340) CFA_SP SP+0
        CFI (cfiCond340) CFA_XSP16 add(XSP16, 92)
        CFI Block cfiCond341 Using cfiCommon0
        CFI (cfiCond341) NoFunction
        CFI (cfiCond341) Conditional ??CrossCallReturnLabel_188
        CFI (cfiCond341) R6 load(1, XDATA, add(CFA_XSP16, literal(-24)))
        CFI (cfiCond341) VB load(1, XDATA, add(CFA_XSP16, literal(-23)))
        CFI (cfiCond341) V0 load(1, XDATA, add(CFA_XSP16, literal(-22)))
        CFI (cfiCond341) V1 load(1, XDATA, add(CFA_XSP16, literal(-21)))
        CFI (cfiCond341) V2 load(1, XDATA, add(CFA_XSP16, literal(-20)))
        CFI (cfiCond341) V3 load(1, XDATA, add(CFA_XSP16, literal(-19)))
        CFI (cfiCond341) V4 load(1, XDATA, add(CFA_XSP16, literal(-18)))
        CFI (cfiCond341) V5 load(1, XDATA, add(CFA_XSP16, literal(-17)))
        CFI (cfiCond341) V6 load(1, XDATA, add(CFA_XSP16, literal(-16)))
        CFI (cfiCond341) V7 load(1, XDATA, add(CFA_XSP16, literal(-15)))
        CFI (cfiCond341) V8 load(1, XDATA, add(CFA_XSP16, literal(-14)))
        CFI (cfiCond341) V9 load(1, XDATA, add(CFA_XSP16, literal(-13)))
        CFI (cfiCond341) V10 load(1, XDATA, add(CFA_XSP16, literal(-12)))
        CFI (cfiCond341) V11 load(1, XDATA, add(CFA_XSP16, literal(-11)))
        CFI (cfiCond341) V12 load(1, XDATA, add(CFA_XSP16, literal(-10)))
        CFI (cfiCond341) V13 load(1, XDATA, add(CFA_XSP16, literal(-9)))
        CFI (cfiCond341) V14 load(1, XDATA, add(CFA_XSP16, literal(-8)))
        CFI (cfiCond341) V15 load(1, XDATA, add(CFA_XSP16, literal(-7)))
        CFI (cfiCond341) R7 load(1, XDATA, add(CFA_XSP16, literal(-6)))
        CFI (cfiCond341) ?RET_LOW load(1, XDATA, add(CFA_XSP16, literal(-5)))
        CFI (cfiCond341) ?RET_HIGH load(1, XDATA, add(CFA_XSP16, literal(-4)))
        CFI (cfiCond341) ?BRET_EXT load(1, XDATA, add(CFA_XSP16, literal(-3)))
        CFI (cfiCond341) DPL0 load(1, XDATA, add(CFA_XSP16, literal(-2)))
        CFI (cfiCond341) DPH0 load(1, XDATA, add(CFA_XSP16, literal(-1)))
        CFI (cfiCond341) CFA_SP SP+0
        CFI (cfiCond341) CFA_XSP16 add(XSP16, 92)
        CFI Block cfiCond342 Using cfiCommon0
        CFI (cfiCond342) NoFunction
        CFI (cfiCond342) Conditional ??CrossCallReturnLabel_189
        CFI (cfiCond342) R6 load(1, XDATA, add(CFA_XSP16, literal(-24)))
        CFI (cfiCond342) VB load(1, XDATA, add(CFA_XSP16, literal(-23)))
        CFI (cfiCond342) V0 load(1, XDATA, add(CFA_XSP16, literal(-22)))
        CFI (cfiCond342) V1 load(1, XDATA, add(CFA_XSP16, literal(-21)))
        CFI (cfiCond342) V2 load(1, XDATA, add(CFA_XSP16, literal(-20)))
        CFI (cfiCond342) V3 load(1, XDATA, add(CFA_XSP16, literal(-19)))
        CFI (cfiCond342) V4 load(1, XDATA, add(CFA_XSP16, literal(-18)))
        CFI (cfiCond342) V5 load(1, XDATA, add(CFA_XSP16, literal(-17)))
        CFI (cfiCond342) V6 load(1, XDATA, add(CFA_XSP16, literal(-16)))
        CFI (cfiCond342) V7 load(1, XDATA, add(CFA_XSP16, literal(-15)))
        CFI (cfiCond342) V8 load(1, XDATA, add(CFA_XSP16, literal(-14)))
        CFI (cfiCond342) V9 load(1, XDATA, add(CFA_XSP16, literal(-13)))
        CFI (cfiCond342) V10 load(1, XDATA, add(CFA_XSP16, literal(-12)))
        CFI (cfiCond342) V11 load(1, XDATA, add(CFA_XSP16, literal(-11)))
        CFI (cfiCond342) V12 load(1, XDATA, add(CFA_XSP16, literal(-10)))
        CFI (cfiCond342) V13 load(1, XDATA, add(CFA_XSP16, literal(-9)))
        CFI (cfiCond342) V14 load(1, XDATA, add(CFA_XSP16, literal(-8)))
        CFI (cfiCond342) V15 load(1, XDATA, add(CFA_XSP16, literal(-7)))
        CFI (cfiCond342) R7 load(1, XDATA, add(CFA_XSP16, literal(-6)))
        CFI (cfiCond342) ?RET_LOW load(1, XDATA, add(CFA_XSP16, literal(-5)))
        CFI (cfiCond342) ?RET_HIGH load(1, XDATA, add(CFA_XSP16, literal(-4)))
        CFI (cfiCond342) ?BRET_EXT load(1, XDATA, add(CFA_XSP16, literal(-3)))
        CFI (cfiCond342) DPL0 load(1, XDATA, add(CFA_XSP16, literal(-2)))
        CFI (cfiCond342) DPH0 load(1, XDATA, add(CFA_XSP16, literal(-1)))
        CFI (cfiCond342) CFA_SP SP+0
        CFI (cfiCond342) CFA_XSP16 add(XSP16, 92)
        CFI Block cfiCond343 Using cfiCommon0
        CFI (cfiCond343) NoFunction
        CFI (cfiCond343) Conditional ??CrossCallReturnLabel_190
        CFI (cfiCond343) R6 load(1, XDATA, add(CFA_XSP16, literal(-24)))
        CFI (cfiCond343) VB load(1, XDATA, add(CFA_XSP16, literal(-23)))
        CFI (cfiCond343) V0 load(1, XDATA, add(CFA_XSP16, literal(-22)))
        CFI (cfiCond343) V1 load(1, XDATA, add(CFA_XSP16, literal(-21)))
        CFI (cfiCond343) V2 load(1, XDATA, add(CFA_XSP16, literal(-20)))
        CFI (cfiCond343) V3 load(1, XDATA, add(CFA_XSP16, literal(-19)))
        CFI (cfiCond343) V4 load(1, XDATA, add(CFA_XSP16, literal(-18)))
        CFI (cfiCond343) V5 load(1, XDATA, add(CFA_XSP16, literal(-17)))
        CFI (cfiCond343) V6 load(1, XDATA, add(CFA_XSP16, literal(-16)))
        CFI (cfiCond343) V7 load(1, XDATA, add(CFA_XSP16, literal(-15)))
        CFI (cfiCond343) V8 load(1, XDATA, add(CFA_XSP16, literal(-14)))
        CFI (cfiCond343) V9 load(1, XDATA, add(CFA_XSP16, literal(-13)))
        CFI (cfiCond343) V10 load(1, XDATA, add(CFA_XSP16, literal(-12)))
        CFI (cfiCond343) V11 load(1, XDATA, add(CFA_XSP16, literal(-11)))
        CFI (cfiCond343) V12 load(1, XDATA, add(CFA_XSP16, literal(-10)))
        CFI (cfiCond343) V13 load(1, XDATA, add(CFA_XSP16, literal(-9)))
        CFI (cfiCond343) V14 load(1, XDATA, add(CFA_XSP16, literal(-8)))
        CFI (cfiCond343) V15 load(1, XDATA, add(CFA_XSP16, literal(-7)))
        CFI (cfiCond343) R7 load(1, XDATA, add(CFA_XSP16, literal(-6)))
        CFI (cfiCond343) ?RET_LOW load(1, XDATA, add(CFA_XSP16, literal(-5)))
        CFI (cfiCond343) ?RET_HIGH load(1, XDATA, add(CFA_XSP16, literal(-4)))
        CFI (cfiCond343) ?BRET_EXT load(1, XDATA, add(CFA_XSP16, literal(-3)))
        CFI (cfiCond343) DPL0 load(1, XDATA, add(CFA_XSP16, literal(-2)))
        CFI (cfiCond343) DPH0 load(1, XDATA, add(CFA_XSP16, literal(-1)))
        CFI (cfiCond343) CFA_SP SP+0
        CFI (cfiCond343) CFA_XSP16 add(XSP16, 92)
        CFI Block cfiPicker344 Using cfiCommon1
        CFI (cfiPicker344) NoFunction
        CFI (cfiPicker344) Picker
        MOVX    A,@DPTR
        MOV     R0,A
        INC     DPTR
        MOVX    A,@DPTR
        MOV     R1,A
        MOV     A,R0
        ORL     A,R1
        RET
        CFI EndBlock cfiCond338
        CFI EndBlock cfiCond339
        CFI EndBlock cfiCond340
        CFI EndBlock cfiCond341
        CFI EndBlock cfiCond342
        CFI EndBlock cfiCond343
        CFI EndBlock cfiPicker344

        RSEG BANKED_CODE:CODE:NOROOT(0)
?Subroutine24:
        CFI Block cfiCond345 Using cfiCommon0
        CFI NoFunction
        CFI Conditional ??CrossCallReturnLabel_33
        CFI R6 load(1, XDATA, add(CFA_XSP16, literal(-20)))
        CFI VB load(1, XDATA, add(CFA_XSP16, literal(-19)))
        CFI V0 load(1, XDATA, add(CFA_XSP16, literal(-18)))
        CFI V1 load(1, XDATA, add(CFA_XSP16, literal(-17)))
        CFI V2 load(1, XDATA, add(CFA_XSP16, literal(-16)))
        CFI V3 load(1, XDATA, add(CFA_XSP16, literal(-15)))
        CFI V4 load(1, XDATA, add(CFA_XSP16, literal(-14)))
        CFI V5 load(1, XDATA, add(CFA_XSP16, literal(-13)))
        CFI V6 load(1, XDATA, add(CFA_XSP16, literal(-12)))
        CFI V7 load(1, XDATA, add(CFA_XSP16, literal(-11)))
        CFI V8 load(1, XDATA, add(CFA_XSP16, literal(-10)))
        CFI V9 load(1, XDATA, add(CFA_XSP16, literal(-9)))
        CFI V10 load(1, XDATA, add(CFA_XSP16, literal(-8)))
        CFI V11 load(1, XDATA, add(CFA_XSP16, literal(-7)))
        CFI R7 load(1, XDATA, add(CFA_XSP16, literal(-6)))
        CFI ?RET_LOW load(1, XDATA, add(CFA_XSP16, literal(-5)))
        CFI ?RET_HIGH load(1, XDATA, add(CFA_XSP16, literal(-4)))
        CFI ?BRET_EXT load(1, XDATA, add(CFA_XSP16, literal(-3)))
        CFI DPL0 load(1, XDATA, add(CFA_XSP16, literal(-2)))
        CFI DPH0 load(1, XDATA, add(CFA_XSP16, literal(-1)))
        CFI CFA_SP SP+0
        CFI CFA_XSP16 add(XSP16, 21)
        CFI Block cfiCond346 Using cfiCommon0
        CFI (cfiCond346) NoFunction
        CFI (cfiCond346) Conditional ??CrossCallReturnLabel_34
        CFI (cfiCond346) R6 load(1, XDATA, add(CFA_XSP16, literal(-24)))
        CFI (cfiCond346) VB load(1, XDATA, add(CFA_XSP16, literal(-23)))
        CFI (cfiCond346) V0 load(1, XDATA, add(CFA_XSP16, literal(-22)))
        CFI (cfiCond346) V1 load(1, XDATA, add(CFA_XSP16, literal(-21)))
        CFI (cfiCond346) V2 load(1, XDATA, add(CFA_XSP16, literal(-20)))
        CFI (cfiCond346) V3 load(1, XDATA, add(CFA_XSP16, literal(-19)))
        CFI (cfiCond346) V4 load(1, XDATA, add(CFA_XSP16, literal(-18)))
        CFI (cfiCond346) V5 load(1, XDATA, add(CFA_XSP16, literal(-17)))
        CFI (cfiCond346) V6 load(1, XDATA, add(CFA_XSP16, literal(-16)))
        CFI (cfiCond346) V7 load(1, XDATA, add(CFA_XSP16, literal(-15)))
        CFI (cfiCond346) V8 load(1, XDATA, add(CFA_XSP16, literal(-14)))
        CFI (cfiCond346) V9 load(1, XDATA, add(CFA_XSP16, literal(-13)))
        CFI (cfiCond346) V10 load(1, XDATA, add(CFA_XSP16, literal(-12)))
        CFI (cfiCond346) V11 load(1, XDATA, add(CFA_XSP16, literal(-11)))
        CFI (cfiCond346) V12 load(1, XDATA, add(CFA_XSP16, literal(-10)))
        CFI (cfiCond346) V13 load(1, XDATA, add(CFA_XSP16, literal(-9)))
        CFI (cfiCond346) V14 load(1, XDATA, add(CFA_XSP16, literal(-8)))
        CFI (cfiCond346) V15 load(1, XDATA, add(CFA_XSP16, literal(-7)))
        CFI (cfiCond346) R7 load(1, XDATA, add(CFA_XSP16, literal(-6)))
        CFI (cfiCond346) ?RET_LOW load(1, XDATA, add(CFA_XSP16, literal(-5)))
        CFI (cfiCond346) ?RET_HIGH load(1, XDATA, add(CFA_XSP16, literal(-4)))
        CFI (cfiCond346) ?BRET_EXT load(1, XDATA, add(CFA_XSP16, literal(-3)))
        CFI (cfiCond346) DPL0 load(1, XDATA, add(CFA_XSP16, literal(-2)))
        CFI (cfiCond346) DPH0 load(1, XDATA, add(CFA_XSP16, literal(-1)))
        CFI (cfiCond346) CFA_SP SP+0
        CFI (cfiCond346) CFA_XSP16 add(XSP16, 92)
        CFI Block cfiCond347 Using cfiCommon0
        CFI (cfiCond347) NoFunction
        CFI (cfiCond347) Conditional ??CrossCallReturnLabel_35
        CFI (cfiCond347) R6 load(1, XDATA, add(CFA_XSP16, literal(-24)))
        CFI (cfiCond347) VB load(1, XDATA, add(CFA_XSP16, literal(-23)))
        CFI (cfiCond347) V0 load(1, XDATA, add(CFA_XSP16, literal(-22)))
        CFI (cfiCond347) V1 load(1, XDATA, add(CFA_XSP16, literal(-21)))
        CFI (cfiCond347) V2 load(1, XDATA, add(CFA_XSP16, literal(-20)))
        CFI (cfiCond347) V3 load(1, XDATA, add(CFA_XSP16, literal(-19)))
        CFI (cfiCond347) V4 load(1, XDATA, add(CFA_XSP16, literal(-18)))
        CFI (cfiCond347) V5 load(1, XDATA, add(CFA_XSP16, literal(-17)))
        CFI (cfiCond347) V6 load(1, XDATA, add(CFA_XSP16, literal(-16)))
        CFI (cfiCond347) V7 load(1, XDATA, add(CFA_XSP16, literal(-15)))
        CFI (cfiCond347) V8 load(1, XDATA, add(CFA_XSP16, literal(-14)))
        CFI (cfiCond347) V9 load(1, XDATA, add(CFA_XSP16, literal(-13)))
        CFI (cfiCond347) V10 load(1, XDATA, add(CFA_XSP16, literal(-12)))
        CFI (cfiCond347) V11 load(1, XDATA, add(CFA_XSP16, literal(-11)))
        CFI (cfiCond347) V12 load(1, XDATA, add(CFA_XSP16, literal(-10)))
        CFI (cfiCond347) V13 load(1, XDATA, add(CFA_XSP16, literal(-9)))
        CFI (cfiCond347) V14 load(1, XDATA, add(CFA_XSP16, literal(-8)))
        CFI (cfiCond347) V15 load(1, XDATA, add(CFA_XSP16, literal(-7)))
        CFI (cfiCond347) R7 load(1, XDATA, add(CFA_XSP16, literal(-6)))
        CFI (cfiCond347) ?RET_LOW load(1, XDATA, add(CFA_XSP16, literal(-5)))
        CFI (cfiCond347) ?RET_HIGH load(1, XDATA, add(CFA_XSP16, literal(-4)))
        CFI (cfiCond347) ?BRET_EXT load(1, XDATA, add(CFA_XSP16, literal(-3)))
        CFI (cfiCond347) DPL0 load(1, XDATA, add(CFA_XSP16, literal(-2)))
        CFI (cfiCond347) DPH0 load(1, XDATA, add(CFA_XSP16, literal(-1)))
        CFI (cfiCond347) CFA_SP SP+0
        CFI (cfiCond347) CFA_XSP16 add(XSP16, 94)
        CFI Block cfiPicker348 Using cfiCommon1
        CFI (cfiPicker348) NoFunction
        CFI (cfiPicker348) Picker
        MOVX    A,@DPTR
        MOV     ?V0 + 4,A
        INC     DPTR
        MOVX    A,@DPTR
        MOV     ?V0 + 5,A
        CLR     A
        MOV     ?V0 + 6,A
        MOV     ?V0 + 7,A
        MOV     R0,#?V0 + 4
        RET
        CFI EndBlock cfiCond345
        CFI EndBlock cfiCond346
        CFI EndBlock cfiCond347
        CFI EndBlock cfiPicker348

        RSEG BANKED_CODE:CODE:NOROOT(0)
?Subroutine23:
        CFI Block cfiCond349 Using cfiCommon0
        CFI NoFunction
        CFI Conditional ??CrossCallReturnLabel_30
        CFI R6 load(1, XDATA, add(CFA_XSP16, literal(-24)))
        CFI VB load(1, XDATA, add(CFA_XSP16, literal(-23)))
        CFI V0 load(1, XDATA, add(CFA_XSP16, literal(-22)))
        CFI V1 load(1, XDATA, add(CFA_XSP16, literal(-21)))
        CFI V2 load(1, XDATA, add(CFA_XSP16, literal(-20)))
        CFI V3 load(1, XDATA, add(CFA_XSP16, literal(-19)))
        CFI V4 load(1, XDATA, add(CFA_XSP16, literal(-18)))
        CFI V5 load(1, XDATA, add(CFA_XSP16, literal(-17)))
        CFI V6 load(1, XDATA, add(CFA_XSP16, literal(-16)))
        CFI V7 load(1, XDATA, add(CFA_XSP16, literal(-15)))
        CFI V8 load(1, XDATA, add(CFA_XSP16, literal(-14)))
        CFI V9 load(1, XDATA, add(CFA_XSP16, literal(-13)))
        CFI V10 load(1, XDATA, add(CFA_XSP16, literal(-12)))
        CFI V11 load(1, XDATA, add(CFA_XSP16, literal(-11)))
        CFI V12 load(1, XDATA, add(CFA_XSP16, literal(-10)))
        CFI V13 load(1, XDATA, add(CFA_XSP16, literal(-9)))
        CFI V14 load(1, XDATA, add(CFA_XSP16, literal(-8)))
        CFI V15 load(1, XDATA, add(CFA_XSP16, literal(-7)))
        CFI R7 load(1, XDATA, add(CFA_XSP16, literal(-6)))
        CFI ?RET_LOW load(1, XDATA, add(CFA_XSP16, literal(-5)))
        CFI ?RET_HIGH load(1, XDATA, add(CFA_XSP16, literal(-4)))
        CFI ?BRET_EXT load(1, XDATA, add(CFA_XSP16, literal(-3)))
        CFI DPL0 load(1, XDATA, add(CFA_XSP16, literal(-2)))
        CFI DPH0 load(1, XDATA, add(CFA_XSP16, literal(-1)))
        CFI CFA_SP SP+0
        CFI CFA_XSP16 add(XSP16, 92)
        CFI Block cfiCond350 Using cfiCommon0
        CFI (cfiCond350) NoFunction
        CFI (cfiCond350) Conditional ??CrossCallReturnLabel_31
        CFI (cfiCond350) R6 load(1, XDATA, add(CFA_XSP16, literal(-24)))
        CFI (cfiCond350) VB load(1, XDATA, add(CFA_XSP16, literal(-23)))
        CFI (cfiCond350) V0 load(1, XDATA, add(CFA_XSP16, literal(-22)))
        CFI (cfiCond350) V1 load(1, XDATA, add(CFA_XSP16, literal(-21)))
        CFI (cfiCond350) V2 load(1, XDATA, add(CFA_XSP16, literal(-20)))
        CFI (cfiCond350) V3 load(1, XDATA, add(CFA_XSP16, literal(-19)))
        CFI (cfiCond350) V4 load(1, XDATA, add(CFA_XSP16, literal(-18)))
        CFI (cfiCond350) V5 load(1, XDATA, add(CFA_XSP16, literal(-17)))
        CFI (cfiCond350) V6 load(1, XDATA, add(CFA_XSP16, literal(-16)))
        CFI (cfiCond350) V7 load(1, XDATA, add(CFA_XSP16, literal(-15)))
        CFI (cfiCond350) V8 load(1, XDATA, add(CFA_XSP16, literal(-14)))
        CFI (cfiCond350) V9 load(1, XDATA, add(CFA_XSP16, literal(-13)))
        CFI (cfiCond350) V10 load(1, XDATA, add(CFA_XSP16, literal(-12)))
        CFI (cfiCond350) V11 load(1, XDATA, add(CFA_XSP16, literal(-11)))
        CFI (cfiCond350) V12 load(1, XDATA, add(CFA_XSP16, literal(-10)))
        CFI (cfiCond350) V13 load(1, XDATA, add(CFA_XSP16, literal(-9)))
        CFI (cfiCond350) V14 load(1, XDATA, add(CFA_XSP16, literal(-8)))
        CFI (cfiCond350) V15 load(1, XDATA, add(CFA_XSP16, literal(-7)))
        CFI (cfiCond350) R7 load(1, XDATA, add(CFA_XSP16, literal(-6)))
        CFI (cfiCond350) ?RET_LOW load(1, XDATA, add(CFA_XSP16, literal(-5)))
        CFI (cfiCond350) ?RET_HIGH load(1, XDATA, add(CFA_XSP16, literal(-4)))
        CFI (cfiCond350) ?BRET_EXT load(1, XDATA, add(CFA_XSP16, literal(-3)))
        CFI (cfiCond350) DPL0 load(1, XDATA, add(CFA_XSP16, literal(-2)))
        CFI (cfiCond350) DPH0 load(1, XDATA, add(CFA_XSP16, literal(-1)))
        CFI (cfiCond350) CFA_SP SP+0
        CFI (cfiCond350) CFA_XSP16 add(XSP16, 92)
        CFI Block cfiCond351 Using cfiCommon0
        CFI (cfiCond351) NoFunction
        CFI (cfiCond351) Conditional ??CrossCallReturnLabel_32
        CFI (cfiCond351) R6 load(1, XDATA, add(CFA_XSP16, literal(-24)))
        CFI (cfiCond351) VB load(1, XDATA, add(CFA_XSP16, literal(-23)))
        CFI (cfiCond351) V0 load(1, XDATA, add(CFA_XSP16, literal(-22)))
        CFI (cfiCond351) V1 load(1, XDATA, add(CFA_XSP16, literal(-21)))
        CFI (cfiCond351) V2 load(1, XDATA, add(CFA_XSP16, literal(-20)))
        CFI (cfiCond351) V3 load(1, XDATA, add(CFA_XSP16, literal(-19)))
        CFI (cfiCond351) V4 load(1, XDATA, add(CFA_XSP16, literal(-18)))
        CFI (cfiCond351) V5 load(1, XDATA, add(CFA_XSP16, literal(-17)))
        CFI (cfiCond351) V6 load(1, XDATA, add(CFA_XSP16, literal(-16)))
        CFI (cfiCond351) V7 load(1, XDATA, add(CFA_XSP16, literal(-15)))
        CFI (cfiCond351) V8 load(1, XDATA, add(CFA_XSP16, literal(-14)))
        CFI (cfiCond351) V9 load(1, XDATA, add(CFA_XSP16, literal(-13)))
        CFI (cfiCond351) V10 load(1, XDATA, add(CFA_XSP16, literal(-12)))
        CFI (cfiCond351) V11 load(1, XDATA, add(CFA_XSP16, literal(-11)))
        CFI (cfiCond351) V12 load(1, XDATA, add(CFA_XSP16, literal(-10)))
        CFI (cfiCond351) V13 load(1, XDATA, add(CFA_XSP16, literal(-9)))
        CFI (cfiCond351) V14 load(1, XDATA, add(CFA_XSP16, literal(-8)))
        CFI (cfiCond351) V15 load(1, XDATA, add(CFA_XSP16, literal(-7)))
        CFI (cfiCond351) R7 load(1, XDATA, add(CFA_XSP16, literal(-6)))
        CFI (cfiCond351) ?RET_LOW load(1, XDATA, add(CFA_XSP16, literal(-5)))
        CFI (cfiCond351) ?RET_HIGH load(1, XDATA, add(CFA_XSP16, literal(-4)))
        CFI (cfiCond351) ?BRET_EXT load(1, XDATA, add(CFA_XSP16, literal(-3)))
        CFI (cfiCond351) DPL0 load(1, XDATA, add(CFA_XSP16, literal(-2)))
        CFI (cfiCond351) DPH0 load(1, XDATA, add(CFA_XSP16, literal(-1)))
        CFI (cfiCond351) CFA_SP SP+0
        CFI (cfiCond351) CFA_XSP16 add(XSP16, 92)
        CFI Block cfiPicker352 Using cfiCommon1
        CFI (cfiPicker352) NoFunction
        CFI (cfiPicker352) Picker
        LCALL   ?Subroutine58 & 0xFFFF
??CrossCallReturnLabel_92:
        MOV     ?V0 + 6,#0x0
        MOV     R0,#?V0 + 4
        RET
        CFI EndBlock cfiCond349
        CFI EndBlock cfiCond350
        CFI EndBlock cfiCond351
        CFI EndBlock cfiPicker352

        RSEG BANKED_CODE:CODE:NOROOT(0)
?Subroutine58:
        CFI Block cfiCond353 Using cfiCommon0
        CFI NoFunction
        CFI Conditional ??CrossCallReturnLabel_91
        CFI R6 load(1, XDATA, add(CFA_XSP16, literal(-24)))
        CFI VB load(1, XDATA, add(CFA_XSP16, literal(-23)))
        CFI V0 load(1, XDATA, add(CFA_XSP16, literal(-22)))
        CFI V1 load(1, XDATA, add(CFA_XSP16, literal(-21)))
        CFI V2 load(1, XDATA, add(CFA_XSP16, literal(-20)))
        CFI V3 load(1, XDATA, add(CFA_XSP16, literal(-19)))
        CFI V4 load(1, XDATA, add(CFA_XSP16, literal(-18)))
        CFI V5 load(1, XDATA, add(CFA_XSP16, literal(-17)))
        CFI V6 load(1, XDATA, add(CFA_XSP16, literal(-16)))
        CFI V7 load(1, XDATA, add(CFA_XSP16, literal(-15)))
        CFI V8 load(1, XDATA, add(CFA_XSP16, literal(-14)))
        CFI V9 load(1, XDATA, add(CFA_XSP16, literal(-13)))
        CFI V10 load(1, XDATA, add(CFA_XSP16, literal(-12)))
        CFI V11 load(1, XDATA, add(CFA_XSP16, literal(-11)))
        CFI V12 load(1, XDATA, add(CFA_XSP16, literal(-10)))
        CFI V13 load(1, XDATA, add(CFA_XSP16, literal(-9)))
        CFI V14 load(1, XDATA, add(CFA_XSP16, literal(-8)))
        CFI V15 load(1, XDATA, add(CFA_XSP16, literal(-7)))
        CFI R7 load(1, XDATA, add(CFA_XSP16, literal(-6)))
        CFI ?RET_LOW load(1, XDATA, add(CFA_XSP16, literal(-5)))
        CFI ?RET_HIGH load(1, XDATA, add(CFA_XSP16, literal(-4)))
        CFI ?BRET_EXT load(1, XDATA, add(CFA_XSP16, literal(-3)))
        CFI DPL0 load(1, XDATA, add(CFA_XSP16, literal(-2)))
        CFI DPH0 load(1, XDATA, add(CFA_XSP16, literal(-1)))
        CFI CFA_SP SP+0
        CFI CFA_XSP16 add(XSP16, 92)
        CFI Block cfiCond354 Using cfiCommon0
        CFI (cfiCond354) NoFunction
        CFI (cfiCond354) Conditional ??CrossCallReturnLabel_92, ??CrossCallReturnLabel_30
        CFI (cfiCond354) R6 load(1, XDATA, add(CFA_XSP16, literal(-24)))
        CFI (cfiCond354) VB load(1, XDATA, add(CFA_XSP16, literal(-23)))
        CFI (cfiCond354) V0 load(1, XDATA, add(CFA_XSP16, literal(-22)))
        CFI (cfiCond354) V1 load(1, XDATA, add(CFA_XSP16, literal(-21)))
        CFI (cfiCond354) V2 load(1, XDATA, add(CFA_XSP16, literal(-20)))
        CFI (cfiCond354) V3 load(1, XDATA, add(CFA_XSP16, literal(-19)))
        CFI (cfiCond354) V4 load(1, XDATA, add(CFA_XSP16, literal(-18)))
        CFI (cfiCond354) V5 load(1, XDATA, add(CFA_XSP16, literal(-17)))
        CFI (cfiCond354) V6 load(1, XDATA, add(CFA_XSP16, literal(-16)))
        CFI (cfiCond354) V7 load(1, XDATA, add(CFA_XSP16, literal(-15)))
        CFI (cfiCond354) V8 load(1, XDATA, add(CFA_XSP16, literal(-14)))
        CFI (cfiCond354) V9 load(1, XDATA, add(CFA_XSP16, literal(-13)))
        CFI (cfiCond354) V10 load(1, XDATA, add(CFA_XSP16, literal(-12)))
        CFI (cfiCond354) V11 load(1, XDATA, add(CFA_XSP16, literal(-11)))
        CFI (cfiCond354) V12 load(1, XDATA, add(CFA_XSP16, literal(-10)))
        CFI (cfiCond354) V13 load(1, XDATA, add(CFA_XSP16, literal(-9)))
        CFI (cfiCond354) V14 load(1, XDATA, add(CFA_XSP16, literal(-8)))
        CFI (cfiCond354) V15 load(1, XDATA, add(CFA_XSP16, literal(-7)))
        CFI (cfiCond354) R7 load(1, XDATA, add(CFA_XSP16, literal(-6)))
        CFI (cfiCond354) ?RET_LOW load(1, XDATA, add(CFA_XSP16, literal(-5)))
        CFI (cfiCond354) ?RET_HIGH load(1, XDATA, add(CFA_XSP16, literal(-4)))
        CFI (cfiCond354) ?BRET_EXT load(1, XDATA, add(CFA_XSP16, literal(-3)))
        CFI (cfiCond354) DPL0 load(1, XDATA, add(CFA_XSP16, literal(-2)))
        CFI (cfiCond354) DPH0 load(1, XDATA, add(CFA_XSP16, literal(-1)))
        CFI (cfiCond354) CFA_SP SP+0
        CFI (cfiCond354) CFA_XSP16 add(XSP16, 92)
        CFI Block cfiCond355 Using cfiCommon0
        CFI (cfiCond355) NoFunction
        CFI (cfiCond355) Conditional ??CrossCallReturnLabel_92, ??CrossCallReturnLabel_31
        CFI (cfiCond355) R6 load(1, XDATA, add(CFA_XSP16, literal(-24)))
        CFI (cfiCond355) VB load(1, XDATA, add(CFA_XSP16, literal(-23)))
        CFI (cfiCond355) V0 load(1, XDATA, add(CFA_XSP16, literal(-22)))
        CFI (cfiCond355) V1 load(1, XDATA, add(CFA_XSP16, literal(-21)))
        CFI (cfiCond355) V2 load(1, XDATA, add(CFA_XSP16, literal(-20)))
        CFI (cfiCond355) V3 load(1, XDATA, add(CFA_XSP16, literal(-19)))
        CFI (cfiCond355) V4 load(1, XDATA, add(CFA_XSP16, literal(-18)))
        CFI (cfiCond355) V5 load(1, XDATA, add(CFA_XSP16, literal(-17)))
        CFI (cfiCond355) V6 load(1, XDATA, add(CFA_XSP16, literal(-16)))
        CFI (cfiCond355) V7 load(1, XDATA, add(CFA_XSP16, literal(-15)))
        CFI (cfiCond355) V8 load(1, XDATA, add(CFA_XSP16, literal(-14)))
        CFI (cfiCond355) V9 load(1, XDATA, add(CFA_XSP16, literal(-13)))
        CFI (cfiCond355) V10 load(1, XDATA, add(CFA_XSP16, literal(-12)))
        CFI (cfiCond355) V11 load(1, XDATA, add(CFA_XSP16, literal(-11)))
        CFI (cfiCond355) V12 load(1, XDATA, add(CFA_XSP16, literal(-10)))
        CFI (cfiCond355) V13 load(1, XDATA, add(CFA_XSP16, literal(-9)))
        CFI (cfiCond355) V14 load(1, XDATA, add(CFA_XSP16, literal(-8)))
        CFI (cfiCond355) V15 load(1, XDATA, add(CFA_XSP16, literal(-7)))
        CFI (cfiCond355) R7 load(1, XDATA, add(CFA_XSP16, literal(-6)))
        CFI (cfiCond355) ?RET_LOW load(1, XDATA, add(CFA_XSP16, literal(-5)))
        CFI (cfiCond355) ?RET_HIGH load(1, XDATA, add(CFA_XSP16, literal(-4)))
        CFI (cfiCond355) ?BRET_EXT load(1, XDATA, add(CFA_XSP16, literal(-3)))
        CFI (cfiCond355) DPL0 load(1, XDATA, add(CFA_XSP16, literal(-2)))
        CFI (cfiCond355) DPH0 load(1, XDATA, add(CFA_XSP16, literal(-1)))
        CFI (cfiCond355) CFA_SP SP+0
        CFI (cfiCond355) CFA_XSP16 add(XSP16, 92)
        CFI Block cfiCond356 Using cfiCommon0
        CFI (cfiCond356) NoFunction
        CFI (cfiCond356) Conditional ??CrossCallReturnLabel_92, ??CrossCallReturnLabel_32
        CFI (cfiCond356) R6 load(1, XDATA, add(CFA_XSP16, literal(-24)))
        CFI (cfiCond356) VB load(1, XDATA, add(CFA_XSP16, literal(-23)))
        CFI (cfiCond356) V0 load(1, XDATA, add(CFA_XSP16, literal(-22)))
        CFI (cfiCond356) V1 load(1, XDATA, add(CFA_XSP16, literal(-21)))
        CFI (cfiCond356) V2 load(1, XDATA, add(CFA_XSP16, literal(-20)))
        CFI (cfiCond356) V3 load(1, XDATA, add(CFA_XSP16, literal(-19)))
        CFI (cfiCond356) V4 load(1, XDATA, add(CFA_XSP16, literal(-18)))
        CFI (cfiCond356) V5 load(1, XDATA, add(CFA_XSP16, literal(-17)))
        CFI (cfiCond356) V6 load(1, XDATA, add(CFA_XSP16, literal(-16)))
        CFI (cfiCond356) V7 load(1, XDATA, add(CFA_XSP16, literal(-15)))
        CFI (cfiCond356) V8 load(1, XDATA, add(CFA_XSP16, literal(-14)))
        CFI (cfiCond356) V9 load(1, XDATA, add(CFA_XSP16, literal(-13)))
        CFI (cfiCond356) V10 load(1, XDATA, add(CFA_XSP16, literal(-12)))
        CFI (cfiCond356) V11 load(1, XDATA, add(CFA_XSP16, literal(-11)))
        CFI (cfiCond356) V12 load(1, XDATA, add(CFA_XSP16, literal(-10)))
        CFI (cfiCond356) V13 load(1, XDATA, add(CFA_XSP16, literal(-9)))
        CFI (cfiCond356) V14 load(1, XDATA, add(CFA_XSP16, literal(-8)))
        CFI (cfiCond356) V15 load(1, XDATA, add(CFA_XSP16, literal(-7)))
        CFI (cfiCond356) R7 load(1, XDATA, add(CFA_XSP16, literal(-6)))
        CFI (cfiCond356) ?RET_LOW load(1, XDATA, add(CFA_XSP16, literal(-5)))
        CFI (cfiCond356) ?RET_HIGH load(1, XDATA, add(CFA_XSP16, literal(-4)))
        CFI (cfiCond356) ?BRET_EXT load(1, XDATA, add(CFA_XSP16, literal(-3)))
        CFI (cfiCond356) DPL0 load(1, XDATA, add(CFA_XSP16, literal(-2)))
        CFI (cfiCond356) DPH0 load(1, XDATA, add(CFA_XSP16, literal(-1)))
        CFI (cfiCond356) CFA_SP SP+0
        CFI (cfiCond356) CFA_XSP16 add(XSP16, 92)
        CFI Block cfiPicker357 Using cfiCommon1
        CFI (cfiPicker357) NoFunction
        CFI (cfiPicker357) Picker
        MOVX    A,@DPTR
        ADD     A,#0x1
        MOV     ?V0 + 4,A
        INC     DPTR
        MOVX    A,@DPTR
        ADDC    A,#0x0
        MOV     ?V0 + 5,A
        RET
        CFI EndBlock cfiCond353
        CFI EndBlock cfiCond354
        CFI EndBlock cfiCond355
        CFI EndBlock cfiCond356
        CFI EndBlock cfiPicker357

        RSEG BANKED_CODE:CODE:NOROOT(0)
?Subroutine13:
        CFI Block cfiCond358 Using cfiCommon0
        CFI NoFunction
        CFI Conditional ??CrossCallReturnLabel_11
        CFI R6 load(1, XDATA, add(CFA_XSP16, literal(-24)))
        CFI VB load(1, XDATA, add(CFA_XSP16, literal(-23)))
        CFI V0 load(1, XDATA, add(CFA_XSP16, literal(-22)))
        CFI V1 load(1, XDATA, add(CFA_XSP16, literal(-21)))
        CFI V2 load(1, XDATA, add(CFA_XSP16, literal(-20)))
        CFI V3 load(1, XDATA, add(CFA_XSP16, literal(-19)))
        CFI V4 load(1, XDATA, add(CFA_XSP16, literal(-18)))
        CFI V5 load(1, XDATA, add(CFA_XSP16, literal(-17)))
        CFI V6 load(1, XDATA, add(CFA_XSP16, literal(-16)))
        CFI V7 load(1, XDATA, add(CFA_XSP16, literal(-15)))
        CFI V8 load(1, XDATA, add(CFA_XSP16, literal(-14)))
        CFI V9 load(1, XDATA, add(CFA_XSP16, literal(-13)))
        CFI V10 load(1, XDATA, add(CFA_XSP16, literal(-12)))
        CFI V11 load(1, XDATA, add(CFA_XSP16, literal(-11)))
        CFI V12 load(1, XDATA, add(CFA_XSP16, literal(-10)))
        CFI V13 load(1, XDATA, add(CFA_XSP16, literal(-9)))
        CFI V14 load(1, XDATA, add(CFA_XSP16, literal(-8)))
        CFI V15 load(1, XDATA, add(CFA_XSP16, literal(-7)))
        CFI R7 load(1, XDATA, add(CFA_XSP16, literal(-6)))
        CFI ?RET_LOW load(1, XDATA, add(CFA_XSP16, literal(-5)))
        CFI ?RET_HIGH load(1, XDATA, add(CFA_XSP16, literal(-4)))
        CFI ?BRET_EXT load(1, XDATA, add(CFA_XSP16, literal(-3)))
        CFI DPL0 load(1, XDATA, add(CFA_XSP16, literal(-2)))
        CFI DPH0 load(1, XDATA, add(CFA_XSP16, literal(-1)))
        CFI CFA_SP SP+0
        CFI CFA_XSP16 add(XSP16, 92)
        CFI Block cfiCond359 Using cfiCommon0
        CFI (cfiCond359) NoFunction
        CFI (cfiCond359) Conditional ??CrossCallReturnLabel_10
        CFI (cfiCond359) R6 load(1, XDATA, add(CFA_XSP16, literal(-24)))
        CFI (cfiCond359) VB load(1, XDATA, add(CFA_XSP16, literal(-23)))
        CFI (cfiCond359) V0 load(1, XDATA, add(CFA_XSP16, literal(-22)))
        CFI (cfiCond359) V1 load(1, XDATA, add(CFA_XSP16, literal(-21)))
        CFI (cfiCond359) V2 load(1, XDATA, add(CFA_XSP16, literal(-20)))
        CFI (cfiCond359) V3 load(1, XDATA, add(CFA_XSP16, literal(-19)))
        CFI (cfiCond359) V4 load(1, XDATA, add(CFA_XSP16, literal(-18)))
        CFI (cfiCond359) V5 load(1, XDATA, add(CFA_XSP16, literal(-17)))
        CFI (cfiCond359) V6 load(1, XDATA, add(CFA_XSP16, literal(-16)))
        CFI (cfiCond359) V7 load(1, XDATA, add(CFA_XSP16, literal(-15)))
        CFI (cfiCond359) V8 load(1, XDATA, add(CFA_XSP16, literal(-14)))
        CFI (cfiCond359) V9 load(1, XDATA, add(CFA_XSP16, literal(-13)))
        CFI (cfiCond359) V10 load(1, XDATA, add(CFA_XSP16, literal(-12)))
        CFI (cfiCond359) V11 load(1, XDATA, add(CFA_XSP16, literal(-11)))
        CFI (cfiCond359) V12 load(1, XDATA, add(CFA_XSP16, literal(-10)))
        CFI (cfiCond359) V13 load(1, XDATA, add(CFA_XSP16, literal(-9)))
        CFI (cfiCond359) V14 load(1, XDATA, add(CFA_XSP16, literal(-8)))
        CFI (cfiCond359) V15 load(1, XDATA, add(CFA_XSP16, literal(-7)))
        CFI (cfiCond359) R7 load(1, XDATA, add(CFA_XSP16, literal(-6)))
        CFI (cfiCond359) ?RET_LOW load(1, XDATA, add(CFA_XSP16, literal(-5)))
        CFI (cfiCond359) ?RET_HIGH load(1, XDATA, add(CFA_XSP16, literal(-4)))
        CFI (cfiCond359) ?BRET_EXT load(1, XDATA, add(CFA_XSP16, literal(-3)))
        CFI (cfiCond359) DPL0 load(1, XDATA, add(CFA_XSP16, literal(-2)))
        CFI (cfiCond359) DPH0 load(1, XDATA, add(CFA_XSP16, literal(-1)))
        CFI (cfiCond359) CFA_SP SP+0
        CFI (cfiCond359) CFA_XSP16 add(XSP16, 92)
        CFI Block cfiPicker360 Using cfiCommon1
        CFI (cfiPicker360) NoFunction
        CFI (cfiPicker360) Picker
        LCALL   ??Subroutine74_0 & 0xFFFF
??CrossCallReturnLabel_193:
        MOV     A,R6
        ADD     A,#0x1
        INC     R6
        MOV     A,R7
        ADDC    A,#0x0
        MOV     R7,A
        RET
        CFI EndBlock cfiCond358
        CFI EndBlock cfiCond359
        CFI EndBlock cfiPicker360

        RSEG BANKED_CODE:CODE:NOROOT(0)
?Subroutine60:
        CFI Block cfiCond361 Using cfiCommon0
        CFI NoFunction
        CFI Conditional ??CrossCallReturnLabel_195
        CFI R6 load(1, XDATA, add(CFA_XSP16, literal(-24)))
        CFI VB load(1, XDATA, add(CFA_XSP16, literal(-23)))
        CFI V0 load(1, XDATA, add(CFA_XSP16, literal(-22)))
        CFI V1 load(1, XDATA, add(CFA_XSP16, literal(-21)))
        CFI V2 load(1, XDATA, add(CFA_XSP16, literal(-20)))
        CFI V3 load(1, XDATA, add(CFA_XSP16, literal(-19)))
        CFI V4 load(1, XDATA, add(CFA_XSP16, literal(-18)))
        CFI V5 load(1, XDATA, add(CFA_XSP16, literal(-17)))
        CFI V6 load(1, XDATA, add(CFA_XSP16, literal(-16)))
        CFI V7 load(1, XDATA, add(CFA_XSP16, literal(-15)))
        CFI V8 load(1, XDATA, add(CFA_XSP16, literal(-14)))
        CFI V9 load(1, XDATA, add(CFA_XSP16, literal(-13)))
        CFI V10 load(1, XDATA, add(CFA_XSP16, literal(-12)))
        CFI V11 load(1, XDATA, add(CFA_XSP16, literal(-11)))
        CFI V12 load(1, XDATA, add(CFA_XSP16, literal(-10)))
        CFI V13 load(1, XDATA, add(CFA_XSP16, literal(-9)))
        CFI V14 load(1, XDATA, add(CFA_XSP16, literal(-8)))
        CFI V15 load(1, XDATA, add(CFA_XSP16, literal(-7)))
        CFI R7 load(1, XDATA, add(CFA_XSP16, literal(-6)))
        CFI ?RET_LOW load(1, XDATA, add(CFA_XSP16, literal(-5)))
        CFI ?RET_HIGH load(1, XDATA, add(CFA_XSP16, literal(-4)))
        CFI ?BRET_EXT load(1, XDATA, add(CFA_XSP16, literal(-3)))
        CFI DPL0 load(1, XDATA, add(CFA_XSP16, literal(-2)))
        CFI DPH0 load(1, XDATA, add(CFA_XSP16, literal(-1)))
        CFI CFA_SP SP+0
        CFI CFA_XSP16 add(XSP16, 28)
        CFI Block cfiCond362 Using cfiCommon0
        CFI (cfiCond362) NoFunction
        CFI (cfiCond362) Conditional ??CrossCallReturnLabel_196
        CFI (cfiCond362) R6 load(1, XDATA, add(CFA_XSP16, literal(-24)))
        CFI (cfiCond362) VB load(1, XDATA, add(CFA_XSP16, literal(-23)))
        CFI (cfiCond362) V0 load(1, XDATA, add(CFA_XSP16, literal(-22)))
        CFI (cfiCond362) V1 load(1, XDATA, add(CFA_XSP16, literal(-21)))
        CFI (cfiCond362) V2 load(1, XDATA, add(CFA_XSP16, literal(-20)))
        CFI (cfiCond362) V3 load(1, XDATA, add(CFA_XSP16, literal(-19)))
        CFI (cfiCond362) V4 load(1, XDATA, add(CFA_XSP16, literal(-18)))
        CFI (cfiCond362) V5 load(1, XDATA, add(CFA_XSP16, literal(-17)))
        CFI (cfiCond362) V6 load(1, XDATA, add(CFA_XSP16, literal(-16)))
        CFI (cfiCond362) V7 load(1, XDATA, add(CFA_XSP16, literal(-15)))
        CFI (cfiCond362) V8 load(1, XDATA, add(CFA_XSP16, literal(-14)))
        CFI (cfiCond362) V9 load(1, XDATA, add(CFA_XSP16, literal(-13)))
        CFI (cfiCond362) V10 load(1, XDATA, add(CFA_XSP16, literal(-12)))
        CFI (cfiCond362) V11 load(1, XDATA, add(CFA_XSP16, literal(-11)))
        CFI (cfiCond362) V12 load(1, XDATA, add(CFA_XSP16, literal(-10)))
        CFI (cfiCond362) V13 load(1, XDATA, add(CFA_XSP16, literal(-9)))
        CFI (cfiCond362) V14 load(1, XDATA, add(CFA_XSP16, literal(-8)))
        CFI (cfiCond362) V15 load(1, XDATA, add(CFA_XSP16, literal(-7)))
        CFI (cfiCond362) R7 load(1, XDATA, add(CFA_XSP16, literal(-6)))
        CFI (cfiCond362) ?RET_LOW load(1, XDATA, add(CFA_XSP16, literal(-5)))
        CFI (cfiCond362) ?RET_HIGH load(1, XDATA, add(CFA_XSP16, literal(-4)))
        CFI (cfiCond362) ?BRET_EXT load(1, XDATA, add(CFA_XSP16, literal(-3)))
        CFI (cfiCond362) DPL0 load(1, XDATA, add(CFA_XSP16, literal(-2)))
        CFI (cfiCond362) DPH0 load(1, XDATA, add(CFA_XSP16, literal(-1)))
        CFI (cfiCond362) CFA_SP SP+0
        CFI (cfiCond362) CFA_XSP16 add(XSP16, 28)
        CFI Block cfiPicker363 Using cfiCommon1
        CFI (cfiPicker363) NoFunction
        CFI (cfiPicker363) Picker
        MOV     DPL,?V0 + 2
        MOV     DPH,?V0 + 3
        CFI EndBlock cfiCond361
        CFI EndBlock cfiCond362
        CFI EndBlock cfiPicker363
        REQUIRE ??Subroutine74_0
        ; // Fall through to label ??Subroutine74_0

        RSEG BANKED_CODE:CODE:NOROOT(0)
??Subroutine74_0:
        CFI Block cfiCond364 Using cfiCommon0
        CFI NoFunction
        CFI Conditional ??CrossCallReturnLabel_194, ??CrossCallReturnLabel_83, ??CrossCallReturnLabel_12
        CFI R6 load(1, XDATA, add(CFA_XSP16, literal(-12)))
        CFI VB load(1, XDATA, add(CFA_XSP16, literal(-11)))
        CFI V0 load(1, XDATA, add(CFA_XSP16, literal(-10)))
        CFI V1 load(1, XDATA, add(CFA_XSP16, literal(-9)))
        CFI V2 load(1, XDATA, add(CFA_XSP16, literal(-8)))
        CFI V3 load(1, XDATA, add(CFA_XSP16, literal(-7)))
        CFI R7 load(1, XDATA, add(CFA_XSP16, literal(-6)))
        CFI ?RET_LOW load(1, XDATA, add(CFA_XSP16, literal(-5)))
        CFI ?RET_HIGH load(1, XDATA, add(CFA_XSP16, literal(-4)))
        CFI ?BRET_EXT load(1, XDATA, add(CFA_XSP16, literal(-3)))
        CFI DPL0 load(1, XDATA, add(CFA_XSP16, literal(-2)))
        CFI DPH0 load(1, XDATA, add(CFA_XSP16, literal(-1)))
        CFI CFA_SP SP+0
        CFI CFA_XSP16 add(XSP16, 12)
        CFI Block cfiCond365 Using cfiCommon0
        CFI (cfiCond365) NoFunction
        CFI (cfiCond365) Conditional ??CrossCallReturnLabel_194, ??CrossCallReturnLabel_83, ??CrossCallReturnLabel_13
        CFI (cfiCond365) R6 load(1, XDATA, add(CFA_XSP16, literal(-12)))
        CFI (cfiCond365) VB load(1, XDATA, add(CFA_XSP16, literal(-11)))
        CFI (cfiCond365) V0 load(1, XDATA, add(CFA_XSP16, literal(-10)))
        CFI (cfiCond365) V1 load(1, XDATA, add(CFA_XSP16, literal(-9)))
        CFI (cfiCond365) V2 load(1, XDATA, add(CFA_XSP16, literal(-8)))
        CFI (cfiCond365) V3 load(1, XDATA, add(CFA_XSP16, literal(-7)))
        CFI (cfiCond365) R7 load(1, XDATA, add(CFA_XSP16, literal(-6)))
        CFI (cfiCond365) ?RET_LOW load(1, XDATA, add(CFA_XSP16, literal(-5)))
        CFI (cfiCond365) ?RET_HIGH load(1, XDATA, add(CFA_XSP16, literal(-4)))
        CFI (cfiCond365) ?BRET_EXT load(1, XDATA, add(CFA_XSP16, literal(-3)))
        CFI (cfiCond365) DPL0 load(1, XDATA, add(CFA_XSP16, literal(-2)))
        CFI (cfiCond365) DPH0 load(1, XDATA, add(CFA_XSP16, literal(-1)))
        CFI (cfiCond365) CFA_SP SP+0
        CFI (cfiCond365) CFA_XSP16 add(XSP16, 12)
        CFI Block cfiCond366 Using cfiCommon0
        CFI (cfiCond366) NoFunction
        CFI (cfiCond366) Conditional ??CrossCallReturnLabel_194, ??CrossCallReturnLabel_84, ??CrossCallReturnLabel_0
        CFI (cfiCond366) R6 load(1, XDATA, add(CFA_XSP16, literal(-12)))
        CFI (cfiCond366) VB load(1, XDATA, add(CFA_XSP16, literal(-11)))
        CFI (cfiCond366) V0 load(1, XDATA, add(CFA_XSP16, literal(-10)))
        CFI (cfiCond366) V1 load(1, XDATA, add(CFA_XSP16, literal(-9)))
        CFI (cfiCond366) V2 load(1, XDATA, add(CFA_XSP16, literal(-8)))
        CFI (cfiCond366) V3 load(1, XDATA, add(CFA_XSP16, literal(-7)))
        CFI (cfiCond366) R7 load(1, XDATA, add(CFA_XSP16, literal(-6)))
        CFI (cfiCond366) ?RET_LOW load(1, XDATA, add(CFA_XSP16, literal(-5)))
        CFI (cfiCond366) ?RET_HIGH load(1, XDATA, add(CFA_XSP16, literal(-4)))
        CFI (cfiCond366) ?BRET_EXT load(1, XDATA, add(CFA_XSP16, literal(-3)))
        CFI (cfiCond366) DPL0 load(1, XDATA, add(CFA_XSP16, literal(-2)))
        CFI (cfiCond366) DPH0 load(1, XDATA, add(CFA_XSP16, literal(-1)))
        CFI (cfiCond366) CFA_SP SP+0
        CFI (cfiCond366) CFA_XSP16 add(XSP16, 12)
        CFI Block cfiCond367 Using cfiCommon0
        CFI (cfiCond367) NoFunction
        CFI (cfiCond367) Conditional ??CrossCallReturnLabel_194, ??CrossCallReturnLabel_84, ??CrossCallReturnLabel_1
        CFI (cfiCond367) R6 load(1, XDATA, add(CFA_XSP16, literal(-12)))
        CFI (cfiCond367) VB load(1, XDATA, add(CFA_XSP16, literal(-11)))
        CFI (cfiCond367) V0 load(1, XDATA, add(CFA_XSP16, literal(-10)))
        CFI (cfiCond367) V1 load(1, XDATA, add(CFA_XSP16, literal(-9)))
        CFI (cfiCond367) V2 load(1, XDATA, add(CFA_XSP16, literal(-8)))
        CFI (cfiCond367) V3 load(1, XDATA, add(CFA_XSP16, literal(-7)))
        CFI (cfiCond367) R7 load(1, XDATA, add(CFA_XSP16, literal(-6)))
        CFI (cfiCond367) ?RET_LOW load(1, XDATA, add(CFA_XSP16, literal(-5)))
        CFI (cfiCond367) ?RET_HIGH load(1, XDATA, add(CFA_XSP16, literal(-4)))
        CFI (cfiCond367) ?BRET_EXT load(1, XDATA, add(CFA_XSP16, literal(-3)))
        CFI (cfiCond367) DPL0 load(1, XDATA, add(CFA_XSP16, literal(-2)))
        CFI (cfiCond367) DPH0 load(1, XDATA, add(CFA_XSP16, literal(-1)))
        CFI (cfiCond367) CFA_SP SP+0
        CFI (cfiCond367) CFA_XSP16 add(XSP16, 12)
        CFI Block cfiCond368 Using cfiCommon0
        CFI (cfiCond368) NoFunction
        CFI (cfiCond368) Conditional ??CrossCallReturnLabel_194, ??CrossCallReturnLabel_84, ??CrossCallReturnLabel_2
        CFI (cfiCond368) R6 load(1, XDATA, add(CFA_XSP16, literal(-12)))
        CFI (cfiCond368) VB load(1, XDATA, add(CFA_XSP16, literal(-11)))
        CFI (cfiCond368) V0 load(1, XDATA, add(CFA_XSP16, literal(-10)))
        CFI (cfiCond368) V1 load(1, XDATA, add(CFA_XSP16, literal(-9)))
        CFI (cfiCond368) V2 load(1, XDATA, add(CFA_XSP16, literal(-8)))
        CFI (cfiCond368) V3 load(1, XDATA, add(CFA_XSP16, literal(-7)))
        CFI (cfiCond368) R7 load(1, XDATA, add(CFA_XSP16, literal(-6)))
        CFI (cfiCond368) ?RET_LOW load(1, XDATA, add(CFA_XSP16, literal(-5)))
        CFI (cfiCond368) ?RET_HIGH load(1, XDATA, add(CFA_XSP16, literal(-4)))
        CFI (cfiCond368) ?BRET_EXT load(1, XDATA, add(CFA_XSP16, literal(-3)))
        CFI (cfiCond368) DPL0 load(1, XDATA, add(CFA_XSP16, literal(-2)))
        CFI (cfiCond368) DPH0 load(1, XDATA, add(CFA_XSP16, literal(-1)))
        CFI (cfiCond368) CFA_SP SP+0
        CFI (cfiCond368) CFA_XSP16 add(XSP16, 12)
        CFI Block cfiCond369 Using cfiCommon0
        CFI (cfiCond369) NoFunction
        CFI (cfiCond369) Conditional ??CrossCallReturnLabel_191
        CFI (cfiCond369) R6 load(1, XDATA, add(CFA_XSP16, literal(-24)))
        CFI (cfiCond369) VB load(1, XDATA, add(CFA_XSP16, literal(-23)))
        CFI (cfiCond369) V0 load(1, XDATA, add(CFA_XSP16, literal(-22)))
        CFI (cfiCond369) V1 load(1, XDATA, add(CFA_XSP16, literal(-21)))
        CFI (cfiCond369) V2 load(1, XDATA, add(CFA_XSP16, literal(-20)))
        CFI (cfiCond369) V3 load(1, XDATA, add(CFA_XSP16, literal(-19)))
        CFI (cfiCond369) V4 load(1, XDATA, add(CFA_XSP16, literal(-18)))
        CFI (cfiCond369) V5 load(1, XDATA, add(CFA_XSP16, literal(-17)))
        CFI (cfiCond369) V6 load(1, XDATA, add(CFA_XSP16, literal(-16)))
        CFI (cfiCond369) V7 load(1, XDATA, add(CFA_XSP16, literal(-15)))
        CFI (cfiCond369) V8 load(1, XDATA, add(CFA_XSP16, literal(-14)))
        CFI (cfiCond369) V9 load(1, XDATA, add(CFA_XSP16, literal(-13)))
        CFI (cfiCond369) V10 load(1, XDATA, add(CFA_XSP16, literal(-12)))
        CFI (cfiCond369) V11 load(1, XDATA, add(CFA_XSP16, literal(-11)))
        CFI (cfiCond369) V12 load(1, XDATA, add(CFA_XSP16, literal(-10)))
        CFI (cfiCond369) V13 load(1, XDATA, add(CFA_XSP16, literal(-9)))
        CFI (cfiCond369) V14 load(1, XDATA, add(CFA_XSP16, literal(-8)))
        CFI (cfiCond369) V15 load(1, XDATA, add(CFA_XSP16, literal(-7)))
        CFI (cfiCond369) R7 load(1, XDATA, add(CFA_XSP16, literal(-6)))
        CFI (cfiCond369) ?RET_LOW load(1, XDATA, add(CFA_XSP16, literal(-5)))
        CFI (cfiCond369) ?RET_HIGH load(1, XDATA, add(CFA_XSP16, literal(-4)))
        CFI (cfiCond369) ?BRET_EXT load(1, XDATA, add(CFA_XSP16, literal(-3)))
        CFI (cfiCond369) DPL0 load(1, XDATA, add(CFA_XSP16, literal(-2)))
        CFI (cfiCond369) DPH0 load(1, XDATA, add(CFA_XSP16, literal(-1)))
        CFI (cfiCond369) CFA_SP SP+0
        CFI (cfiCond369) CFA_XSP16 add(XSP16, 92)
        CFI Block cfiCond370 Using cfiCommon0
        CFI (cfiCond370) NoFunction
        CFI (cfiCond370) Conditional ??CrossCallReturnLabel_192
        CFI (cfiCond370) R6 load(1, XDATA, add(CFA_XSP16, literal(-24)))
        CFI (cfiCond370) VB load(1, XDATA, add(CFA_XSP16, literal(-23)))
        CFI (cfiCond370) V0 load(1, XDATA, add(CFA_XSP16, literal(-22)))
        CFI (cfiCond370) V1 load(1, XDATA, add(CFA_XSP16, literal(-21)))
        CFI (cfiCond370) V2 load(1, XDATA, add(CFA_XSP16, literal(-20)))
        CFI (cfiCond370) V3 load(1, XDATA, add(CFA_XSP16, literal(-19)))
        CFI (cfiCond370) V4 load(1, XDATA, add(CFA_XSP16, literal(-18)))
        CFI (cfiCond370) V5 load(1, XDATA, add(CFA_XSP16, literal(-17)))
        CFI (cfiCond370) V6 load(1, XDATA, add(CFA_XSP16, literal(-16)))
        CFI (cfiCond370) V7 load(1, XDATA, add(CFA_XSP16, literal(-15)))
        CFI (cfiCond370) V8 load(1, XDATA, add(CFA_XSP16, literal(-14)))
        CFI (cfiCond370) V9 load(1, XDATA, add(CFA_XSP16, literal(-13)))
        CFI (cfiCond370) V10 load(1, XDATA, add(CFA_XSP16, literal(-12)))
        CFI (cfiCond370) V11 load(1, XDATA, add(CFA_XSP16, literal(-11)))
        CFI (cfiCond370) V12 load(1, XDATA, add(CFA_XSP16, literal(-10)))
        CFI (cfiCond370) V13 load(1, XDATA, add(CFA_XSP16, literal(-9)))
        CFI (cfiCond370) V14 load(1, XDATA, add(CFA_XSP16, literal(-8)))
        CFI (cfiCond370) V15 load(1, XDATA, add(CFA_XSP16, literal(-7)))
        CFI (cfiCond370) R7 load(1, XDATA, add(CFA_XSP16, literal(-6)))
        CFI (cfiCond370) ?RET_LOW load(1, XDATA, add(CFA_XSP16, literal(-5)))
        CFI (cfiCond370) ?RET_HIGH load(1, XDATA, add(CFA_XSP16, literal(-4)))
        CFI (cfiCond370) ?BRET_EXT load(1, XDATA, add(CFA_XSP16, literal(-3)))
        CFI (cfiCond370) DPL0 load(1, XDATA, add(CFA_XSP16, literal(-2)))
        CFI (cfiCond370) DPH0 load(1, XDATA, add(CFA_XSP16, literal(-1)))
        CFI (cfiCond370) CFA_SP SP+0
        CFI (cfiCond370) CFA_XSP16 add(XSP16, 92)
        CFI Block cfiCond371 Using cfiCommon0
        CFI (cfiCond371) NoFunction
        CFI (cfiCond371) Conditional ??CrossCallReturnLabel_193, ??CrossCallReturnLabel_11
        CFI (cfiCond371) R6 load(1, XDATA, add(CFA_XSP16, literal(-24)))
        CFI (cfiCond371) VB load(1, XDATA, add(CFA_XSP16, literal(-23)))
        CFI (cfiCond371) V0 load(1, XDATA, add(CFA_XSP16, literal(-22)))
        CFI (cfiCond371) V1 load(1, XDATA, add(CFA_XSP16, literal(-21)))
        CFI (cfiCond371) V2 load(1, XDATA, add(CFA_XSP16, literal(-20)))
        CFI (cfiCond371) V3 load(1, XDATA, add(CFA_XSP16, literal(-19)))
        CFI (cfiCond371) V4 load(1, XDATA, add(CFA_XSP16, literal(-18)))
        CFI (cfiCond371) V5 load(1, XDATA, add(CFA_XSP16, literal(-17)))
        CFI (cfiCond371) V6 load(1, XDATA, add(CFA_XSP16, literal(-16)))
        CFI (cfiCond371) V7 load(1, XDATA, add(CFA_XSP16, literal(-15)))
        CFI (cfiCond371) V8 load(1, XDATA, add(CFA_XSP16, literal(-14)))
        CFI (cfiCond371) V9 load(1, XDATA, add(CFA_XSP16, literal(-13)))
        CFI (cfiCond371) V10 load(1, XDATA, add(CFA_XSP16, literal(-12)))
        CFI (cfiCond371) V11 load(1, XDATA, add(CFA_XSP16, literal(-11)))
        CFI (cfiCond371) V12 load(1, XDATA, add(CFA_XSP16, literal(-10)))
        CFI (cfiCond371) V13 load(1, XDATA, add(CFA_XSP16, literal(-9)))
        CFI (cfiCond371) V14 load(1, XDATA, add(CFA_XSP16, literal(-8)))
        CFI (cfiCond371) V15 load(1, XDATA, add(CFA_XSP16, literal(-7)))
        CFI (cfiCond371) R7 load(1, XDATA, add(CFA_XSP16, literal(-6)))
        CFI (cfiCond371) ?RET_LOW load(1, XDATA, add(CFA_XSP16, literal(-5)))
        CFI (cfiCond371) ?RET_HIGH load(1, XDATA, add(CFA_XSP16, literal(-4)))
        CFI (cfiCond371) ?BRET_EXT load(1, XDATA, add(CFA_XSP16, literal(-3)))
        CFI (cfiCond371) DPL0 load(1, XDATA, add(CFA_XSP16, literal(-2)))
        CFI (cfiCond371) DPH0 load(1, XDATA, add(CFA_XSP16, literal(-1)))
        CFI (cfiCond371) CFA_SP SP+0
        CFI (cfiCond371) CFA_XSP16 add(XSP16, 92)
        CFI Block cfiCond372 Using cfiCommon0
        CFI (cfiCond372) NoFunction
        CFI (cfiCond372) Conditional ??CrossCallReturnLabel_193, ??CrossCallReturnLabel_10
        CFI (cfiCond372) R6 load(1, XDATA, add(CFA_XSP16, literal(-24)))
        CFI (cfiCond372) VB load(1, XDATA, add(CFA_XSP16, literal(-23)))
        CFI (cfiCond372) V0 load(1, XDATA, add(CFA_XSP16, literal(-22)))
        CFI (cfiCond372) V1 load(1, XDATA, add(CFA_XSP16, literal(-21)))
        CFI (cfiCond372) V2 load(1, XDATA, add(CFA_XSP16, literal(-20)))
        CFI (cfiCond372) V3 load(1, XDATA, add(CFA_XSP16, literal(-19)))
        CFI (cfiCond372) V4 load(1, XDATA, add(CFA_XSP16, literal(-18)))
        CFI (cfiCond372) V5 load(1, XDATA, add(CFA_XSP16, literal(-17)))
        CFI (cfiCond372) V6 load(1, XDATA, add(CFA_XSP16, literal(-16)))
        CFI (cfiCond372) V7 load(1, XDATA, add(CFA_XSP16, literal(-15)))
        CFI (cfiCond372) V8 load(1, XDATA, add(CFA_XSP16, literal(-14)))
        CFI (cfiCond372) V9 load(1, XDATA, add(CFA_XSP16, literal(-13)))
        CFI (cfiCond372) V10 load(1, XDATA, add(CFA_XSP16, literal(-12)))
        CFI (cfiCond372) V11 load(1, XDATA, add(CFA_XSP16, literal(-11)))
        CFI (cfiCond372) V12 load(1, XDATA, add(CFA_XSP16, literal(-10)))
        CFI (cfiCond372) V13 load(1, XDATA, add(CFA_XSP16, literal(-9)))
        CFI (cfiCond372) V14 load(1, XDATA, add(CFA_XSP16, literal(-8)))
        CFI (cfiCond372) V15 load(1, XDATA, add(CFA_XSP16, literal(-7)))
        CFI (cfiCond372) R7 load(1, XDATA, add(CFA_XSP16, literal(-6)))
        CFI (cfiCond372) ?RET_LOW load(1, XDATA, add(CFA_XSP16, literal(-5)))
        CFI (cfiCond372) ?RET_HIGH load(1, XDATA, add(CFA_XSP16, literal(-4)))
        CFI (cfiCond372) ?BRET_EXT load(1, XDATA, add(CFA_XSP16, literal(-3)))
        CFI (cfiCond372) DPL0 load(1, XDATA, add(CFA_XSP16, literal(-2)))
        CFI (cfiCond372) DPH0 load(1, XDATA, add(CFA_XSP16, literal(-1)))
        CFI (cfiCond372) CFA_SP SP+0
        CFI (cfiCond372) CFA_XSP16 add(XSP16, 92)
        CFI Block cfiCond373 Using cfiCommon0
        CFI (cfiCond373) NoFunction
        CFI (cfiCond373) Conditional ??CrossCallReturnLabel_195
        CFI (cfiCond373) R6 load(1, XDATA, add(CFA_XSP16, literal(-24)))
        CFI (cfiCond373) VB load(1, XDATA, add(CFA_XSP16, literal(-23)))
        CFI (cfiCond373) V0 load(1, XDATA, add(CFA_XSP16, literal(-22)))
        CFI (cfiCond373) V1 load(1, XDATA, add(CFA_XSP16, literal(-21)))
        CFI (cfiCond373) V2 load(1, XDATA, add(CFA_XSP16, literal(-20)))
        CFI (cfiCond373) V3 load(1, XDATA, add(CFA_XSP16, literal(-19)))
        CFI (cfiCond373) V4 load(1, XDATA, add(CFA_XSP16, literal(-18)))
        CFI (cfiCond373) V5 load(1, XDATA, add(CFA_XSP16, literal(-17)))
        CFI (cfiCond373) V6 load(1, XDATA, add(CFA_XSP16, literal(-16)))
        CFI (cfiCond373) V7 load(1, XDATA, add(CFA_XSP16, literal(-15)))
        CFI (cfiCond373) V8 load(1, XDATA, add(CFA_XSP16, literal(-14)))
        CFI (cfiCond373) V9 load(1, XDATA, add(CFA_XSP16, literal(-13)))
        CFI (cfiCond373) V10 load(1, XDATA, add(CFA_XSP16, literal(-12)))
        CFI (cfiCond373) V11 load(1, XDATA, add(CFA_XSP16, literal(-11)))
        CFI (cfiCond373) V12 load(1, XDATA, add(CFA_XSP16, literal(-10)))
        CFI (cfiCond373) V13 load(1, XDATA, add(CFA_XSP16, literal(-9)))
        CFI (cfiCond373) V14 load(1, XDATA, add(CFA_XSP16, literal(-8)))
        CFI (cfiCond373) V15 load(1, XDATA, add(CFA_XSP16, literal(-7)))
        CFI (cfiCond373) R7 load(1, XDATA, add(CFA_XSP16, literal(-6)))
        CFI (cfiCond373) ?RET_LOW load(1, XDATA, add(CFA_XSP16, literal(-5)))
        CFI (cfiCond373) ?RET_HIGH load(1, XDATA, add(CFA_XSP16, literal(-4)))
        CFI (cfiCond373) ?BRET_EXT load(1, XDATA, add(CFA_XSP16, literal(-3)))
        CFI (cfiCond373) DPL0 load(1, XDATA, add(CFA_XSP16, literal(-2)))
        CFI (cfiCond373) DPH0 load(1, XDATA, add(CFA_XSP16, literal(-1)))
        CFI (cfiCond373) CFA_SP SP+0
        CFI (cfiCond373) CFA_XSP16 add(XSP16, 28)
        CFI Block cfiCond374 Using cfiCommon0
        CFI (cfiCond374) NoFunction
        CFI (cfiCond374) Conditional ??CrossCallReturnLabel_196
        CFI (cfiCond374) R6 load(1, XDATA, add(CFA_XSP16, literal(-24)))
        CFI (cfiCond374) VB load(1, XDATA, add(CFA_XSP16, literal(-23)))
        CFI (cfiCond374) V0 load(1, XDATA, add(CFA_XSP16, literal(-22)))
        CFI (cfiCond374) V1 load(1, XDATA, add(CFA_XSP16, literal(-21)))
        CFI (cfiCond374) V2 load(1, XDATA, add(CFA_XSP16, literal(-20)))
        CFI (cfiCond374) V3 load(1, XDATA, add(CFA_XSP16, literal(-19)))
        CFI (cfiCond374) V4 load(1, XDATA, add(CFA_XSP16, literal(-18)))
        CFI (cfiCond374) V5 load(1, XDATA, add(CFA_XSP16, literal(-17)))
        CFI (cfiCond374) V6 load(1, XDATA, add(CFA_XSP16, literal(-16)))
        CFI (cfiCond374) V7 load(1, XDATA, add(CFA_XSP16, literal(-15)))
        CFI (cfiCond374) V8 load(1, XDATA, add(CFA_XSP16, literal(-14)))
        CFI (cfiCond374) V9 load(1, XDATA, add(CFA_XSP16, literal(-13)))
        CFI (cfiCond374) V10 load(1, XDATA, add(CFA_XSP16, literal(-12)))
        CFI (cfiCond374) V11 load(1, XDATA, add(CFA_XSP16, literal(-11)))
        CFI (cfiCond374) V12 load(1, XDATA, add(CFA_XSP16, literal(-10)))
        CFI (cfiCond374) V13 load(1, XDATA, add(CFA_XSP16, literal(-9)))
        CFI (cfiCond374) V14 load(1, XDATA, add(CFA_XSP16, literal(-8)))
        CFI (cfiCond374) V15 load(1, XDATA, add(CFA_XSP16, literal(-7)))
        CFI (cfiCond374) R7 load(1, XDATA, add(CFA_XSP16, literal(-6)))
        CFI (cfiCond374) ?RET_LOW load(1, XDATA, add(CFA_XSP16, literal(-5)))
        CFI (cfiCond374) ?RET_HIGH load(1, XDATA, add(CFA_XSP16, literal(-4)))
        CFI (cfiCond374) ?BRET_EXT load(1, XDATA, add(CFA_XSP16, literal(-3)))
        CFI (cfiCond374) DPL0 load(1, XDATA, add(CFA_XSP16, literal(-2)))
        CFI (cfiCond374) DPH0 load(1, XDATA, add(CFA_XSP16, literal(-1)))
        CFI (cfiCond374) CFA_SP SP+0
        CFI (cfiCond374) CFA_XSP16 add(XSP16, 28)
        CFI Block cfiPicker375 Using cfiCommon1
        CFI (cfiPicker375) NoFunction
        CFI (cfiPicker375) Picker
        MOV     A,R0
        MOVX    @DPTR,A
        INC     DPTR
        MOV     A,R1
        MOVX    @DPTR,A
        RET
        CFI EndBlock cfiCond364
        CFI EndBlock cfiCond365
        CFI EndBlock cfiCond366
        CFI EndBlock cfiCond367
        CFI EndBlock cfiCond368
        CFI EndBlock cfiCond369
        CFI EndBlock cfiCond370
        CFI EndBlock cfiCond371
        CFI EndBlock cfiCond372
        CFI EndBlock cfiCond373
        CFI EndBlock cfiCond374
        CFI EndBlock cfiPicker375

        RSEG BANKED_CODE:CODE:NOROOT(0)
?Subroutine11:
        CFI Block cfiCond376 Using cfiCommon0
        CFI NoFunction
        CFI Conditional ??CrossCallReturnLabel_8
        CFI R6 load(1, XDATA, add(CFA_XSP16, literal(-24)))
        CFI VB load(1, XDATA, add(CFA_XSP16, literal(-23)))
        CFI V0 load(1, XDATA, add(CFA_XSP16, literal(-22)))
        CFI V1 load(1, XDATA, add(CFA_XSP16, literal(-21)))
        CFI V2 load(1, XDATA, add(CFA_XSP16, literal(-20)))
        CFI V3 load(1, XDATA, add(CFA_XSP16, literal(-19)))
        CFI V4 load(1, XDATA, add(CFA_XSP16, literal(-18)))
        CFI V5 load(1, XDATA, add(CFA_XSP16, literal(-17)))
        CFI V6 load(1, XDATA, add(CFA_XSP16, literal(-16)))
        CFI V7 load(1, XDATA, add(CFA_XSP16, literal(-15)))
        CFI V8 load(1, XDATA, add(CFA_XSP16, literal(-14)))
        CFI V9 load(1, XDATA, add(CFA_XSP16, literal(-13)))
        CFI V10 load(1, XDATA, add(CFA_XSP16, literal(-12)))
        CFI V11 load(1, XDATA, add(CFA_XSP16, literal(-11)))
        CFI V12 load(1, XDATA, add(CFA_XSP16, literal(-10)))
        CFI V13 load(1, XDATA, add(CFA_XSP16, literal(-9)))
        CFI V14 load(1, XDATA, add(CFA_XSP16, literal(-8)))
        CFI V15 load(1, XDATA, add(CFA_XSP16, literal(-7)))
        CFI R7 load(1, XDATA, add(CFA_XSP16, literal(-6)))
        CFI ?RET_LOW load(1, XDATA, add(CFA_XSP16, literal(-5)))
        CFI ?RET_HIGH load(1, XDATA, add(CFA_XSP16, literal(-4)))
        CFI ?BRET_EXT load(1, XDATA, add(CFA_XSP16, literal(-3)))
        CFI DPL0 load(1, XDATA, add(CFA_XSP16, literal(-2)))
        CFI DPH0 load(1, XDATA, add(CFA_XSP16, literal(-1)))
        CFI CFA_SP SP+0
        CFI CFA_XSP16 add(XSP16, 92)
        CFI Block cfiCond377 Using cfiCommon0
        CFI (cfiCond377) NoFunction
        CFI (cfiCond377) Conditional ??CrossCallReturnLabel_9
        CFI (cfiCond377) R6 load(1, XDATA, add(CFA_XSP16, literal(-24)))
        CFI (cfiCond377) VB load(1, XDATA, add(CFA_XSP16, literal(-23)))
        CFI (cfiCond377) V0 load(1, XDATA, add(CFA_XSP16, literal(-22)))
        CFI (cfiCond377) V1 load(1, XDATA, add(CFA_XSP16, literal(-21)))
        CFI (cfiCond377) V2 load(1, XDATA, add(CFA_XSP16, literal(-20)))
        CFI (cfiCond377) V3 load(1, XDATA, add(CFA_XSP16, literal(-19)))
        CFI (cfiCond377) V4 load(1, XDATA, add(CFA_XSP16, literal(-18)))
        CFI (cfiCond377) V5 load(1, XDATA, add(CFA_XSP16, literal(-17)))
        CFI (cfiCond377) V6 load(1, XDATA, add(CFA_XSP16, literal(-16)))
        CFI (cfiCond377) V7 load(1, XDATA, add(CFA_XSP16, literal(-15)))
        CFI (cfiCond377) V8 load(1, XDATA, add(CFA_XSP16, literal(-14)))
        CFI (cfiCond377) V9 load(1, XDATA, add(CFA_XSP16, literal(-13)))
        CFI (cfiCond377) V10 load(1, XDATA, add(CFA_XSP16, literal(-12)))
        CFI (cfiCond377) V11 load(1, XDATA, add(CFA_XSP16, literal(-11)))
        CFI (cfiCond377) V12 load(1, XDATA, add(CFA_XSP16, literal(-10)))
        CFI (cfiCond377) V13 load(1, XDATA, add(CFA_XSP16, literal(-9)))
        CFI (cfiCond377) V14 load(1, XDATA, add(CFA_XSP16, literal(-8)))
        CFI (cfiCond377) V15 load(1, XDATA, add(CFA_XSP16, literal(-7)))
        CFI (cfiCond377) R7 load(1, XDATA, add(CFA_XSP16, literal(-6)))
        CFI (cfiCond377) ?RET_LOW load(1, XDATA, add(CFA_XSP16, literal(-5)))
        CFI (cfiCond377) ?RET_HIGH load(1, XDATA, add(CFA_XSP16, literal(-4)))
        CFI (cfiCond377) ?BRET_EXT load(1, XDATA, add(CFA_XSP16, literal(-3)))
        CFI (cfiCond377) DPL0 load(1, XDATA, add(CFA_XSP16, literal(-2)))
        CFI (cfiCond377) DPH0 load(1, XDATA, add(CFA_XSP16, literal(-1)))
        CFI (cfiCond377) CFA_SP SP+0
        CFI (cfiCond377) CFA_XSP16 add(XSP16, 92)
        CFI Block cfiPicker378 Using cfiCommon1
        CFI (cfiPicker378) NoFunction
        CFI (cfiPicker378) Picker
        MOVX    @DPTR,A
        LCALL   ?Subroutine54 & 0xFFFF
??CrossCallReturnLabel_199:
        RET
        CFI EndBlock cfiCond376
        CFI EndBlock cfiCond377
        CFI EndBlock cfiPicker378

        RSEG BANKED_CODE:CODE:NOROOT(0)
?Subroutine54:
        CFI Block cfiCond379 Using cfiCommon0
        CFI NoFunction
        CFI Conditional ??CrossCallReturnLabel_198
        CFI R6 load(1, XDATA, add(CFA_XSP16, literal(-24)))
        CFI VB load(1, XDATA, add(CFA_XSP16, literal(-23)))
        CFI V0 load(1, XDATA, add(CFA_XSP16, literal(-22)))
        CFI V1 load(1, XDATA, add(CFA_XSP16, literal(-21)))
        CFI V2 load(1, XDATA, add(CFA_XSP16, literal(-20)))
        CFI V3 load(1, XDATA, add(CFA_XSP16, literal(-19)))
        CFI V4 load(1, XDATA, add(CFA_XSP16, literal(-18)))
        CFI V5 load(1, XDATA, add(CFA_XSP16, literal(-17)))
        CFI V6 load(1, XDATA, add(CFA_XSP16, literal(-16)))
        CFI V7 load(1, XDATA, add(CFA_XSP16, literal(-15)))
        CFI V8 load(1, XDATA, add(CFA_XSP16, literal(-14)))
        CFI V9 load(1, XDATA, add(CFA_XSP16, literal(-13)))
        CFI V10 load(1, XDATA, add(CFA_XSP16, literal(-12)))
        CFI V11 load(1, XDATA, add(CFA_XSP16, literal(-11)))
        CFI V12 load(1, XDATA, add(CFA_XSP16, literal(-10)))
        CFI V13 load(1, XDATA, add(CFA_XSP16, literal(-9)))
        CFI V14 load(1, XDATA, add(CFA_XSP16, literal(-8)))
        CFI V15 load(1, XDATA, add(CFA_XSP16, literal(-7)))
        CFI R7 load(1, XDATA, add(CFA_XSP16, literal(-6)))
        CFI ?RET_LOW load(1, XDATA, add(CFA_XSP16, literal(-5)))
        CFI ?RET_HIGH load(1, XDATA, add(CFA_XSP16, literal(-4)))
        CFI ?BRET_EXT load(1, XDATA, add(CFA_XSP16, literal(-3)))
        CFI DPL0 load(1, XDATA, add(CFA_XSP16, literal(-2)))
        CFI DPH0 load(1, XDATA, add(CFA_XSP16, literal(-1)))
        CFI CFA_SP SP+0
        CFI CFA_XSP16 add(XSP16, 92)
        CFI Block cfiCond380 Using cfiCommon0
        CFI (cfiCond380) NoFunction
        CFI (cfiCond380) Conditional ??CrossCallReturnLabel_199, ??CrossCallReturnLabel_8
        CFI (cfiCond380) R6 load(1, XDATA, add(CFA_XSP16, literal(-24)))
        CFI (cfiCond380) VB load(1, XDATA, add(CFA_XSP16, literal(-23)))
        CFI (cfiCond380) V0 load(1, XDATA, add(CFA_XSP16, literal(-22)))
        CFI (cfiCond380) V1 load(1, XDATA, add(CFA_XSP16, literal(-21)))
        CFI (cfiCond380) V2 load(1, XDATA, add(CFA_XSP16, literal(-20)))
        CFI (cfiCond380) V3 load(1, XDATA, add(CFA_XSP16, literal(-19)))
        CFI (cfiCond380) V4 load(1, XDATA, add(CFA_XSP16, literal(-18)))
        CFI (cfiCond380) V5 load(1, XDATA, add(CFA_XSP16, literal(-17)))
        CFI (cfiCond380) V6 load(1, XDATA, add(CFA_XSP16, literal(-16)))
        CFI (cfiCond380) V7 load(1, XDATA, add(CFA_XSP16, literal(-15)))
        CFI (cfiCond380) V8 load(1, XDATA, add(CFA_XSP16, literal(-14)))
        CFI (cfiCond380) V9 load(1, XDATA, add(CFA_XSP16, literal(-13)))
        CFI (cfiCond380) V10 load(1, XDATA, add(CFA_XSP16, literal(-12)))
        CFI (cfiCond380) V11 load(1, XDATA, add(CFA_XSP16, literal(-11)))
        CFI (cfiCond380) V12 load(1, XDATA, add(CFA_XSP16, literal(-10)))
        CFI (cfiCond380) V13 load(1, XDATA, add(CFA_XSP16, literal(-9)))
        CFI (cfiCond380) V14 load(1, XDATA, add(CFA_XSP16, literal(-8)))
        CFI (cfiCond380) V15 load(1, XDATA, add(CFA_XSP16, literal(-7)))
        CFI (cfiCond380) R7 load(1, XDATA, add(CFA_XSP16, literal(-6)))
        CFI (cfiCond380) ?RET_LOW load(1, XDATA, add(CFA_XSP16, literal(-5)))
        CFI (cfiCond380) ?RET_HIGH load(1, XDATA, add(CFA_XSP16, literal(-4)))
        CFI (cfiCond380) ?BRET_EXT load(1, XDATA, add(CFA_XSP16, literal(-3)))
        CFI (cfiCond380) DPL0 load(1, XDATA, add(CFA_XSP16, literal(-2)))
        CFI (cfiCond380) DPH0 load(1, XDATA, add(CFA_XSP16, literal(-1)))
        CFI (cfiCond380) CFA_SP SP+0
        CFI (cfiCond380) CFA_XSP16 add(XSP16, 92)
        CFI Block cfiCond381 Using cfiCommon0
        CFI (cfiCond381) NoFunction
        CFI (cfiCond381) Conditional ??CrossCallReturnLabel_199, ??CrossCallReturnLabel_9
        CFI (cfiCond381) R6 load(1, XDATA, add(CFA_XSP16, literal(-24)))
        CFI (cfiCond381) VB load(1, XDATA, add(CFA_XSP16, literal(-23)))
        CFI (cfiCond381) V0 load(1, XDATA, add(CFA_XSP16, literal(-22)))
        CFI (cfiCond381) V1 load(1, XDATA, add(CFA_XSP16, literal(-21)))
        CFI (cfiCond381) V2 load(1, XDATA, add(CFA_XSP16, literal(-20)))
        CFI (cfiCond381) V3 load(1, XDATA, add(CFA_XSP16, literal(-19)))
        CFI (cfiCond381) V4 load(1, XDATA, add(CFA_XSP16, literal(-18)))
        CFI (cfiCond381) V5 load(1, XDATA, add(CFA_XSP16, literal(-17)))
        CFI (cfiCond381) V6 load(1, XDATA, add(CFA_XSP16, literal(-16)))
        CFI (cfiCond381) V7 load(1, XDATA, add(CFA_XSP16, literal(-15)))
        CFI (cfiCond381) V8 load(1, XDATA, add(CFA_XSP16, literal(-14)))
        CFI (cfiCond381) V9 load(1, XDATA, add(CFA_XSP16, literal(-13)))
        CFI (cfiCond381) V10 load(1, XDATA, add(CFA_XSP16, literal(-12)))
        CFI (cfiCond381) V11 load(1, XDATA, add(CFA_XSP16, literal(-11)))
        CFI (cfiCond381) V12 load(1, XDATA, add(CFA_XSP16, literal(-10)))
        CFI (cfiCond381) V13 load(1, XDATA, add(CFA_XSP16, literal(-9)))
        CFI (cfiCond381) V14 load(1, XDATA, add(CFA_XSP16, literal(-8)))
        CFI (cfiCond381) V15 load(1, XDATA, add(CFA_XSP16, literal(-7)))
        CFI (cfiCond381) R7 load(1, XDATA, add(CFA_XSP16, literal(-6)))
        CFI (cfiCond381) ?RET_LOW load(1, XDATA, add(CFA_XSP16, literal(-5)))
        CFI (cfiCond381) ?RET_HIGH load(1, XDATA, add(CFA_XSP16, literal(-4)))
        CFI (cfiCond381) ?BRET_EXT load(1, XDATA, add(CFA_XSP16, literal(-3)))
        CFI (cfiCond381) DPL0 load(1, XDATA, add(CFA_XSP16, literal(-2)))
        CFI (cfiCond381) DPH0 load(1, XDATA, add(CFA_XSP16, literal(-1)))
        CFI (cfiCond381) CFA_SP SP+0
        CFI (cfiCond381) CFA_XSP16 add(XSP16, 92)
        CFI Block cfiPicker382 Using cfiCommon1
        CFI (cfiPicker382) NoFunction
        CFI (cfiPicker382) Picker
        MOV     DPTR,#deletnodelist
        CFI EndBlock cfiCond379
        CFI EndBlock cfiCond380
        CFI EndBlock cfiCond381
        CFI EndBlock cfiPicker382
        REQUIRE ??Subroutine75_0
        ; // Fall through to label ??Subroutine75_0

        RSEG BANKED_CODE:CODE:NOROOT(0)
??Subroutine75_0:
        CFI Block cfiCond383 Using cfiCommon0
        CFI NoFunction
        CFI Conditional ??CrossCallReturnLabel_197, ??CrossCallReturnLabel_36
        CFI R6 load(1, XDATA, add(CFA_XSP16, literal(-24)))
        CFI VB load(1, XDATA, add(CFA_XSP16, literal(-23)))
        CFI V0 load(1, XDATA, add(CFA_XSP16, literal(-22)))
        CFI V1 load(1, XDATA, add(CFA_XSP16, literal(-21)))
        CFI V2 load(1, XDATA, add(CFA_XSP16, literal(-20)))
        CFI V3 load(1, XDATA, add(CFA_XSP16, literal(-19)))
        CFI V4 load(1, XDATA, add(CFA_XSP16, literal(-18)))
        CFI V5 load(1, XDATA, add(CFA_XSP16, literal(-17)))
        CFI V6 load(1, XDATA, add(CFA_XSP16, literal(-16)))
        CFI V7 load(1, XDATA, add(CFA_XSP16, literal(-15)))
        CFI V8 load(1, XDATA, add(CFA_XSP16, literal(-14)))
        CFI V9 load(1, XDATA, add(CFA_XSP16, literal(-13)))
        CFI V10 load(1, XDATA, add(CFA_XSP16, literal(-12)))
        CFI V11 load(1, XDATA, add(CFA_XSP16, literal(-11)))
        CFI V12 load(1, XDATA, add(CFA_XSP16, literal(-10)))
        CFI V13 load(1, XDATA, add(CFA_XSP16, literal(-9)))
        CFI V14 load(1, XDATA, add(CFA_XSP16, literal(-8)))
        CFI V15 load(1, XDATA, add(CFA_XSP16, literal(-7)))
        CFI R7 load(1, XDATA, add(CFA_XSP16, literal(-6)))
        CFI ?RET_LOW load(1, XDATA, add(CFA_XSP16, literal(-5)))
        CFI ?RET_HIGH load(1, XDATA, add(CFA_XSP16, literal(-4)))
        CFI ?BRET_EXT load(1, XDATA, add(CFA_XSP16, literal(-3)))
        CFI DPL0 load(1, XDATA, add(CFA_XSP16, literal(-2)))
        CFI DPH0 load(1, XDATA, add(CFA_XSP16, literal(-1)))
        CFI CFA_SP SP+0
        CFI CFA_XSP16 add(XSP16, 92)
        CFI Block cfiCond384 Using cfiCommon0
        CFI (cfiCond384) NoFunction
        CFI (cfiCond384) Conditional ??CrossCallReturnLabel_197, ??CrossCallReturnLabel_37
        CFI (cfiCond384) R6 load(1, XDATA, add(CFA_XSP16, literal(-24)))
        CFI (cfiCond384) VB load(1, XDATA, add(CFA_XSP16, literal(-23)))
        CFI (cfiCond384) V0 load(1, XDATA, add(CFA_XSP16, literal(-22)))
        CFI (cfiCond384) V1 load(1, XDATA, add(CFA_XSP16, literal(-21)))
        CFI (cfiCond384) V2 load(1, XDATA, add(CFA_XSP16, literal(-20)))
        CFI (cfiCond384) V3 load(1, XDATA, add(CFA_XSP16, literal(-19)))
        CFI (cfiCond384) V4 load(1, XDATA, add(CFA_XSP16, literal(-18)))
        CFI (cfiCond384) V5 load(1, XDATA, add(CFA_XSP16, literal(-17)))
        CFI (cfiCond384) V6 load(1, XDATA, add(CFA_XSP16, literal(-16)))
        CFI (cfiCond384) V7 load(1, XDATA, add(CFA_XSP16, literal(-15)))
        CFI (cfiCond384) V8 load(1, XDATA, add(CFA_XSP16, literal(-14)))
        CFI (cfiCond384) V9 load(1, XDATA, add(CFA_XSP16, literal(-13)))
        CFI (cfiCond384) V10 load(1, XDATA, add(CFA_XSP16, literal(-12)))
        CFI (cfiCond384) V11 load(1, XDATA, add(CFA_XSP16, literal(-11)))
        CFI (cfiCond384) V12 load(1, XDATA, add(CFA_XSP16, literal(-10)))
        CFI (cfiCond384) V13 load(1, XDATA, add(CFA_XSP16, literal(-9)))
        CFI (cfiCond384) V14 load(1, XDATA, add(CFA_XSP16, literal(-8)))
        CFI (cfiCond384) V15 load(1, XDATA, add(CFA_XSP16, literal(-7)))
        CFI (cfiCond384) R7 load(1, XDATA, add(CFA_XSP16, literal(-6)))
        CFI (cfiCond384) ?RET_LOW load(1, XDATA, add(CFA_XSP16, literal(-5)))
        CFI (cfiCond384) ?RET_HIGH load(1, XDATA, add(CFA_XSP16, literal(-4)))
        CFI (cfiCond384) ?BRET_EXT load(1, XDATA, add(CFA_XSP16, literal(-3)))
        CFI (cfiCond384) DPL0 load(1, XDATA, add(CFA_XSP16, literal(-2)))
        CFI (cfiCond384) DPH0 load(1, XDATA, add(CFA_XSP16, literal(-1)))
        CFI (cfiCond384) CFA_SP SP+0
        CFI (cfiCond384) CFA_XSP16 add(XSP16, 92)
        CFI Block cfiCond385 Using cfiCommon0
        CFI (cfiCond385) NoFunction
        CFI (cfiCond385) Conditional ??CrossCallReturnLabel_198
        CFI (cfiCond385) R6 load(1, XDATA, add(CFA_XSP16, literal(-24)))
        CFI (cfiCond385) VB load(1, XDATA, add(CFA_XSP16, literal(-23)))
        CFI (cfiCond385) V0 load(1, XDATA, add(CFA_XSP16, literal(-22)))
        CFI (cfiCond385) V1 load(1, XDATA, add(CFA_XSP16, literal(-21)))
        CFI (cfiCond385) V2 load(1, XDATA, add(CFA_XSP16, literal(-20)))
        CFI (cfiCond385) V3 load(1, XDATA, add(CFA_XSP16, literal(-19)))
        CFI (cfiCond385) V4 load(1, XDATA, add(CFA_XSP16, literal(-18)))
        CFI (cfiCond385) V5 load(1, XDATA, add(CFA_XSP16, literal(-17)))
        CFI (cfiCond385) V6 load(1, XDATA, add(CFA_XSP16, literal(-16)))
        CFI (cfiCond385) V7 load(1, XDATA, add(CFA_XSP16, literal(-15)))
        CFI (cfiCond385) V8 load(1, XDATA, add(CFA_XSP16, literal(-14)))
        CFI (cfiCond385) V9 load(1, XDATA, add(CFA_XSP16, literal(-13)))
        CFI (cfiCond385) V10 load(1, XDATA, add(CFA_XSP16, literal(-12)))
        CFI (cfiCond385) V11 load(1, XDATA, add(CFA_XSP16, literal(-11)))
        CFI (cfiCond385) V12 load(1, XDATA, add(CFA_XSP16, literal(-10)))
        CFI (cfiCond385) V13 load(1, XDATA, add(CFA_XSP16, literal(-9)))
        CFI (cfiCond385) V14 load(1, XDATA, add(CFA_XSP16, literal(-8)))
        CFI (cfiCond385) V15 load(1, XDATA, add(CFA_XSP16, literal(-7)))
        CFI (cfiCond385) R7 load(1, XDATA, add(CFA_XSP16, literal(-6)))
        CFI (cfiCond385) ?RET_LOW load(1, XDATA, add(CFA_XSP16, literal(-5)))
        CFI (cfiCond385) ?RET_HIGH load(1, XDATA, add(CFA_XSP16, literal(-4)))
        CFI (cfiCond385) ?BRET_EXT load(1, XDATA, add(CFA_XSP16, literal(-3)))
        CFI (cfiCond385) DPL0 load(1, XDATA, add(CFA_XSP16, literal(-2)))
        CFI (cfiCond385) DPH0 load(1, XDATA, add(CFA_XSP16, literal(-1)))
        CFI (cfiCond385) CFA_SP SP+0
        CFI (cfiCond385) CFA_XSP16 add(XSP16, 92)
        CFI Block cfiCond386 Using cfiCommon0
        CFI (cfiCond386) NoFunction
        CFI (cfiCond386) Conditional ??CrossCallReturnLabel_199, ??CrossCallReturnLabel_8
        CFI (cfiCond386) R6 load(1, XDATA, add(CFA_XSP16, literal(-24)))
        CFI (cfiCond386) VB load(1, XDATA, add(CFA_XSP16, literal(-23)))
        CFI (cfiCond386) V0 load(1, XDATA, add(CFA_XSP16, literal(-22)))
        CFI (cfiCond386) V1 load(1, XDATA, add(CFA_XSP16, literal(-21)))
        CFI (cfiCond386) V2 load(1, XDATA, add(CFA_XSP16, literal(-20)))
        CFI (cfiCond386) V3 load(1, XDATA, add(CFA_XSP16, literal(-19)))
        CFI (cfiCond386) V4 load(1, XDATA, add(CFA_XSP16, literal(-18)))
        CFI (cfiCond386) V5 load(1, XDATA, add(CFA_XSP16, literal(-17)))
        CFI (cfiCond386) V6 load(1, XDATA, add(CFA_XSP16, literal(-16)))
        CFI (cfiCond386) V7 load(1, XDATA, add(CFA_XSP16, literal(-15)))
        CFI (cfiCond386) V8 load(1, XDATA, add(CFA_XSP16, literal(-14)))
        CFI (cfiCond386) V9 load(1, XDATA, add(CFA_XSP16, literal(-13)))
        CFI (cfiCond386) V10 load(1, XDATA, add(CFA_XSP16, literal(-12)))
        CFI (cfiCond386) V11 load(1, XDATA, add(CFA_XSP16, literal(-11)))
        CFI (cfiCond386) V12 load(1, XDATA, add(CFA_XSP16, literal(-10)))
        CFI (cfiCond386) V13 load(1, XDATA, add(CFA_XSP16, literal(-9)))
        CFI (cfiCond386) V14 load(1, XDATA, add(CFA_XSP16, literal(-8)))
        CFI (cfiCond386) V15 load(1, XDATA, add(CFA_XSP16, literal(-7)))
        CFI (cfiCond386) R7 load(1, XDATA, add(CFA_XSP16, literal(-6)))
        CFI (cfiCond386) ?RET_LOW load(1, XDATA, add(CFA_XSP16, literal(-5)))
        CFI (cfiCond386) ?RET_HIGH load(1, XDATA, add(CFA_XSP16, literal(-4)))
        CFI (cfiCond386) ?BRET_EXT load(1, XDATA, add(CFA_XSP16, literal(-3)))
        CFI (cfiCond386) DPL0 load(1, XDATA, add(CFA_XSP16, literal(-2)))
        CFI (cfiCond386) DPH0 load(1, XDATA, add(CFA_XSP16, literal(-1)))
        CFI (cfiCond386) CFA_SP SP+0
        CFI (cfiCond386) CFA_XSP16 add(XSP16, 92)
        CFI Block cfiCond387 Using cfiCommon0
        CFI (cfiCond387) NoFunction
        CFI (cfiCond387) Conditional ??CrossCallReturnLabel_199, ??CrossCallReturnLabel_9
        CFI (cfiCond387) R6 load(1, XDATA, add(CFA_XSP16, literal(-24)))
        CFI (cfiCond387) VB load(1, XDATA, add(CFA_XSP16, literal(-23)))
        CFI (cfiCond387) V0 load(1, XDATA, add(CFA_XSP16, literal(-22)))
        CFI (cfiCond387) V1 load(1, XDATA, add(CFA_XSP16, literal(-21)))
        CFI (cfiCond387) V2 load(1, XDATA, add(CFA_XSP16, literal(-20)))
        CFI (cfiCond387) V3 load(1, XDATA, add(CFA_XSP16, literal(-19)))
        CFI (cfiCond387) V4 load(1, XDATA, add(CFA_XSP16, literal(-18)))
        CFI (cfiCond387) V5 load(1, XDATA, add(CFA_XSP16, literal(-17)))
        CFI (cfiCond387) V6 load(1, XDATA, add(CFA_XSP16, literal(-16)))
        CFI (cfiCond387) V7 load(1, XDATA, add(CFA_XSP16, literal(-15)))
        CFI (cfiCond387) V8 load(1, XDATA, add(CFA_XSP16, literal(-14)))
        CFI (cfiCond387) V9 load(1, XDATA, add(CFA_XSP16, literal(-13)))
        CFI (cfiCond387) V10 load(1, XDATA, add(CFA_XSP16, literal(-12)))
        CFI (cfiCond387) V11 load(1, XDATA, add(CFA_XSP16, literal(-11)))
        CFI (cfiCond387) V12 load(1, XDATA, add(CFA_XSP16, literal(-10)))
        CFI (cfiCond387) V13 load(1, XDATA, add(CFA_XSP16, literal(-9)))
        CFI (cfiCond387) V14 load(1, XDATA, add(CFA_XSP16, literal(-8)))
        CFI (cfiCond387) V15 load(1, XDATA, add(CFA_XSP16, literal(-7)))
        CFI (cfiCond387) R7 load(1, XDATA, add(CFA_XSP16, literal(-6)))
        CFI (cfiCond387) ?RET_LOW load(1, XDATA, add(CFA_XSP16, literal(-5)))
        CFI (cfiCond387) ?RET_HIGH load(1, XDATA, add(CFA_XSP16, literal(-4)))
        CFI (cfiCond387) ?BRET_EXT load(1, XDATA, add(CFA_XSP16, literal(-3)))
        CFI (cfiCond387) DPL0 load(1, XDATA, add(CFA_XSP16, literal(-2)))
        CFI (cfiCond387) DPH0 load(1, XDATA, add(CFA_XSP16, literal(-1)))
        CFI (cfiCond387) CFA_SP SP+0
        CFI (cfiCond387) CFA_XSP16 add(XSP16, 92)
        CFI Block cfiPicker388 Using cfiCommon1
        CFI (cfiPicker388) NoFunction
        CFI (cfiPicker388) Picker
        MOVX    A,@DPTR
        ADD     A,#0xc
        MOV     R0,A
        INC     DPTR
        MOVX    A,@DPTR
        ADDC    A,#0x0
        MOV     R1,A
        MOV     DPL,R0
        MOV     DPH,R1
        MOVX    A,@DPTR
        RET
        CFI EndBlock cfiCond383
        CFI EndBlock cfiCond384
        CFI EndBlock cfiCond385
        CFI EndBlock cfiCond386
        CFI EndBlock cfiCond387
        CFI EndBlock cfiPicker388

        RSEG XDATA_Z:XDATA:NOROOT(0)
        DATA16
??nodeptr:
        DS 2
        REQUIRE __INIT_XDATA_Z

        RSEG XDATA_Z:XDATA:NOROOT(0)
        DATA16
??updatenodeptr:
        DS 2
        REQUIRE __INIT_XDATA_Z
// 1702 
// 1703 /**
// 1704 * @brief gizwits‰∏äÊä•ÈÄè‰º†Êï∞ÊçÆÊé•Âè£
// 1705 
// 1706 * Áî®Êà∑Ë∞ÉÁî®ËØ•Êé•Âè£ÂèØ‰ª•ÂÆåÊàêÁßÅÊúâÂçèËÆÆÊï∞ÊçÆÁöÑ‰∏äÊä•
// 1707 
// 1708 * @param [in] data ËæìÂÖ•ÁöÑÁßÅÊúâÂçèËÆÆÊï∞Êç?* @param [in] len ËæìÂÖ•ÁöÑÁßÅÊúâÂçèËÆÆÊï∞ÊçÆÈïøÂ∫?* @return -1 , ÈîôËØØËøîÂõû;0,Ê≠£Á°ÆËøîÂõû
// 1709 */

        RSEG BANKED_CODE:CODE:NOROOT(0)
// 1710 int32 gizwitsPassthroughData(uint8 * data, uint32 len)
gizwitsPassthroughData:
        CFI Block cfiBlock389 Using cfiCommon0
        CFI Function gizwitsPassthroughData
        CODE
// 1711 {
        FUNCALL gizwitsPassthroughData, osal_memcpy
        LOCFRAME ISTACK, 0, STACK
        LOCFRAME PSTACK, 0, STACK
        LOCFRAME XSTACK, 50, STACK
        LOCFRAME IOVERLAY, 0, STATIC
        LOCFRAME DOVERLAY, 0, STATIC
        ARGFRAME ISTACK, 0, STACK
        ARGFRAME PSTACK, 0, STACK
        ARGFRAME XSTACK, 50, STACK
        ARGFRAME IOVERLAY, 0, STATIC
        ARGFRAME DOVERLAY, 0, STATIC
        FUNCALL gizwitsPassthroughData, gizProtocolSum
        LOCFRAME ISTACK, 0, STACK
        LOCFRAME PSTACK, 0, STACK
        LOCFRAME XSTACK, 51, STACK
        LOCFRAME IOVERLAY, 0, STATIC
        LOCFRAME DOVERLAY, 0, STATIC
        ARGFRAME ISTACK, 0, STACK
        ARGFRAME PSTACK, 0, STACK
        ARGFRAME XSTACK, 51, STACK
        ARGFRAME IOVERLAY, 0, STATIC
        ARGFRAME DOVERLAY, 0, STATIC
        FUNCALL gizwitsPassthroughData, uartWrite
        LOCFRAME ISTACK, 0, STACK
        LOCFRAME PSTACK, 0, STACK
        LOCFRAME XSTACK, 51, STACK
        LOCFRAME IOVERLAY, 0, STATIC
        LOCFRAME DOVERLAY, 0, STATIC
        ARGFRAME ISTACK, 0, STACK
        ARGFRAME PSTACK, 0, STACK
        ARGFRAME XSTACK, 51, STACK
        ARGFRAME IOVERLAY, 0, STATIC
        ARGFRAME DOVERLAY, 0, STATIC
        FUNCALL gizwitsPassthroughData, gizProtocolWaitAck
        LOCFRAME ISTACK, 0, STACK
        LOCFRAME PSTACK, 0, STACK
        LOCFRAME XSTACK, 51, STACK
        LOCFRAME IOVERLAY, 0, STATIC
        LOCFRAME DOVERLAY, 0, STATIC
        ARGFRAME ISTACK, 0, STACK
        ARGFRAME PSTACK, 0, STACK
        ARGFRAME XSTACK, 51, STACK
        ARGFRAME IOVERLAY, 0, STATIC
        ARGFRAME DOVERLAY, 0, STATIC
        MOV     A,#-0x10
        LCALL   ?BANKED_ENTER_XDATA
        CFI DPH0 load(1, XDATA, add(CFA_XSP16, literal(-1)))
        CFI DPL0 load(1, XDATA, add(CFA_XSP16, literal(-2)))
        CFI ?BRET_EXT load(1, XDATA, add(CFA_XSP16, literal(-3)))
        CFI ?RET_HIGH load(1, XDATA, add(CFA_XSP16, literal(-4)))
        CFI ?RET_LOW load(1, XDATA, add(CFA_XSP16, literal(-5)))
        CFI R7 load(1, XDATA, add(CFA_XSP16, literal(-6)))
        CFI V7 load(1, XDATA, add(CFA_XSP16, literal(-7)))
        CFI V6 load(1, XDATA, add(CFA_XSP16, literal(-8)))
        CFI V5 load(1, XDATA, add(CFA_XSP16, literal(-9)))
        CFI V4 load(1, XDATA, add(CFA_XSP16, literal(-10)))
        CFI V3 load(1, XDATA, add(CFA_XSP16, literal(-11)))
        CFI V2 load(1, XDATA, add(CFA_XSP16, literal(-12)))
        CFI V1 load(1, XDATA, add(CFA_XSP16, literal(-13)))
        CFI V0 load(1, XDATA, add(CFA_XSP16, literal(-14)))
        CFI VB load(1, XDATA, add(CFA_XSP16, literal(-15)))
        CFI R6 load(1, XDATA, add(CFA_XSP16, literal(-16)))
        CFI CFA_SP SP+0
        CFI CFA_XSP16 add(XSP16, 16)
        ; Saved register size: 16
        ; Auto size: 31
        MOV     A,#-0x1f
        LCALL   ?ALLOC_XSTACK8
        CFI CFA_XSP16 add(XSP16, 47)
        MOV     A,#0x2f
        LCALL   ?XSTACK_DISP0_8
        MOV     R0,#?V0 + 4
        LCALL   ?L_MOV_X
// 1712 	int32 ret = 0;
// 1713 	uint8 tx_buf[MAX_PACKAGE_LEN];
// 1714     if(NULL == data)
        MOV     A,R2
        ORL     A,R3
        JNZ     ??gizwitsPassthroughData_0
// 1715     {
// 1716         GIZWITS_LOG("[Error] gizwitsPassthroughData Error \n");
// 1717         return (-1);
        MOV     R2,#-0x1
        MOV     R3,#-0x1
        MOV     R4,#-0x1
        MOV     R5,#-0x1
        LJMP    ??gizwitsPassthroughData_1 & 0xFFFF
// 1718     }
// 1719 	uint8 *pTxBuf = tx_buf;
// 1720 	uint16 data_len = 6+len;
??gizwitsPassthroughData_0:
        MOV     ?V0 + 0,?V0 + 4
        MOV     ?V0 + 1,?V0 + 5
        MOV     A,?V0 + 0
        ADD     A,#0x6
        MOV     R6,A
        MOV     A,?V0 + 1
        LCALL   ?Subroutine43 & 0xFFFF
// 1721 	*pTxBuf ++= 0xFF;
// 1722 	*pTxBuf ++= 0xFF;
??CrossCallReturnLabel_70:
        LCALL   ?XSTACK_DISP0_8
        MOV     A,#-0x1
        MOVX    @DPTR,A
// 1723 	*pTxBuf ++= (uint8)(data_len>>8);//len
        MOV     A,#0x2
        LCALL   ?XSTACK_DISP0_8
        MOV     A,R7
        MOVX    @DPTR,A
// 1724 	*pTxBuf ++= (uint8)(data_len);
        MOV     A,#0x3
        LCALL   ?XSTACK_DISP0_8
        MOV     A,R6
        MOVX    @DPTR,A
// 1725 	*pTxBuf ++= CMD_REPORT_P0;//0x1b cmd
        MOV     A,#0x4
        LCALL   ?XSTACK_DISP0_8
        MOV     A,#0x5
        LCALL   ?Subroutine20 & 0xFFFF
// 1726 	*pTxBuf ++= gizwitsProtocol.sn++;//sn
??CrossCallReturnLabel_26:
        LCALL   ?L_MOV_X
        MOV     A,#0x5
        LCALL   ?XSTACK_DISP0_8
        LCALL   ?Subroutine21 & 0xFFFF
??CrossCallReturnLabel_29:
        LCALL   ?L_MOV_X
        MOV     DPTR,#gizwitsProtocol + 67
        MOV     R0,#?V0 + 0
        LCALL   ?L_ADD_TO_X
// 1727 	*pTxBuf ++= 0x00;//flag
        MOV     A,#0x6
        LCALL   ?XSTACK_DISP0_8
        CLR     A
        MOVX    @DPTR,A
// 1728 	*pTxBuf ++= 0x00;//flag
        MOV     A,#0x7
        LCALL   ?XSTACK_DISP0_8
        CLR     A
        MOVX    @DPTR,A
// 1729 	*pTxBuf ++= ACTION_D2W_TRANSPARENT_DATA;//P0_Cmd
        MOV     A,#0x8
        LCALL   ?XSTACK_DISP0_8
        MOV     A,#0x6
        MOVX    @DPTR,A
// 1730 
// 1731     osal_memcpy(&tx_buf[9],data,len);
        ; Setup parameters for call to function osal_memcpy
        MOV     ?V0 + 0,R2
        MOV     ?V0 + 1,R3
        MOV     ?V0 + 2,#0x0
        MOV     R0,#?V0 + 0
        LCALL   ?PUSH_XSTACK_I_THREE
        CFI CFA_XSP16 add(XSP16, 50)
        MOV     R4,?V0 + 4
        MOV     R5,?V0 + 5
        MOV     A,#0xc
        LCALL   ?XSTACK_DISP0_8
        LCALL   ?Subroutine41 & 0xFFFF
??CrossCallReturnLabel_104:
        LCALL   ?DEALLOC_XSTACK8
        CFI CFA_XSP16 add(XSP16, 47)
        LCALL   ?Subroutine47 & 0xFFFF
??CrossCallReturnLabel_74:
        MOV     ?V0 + 3,A
        ; Setup parameters for call to function gizProtocolSum
        MOV     R0,#?V0 + 0
        LCALL   ?PUSH_XSTACK_I_FOUR
        CFI CFA_XSP16 add(XSP16, 51)
        MOV     A,#0x4
        LCALL   ?XSTACK_DISP0_8
        LCALL   ?Subroutine45 & 0xFFFF
??CrossCallReturnLabel_147:
        LCALL   ?DEALLOC_XSTACK8
        CFI CFA_XSP16 add(XSP16, 47)
        LCALL   ?Subroutine42 & 0xFFFF
// 1732     tx_buf[data_len + 4 - 1 ] = gizProtocolSum( tx_buf , (data_len+4));
// 1733     
// 1734 	ret = uartWrite(tx_buf, data_len+4);
??CrossCallReturnLabel_68:
        LCALL   ?PUSH_XSTACK_I_FOUR
        CFI CFA_XSP16 add(XSP16, 51)
        MOV     A,#0x4
        LCALL   ?XSTACK_DISP0_8
        LCALL   ?Subroutine46 & 0xFFFF
??CrossCallReturnLabel_139:
        LCALL   ?DEALLOC_XSTACK8
        CFI CFA_XSP16 add(XSP16, 47)
// 1735     if(ret < 0)
// 1736     {
// 1737         //ÊâìÂç∞Êó•Âøó
// 1738         GIZWITS_LOG("ERROR: uart write error %d \n", ret);
// 1739     }
// 1740 
// 1741     gizProtocolWaitAck(tx_buf, data_len+4);
        ; Setup parameters for call to function gizProtocolWaitAck
        MOV     R0,#?V0 + 0
        LCALL   ?PUSH_XSTACK_I_FOUR
        CFI CFA_XSP16 add(XSP16, 51)
        MOV     A,#0x4
        LCALL   ?XSTACK_DISP0_8
        MOV     R2,DPL
        MOV     R3,DPH
        LCALL   ??gizProtocolWaitAck?relay
        MOV     A,#0x4
        LCALL   ?DEALLOC_XSTACK8
        CFI CFA_XSP16 add(XSP16, 47)
// 1742 
// 1743     return 0;
        MOV     R2,#0x0
        MOV     R3,#0x0
        MOV     R4,#0x0
        MOV     R5,#0x0
??gizwitsPassthroughData_1:
        MOV     A,#0x1f
        LJMP    ?Subroutine1 & 0xFFFF
        CFI EndBlock cfiBlock389
// 1744 }

        RSEG BANKED_CODE:CODE:NOROOT(0)
?Subroutine47:
        CFI Block cfiCond390 Using cfiCommon0
        CFI NoFunction
        CFI Conditional ??CrossCallReturnLabel_73
        CFI R6 load(1, XDATA, add(CFA_XSP16, literal(-15)))
        CFI VB load(1, XDATA, add(CFA_XSP16, literal(-14)))
        CFI V0 load(1, XDATA, add(CFA_XSP16, literal(-13)))
        CFI V1 load(1, XDATA, add(CFA_XSP16, literal(-12)))
        CFI V2 load(1, XDATA, add(CFA_XSP16, literal(-11)))
        CFI V3 load(1, XDATA, add(CFA_XSP16, literal(-10)))
        CFI V4 load(1, XDATA, add(CFA_XSP16, literal(-9)))
        CFI V5 load(1, XDATA, add(CFA_XSP16, literal(-8)))
        CFI V6 load(1, XDATA, add(CFA_XSP16, literal(-7)))
        CFI R7 load(1, XDATA, add(CFA_XSP16, literal(-6)))
        CFI ?RET_LOW load(1, XDATA, add(CFA_XSP16, literal(-5)))
        CFI ?RET_HIGH load(1, XDATA, add(CFA_XSP16, literal(-4)))
        CFI ?BRET_EXT load(1, XDATA, add(CFA_XSP16, literal(-3)))
        CFI DPL0 load(1, XDATA, add(CFA_XSP16, literal(-2)))
        CFI DPH0 load(1, XDATA, add(CFA_XSP16, literal(-1)))
        CFI CFA_SP SP+0
        CFI CFA_XSP16 add(XSP16, 46)
        CFI Block cfiCond391 Using cfiCommon0
        CFI (cfiCond391) NoFunction
        CFI (cfiCond391) Conditional ??CrossCallReturnLabel_74
        CFI (cfiCond391) R6 load(1, XDATA, add(CFA_XSP16, literal(-16)))
        CFI (cfiCond391) VB load(1, XDATA, add(CFA_XSP16, literal(-15)))
        CFI (cfiCond391) V0 load(1, XDATA, add(CFA_XSP16, literal(-14)))
        CFI (cfiCond391) V1 load(1, XDATA, add(CFA_XSP16, literal(-13)))
        CFI (cfiCond391) V2 load(1, XDATA, add(CFA_XSP16, literal(-12)))
        CFI (cfiCond391) V3 load(1, XDATA, add(CFA_XSP16, literal(-11)))
        CFI (cfiCond391) V4 load(1, XDATA, add(CFA_XSP16, literal(-10)))
        CFI (cfiCond391) V5 load(1, XDATA, add(CFA_XSP16, literal(-9)))
        CFI (cfiCond391) V6 load(1, XDATA, add(CFA_XSP16, literal(-8)))
        CFI (cfiCond391) V7 load(1, XDATA, add(CFA_XSP16, literal(-7)))
        CFI (cfiCond391) R7 load(1, XDATA, add(CFA_XSP16, literal(-6)))
        CFI (cfiCond391) ?RET_LOW load(1, XDATA, add(CFA_XSP16, literal(-5)))
        CFI (cfiCond391) ?RET_HIGH load(1, XDATA, add(CFA_XSP16, literal(-4)))
        CFI (cfiCond391) ?BRET_EXT load(1, XDATA, add(CFA_XSP16, literal(-3)))
        CFI (cfiCond391) DPL0 load(1, XDATA, add(CFA_XSP16, literal(-2)))
        CFI (cfiCond391) DPH0 load(1, XDATA, add(CFA_XSP16, literal(-1)))
        CFI (cfiCond391) CFA_SP SP+0
        CFI (cfiCond391) CFA_XSP16 add(XSP16, 47)
        CFI Block cfiPicker392 Using cfiCommon1
        CFI (cfiPicker392) NoFunction
        CFI (cfiPicker392) Picker
        MOV     A,R6
        ADD     A,#0x4
        MOV     ?V0 + 0,A
        MOV     A,R7
        ADDC    A,#0x0
        MOV     ?V0 + 1,A
        CLR     A
        RET
        CFI EndBlock cfiCond390
        CFI EndBlock cfiCond391
        CFI EndBlock cfiPicker392

        RSEG BANKED_CODE:CODE:NOROOT(0)
?Subroutine43:
        CFI Block cfiCond393 Using cfiCommon0
        CFI NoFunction
        CFI Conditional ??CrossCallReturnLabel_69
        CFI R6 load(1, XDATA, add(CFA_XSP16, literal(-15)))
        CFI VB load(1, XDATA, add(CFA_XSP16, literal(-14)))
        CFI V0 load(1, XDATA, add(CFA_XSP16, literal(-13)))
        CFI V1 load(1, XDATA, add(CFA_XSP16, literal(-12)))
        CFI V2 load(1, XDATA, add(CFA_XSP16, literal(-11)))
        CFI V3 load(1, XDATA, add(CFA_XSP16, literal(-10)))
        CFI V4 load(1, XDATA, add(CFA_XSP16, literal(-9)))
        CFI V5 load(1, XDATA, add(CFA_XSP16, literal(-8)))
        CFI V6 load(1, XDATA, add(CFA_XSP16, literal(-7)))
        CFI R7 load(1, XDATA, add(CFA_XSP16, literal(-6)))
        CFI ?RET_LOW load(1, XDATA, add(CFA_XSP16, literal(-5)))
        CFI ?RET_HIGH load(1, XDATA, add(CFA_XSP16, literal(-4)))
        CFI ?BRET_EXT load(1, XDATA, add(CFA_XSP16, literal(-3)))
        CFI DPL0 load(1, XDATA, add(CFA_XSP16, literal(-2)))
        CFI DPH0 load(1, XDATA, add(CFA_XSP16, literal(-1)))
        CFI CFA_SP SP+0
        CFI CFA_XSP16 add(XSP16, 46)
        CFI Block cfiCond394 Using cfiCommon0
        CFI (cfiCond394) NoFunction
        CFI (cfiCond394) Conditional ??CrossCallReturnLabel_70
        CFI (cfiCond394) R6 load(1, XDATA, add(CFA_XSP16, literal(-16)))
        CFI (cfiCond394) VB load(1, XDATA, add(CFA_XSP16, literal(-15)))
        CFI (cfiCond394) V0 load(1, XDATA, add(CFA_XSP16, literal(-14)))
        CFI (cfiCond394) V1 load(1, XDATA, add(CFA_XSP16, literal(-13)))
        CFI (cfiCond394) V2 load(1, XDATA, add(CFA_XSP16, literal(-12)))
        CFI (cfiCond394) V3 load(1, XDATA, add(CFA_XSP16, literal(-11)))
        CFI (cfiCond394) V4 load(1, XDATA, add(CFA_XSP16, literal(-10)))
        CFI (cfiCond394) V5 load(1, XDATA, add(CFA_XSP16, literal(-9)))
        CFI (cfiCond394) V6 load(1, XDATA, add(CFA_XSP16, literal(-8)))
        CFI (cfiCond394) V7 load(1, XDATA, add(CFA_XSP16, literal(-7)))
        CFI (cfiCond394) R7 load(1, XDATA, add(CFA_XSP16, literal(-6)))
        CFI (cfiCond394) ?RET_LOW load(1, XDATA, add(CFA_XSP16, literal(-5)))
        CFI (cfiCond394) ?RET_HIGH load(1, XDATA, add(CFA_XSP16, literal(-4)))
        CFI (cfiCond394) ?BRET_EXT load(1, XDATA, add(CFA_XSP16, literal(-3)))
        CFI (cfiCond394) DPL0 load(1, XDATA, add(CFA_XSP16, literal(-2)))
        CFI (cfiCond394) DPH0 load(1, XDATA, add(CFA_XSP16, literal(-1)))
        CFI (cfiCond394) CFA_SP SP+0
        CFI (cfiCond394) CFA_XSP16 add(XSP16, 47)
        CFI Block cfiPicker395 Using cfiCommon1
        CFI (cfiPicker395) NoFunction
        CFI (cfiPicker395) Picker
        ADDC    A,#0x0
        MOV     R7,A
        MOV     DPL,?XSP + 0
        MOV     DPH,?XSP + 1
        MOV     A,#-0x1
        MOVX    @DPTR,A
        MOV     A,#0x1
        RET
        CFI EndBlock cfiCond393
        CFI EndBlock cfiCond394
        CFI EndBlock cfiPicker395

        RSEG BANKED_CODE:CODE:NOROOT(0)
?Subroutine42:
        CFI Block cfiCond396 Using cfiCommon0
        CFI NoFunction
        CFI Conditional ??CrossCallReturnLabel_67
        CFI R6 load(1, XDATA, add(CFA_XSP16, literal(-15)))
        CFI VB load(1, XDATA, add(CFA_XSP16, literal(-14)))
        CFI V0 load(1, XDATA, add(CFA_XSP16, literal(-13)))
        CFI V1 load(1, XDATA, add(CFA_XSP16, literal(-12)))
        CFI V2 load(1, XDATA, add(CFA_XSP16, literal(-11)))
        CFI V3 load(1, XDATA, add(CFA_XSP16, literal(-10)))
        CFI V4 load(1, XDATA, add(CFA_XSP16, literal(-9)))
        CFI V5 load(1, XDATA, add(CFA_XSP16, literal(-8)))
        CFI V6 load(1, XDATA, add(CFA_XSP16, literal(-7)))
        CFI R7 load(1, XDATA, add(CFA_XSP16, literal(-6)))
        CFI ?RET_LOW load(1, XDATA, add(CFA_XSP16, literal(-5)))
        CFI ?RET_HIGH load(1, XDATA, add(CFA_XSP16, literal(-4)))
        CFI ?BRET_EXT load(1, XDATA, add(CFA_XSP16, literal(-3)))
        CFI DPL0 load(1, XDATA, add(CFA_XSP16, literal(-2)))
        CFI DPH0 load(1, XDATA, add(CFA_XSP16, literal(-1)))
        CFI CFA_SP SP+0
        CFI CFA_XSP16 add(XSP16, 46)
        CFI Block cfiCond397 Using cfiCommon0
        CFI (cfiCond397) NoFunction
        CFI (cfiCond397) Conditional ??CrossCallReturnLabel_68
        CFI (cfiCond397) R6 load(1, XDATA, add(CFA_XSP16, literal(-16)))
        CFI (cfiCond397) VB load(1, XDATA, add(CFA_XSP16, literal(-15)))
        CFI (cfiCond397) V0 load(1, XDATA, add(CFA_XSP16, literal(-14)))
        CFI (cfiCond397) V1 load(1, XDATA, add(CFA_XSP16, literal(-13)))
        CFI (cfiCond397) V2 load(1, XDATA, add(CFA_XSP16, literal(-12)))
        CFI (cfiCond397) V3 load(1, XDATA, add(CFA_XSP16, literal(-11)))
        CFI (cfiCond397) V4 load(1, XDATA, add(CFA_XSP16, literal(-10)))
        CFI (cfiCond397) V5 load(1, XDATA, add(CFA_XSP16, literal(-9)))
        CFI (cfiCond397) V6 load(1, XDATA, add(CFA_XSP16, literal(-8)))
        CFI (cfiCond397) V7 load(1, XDATA, add(CFA_XSP16, literal(-7)))
        CFI (cfiCond397) R7 load(1, XDATA, add(CFA_XSP16, literal(-6)))
        CFI (cfiCond397) ?RET_LOW load(1, XDATA, add(CFA_XSP16, literal(-5)))
        CFI (cfiCond397) ?RET_HIGH load(1, XDATA, add(CFA_XSP16, literal(-4)))
        CFI (cfiCond397) ?BRET_EXT load(1, XDATA, add(CFA_XSP16, literal(-3)))
        CFI (cfiCond397) DPL0 load(1, XDATA, add(CFA_XSP16, literal(-2)))
        CFI (cfiCond397) DPH0 load(1, XDATA, add(CFA_XSP16, literal(-1)))
        CFI (cfiCond397) CFA_SP SP+0
        CFI (cfiCond397) CFA_XSP16 add(XSP16, 47)
        CFI Block cfiPicker398 Using cfiCommon1
        CFI (cfiPicker398) NoFunction
        CFI (cfiPicker398) Picker
        MOV     DPL,?XSP + 0
        MOV     DPH,?XSP + 1
        MOV     A,DPL
        ADD     A,R6
        MOV     DPL,A
        MOV     A,DPH
        ADDC    A,R7
        MOV     DPH,A
        INC     DPTR
        INC     DPTR
        INC     DPTR
        MOV     A,R1
        MOVX    @DPTR,A
        ; Setup parameters for call to function uartWrite
        ; Setup parameters for call to function uartWrite
        MOV     R0,#?V0 + 0
        RET
        CFI EndBlock cfiCond396
        CFI EndBlock cfiCond397
        CFI EndBlock cfiPicker398

        RSEG BANK_RELAYS:CODE:REORDER:NOROOT(0)
??rbCapacity?relay:
        LCALL   ?BDISPATCH
        DATA
        DC24    rbCapacity

        RSEG BANK_RELAYS:CODE:REORDER:NOROOT(0)
??rbCanRead?relay:
        LCALL   ?BDISPATCH
        DATA
        DC24    rbCanRead

        RSEG BANK_RELAYS:CODE:REORDER:NOROOT(0)
??rbCanWrite?relay:
        LCALL   ?BDISPATCH
        DATA
        DC24    rbCanWrite

        RSEG BANK_RELAYS:CODE:REORDER:NOROOT(0)
??rbRead?relay:
        LCALL   ?BDISPATCH
        DATA
        DC24    rbRead

        RSEG BANK_RELAYS:CODE:REORDER:NOROOT(0)
??rbWrite?relay:
        LCALL   ?BDISPATCH
        DATA
        DC24    rbWrite

        RSEG BANK_RELAYS:CODE:REORDER:NOROOT(0)
??gizPutData?relay:
        LCALL   ?BDISPATCH
        DATA
        DC24    gizPutData

        RSEG BANK_RELAYS:CODE:REORDER:NOROOT(0)
??gizProtocolSum?relay:
        LCALL   ?BDISPATCH
        DATA
        DC24    gizProtocolSum

        RSEG BANK_RELAYS:CODE:REORDER:NOROOT(0)
??gizProtocolExchangeBytes?relay:
        LCALL   ?BDISPATCH
        DATA
        DC24    gizProtocolExchangeBytes

        RSEG BANK_RELAYS:CODE:REORDER:NOROOT(0)
??gizProtocolHeadInit?relay:
        LCALL   ?BDISPATCH
        DATA
        DC24    gizProtocolHeadInit

        RSEG BANK_RELAYS:CODE:REORDER:NOROOT(0)
??gizProtocolWaitAck?relay:
        LCALL   ?BDISPATCH
        DATA
        DC24    gizProtocolWaitAck

        RSEG BANK_RELAYS:CODE:REORDER:NOROOT(0)
??calculateDynamicBitPartLen?relay:
        LCALL   ?BDISPATCH
        DATA
        DC24    calculateDynamicBitPartLen

        RSEG BANK_RELAYS:CODE:REORDER:NOROOT(0)
??gizDataPoint2Event?relay:
        LCALL   ?BDISPATCH
        DATA
        DC24    gizDataPoint2Event

        RSEG BANK_RELAYS:CODE:REORDER:NOROOT(0)
??gizCheckReport?relay:
        LCALL   ?BDISPATCH
        DATA
        DC24    gizCheckReport

        RSEG BANK_RELAYS:CODE:REORDER:NOROOT(0)
??gizDataPoints2ReportData?relay:
        LCALL   ?BDISPATCH
        DATA
        DC24    gizDataPoints2ReportData

        RSEG BANK_RELAYS:CODE:REORDER:NOROOT(0)
??gizProtocolIssuedProcess?relay:
        LCALL   ?BDISPATCH
        DATA
        DC24    gizProtocolIssuedProcess

        RSEG BANK_RELAYS:CODE:REORDER:NOROOT(0)
??gizProtocolIssuedDataAck?relay:
        LCALL   ?BDISPATCH
        DATA
        DC24    gizProtocolIssuedDataAck

        RSEG BANK_RELAYS:CODE:REORDER:NOROOT(0)
??gizReportData?relay:
        LCALL   ?BDISPATCH
        DATA
        DC24    gizReportData

        RSEG BANK_RELAYS:CODE:REORDER:NOROOT(0)
??gizDevReportPolicy?relay:
        LCALL   ?BDISPATCH
        DATA
        DC24    gizDevReportPolicy

        RSEG BANK_RELAYS:CODE:REORDER:NOROOT(0)
??gizProtocolGetOnePacket?relay:
        LCALL   ?BDISPATCH
        DATA
        DC24    gizProtocolGetOnePacket

        RSEG BANK_RELAYS:CODE:REORDER:NOROOT(0)
??gizProtocolWaitAckCheck?relay:
        LCALL   ?BDISPATCH
        DATA
        DC24    gizProtocolWaitAckCheck

        RSEG BANK_RELAYS:CODE:REORDER:NOROOT(0)
??gizProtocolCommonAck?relay:
        LCALL   ?BDISPATCH
        DATA
        DC24    gizProtocolCommonAck

        RSEG BANK_RELAYS:CODE:REORDER:NOROOT(0)
??gizProtocolGetDeviceInfo?relay:
        LCALL   ?BDISPATCH
        DATA
        DC24    gizProtocolGetDeviceInfo

        RSEG BANK_RELAYS:CODE:REORDER:NOROOT(0)
??gizProtocolErrorCmd?relay:
        LCALL   ?BDISPATCH
        DATA
        DC24    gizProtocolErrorCmd

        RSEG BANK_RELAYS:CODE:REORDER:NOROOT(0)
??gizProtocolModuleStatus?relay:
        LCALL   ?BDISPATCH
        DATA
        DC24    gizProtocolModuleStatus

        RSEG BANK_RELAYS:CODE:REORDER:NOROOT(0)
??gizwitsInit?relay:
        LCALL   ?BDISPATCH
        DATA
        DC24    gizwitsInit

        RSEG BANK_RELAYS:CODE:REORDER:NOROOT(0)
??gizwitsSetMode?relay:
        LCALL   ?BDISPATCH
        DATA
        DC24    gizwitsSetMode

        RSEG BANK_RELAYS:CODE:REORDER:NOROOT(0)
??gizwitsGetNTP?relay:
        LCALL   ?BDISPATCH
        DATA
        DC24    gizwitsGetNTP

        RSEG BANK_RELAYS:CODE:REORDER:NOROOT(0)
??gizwitsHandle?relay:
        LCALL   ?BDISPATCH
        DATA
        DC24    gizwitsHandle

        RSEG BANK_RELAYS:CODE:REORDER:NOROOT(0)
??gizwitsPassthroughData?relay:
        LCALL   ?BDISPATCH
        DATA
        DC24    gizwitsPassthroughData

        RSEG XDATA_ROM_C:CONST:REORDER:NOROOT(0)
        DATA8
`?<Constant "00000004">`:
        DB "00000004"

        RSEG XDATA_ROM_C:CONST:REORDER:NOROOT(0)
        DATA8
`?<Constant "00000002">`:
        DB "00000002"

        RSEG XDATA_ROM_C:CONST:REORDER:NOROOT(0)
        DATA8
`?<Constant "03010101">`:
        DB "03010101"

        RSEG XDATA_ROM_C:CONST:REORDER:NOROOT(0)
        DATA8
`?<Constant "03010100">`:
        DB "03010100"

        RSEG XDATA_ROM_C:CONST:REORDER:NOROOT(0)
        DATA8
`?<Constant "5b3ad15cc49e41b08b7d5...">`:
        DB "5b3ad15cc49e41b08b7d5d1440ece31a"

        RSEG XDATA_ROM_C:CONST:REORDER:NOROOT(0)
        DATA8
`?<Constant "553f92879b014e4680b2f...">`:
        DB "553f92879b014e4680b2f8da6c2e1bd1"

        RSEG XDATA_ROM_C:CONST:REORDER:NOROOT(0)
        DATA32
__Constant_2:
        DD 2

        RSEG XDATA_ROM_C:CONST:REORDER:NOROOT(0)
        DATA32
__Constant_1:
        DD 1

        RSEG XDATA_ROM_C:CONST:REORDER:NOROOT(0)
        DATA32
__Constant_ffffffff:
        DD 4294967295

        RSEG XDATA_ROM_C:CONST:REORDER:NOROOT(0)
        DATA32
__Constant_15:
        DD 21

        RSEG XDATA_ROM_C:CONST:REORDER:NOROOT(0)
        DATA32
__Constant_0:
        DD 0

        RSEG XDATA_ROM_C:CONST:REORDER:NOROOT(0)
        DATA32
__Constant_fffffff6:
        DD 4294967286

        RSEG XDATA_ROM_C:CONST:REORDER:NOROOT(0)
        DATA32
__Constant_927c0:
        DD 600000

        RSEG XDATA_ROM_C:CONST:REORDER:NOROOT(0)
        DATA32
__Constant_9:
        DD 9

        RSEG XDATA_ROM_C:CONST:REORDER:NOROOT(0)
        DATA32
__Constant_73:
        DD 115

        RSEG XDATA_ROM_C:CONST:REORDER:NOROOT(0)
        DATA32
__Constant_a:
        DD 10

        RSEG XDATA_ROM_C:CONST:REORDER:NOROOT(0)
        DATA32
__Constant_7d1:
        DD 2001

        RSEG XDATA_ROM_C:CONST:REORDER:NOROOT(0)
        DATA32
__Constant_14:
        DD 20

        RSEG XDATA_ROM_C:CONST:REORDER:NOROOT(0)
        DATA32
__Constant_259:
        DD 601

        RSEG XDATA_ROM_C:CONST:REORDER:NOROOT(0)
        DATA32
__Constant_ff00:
        DD 65280

        RSEG XDATA_ROM_C:CONST:REORDER:NOROOT(0)
        DATA32
__Constant_b:
        DD 11

        END
// 1745 /**@} */
// 
// 7 720 bytes in segment BANKED_CODE
//   174 bytes in segment BANK_RELAYS
//   162 bytes in segment XDATA_ROM_C
//   327 bytes in segment XDATA_Z
// 
// 7 894 bytes of CODE  memory
//   102 bytes of CONST memory (+ 60 bytes shared)
//   327 bytes of XDATA memory
//
//Errors: none
//Warnings: 13
