###############################################################################
#                                                                             #
# IAR C/C++ Compiler V8.10.3.10338/W32 for 8051         06/Jun/2017  15:23:35 #
# Copyright 2004-2011 IAR Systems AB.                                         #
#                                                                             #
#    Core               =  plain                                              #
#    Code model         =  banked                                             #
#    Data model         =  large                                              #
#    Calling convention =  xdata reentrant                                    #
#    Constant location  =  data_rom                                           #
#    Dptr setup         =  1,16                                               #
#    Source file        =  E:\work\smartlight\ZigLight001\Projects\zstack\Sam #
#                          ples\ZigLightApp\Source\gizwits_protocol.c         #
#    Command line       =  -f E:\work\smartlight\ZigLight001\Projects\zstack\ #
#                          Samples\ZigLightApp\CC2530DB\..\..\..\Tools\CC2530 #
#                          DB\f8wRouter.cfg (-DCPU32MHZ -DROOT=__near_func    #
#                          -DMAC_CFG_APP_PENDING_QUEUE=TRUE                   #
#                          -DMAC_CFG_TX_DATA_MAX=5 -DMAC_CFG_TX_MAX=8         #
#                          -DMAC_CFG_RX_MAX=5 -DRTR_NWK) -f                   #
#                          E:\work\smartlight\ZigLight001\Projects\zstack\Sam #
#                          ples\ZigLightApp\CC2530DB\..\..\..\Tools\CC2530DB\ #
#                          f8wConfig.cfg (-DZIGBEEPRO -DSECURE=0              #
#                          -DZG_SECURE_DYNAMIC=0 -DREFLECTOR                  #
#                          -DDEFAULT_CHANLIST=0x00000800                      #
#                          -DZDAPP_CONFIG_PAN_ID=0xFF00                       #
#                          -DNWK_START_DELAY=100 -DEXTENDED_JOINING_RANDOM_MA #
#                          SK=0x007F -DBEACON_REQUEST_DELAY=100               #
#                          -DBEACON_REQ_DELAY_MASK=0x00FF                     #
#                          -DLINK_STATUS_JITTER_MASK=0x007F                   #
#                          -DROUTE_EXPIRY_TIME=30 -DAPSC_ACK_WAIT_DURATION_PO #
#                          LLED=3000 -DNWK_INDIRECT_MSG_TIMEOUT=7             #
#                          -DMAX_RREQ_ENTRIES=8 -DAPSC_MAX_FRAME_RETRIES=3    #
#                          -DNWK_MAX_DATA_RETRIES=2                           #
#                          -DMAX_POLL_FAILURE_RETRIES=2 -DMAX_BCAST=9         #
#                          -DAPS_MAX_GROUPS=16 -DMAX_RTG_ENTRIES=40           #
#                          -DNWK_MAX_BINDING_ENTRIES=4                        #
#                          -DMAX_BINDING_CLUSTER_IDS=4 "-DDEFAULT_KEY={0x01,  #
#                          0x03, 0x05, 0x07, 0x09, 0x0B, 0x0D, 0x0F, 0x00,    #
#                          0x02, 0x04, 0x06, 0x08, 0x0A, 0x0C, 0x0D}"         #
#                          -DMAC_MAX_FRAME_SIZE=116                           #
#                          -DZDNWKMGR_MIN_TRANSMISSIONS=20 "-DCONST=const     #
#                          __code" -DGENERIC=__generic                        #
#                          -DRFD_RCVC_ALWAYS_ON=FALSE -DPOLL_RATE=1000        #
#                          -DQUEUED_POLL_RATE=100 -DRESPONSE_POLL_RATE=100)   #
#                          -DREJOIN_POLL_RATE=440 E:\work\smartlight\ZigLight #
#                          001\Projects\zstack\Samples\ZigLightApp\Source\giz #
#                          wits_protocol.c -D ZTOOL_P1 -D MT_TASK -D          #
#                          MT_SYS_FUNC -D MT_ZDO_FUNC -D                      #
#                          xLCD_SUPPORTED=DEBUG -D MT_ZDO_MGMT -lC            #
#                          E:\work\smartlight\ZigLight001\Projects\zstack\Sam #
#                          ples\ZigLightApp\CC2530DB\RouterEB\List\ -lA       #
#                          E:\work\smartlight\ZigLight001\Projects\zstack\Sam #
#                          ples\ZigLightApp\CC2530DB\RouterEB\List\           #
#                          --diag_suppress Pe001,Pa010 -o                     #
#                          E:\work\smartlight\ZigLight001\Projects\zstack\Sam #
#                          ples\ZigLightApp\CC2530DB\RouterEB\Obj\ -e         #
#                          --no_code_motion --debug --core=plain --dptr=16,1  #
#                          --data_model=large --code_model=banked             #
#                          --calling_convention=xdata_reentrant               #
#                          --place_constants=data_rom --nr_virtual_regs 16    #
#                          -I E:\work\smartlight\ZigLight001\Projects\zstack\ #
#                          Samples\ZigLightApp\CC2530DB\ -I                   #
#                          E:\work\smartlight\ZigLight001\Projects\zstack\Sam #
#                          ples\ZigLightApp\CC2530DB\..\Source\ -I            #
#                          E:\work\smartlight\ZigLight001\Projects\zstack\Sam #
#                          ples\ZigLightApp\CC2530DB\..\..\..\ZMain\TI2530DB\ #
#                           -I E:\work\smartlight\ZigLight001\Projects\zstack #
#                          \Samples\ZigLightApp\CC2530DB\..\..\..\..\..\Compo #
#                          nents\hal\include\ -I E:\work\smartlight\ZigLight0 #
#                          01\Projects\zstack\Samples\ZigLightApp\CC2530DB\.. #
#                          \..\..\..\..\Components\hal\target\CC2530EB\ -I    #
#                          E:\work\smartlight\ZigLight001\Projects\zstack\Sam #
#                          ples\ZigLightApp\CC2530DB\..\..\..\..\..\Component #
#                          s\mac\include\ -I E:\work\smartlight\ZigLight001\P #
#                          rojects\zstack\Samples\ZigLightApp\CC2530DB\..\..\ #
#                          ..\..\..\Components\mac\high_level\ -I             #
#                          E:\work\smartlight\ZigLight001\Projects\zstack\Sam #
#                          ples\ZigLightApp\CC2530DB\..\..\..\..\..\Component #
#                          s\mac\low_level\srf04\ -I                          #
#                          E:\work\smartlight\ZigLight001\Projects\zstack\Sam #
#                          ples\ZigLightApp\CC2530DB\..\..\..\..\..\Component #
#                          s\mac\low_level\srf04\single_chip\ -I              #
#                          E:\work\smartlight\ZigLight001\Projects\zstack\Sam #
#                          ples\ZigLightApp\CC2530DB\..\..\..\..\..\Component #
#                          s\mt\ -I E:\work\smartlight\ZigLight001\Projects\z #
#                          stack\Samples\ZigLightApp\CC2530DB\..\..\..\..\..\ #
#                          Components\osal\include\ -I                        #
#                          E:\work\smartlight\ZigLight001\Projects\zstack\Sam #
#                          ples\ZigLightApp\CC2530DB\..\..\..\..\..\Component #
#                          s\services\saddr\ -I E:\work\smartlight\ZigLight00 #
#                          1\Projects\zstack\Samples\ZigLightApp\CC2530DB\..\ #
#                          ..\..\..\..\Components\services\sdata\ -I          #
#                          E:\work\smartlight\ZigLight001\Projects\zstack\Sam #
#                          ples\ZigLightApp\CC2530DB\..\..\..\..\..\Component #
#                          s\stack\af\ -I E:\work\smartlight\ZigLight001\Proj #
#                          ects\zstack\Samples\ZigLightApp\CC2530DB\..\..\..\ #
#                          ..\..\Components\stack\nwk\ -I                     #
#                          E:\work\smartlight\ZigLight001\Projects\zstack\Sam #
#                          ples\ZigLightApp\CC2530DB\..\..\..\..\..\Component #
#                          s\stack\sapi\ -I E:\work\smartlight\ZigLight001\Pr #
#                          ojects\zstack\Samples\ZigLightApp\CC2530DB\..\..\. #
#                          .\..\..\Components\stack\sec\ -I                   #
#                          E:\work\smartlight\ZigLight001\Projects\zstack\Sam #
#                          ples\ZigLightApp\CC2530DB\..\..\..\..\..\Component #
#                          s\stack\sys\ -I E:\work\smartlight\ZigLight001\Pro #
#                          jects\zstack\Samples\ZigLightApp\CC2530DB\..\..\.. #
#                          \..\..\Components\stack\zdo\ -I                    #
#                          E:\work\smartlight\ZigLight001\Projects\zstack\Sam #
#                          ples\ZigLightApp\CC2530DB\..\..\..\..\..\Component #
#                          s\zmac\ -I E:\work\smartlight\ZigLight001\Projects #
#                          \zstack\Samples\ZigLightApp\CC2530DB\..\..\..\..\. #
#                          .\Components\zmac\f8w\ -Ohz --require_prototypes   #
#    List file          =  E:\work\smartlight\ZigLight001\Projects\zstack\Sam #
#                          ples\ZigLightApp\CC2530DB\RouterEB\List\gizwits_pr #
#                          otocol.lst                                         #
#    Object file        =  E:\work\smartlight\ZigLight001\Projects\zstack\Sam #
#                          ples\ZigLightApp\CC2530DB\RouterEB\Obj\gizwits_pro #
#                          tocol.r51                                          #
#                                                                             #
#                                                                             #
###############################################################################

E:\work\smartlight\ZigLight001\Projects\zstack\Samples\ZigLightApp\Source\gizwits_protocol.c
      1          /**
      2          ************************************************************
      3          * @file         gizwits_protocol.c
      4          * @brief        GizwitsÂçèËÆÆÁõ∏ÂÖ≥Êñá‰ª∂ (SDK API Êé•Âè£ÂáΩÊï∞ÂÆö‰πâ)
      5          * @author       Gizwits
      6          * @date         2016-09-05
      7          * @version      V03010101
      8          * @copyright    Gizwits
      9          * 
     10          * @note         Êú∫Êô∫‰∫?Âè™‰∏∫Êô∫ËÉΩÁ°¨‰ª∂ËÄåÁîü
     11          *               Gizwits Smart Cloud  for Smart Products
     12          *               ÈìæÊé•|Â¢ûÂÄº÷µ|ÂºÄÊîæ|‰∏≠Á´ã|ÂÆâÂÖ®|Ëá™Êúâ|Ëá™Áî±|ÁîüÊÄ?*               www.gizwits.com
     13          *
     14          ***********************************************************/
     15          #include "gizwits_protocol.h"
     16          #include "List1.h"
     17          extern uint8 MacToAppFlag ;//by liu
     18          extern uint8 AutoUpateMac ;//by liu
     19          extern uint8 NewMacUpate;//by liu
     20          extern Node *nodelist;// by liu
     21          extern dataPoint_t currentDataPoint;// by liu
     22          extern Node *deletnodelist;// by liu
     23          extern uint32 gizGetTimerCount(void);
     24          extern int8 gizwitsEventProcess(eventInfo_t *info, uint8 *data, uint32 len);
     25          uint32 ICACHE_FLASH_ATTR calculateDynamicBitPartLen(dataPointFlags_t *aFlag);
     26          /** ÂçèËÆÆÂÖ®Â±ÄÂèòÈáè **/

   \                                 In  segment XDATA_Z, align 1, keep-with-next
     27          gizwitsProtocol_t gizwitsProtocol;
   \                     gizwitsProtocol:
   \   000000                DS 246
   \   0000F6                REQUIRE __INIT_XDATA_Z
     28          
     29          /**@name ‰∏≤Âè£Êé•Êî∂ÁéØÂΩ¢ÁºìÂÜ≤Âå∫ÂÆûÁé?* @{
     30          */

   \                                 In  segment XDATA_Z, align 1, keep-with-next
     31          rb_t pRb;                                               ///< ÁéØÂΩ¢ÁºìÂÜ≤Âå∫ÁªìÊûÑ‰ΩìÂèòÈáè
   \                     pRb:
   \   000000                DS 8
   \   000008                REQUIRE __INIT_XDATA_Z

   \                                 In  segment XDATA_Z, align 1, keep-with-next
     32          static uint8 rbBuf[RB_MAX_LEN];                       ///< ÁéØÂΩ¢ÁºìÂÜ≤Âå∫Êï∞ÊçÆÁºìÂ≠òÂå∫
   \                     rbBuf:
   \   000000                DS 62
   \   00003E                REQUIRE __INIT_XDATA_Z
     33          
     34          static void rbCreate(rb_t* rb)
     35          {
     36              if(NULL == rb)
     37              {
     38                  GIZWITS_LOG("ERROR: input rb is NULL\n");
     39                  return;
     40              }
     41          
     42              rb->rbHead = rb->rbBuff;
     43              rb->rbTail = rb->rbBuff;
     44          }
     45          
     46          static void rbDelete(rb_t* rb)
     47          {
     48              if(NULL == rb)
     49              {
     50                  GIZWITS_LOG("ERROR: input rb is NULL\n");
     51                  return;
     52              }
     53          
     54              rb->rbBuff = NULL;
     55              rb->rbHead = NULL;
     56              rb->rbTail = NULL;
     57              rb->rbCapacity = 0;
     58          }
     59          #pragma optimize=none

   \                                 In  segment BANKED_CODE, align 1, keep-with-next
     60          static int32 rbCapacity(rb_t *rb)
   \                     rbCapacity:
     61          {
   \   000000   74F6         MOV     A,#-0xa
   \   000002   12....       LCALL   ?BANKED_ENTER_XDATA
   \   000005                ; Saved register size: 10
   \   000005                ; Auto size: 0
   \   000005   8A82         MOV     DPL,R2
   \   000007   8B83         MOV     DPH,R3
     62              if(NULL == rb)
   \   000009   E582         MOV     A,DPL
   \   00000B   4583         ORL     A,DPH
   \   00000D   700A         JNZ     ??rbCapacity_0
     63              {
     64                  GIZWITS_LOG("ERROR: input rb is NULL\n");
     65                  return -1;
   \   00000F   7AFF         MOV     R2,#-0x1
   \   000011   7BFF         MOV     R3,#-0x1
   \   000013   7CFF         MOV     R4,#-0x1
   \   000015   7DFF         MOV     R5,#-0x1
   \   000017   800E         SJMP    ??rbCapacity_1
     66              }
     67          
     68              return rb->rbCapacity;
   \                     ??rbCapacity_0:
   \   000019   E0           MOVX    A,@DPTR
   \   00001A   F5..         MOV     ?V0 + 0,A
   \   00001C   A3           INC     DPTR
   \   00001D   E0           MOVX    A,@DPTR
   \   00001E   F5..         MOV     ?V0 + 1,A
   \   000020   AA..         MOV     R2,?V0 + 0
   \   000022   AB..         MOV     R3,?V0 + 1
   \   000024   E4           CLR     A
   \   000025   FC           MOV     R4,A
   \   000026   FD           MOV     R5,A
   \                     ??rbCapacity_1:
   \   000027   7F02         MOV     R7,#0x2
   \   000029   02....       LJMP    ?BANKED_LEAVE_XDATA
     69          }
     70          #pragma optimize=none

   \                                 In  segment BANKED_CODE, align 1, keep-with-next
     71          static int32 rbCanRead(rb_t *rb)
   \                     rbCanRead:
     72          {
   \   000000   74F0         MOV     A,#-0x10
   \   000002   12....       LCALL   ?BANKED_ENTER_XDATA
   \   000005                ; Saved register size: 16
   \   000005                ; Auto size: 0
   \   000005   EA           MOV     A,R2
   \   000006   FE           MOV     R6,A
   \   000007   EB           MOV     A,R3
   \   000008   FF           MOV     R7,A
     73              if(NULL == rb)
   \   000009   EE           MOV     A,R6
   \   00000A   4F           ORL     A,R7
   \   00000B   700B         JNZ     ??rbCanRead_0
     74              {
     75                  GIZWITS_LOG("ERROR: input rb is NULL\n");
     76                  return -1;
   \   00000D   7AFF         MOV     R2,#-0x1
   \   00000F   7BFF         MOV     R3,#-0x1
   \   000011   7CFF         MOV     R4,#-0x1
   \   000013   7DFF         MOV     R5,#-0x1
   \   000015   02....       LJMP    ??rbCanRead_1 & 0xFFFF
     77              }
     78          
     79              if (rb->rbHead == rb->rbTail)
   \                     ??rbCanRead_0:
   \   000018   8E82         MOV     DPL,R6
   \   00001A   8F83         MOV     DPH,R7
   \   00001C   A3           INC     DPTR
   \   00001D   A3           INC     DPTR
   \   00001E   E0           MOVX    A,@DPTR
   \   00001F   F8           MOV     R0,A
   \   000020   A3           INC     DPTR
   \   000021   E0           MOVX    A,@DPTR
   \   000022   F9           MOV     R1,A
   \   000023   8E82         MOV     DPL,R6
   \   000025   8F83         MOV     DPH,R7
   \   000027   A3           INC     DPTR
   \   000028   A3           INC     DPTR
   \   000029   A3           INC     DPTR
   \   00002A   A3           INC     DPTR
   \   00002B   E0           MOVX    A,@DPTR
   \   00002C   68           XRL     A,R0
   \   00002D   7003         JNZ     ??rbCanRead_2
   \   00002F   A3           INC     DPTR
   \   000030   E0           MOVX    A,@DPTR
   \   000031   69           XRL     A,R1
   \                     ??rbCanRead_2:
   \   000032   700B         JNZ     ??rbCanRead_3
     80              {
     81                  return 0;
   \   000034   7A00         MOV     R2,#0x0
   \   000036   7B00         MOV     R3,#0x0
   \   000038   7C00         MOV     R4,#0x0
   \   00003A   7D00         MOV     R5,#0x0
   \   00003C   02....       LJMP    ??rbCanRead_1 & 0xFFFF
     82              }
     83          
     84              if (rb->rbHead < rb->rbTail)
   \                     ??rbCanRead_3:
   \   00003F   8E82         MOV     DPL,R6
   \   000041   8F83         MOV     DPH,R7
   \   000043   A3           INC     DPTR
   \   000044   A3           INC     DPTR
   \   000045   C082         PUSH    DPL
   \   000047   C083         PUSH    DPH
   \   000049   8E82         MOV     DPL,R6
   \   00004B   8F83         MOV     DPH,R7
   \   00004D   A3           INC     DPTR
   \   00004E   A3           INC     DPTR
   \   00004F   A3           INC     DPTR
   \   000050   A3           INC     DPTR
   \   000051   E0           MOVX    A,@DPTR
   \   000052   F8           MOV     R0,A
   \   000053   A3           INC     DPTR
   \   000054   E0           MOVX    A,@DPTR
   \   000055   F9           MOV     R1,A
   \   000056   D083         POP     DPH
   \   000058   D082         POP     DPL
   \   00005A   C3           CLR     C
   \   00005B   E0           MOVX    A,@DPTR
   \   00005C   98           SUBB    A,R0
   \   00005D   A3           INC     DPTR
   \   00005E   E0           MOVX    A,@DPTR
   \   00005F   99           SUBB    A,R1
   \   000060   502B         JNC     ??rbCanRead_4
     85              {
     86                  return rb->rbTail - rb->rbHead;
   \   000062   8E82         MOV     DPL,R6
   \   000064   8F83         MOV     DPH,R7
   \   000066   A3           INC     DPTR
   \   000067   A3           INC     DPTR
   \   000068   A3           INC     DPTR
   \   000069   A3           INC     DPTR
   \   00006A   C082         PUSH    DPL
   \   00006C   C083         PUSH    DPH
   \   00006E   8E82         MOV     DPL,R6
   \   000070   8F83         MOV     DPH,R7
   \   000072   A3           INC     DPTR
   \   000073   A3           INC     DPTR
   \   000074   E0           MOVX    A,@DPTR
   \   000075   F8           MOV     R0,A
   \   000076   A3           INC     DPTR
   \   000077   E0           MOVX    A,@DPTR
   \   000078   F9           MOV     R1,A
   \   000079   D083         POP     DPH
   \   00007B   D082         POP     DPL
   \   00007D   E0           MOVX    A,@DPTR
   \   00007E   C3           CLR     C
   \   00007F   98           SUBB    A,R0
   \   000080   FA           MOV     R2,A
   \   000081   A3           INC     DPTR
   \   000082   E0           MOVX    A,@DPTR
   \   000083   99           SUBB    A,R1
   \   000084   FB           MOV     R3,A
   \   000085   EB           MOV     A,R3
   \   000086   33           RLC     A
   \   000087   95E0         SUBB    A,0xE0 /* A   */
   \   000089   FC           MOV     R4,A
   \   00008A   FD           MOV     R5,A
   \   00008B   804C         SJMP    ??rbCanRead_1
     87              }
     88          
     89              return rbCapacity(rb) - (rb->rbHead - rb->rbTail);
   \                     ??rbCanRead_4:
   \   00008D                ; Setup parameters for call to function rbCapacity
   \   00008D   EE           MOV     A,R6
   \   00008E   FA           MOV     R2,A
   \   00008F   EF           MOV     A,R7
   \   000090   FB           MOV     R3,A
   \   000091   12....       LCALL   ??rbCapacity?relay
   \   000094   8A..         MOV     ?V0 + 4,R2
   \   000096   8B..         MOV     ?V0 + 5,R3
   \   000098   8C..         MOV     ?V0 + 6,R4
   \   00009A   8D..         MOV     ?V0 + 7,R5
   \   00009C   8E82         MOV     DPL,R6
   \   00009E   8F83         MOV     DPH,R7
   \   0000A0   A3           INC     DPTR
   \   0000A1   A3           INC     DPTR
   \   0000A2   C082         PUSH    DPL
   \   0000A4   C083         PUSH    DPH
   \   0000A6   8E82         MOV     DPL,R6
   \   0000A8   8F83         MOV     DPH,R7
   \   0000AA   A3           INC     DPTR
   \   0000AB   A3           INC     DPTR
   \   0000AC   A3           INC     DPTR
   \   0000AD   A3           INC     DPTR
   \   0000AE   E0           MOVX    A,@DPTR
   \   0000AF   F8           MOV     R0,A
   \   0000B0   A3           INC     DPTR
   \   0000B1   E0           MOVX    A,@DPTR
   \   0000B2   F9           MOV     R1,A
   \   0000B3   D083         POP     DPH
   \   0000B5   D082         POP     DPL
   \   0000B7   E0           MOVX    A,@DPTR
   \   0000B8   C3           CLR     C
   \   0000B9   98           SUBB    A,R0
   \   0000BA   F5..         MOV     ?V0 + 0,A
   \   0000BC   A3           INC     DPTR
   \   0000BD   E0           MOVX    A,@DPTR
   \   0000BE   99           SUBB    A,R1
   \   0000BF   F5..         MOV     ?V0 + 1,A
   \   0000C1   E5..         MOV     A,?V0 + 1
   \   0000C3   33           RLC     A
   \   0000C4   95E0         SUBB    A,0xE0 /* A   */
   \   0000C6   F5..         MOV     ?V0 + 2,A
   \   0000C8   F5..         MOV     ?V0 + 3,A
   \   0000CA   78..         MOV     R0,#?V0 + 4
   \   0000CC   79..         MOV     R1,#?V0 + 0
   \   0000CE   12....       LCALL   ?L_SUB
   \   0000D1   AA..         MOV     R2,?V0 + 4
   \   0000D3   AB..         MOV     R3,?V0 + 5
   \   0000D5   AC..         MOV     R4,?V0 + 6
   \   0000D7   AD..         MOV     R5,?V0 + 7
   \                     ??rbCanRead_1:
   \   0000D9   7F08         MOV     R7,#0x8
   \   0000DB   02....       LJMP    ?BANKED_LEAVE_XDATA
     90          }
     91          #pragma optimize=none

   \                                 In  segment BANKED_CODE, align 1, keep-with-next
     92          static int32 rbCanWrite(rb_t *rb)
   \                     rbCanWrite:
     93          {
   \   000000   74F0         MOV     A,#-0x10
   \   000002   12....       LCALL   ?BANKED_ENTER_XDATA
   \   000005                ; Saved register size: 16
   \   000005                ; Auto size: 0
   \   000005   EA           MOV     A,R2
   \   000006   FE           MOV     R6,A
   \   000007   EB           MOV     A,R3
   \   000008   FF           MOV     R7,A
     94              if(NULL == rb)
   \   000009   EE           MOV     A,R6
   \   00000A   4F           ORL     A,R7
   \   00000B   700A         JNZ     ??rbCanWrite_0
     95              {
     96                  GIZWITS_LOG("ERROR: input rb is NULL\n");
     97                  return -1;
   \   00000D   7AFF         MOV     R2,#-0x1
   \   00000F   7BFF         MOV     R3,#-0x1
   \   000011   7CFF         MOV     R4,#-0x1
   \   000013   7DFF         MOV     R5,#-0x1
   \   000015   802D         SJMP    ??rbCanWrite_1
     98              }
     99          
    100              return rbCapacity(rb) - rbCanRead(rb);
   \                     ??rbCanWrite_0:
   \   000017                ; Setup parameters for call to function rbCapacity
   \   000017   EE           MOV     A,R6
   \   000018   FA           MOV     R2,A
   \   000019   EF           MOV     A,R7
   \   00001A   FB           MOV     R3,A
   \   00001B   12....       LCALL   ??rbCapacity?relay
   \   00001E   8A..         MOV     ?V0 + 0,R2
   \   000020   8B..         MOV     ?V0 + 1,R3
   \   000022   8C..         MOV     ?V0 + 2,R4
   \   000024   8D..         MOV     ?V0 + 3,R5
   \   000026                ; Setup parameters for call to function rbCanRead
   \   000026   EE           MOV     A,R6
   \   000027   FA           MOV     R2,A
   \   000028   EF           MOV     A,R7
   \   000029   FB           MOV     R3,A
   \   00002A   12....       LCALL   ??rbCanRead?relay
   \   00002D   8A..         MOV     ?V0 + 4,R2
   \   00002F   8B..         MOV     ?V0 + 5,R3
   \   000031   8C..         MOV     ?V0 + 6,R4
   \   000033   8D..         MOV     ?V0 + 7,R5
   \   000035   78..         MOV     R0,#?V0 + 0
   \   000037   79..         MOV     R1,#?V0 + 4
   \   000039   12....       LCALL   ?L_SUB
   \   00003C   AA..         MOV     R2,?V0 + 0
   \   00003E   AB..         MOV     R3,?V0 + 1
   \   000040   AC..         MOV     R4,?V0 + 2
   \   000042   AD..         MOV     R5,?V0 + 3
   \                     ??rbCanWrite_1:
   \   000044   7F08         MOV     R7,#0x8
   \   000046   02....       LJMP    ?BANKED_LEAVE_XDATA
    101          }
    102          

   \                                 In  segment BANKED_CODE, align 1, keep-with-next
    103          static int32 rbRead(rb_t *rb, void *data, uint16 count)
   \                     rbRead:
    104          {
   \   000000   74E8         MOV     A,#-0x18
   \   000002   12....       LCALL   ?BANKED_ENTER_XDATA
   \   000005                ; Saved register size: 24
   \   000005                ; Auto size: 4
   \   000005   74FC         MOV     A,#-0x4
   \   000007   12....       LCALL   ?ALLOC_XSTACK8
   \   00000A   85..82       MOV     DPL,?XSP + 0
   \   00000D   85..83       MOV     DPH,?XSP + 1
   \   000010   12....       LCALL   ?Subroutine12 & 0xFFFF
   \                     ??CrossCallReturnLabel_124:
   \   000013   7402         MOV     A,#0x2
   \   000015   12....       LCALL   ?XSTACK_DISP0_8
   \   000018   EC           MOV     A,R4
   \   000019   F0           MOVX    @DPTR,A
   \   00001A   A3           INC     DPTR
   \   00001B   ED           MOV     A,R5
   \   00001C   F0           MOVX    @DPTR,A
   \   00001D   741C         MOV     A,#0x1c
   \   00001F   12....       LCALL   ?XSTACK_DISP0_8
   \   000022   12....       LCALL   ?Subroutine56 & 0xFFFF
    105              int copySz = 0;
    106          
    107              if(NULL == rb)
   \                     ??CrossCallReturnLabel_87:
   \   000025   85..82       MOV     DPL,?XSP + 0
   \   000028   85..83       MOV     DPH,?XSP + 1
   \   00002B   12....       LCALL   ??Subroutine73_0 & 0xFFFF
   \                     ??CrossCallReturnLabel_185:
   \   00002E   700B         JNZ     ??rbRead_0
    108              {
    109                  GIZWITS_LOG("ERROR: input rb is NULL\n");
    110                  return -1;
   \                     ??rbRead_1:
   \   000030   7AFF         MOV     R2,#-0x1
   \   000032   7BFF         MOV     R3,#-0x1
   \   000034   7CFF         MOV     R4,#-0x1
   \   000036   7DFF         MOV     R5,#-0x1
   \   000038   02....       LJMP    ??rbRead_2 & 0xFFFF
    111              }
    112          
    113              if(NULL == data)
   \                     ??rbRead_0:
   \   00003B   7402         MOV     A,#0x2
   \   00003D   12....       LCALL   ?XSTACK_DISP0_8
   \   000040   12....       LCALL   ??Subroutine73_0 & 0xFFFF
   \                     ??CrossCallReturnLabel_186:
   \   000043   60EB         JZ      ??rbRead_1
    114              {
    115                  GIZWITS_LOG("ERROR: input data is NULL\n");
    116                  return -1;
    117              }
    118          
    119              if (rb->rbHead < rb->rbTail)
   \   000045   12....       LCALL   ?Subroutine33 & 0xFFFF
   \                     ??CrossCallReturnLabel_53:
   \   000048   C082         PUSH    DPL
   \   00004A   C083         PUSH    DPH
   \   00004C   F583         MOV     DPH,A
   \   00004E   8882         MOV     DPL,R0
   \   000050   12....       LCALL   ?Subroutine39 & 0xFFFF
   \                     ??CrossCallReturnLabel_175:
   \   000053   D083         POP     DPH
   \   000055   D082         POP     DPL
   \   000057   C3           CLR     C
   \   000058   E0           MOVX    A,@DPTR
   \   000059   98           SUBB    A,R0
   \   00005A   A3           INC     DPTR
   \   00005B   E0           MOVX    A,@DPTR
   \   00005C   99           SUBB    A,R1
   \   00005D   5060         JNC     ??rbRead_3
    120              {
    121                  copySz = min(count, rbCanRead(rb));
   \   00005F   85....       MOV     ?V0 + 4,?V0 + 0
   \   000062   85....       MOV     ?V0 + 5,?V0 + 1
   \   000065   E4           CLR     A
   \   000066   F5..         MOV     ?V0 + 6,A
   \   000068   F5..         MOV     ?V0 + 7,A
   \   00006A                ; Setup parameters for call to function rbCanRead
   \   00006A   12....       LCALL   ?Subroutine35 & 0xFFFF
   \                     ??CrossCallReturnLabel_57:
   \   00006D   8A..         MOV     ?V0 + 8,R2
   \   00006F   8B..         MOV     ?V0 + 9,R3
   \   000071   8C..         MOV     ?V0 + 10,R4
   \   000073   8D..         MOV     ?V0 + 11,R5
   \   000075   78..         MOV     R0,#?V0 + 8
   \   000077   79..         MOV     R1,#?V0 + 4
   \   000079   12....       LCALL   ?SL_GT
   \   00007C   4007         JC      ??rbRead_4
   \   00007E                ; Setup parameters for call to function rbCanRead
   \   00007E   12....       LCALL   ?Subroutine35 & 0xFFFF
   \                     ??CrossCallReturnLabel_58:
   \   000081   8A..         MOV     ?V0 + 0,R2
   \   000083   8B..         MOV     ?V0 + 1,R3
   \                     ??rbRead_4:
   \   000085   AE..         MOV     R6,?V0 + 0
   \   000087   AF..         MOV     R7,?V0 + 1
    122                  osal_memcpy(data, rb->rbHead, copySz);
   \   000089   12....       LCALL   ?Subroutine27 & 0xFFFF
   \                     ??CrossCallReturnLabel_38:
   \   00008C   F5..         MOV     ?V0 + 0,A
   \   00008E   A3           INC     DPTR
   \   00008F   E0           MOVX    A,@DPTR
   \   000090   85....       MOV     ?V0 + 4,?V0 + 0
   \   000093   F5..         MOV     ?V0 + 5,A
   \   000095   78..         MOV     R0,#?V0 + 4
   \   000097   12....       LCALL   ?PUSH_XSTACK_I_THREE
   \   00009A   EE           MOV     A,R6
   \   00009B   FC           MOV     R4,A
   \   00009C   EF           MOV     A,R7
   \   00009D   FD           MOV     R5,A
   \   00009E   7405         MOV     A,#0x5
   \   0000A0   12....       LCALL   ?XSTACK_DISP0_8
   \   0000A3   12....       LCALL   ?Subroutine34 & 0xFFFF
   \                     ??CrossCallReturnLabel_55:
   \   0000A6   12....       LCALL   ?DEALLOC_XSTACK8
    123                  rb->rbHead += copySz;
   \   0000A9   85..82       MOV     DPL,?V0 + 2
   \   0000AC   85..83       MOV     DPH,?V0 + 3
   \   0000AF   E0           MOVX    A,@DPTR
   \   0000B0   2E           ADD     A,R6
   \   0000B1   F8           MOV     R0,A
   \   0000B2   A3           INC     DPTR
   \   0000B3   E0           MOVX    A,@DPTR
   \   0000B4   3F           ADDC    A,R7
   \   0000B5   F9           MOV     R1,A
   \   0000B6   12....       LCALL   ?Subroutine60 & 0xFFFF
    124                  return copySz;
   \                     ??CrossCallReturnLabel_195:
   \   0000B9   EE           MOV     A,R6
   \   0000BA   FA           MOV     R2,A
   \   0000BB   EF           MOV     A,R7
   \   0000BC   02....       LJMP    ??rbRead_5 & 0xFFFF
    125              }
    126              else
    127              {
    128                  if (count < rbCapacity(rb)-(rb->rbHead - rb->rbBuff))
   \                     ??rbRead_3:
   \   0000BF                ; Setup parameters for call to function rbCapacity
   \   0000BF   12....       LCALL   ?Subroutine36 & 0xFFFF
   \                     ??CrossCallReturnLabel_59:
   \   0000C2   8A..         MOV     ?V0 + 12,R2
   \   0000C4   8B..         MOV     ?V0 + 13,R3
   \   0000C6   8C..         MOV     ?V0 + 14,R4
   \   0000C8   8D..         MOV     ?V0 + 15,R5
   \   0000CA   85....       MOV     ?V0 + 4,?V0 + 0
   \   0000CD   85....       MOV     ?V0 + 5,?V0 + 1
   \   0000D0   E4           CLR     A
   \   0000D1   F5..         MOV     ?V0 + 6,A
   \   0000D3   F5..         MOV     ?V0 + 7,A
   \   0000D5   12....       LCALL   ?Subroutine33 & 0xFFFF
   \                     ??CrossCallReturnLabel_54:
   \   0000D8   C082         PUSH    DPL
   \   0000DA   C083         PUSH    DPH
   \   0000DC   F583         MOV     DPH,A
   \   0000DE   8882         MOV     DPL,R0
   \   0000E0   A3           INC     DPTR
   \   0000E1   A3           INC     DPTR
   \   0000E2   12....       LCALL   ?Subroutine39 & 0xFFFF
   \                     ??CrossCallReturnLabel_176:
   \   0000E5   D083         POP     DPH
   \   0000E7   D082         POP     DPL
   \   0000E9   E0           MOVX    A,@DPTR
   \   0000EA   C3           CLR     C
   \   0000EB   98           SUBB    A,R0
   \   0000EC   F5..         MOV     ?V0 + 8,A
   \   0000EE   A3           INC     DPTR
   \   0000EF   E0           MOVX    A,@DPTR
   \   0000F0   99           SUBB    A,R1
   \   0000F1   F5..         MOV     ?V0 + 9,A
   \   0000F3   33           RLC     A
   \   0000F4   95E0         SUBB    A,0xE0 /* A   */
   \   0000F6   F5..         MOV     ?V0 + 10,A
   \   0000F8   F5..         MOV     ?V0 + 11,A
   \   0000FA   78..         MOV     R0,#?V0 + 12
   \   0000FC   79..         MOV     R1,#?V0 + 8
   \   0000FE   12....       LCALL   ?L_SUB
   \   000101   78..         MOV     R0,#?V0 + 12
   \   000103   79..         MOV     R1,#?V0 + 4
   \   000105   12....       LCALL   ?SL_GT
   \   000108   5003         JNC     $+5
   \   00010A   02....       LJMP    ??rbRead_4 & 0xFFFF
    129                  {
    130                      copySz = count;
    131                      osal_memcpy(data, rb->rbHead, copySz);
    132                      rb->rbHead += copySz;
    133                      return copySz;
    134                  }
    135                  else
    136                  {
    137                      copySz = rbCapacity(rb) - (rb->rbHead - rb->rbBuff);
   \   00010D                ; Setup parameters for call to function rbCapacity
   \   00010D   12....       LCALL   ?Subroutine36 & 0xFFFF
   \                     ??CrossCallReturnLabel_60:
   \   000110   8A..         MOV     ?V0 + 4,R2
   \   000112   8B..         MOV     ?V0 + 5,R3
   \   000114   12....       LCALL   ?Subroutine27 & 0xFFFF
   \                     ??CrossCallReturnLabel_39:
   \   000117   F8           MOV     R0,A
   \   000118   A3           INC     DPTR
   \   000119   E0           MOVX    A,@DPTR
   \   00011A   F9           MOV     R1,A
   \   00011B   85..82       MOV     DPL,?XSP + 0
   \   00011E   85..83       MOV     DPH,?XSP + 1
   \   000121   E0           MOVX    A,@DPTR
   \   000122   2406         ADD     A,#0x6
   \   000124   F5..         MOV     ?V0 + 8,A
   \   000126   A3           INC     DPTR
   \   000127   E0           MOVX    A,@DPTR
   \   000128   3400         ADDC    A,#0x0
   \   00012A   F5..         MOV     ?V0 + 9,A
   \   00012C   85..82       MOV     DPL,?V0 + 8
   \   00012F   F583         MOV     DPH,A
   \   000131   12....       LCALL   ??Subroutine72_0 & 0xFFFF
   \                     ??CrossCallReturnLabel_177:
   \   000134   E8           MOV     A,R0
   \   000135   C3           CLR     C
   \   000136   9A           SUBB    A,R2
   \   000137   FA           MOV     R2,A
   \   000138   E9           MOV     A,R1
   \   000139   9B           SUBB    A,R3
   \   00013A   FB           MOV     R3,A
   \   00013B   E5..         MOV     A,?V0 + 4
   \   00013D   C3           CLR     C
   \   00013E   9A           SUBB    A,R2
   \   00013F   FE           MOV     R6,A
   \   000140   E5..         MOV     A,?V0 + 5
   \   000142   9B           SUBB    A,R3
   \   000143   FF           MOV     R7,A
    138                      osal_memcpy(data, rb->rbHead, copySz);
   \   000144                ; Setup parameters for call to function osal_memcpy
   \   000144   88..         MOV     ?V0 + 4,R0
   \   000146   89..         MOV     ?V0 + 5,R1
   \   000148   78..         MOV     R0,#?V0 + 4
   \   00014A   12....       LCALL   ?PUSH_XSTACK_I_THREE
   \   00014D   EE           MOV     A,R6
   \   00014E   FC           MOV     R4,A
   \   00014F   EF           MOV     A,R7
   \   000150   FD           MOV     R5,A
   \   000151   7405         MOV     A,#0x5
   \   000153   12....       LCALL   ?XSTACK_DISP0_8
   \   000156   12....       LCALL   ?Subroutine34 & 0xFFFF
   \                     ??CrossCallReturnLabel_56:
   \   000159   12....       LCALL   ?DEALLOC_XSTACK8
    139                      rb->rbHead = rb->rbBuff;
   \   00015C   85..82       MOV     DPL,?V0 + 8
   \   00015F   85..83       MOV     DPH,?V0 + 9
   \   000162   12....       LCALL   ??Subroutine71_0 & 0xFFFF
   \                     ??CrossCallReturnLabel_172:
   \   000165   12....       LCALL   ?Subroutine60 & 0xFFFF
    140                      copySz += rbRead(rb, (char*)data+copySz, count-copySz);
    141                      return copySz;
   \                     ??CrossCallReturnLabel_196:
   \   000168                ; Setup parameters for call to function rbRead
   \   000168   E5..         MOV     A,?V0 + 0
   \   00016A   C3           CLR     C
   \   00016B   9E           SUBB    A,R6
   \   00016C   F5..         MOV     ?V0 + 0,A
   \   00016E   E5..         MOV     A,?V0 + 1
   \   000170   9F           SUBB    A,R7
   \   000171   F5..         MOV     ?V0 + 1,A
   \   000173   78..         MOV     R0,#?V0 + 0
   \   000175   12....       LCALL   ?PUSH_XSTACK_I_TWO
   \   000178   7404         MOV     A,#0x4
   \   00017A   12....       LCALL   ?XSTACK_DISP0_8
   \   00017D   E0           MOVX    A,@DPTR
   \   00017E   2E           ADD     A,R6
   \   00017F   FC           MOV     R4,A
   \   000180   A3           INC     DPTR
   \   000181   E0           MOVX    A,@DPTR
   \   000182   3F           ADDC    A,R7
   \   000183   FD           MOV     R5,A
   \   000184   7402         MOV     A,#0x2
   \   000186   12....       LCALL   ?XSTACK_DISP0_8
   \   000189   12....       LCALL   ??Subroutine72_0 & 0xFFFF
    142                  }
    143              }
   \                     ??CrossCallReturnLabel_178:
   \   00018C   12....       LCALL   ??rbRead?relay
   \   00018F   7402         MOV     A,#0x2
   \   000191   12....       LCALL   ?DEALLOC_XSTACK8
   \   000194   8A..         MOV     ?V0 + 0,R2
   \   000196   8B..         MOV     ?V0 + 1,R3
   \   000198   EE           MOV     A,R6
   \   000199   25..         ADD     A,?V0 + 0
   \   00019B   FA           MOV     R2,A
   \   00019C   EF           MOV     A,R7
   \   00019D   35..         ADDC    A,?V0 + 1
   \                     ??rbRead_5:
   \   00019F   FB           MOV     R3,A
   \   0001A0   33           RLC     A
   \   0001A1   95E0         SUBB    A,0xE0 /* A   */
   \   0001A3   FC           MOV     R4,A
   \   0001A4   FD           MOV     R5,A
   \                     ??rbRead_2:
   \   0001A5   7404         MOV     A,#0x4
   \   0001A7                REQUIRE ?Subroutine0
   \   0001A7                ; // Fall through to label ?Subroutine0
    144          }

   \                                 In  segment BANKED_CODE, align 1, keep-with-next
   \                     ?Subroutine0:
   \   000000   12....       LCALL   ?DEALLOC_XSTACK8
   \   000003   7F10         MOV     R7,#0x10
   \   000005   02....       LJMP    ?BANKED_LEAVE_XDATA

   \                                 In  segment BANKED_CODE, align 1, keep-with-next
   \                     ?Subroutine36:
   \   000000   12....       LCALL   ?Subroutine55 & 0xFFFF
   \                     ??CrossCallReturnLabel_184:
   \   000003   12....       LCALL   ??rbCapacity?relay
   \   000006   22           RET

   \                                 In  segment BANKED_CODE, align 1, keep-with-next
   \                     ?Subroutine35:
   \   000000   12....       LCALL   ?Subroutine55 & 0xFFFF
   \                     ??CrossCallReturnLabel_183:
   \   000003   12....       LCALL   ??rbCanRead?relay
   \   000006   22           RET

   \                                 In  segment BANKED_CODE, align 1, keep-with-next
   \                     ?Subroutine34:
   \   000000   12....       LCALL   ??Subroutine72_0 & 0xFFFF
   \                     ??CrossCallReturnLabel_180:
   \   000003   12....       LCALL   ??osal_memcpy?relay
   \   000006   7403         MOV     A,#0x3
   \   000008   22           RET

   \                                 In  segment BANKED_CODE, align 1, keep-with-next
   \                     ?Subroutine33:
   \   000000   85..82       MOV     DPL,?XSP + 0
   \   000003   85..83       MOV     DPH,?XSP + 1
   \   000006   E0           MOVX    A,@DPTR
   \   000007   F8           MOV     R0,A
   \   000008   A3           INC     DPTR
   \   000009   E0           MOVX    A,@DPTR
   \   00000A   F583         MOV     DPH,A
   \   00000C   8882         MOV     DPL,R0
   \   00000E   A3           INC     DPTR
   \   00000F   A3           INC     DPTR
   \   000010   22           RET

   \                                 In  segment BANKED_CODE, align 1, keep-with-next
   \                     ?Subroutine27:
   \   000000   85..82       MOV     DPL,?XSP + 0
   \   000003   85..83       MOV     DPH,?XSP + 1
   \   000006   E0           MOVX    A,@DPTR
   \   000007   2402         ADD     A,#0x2
   \   000009   F5..         MOV     ?V0 + 2,A
   \   00000B   A3           INC     DPTR
   \   00000C   E0           MOVX    A,@DPTR
   \   00000D   3400         ADDC    A,#0x0
   \   00000F   F5..         MOV     ?V0 + 3,A
   \   000011                ; Setup parameters for call to function osal_memcpy
   \   000011   85..82       MOV     DPL,?V0 + 2
   \   000014   F583         MOV     DPH,A
   \   000016   E0           MOVX    A,@DPTR
   \   000017   22           RET

   \                                 In  segment BANKED_CODE, align 1, keep-with-next
   \                     ?Subroutine12:
   \   000000   EA           MOV     A,R2
   \   000001                REQUIRE ??Subroutine64_0
   \   000001                ; // Fall through to label ??Subroutine64_0

   \                                 In  segment BANKED_CODE, align 1, keep-with-next
   \                     ??Subroutine64_0:
   \   000000   F0           MOVX    @DPTR,A
   \   000001   A3           INC     DPTR
   \   000002   EB           MOV     A,R3
   \   000003   F0           MOVX    @DPTR,A
   \   000004   22           RET

   \                                 In  segment BANKED_CODE, align 1, keep-with-next
   \                     ?Subroutine56:
   \   000000   E0           MOVX    A,@DPTR
   \   000001   F5..         MOV     ?V0 + 0,A
   \   000003   A3           INC     DPTR
   \   000004   E0           MOVX    A,@DPTR
   \   000005   F5..         MOV     ?V0 + 1,A
   \   000007   22           RET

   \                                 In  segment BANKED_CODE, align 1, keep-with-next
   \                     ?Subroutine39:
   \   000000   A3           INC     DPTR
   \   000001   A3           INC     DPTR
   \   000002   A3           INC     DPTR
   \   000003   A3           INC     DPTR
   \   000004                REQUIRE ??Subroutine71_0
   \   000004                ; // Fall through to label ??Subroutine71_0

   \                                 In  segment BANKED_CODE, align 1, keep-with-next
   \                     ??Subroutine71_0:
   \   000000   E0           MOVX    A,@DPTR
   \   000001   F8           MOV     R0,A
   \   000002   A3           INC     DPTR
   \   000003   E0           MOVX    A,@DPTR
   \   000004   F9           MOV     R1,A
   \   000005   22           RET

   \                                 In  segment BANKED_CODE, align 1, keep-with-next
   \                     ?Subroutine55:
   \   000000   85..82       MOV     DPL,?XSP + 0
   \   000003   85..83       MOV     DPH,?XSP + 1
   \   000006                REQUIRE ??Subroutine72_0
   \   000006                ; // Fall through to label ??Subroutine72_0

   \                                 In  segment BANKED_CODE, align 1, keep-with-next
   \                     ??Subroutine72_0:
   \   000000   E0           MOVX    A,@DPTR
   \   000001   FA           MOV     R2,A
   \   000002   A3           INC     DPTR
   \   000003   E0           MOVX    A,@DPTR
   \   000004   FB           MOV     R3,A
   \   000005   22           RET

   \                                 In  segment BANKED_CODE, align 1, keep-with-next
   \                     ??Subroutine73_0:
   \   000000   E0           MOVX    A,@DPTR
   \   000001   F8           MOV     R0,A
   \   000002   A3           INC     DPTR
   \   000003   E0           MOVX    A,@DPTR
   \   000004   F9           MOV     R1,A
   \   000005   E8           MOV     A,R0
   \   000006   49           ORL     A,R1
   \   000007   22           RET

   \                                 In  segment BANKED_CODE, align 1, keep-with-next
   \                     ?Subroutine60:
   \   000000   85..82       MOV     DPL,?V0 + 2
   \   000003   85..83       MOV     DPH,?V0 + 3
   \   000006                REQUIRE ??Subroutine74_0
   \   000006                ; // Fall through to label ??Subroutine74_0

   \                                 In  segment BANKED_CODE, align 1, keep-with-next
   \                     ??Subroutine74_0:
   \   000000   E8           MOV     A,R0
   \   000001   F0           MOVX    @DPTR,A
   \   000002   A3           INC     DPTR
   \   000003   E9           MOV     A,R1
   \   000004   F0           MOVX    @DPTR,A
   \   000005   22           RET
    145          #pragma optimize=none

   \                                 In  segment BANKED_CODE, align 1, keep-with-next
    146          static int32 rbWrite(rb_t *rb, const void *data, uint16 count)
   \                     rbWrite:
    147          {
   \   000000   74EA         MOV     A,#-0x16
   \   000002   12....       LCALL   ?BANKED_ENTER_XDATA
   \   000005                ; Saved register size: 22
   \   000005                ; Auto size: 0
   \   000005   EA           MOV     A,R2
   \   000006   FE           MOV     R6,A
   \   000007   EB           MOV     A,R3
   \   000008   FF           MOV     R7,A
   \   000009   8C..         MOV     ?V0 + 12,R4
   \   00000B   8D..         MOV     ?V0 + 13,R5
   \   00000D   7416         MOV     A,#0x16
   \   00000F   12....       LCALL   ?XSTACK_DISP0_8
   \   000012   E0           MOVX    A,@DPTR
   \   000013   F5..         MOV     ?V0 + 0,A
   \   000015   A3           INC     DPTR
   \   000016   E0           MOVX    A,@DPTR
   \   000017   F5..         MOV     ?V0 + 1,A
    148              int tailAvailSz = 0;
   \   000019   75..00       MOV     ?V0 + 2,#0x0
   \   00001C   75..00       MOV     ?V0 + 3,#0x0
    149          
    150              if(NULL == rb)
   \   00001F   EE           MOV     A,R6
   \   000020   4F           ORL     A,R7
   \   000021   700B         JNZ     ??rbWrite_0
    151              {
    152                  GIZWITS_LOG("ERROR: rb is empty \n");
    153                  return -1;
   \   000023   7AFF         MOV     R2,#-0x1
   \   000025   7BFF         MOV     R3,#-0x1
   \   000027   7CFF         MOV     R4,#-0x1
   \   000029   7DFF         MOV     R5,#-0x1
   \   00002B   02....       LJMP    ??rbWrite_1 & 0xFFFF
    154              }
    155          
    156              if(NULL == data)
   \                     ??rbWrite_0:
   \   00002E   E5..         MOV     A,?V0 + 12
   \   000030   45..         ORL     A,?V0 + 13
   \   000032   700B         JNZ     ??rbWrite_2
    157              {
    158                  GIZWITS_LOG("ERROR: data is empty \n");
    159                  return -1;
   \   000034   7AFF         MOV     R2,#-0x1
   \   000036   7BFF         MOV     R3,#-0x1
   \   000038   7CFF         MOV     R4,#-0x1
   \   00003A   7DFF         MOV     R5,#-0x1
   \   00003C   02....       LJMP    ??rbWrite_1 & 0xFFFF
    160              }
    161          
    162              if (count >= rbCanWrite(rb))
   \                     ??rbWrite_2:
   \   00003F   85....       MOV     ?V0 + 4,?V0 + 0
   \   000042   85....       MOV     ?V0 + 5,?V0 + 1
   \   000045   E4           CLR     A
   \   000046   F5..         MOV     ?V0 + 6,A
   \   000048   F5..         MOV     ?V0 + 7,A
   \   00004A                ; Setup parameters for call to function rbCanWrite
   \   00004A   EE           MOV     A,R6
   \   00004B   FA           MOV     R2,A
   \   00004C   EF           MOV     A,R7
   \   00004D   FB           MOV     R3,A
   \   00004E   12....       LCALL   ??rbCanWrite?relay
   \   000051   8A..         MOV     ?V0 + 8,R2
   \   000053   8B..         MOV     ?V0 + 9,R3
   \   000055   8C..         MOV     ?V0 + 10,R4
   \   000057   8D..         MOV     ?V0 + 11,R5
   \   000059   78..         MOV     R0,#?V0 + 8
   \   00005B   79..         MOV     R1,#?V0 + 4
   \   00005D   12....       LCALL   ?SL_GT
   \   000060   400B         JC      ??rbWrite_3
    163              {
    164                  GIZWITS_LOG("ERROR: no memory %d \n", rbCanWrite(rb));
    165                  return -1;
   \   000062   7AFF         MOV     R2,#-0x1
   \   000064   7BFF         MOV     R3,#-0x1
   \   000066   7CFF         MOV     R4,#-0x1
   \   000068   7DFF         MOV     R5,#-0x1
   \   00006A   02....       LJMP    ??rbWrite_1 & 0xFFFF
    166              }
    167          
    168              if (rb->rbHead <= rb->rbTail)
   \                     ??rbWrite_3:
   \   00006D   8E82         MOV     DPL,R6
   \   00006F   8F83         MOV     DPH,R7
   \   000071   A3           INC     DPTR
   \   000072   A3           INC     DPTR
   \   000073   A3           INC     DPTR
   \   000074   A3           INC     DPTR
   \   000075   C082         PUSH    DPL
   \   000077   C083         PUSH    DPH
   \   000079   8E82         MOV     DPL,R6
   \   00007B   8F83         MOV     DPH,R7
   \   00007D   A3           INC     DPTR
   \   00007E   A3           INC     DPTR
   \   00007F   E0           MOVX    A,@DPTR
   \   000080   F8           MOV     R0,A
   \   000081   A3           INC     DPTR
   \   000082   E0           MOVX    A,@DPTR
   \   000083   F9           MOV     R1,A
   \   000084   D083         POP     DPH
   \   000086   D082         POP     DPL
   \   000088   C3           CLR     C
   \   000089   E0           MOVX    A,@DPTR
   \   00008A   98           SUBB    A,R0
   \   00008B   A3           INC     DPTR
   \   00008C   E0           MOVX    A,@DPTR
   \   00008D   99           SUBB    A,R1
   \   00008E   5003         JNC     $+5
   \   000090   02....       LJMP    ??rbWrite_4 & 0xFFFF
    169              {
    170                  tailAvailSz = rbCapacity(rb) - (rb->rbTail - rb->rbBuff);
   \   000093                ; Setup parameters for call to function rbCapacity
   \   000093   EE           MOV     A,R6
   \   000094   FA           MOV     R2,A
   \   000095   EF           MOV     A,R7
   \   000096   FB           MOV     R3,A
   \   000097   12....       LCALL   ??rbCapacity?relay
   \   00009A   8A..         MOV     ?V0 + 4,R2
   \   00009C   8B..         MOV     ?V0 + 5,R3
   \   00009E   8C..         MOV     ?V0 + 6,R4
   \   0000A0   8D..         MOV     ?V0 + 7,R5
   \   0000A2   8E82         MOV     DPL,R6
   \   0000A4   8F83         MOV     DPH,R7
   \   0000A6   A3           INC     DPTR
   \   0000A7   A3           INC     DPTR
   \   0000A8   A3           INC     DPTR
   \   0000A9   A3           INC     DPTR
   \   0000AA   C082         PUSH    DPL
   \   0000AC   C083         PUSH    DPH
   \   0000AE   8E82         MOV     DPL,R6
   \   0000B0   8F83         MOV     DPH,R7
   \   0000B2   A3           INC     DPTR
   \   0000B3   A3           INC     DPTR
   \   0000B4   A3           INC     DPTR
   \   0000B5   A3           INC     DPTR
   \   0000B6   A3           INC     DPTR
   \   0000B7   A3           INC     DPTR
   \   0000B8   E0           MOVX    A,@DPTR
   \   0000B9   F8           MOV     R0,A
   \   0000BA   A3           INC     DPTR
   \   0000BB   E0           MOVX    A,@DPTR
   \   0000BC   F9           MOV     R1,A
   \   0000BD   D083         POP     DPH
   \   0000BF   D082         POP     DPL
   \   0000C1   E0           MOVX    A,@DPTR
   \   0000C2   C3           CLR     C
   \   0000C3   98           SUBB    A,R0
   \   0000C4   F8           MOV     R0,A
   \   0000C5   A3           INC     DPTR
   \   0000C6   E0           MOVX    A,@DPTR
   \   0000C7   99           SUBB    A,R1
   \   0000C8   F9           MOV     R1,A
   \   0000C9   E5..         MOV     A,?V0 + 4
   \   0000CB   C3           CLR     C
   \   0000CC   98           SUBB    A,R0
   \   0000CD   F8           MOV     R0,A
   \   0000CE   E5..         MOV     A,?V0 + 5
   \   0000D0   99           SUBB    A,R1
   \   0000D1   F9           MOV     R1,A
   \   0000D2   88..         MOV     ?V0 + 2,R0
   \   0000D4   89..         MOV     ?V0 + 3,R1
    171                  if (count <= tailAvailSz)
   \   0000D6   C3           CLR     C
   \   0000D7   E5..         MOV     A,?V0 + 2
   \   0000D9   95..         SUBB    A,?V0 + 0
   \   0000DB   E5..         MOV     A,?V0 + 3
   \   0000DD   95..         SUBB    A,?V0 + 1
   \   0000DF   5003         JNC     $+5
   \   0000E1   02....       LJMP    ??rbWrite_5 & 0xFFFF
    172                  {
    173                      osal_memcpy(rb->rbTail, data, count);
   \   0000E4                ; Setup parameters for call to function osal_memcpy
   \   0000E4   85....       MOV     ?V0 + 4,?V0 + 12
   \   0000E7   85....       MOV     ?V0 + 5,?V0 + 13
   \   0000EA   75..00       MOV     ?V0 + 6,#0x0
   \   0000ED   78..         MOV     R0,#?V0 + 4
   \   0000EF   12....       LCALL   ?PUSH_XSTACK_I_THREE
   \   0000F2   AC..         MOV     R4,?V0 + 0
   \   0000F4   AD..         MOV     R5,?V0 + 1
   \   0000F6   8E82         MOV     DPL,R6
   \   0000F8   8F83         MOV     DPH,R7
   \   0000FA   A3           INC     DPTR
   \   0000FB   A3           INC     DPTR
   \   0000FC   A3           INC     DPTR
   \   0000FD   A3           INC     DPTR
   \   0000FE   E0           MOVX    A,@DPTR
   \   0000FF   FA           MOV     R2,A
   \   000100   A3           INC     DPTR
   \   000101   E0           MOVX    A,@DPTR
   \   000102   FB           MOV     R3,A
   \   000103   12....       LCALL   ??osal_memcpy?relay
   \   000106   7403         MOV     A,#0x3
   \   000108   12....       LCALL   ?DEALLOC_XSTACK8
    174                      rb->rbTail += count;
   \   00010B   8E82         MOV     DPL,R6
   \   00010D   8F83         MOV     DPH,R7
   \   00010F   A3           INC     DPTR
   \   000110   A3           INC     DPTR
   \   000111   A3           INC     DPTR
   \   000112   A3           INC     DPTR
   \   000113   E0           MOVX    A,@DPTR
   \   000114   25..         ADD     A,?V0 + 0
   \   000116   F8           MOV     R0,A
   \   000117   A3           INC     DPTR
   \   000118   E0           MOVX    A,@DPTR
   \   000119   35..         ADDC    A,?V0 + 1
   \   00011B   F9           MOV     R1,A
   \   00011C   8E82         MOV     DPL,R6
   \   00011E   8F83         MOV     DPH,R7
   \   000120   A3           INC     DPTR
   \   000121   A3           INC     DPTR
   \   000122   A3           INC     DPTR
   \   000123   A3           INC     DPTR
   \   000124   E8           MOV     A,R0
   \   000125   F0           MOVX    @DPTR,A
   \   000126   A3           INC     DPTR
   \   000127   E9           MOV     A,R1
   \   000128   F0           MOVX    @DPTR,A
    175                      if (rb->rbTail == rb->rbBuff+rbCapacity(rb))
   \   000129   8E82         MOV     DPL,R6
   \   00012B   8F83         MOV     DPH,R7
   \   00012D   A3           INC     DPTR
   \   00012E   A3           INC     DPTR
   \   00012F   A3           INC     DPTR
   \   000130   A3           INC     DPTR
   \   000131   C082         PUSH    DPL
   \   000133   C083         PUSH    DPH
   \   000135                ; Setup parameters for call to function rbCapacity
   \   000135   EE           MOV     A,R6
   \   000136   FA           MOV     R2,A
   \   000137   EF           MOV     A,R7
   \   000138   FB           MOV     R3,A
   \   000139   12....       LCALL   ??rbCapacity?relay
   \   00013C   8A..         MOV     ?V0 + 4,R2
   \   00013E   8B..         MOV     ?V0 + 5,R3
   \   000140   8C..         MOV     ?V0 + 6,R4
   \   000142   8D..         MOV     ?V0 + 7,R5
   \   000144   8E82         MOV     DPL,R6
   \   000146   8F83         MOV     DPH,R7
   \   000148   A3           INC     DPTR
   \   000149   A3           INC     DPTR
   \   00014A   A3           INC     DPTR
   \   00014B   A3           INC     DPTR
   \   00014C   A3           INC     DPTR
   \   00014D   A3           INC     DPTR
   \   00014E   E0           MOVX    A,@DPTR
   \   00014F   25..         ADD     A,?V0 + 4
   \   000151   F8           MOV     R0,A
   \   000152   A3           INC     DPTR
   \   000153   E0           MOVX    A,@DPTR
   \   000154   35..         ADDC    A,?V0 + 5
   \   000156   F9           MOV     R1,A
   \   000157   D083         POP     DPH
   \   000159   D082         POP     DPL
   \   00015B   E0           MOVX    A,@DPTR
   \   00015C   68           XRL     A,R0
   \   00015D   7003         JNZ     ??rbWrite_6
   \   00015F   A3           INC     DPTR
   \   000160   E0           MOVX    A,@DPTR
   \   000161   69           XRL     A,R1
   \                     ??rbWrite_6:
   \   000162   701C         JNZ     ??rbWrite_7
    176                      {
    177                          rb->rbTail = rb->rbBuff;
   \   000164   8E82         MOV     DPL,R6
   \   000166   8F83         MOV     DPH,R7
   \   000168   A3           INC     DPTR
   \   000169   A3           INC     DPTR
   \   00016A   A3           INC     DPTR
   \   00016B   A3           INC     DPTR
   \   00016C   A3           INC     DPTR
   \   00016D   A3           INC     DPTR
   \   00016E   E0           MOVX    A,@DPTR
   \   00016F   F8           MOV     R0,A
   \   000170   A3           INC     DPTR
   \   000171   E0           MOVX    A,@DPTR
   \   000172   F9           MOV     R1,A
   \   000173   8E82         MOV     DPL,R6
   \   000175   8F83         MOV     DPH,R7
   \   000177   A3           INC     DPTR
   \   000178   A3           INC     DPTR
   \   000179   A3           INC     DPTR
   \   00017A   A3           INC     DPTR
   \   00017B   E8           MOV     A,R0
   \   00017C   F0           MOVX    @DPTR,A
   \   00017D   A3           INC     DPTR
   \   00017E   E9           MOV     A,R1
   \   00017F   F0           MOVX    @DPTR,A
    178                      }
    179                      return count;
   \                     ??rbWrite_7:
   \   000180   AA..         MOV     R2,?V0 + 0
   \   000182   AB..         MOV     R3,?V0 + 1
   \   000184   E4           CLR     A
   \   000185   FC           MOV     R4,A
   \   000186   FD           MOV     R5,A
   \   000187   02....       LJMP    ??rbWrite_1 & 0xFFFF
    180                  }
    181                  else
    182                  {
    183                      osal_memcpy(rb->rbTail, data, tailAvailSz);
   \                     ??rbWrite_5:
   \   00018A                ; Setup parameters for call to function osal_memcpy
   \   00018A   85....       MOV     ?V0 + 4,?V0 + 12
   \   00018D   85....       MOV     ?V0 + 5,?V0 + 13
   \   000190   75..00       MOV     ?V0 + 6,#0x0
   \   000193   78..         MOV     R0,#?V0 + 4
   \   000195   12....       LCALL   ?PUSH_XSTACK_I_THREE
   \   000198   AC..         MOV     R4,?V0 + 2
   \   00019A   AD..         MOV     R5,?V0 + 3
   \   00019C   8E82         MOV     DPL,R6
   \   00019E   8F83         MOV     DPH,R7
   \   0001A0   A3           INC     DPTR
   \   0001A1   A3           INC     DPTR
   \   0001A2   A3           INC     DPTR
   \   0001A3   A3           INC     DPTR
   \   0001A4   E0           MOVX    A,@DPTR
   \   0001A5   FA           MOV     R2,A
   \   0001A6   A3           INC     DPTR
   \   0001A7   E0           MOVX    A,@DPTR
   \   0001A8   FB           MOV     R3,A
   \   0001A9   12....       LCALL   ??osal_memcpy?relay
   \   0001AC   7403         MOV     A,#0x3
   \   0001AE   12....       LCALL   ?DEALLOC_XSTACK8
    184                      rb->rbTail = rb->rbBuff;
   \   0001B1   8E82         MOV     DPL,R6
   \   0001B3   8F83         MOV     DPH,R7
   \   0001B5   A3           INC     DPTR
   \   0001B6   A3           INC     DPTR
   \   0001B7   A3           INC     DPTR
   \   0001B8   A3           INC     DPTR
   \   0001B9   A3           INC     DPTR
   \   0001BA   A3           INC     DPTR
   \   0001BB   E0           MOVX    A,@DPTR
   \   0001BC   F8           MOV     R0,A
   \   0001BD   A3           INC     DPTR
   \   0001BE   E0           MOVX    A,@DPTR
   \   0001BF   F9           MOV     R1,A
   \   0001C0   8E82         MOV     DPL,R6
   \   0001C2   8F83         MOV     DPH,R7
   \   0001C4   A3           INC     DPTR
   \   0001C5   A3           INC     DPTR
   \   0001C6   A3           INC     DPTR
   \   0001C7   A3           INC     DPTR
   \   0001C8   E8           MOV     A,R0
   \   0001C9   F0           MOVX    @DPTR,A
   \   0001CA   A3           INC     DPTR
   \   0001CB   E9           MOV     A,R1
   \   0001CC   F0           MOVX    @DPTR,A
    185          
    186                      return tailAvailSz + rbWrite(rb, (char*)data+tailAvailSz, count-tailAvailSz);
   \   0001CD   85....       MOV     ?V0 + 8,?V0 + 2
   \   0001D0   E5..         MOV     A,?V0 + 3
   \   0001D2   F5..         MOV     ?V0 + 9,A
   \   0001D4   33           RLC     A
   \   0001D5   95E0         SUBB    A,0xE0 /* A   */
   \   0001D7   F5..         MOV     ?V0 + 10,A
   \   0001D9   F5..         MOV     ?V0 + 11,A
   \   0001DB                ; Setup parameters for call to function rbWrite
   \   0001DB   E5..         MOV     A,?V0 + 0
   \   0001DD   C3           CLR     C
   \   0001DE   95..         SUBB    A,?V0 + 2
   \   0001E0   F5..         MOV     ?V0 + 4,A
   \   0001E2   E5..         MOV     A,?V0 + 1
   \   0001E4   95..         SUBB    A,?V0 + 3
   \   0001E6   F5..         MOV     ?V0 + 5,A
   \   0001E8   78..         MOV     R0,#?V0 + 4
   \   0001EA   12....       LCALL   ?PUSH_XSTACK_I_TWO
   \   0001ED   E5..         MOV     A,?V0 + 12
   \   0001EF   25..         ADD     A,?V0 + 2
   \   0001F1   FC           MOV     R4,A
   \   0001F2   E5..         MOV     A,?V0 + 13
   \   0001F4   35..         ADDC    A,?V0 + 3
   \   0001F6   FD           MOV     R5,A
   \   0001F7   EE           MOV     A,R6
   \   0001F8   FA           MOV     R2,A
   \   0001F9   EF           MOV     A,R7
   \   0001FA   FB           MOV     R3,A
   \   0001FB   12....       LCALL   ??rbWrite?relay
   \   0001FE   7402         MOV     A,#0x2
   \   000200   12....       LCALL   ?DEALLOC_XSTACK8
   \   000203   8A..         MOV     ?V0 + 4,R2
   \   000205   8B..         MOV     ?V0 + 5,R3
   \   000207   8C..         MOV     ?V0 + 6,R4
   \   000209   8D..         MOV     ?V0 + 7,R5
   \   00020B   78..         MOV     R0,#?V0 + 8
   \   00020D   79..         MOV     R1,#?V0 + 4
   \   00020F   12....       LCALL   ?L_ADD
   \   000212   AA..         MOV     R2,?V0 + 8
   \   000214   AB..         MOV     R3,?V0 + 9
   \   000216   AC..         MOV     R4,?V0 + 10
   \   000218   AD..         MOV     R5,?V0 + 11
   \   00021A   804C         SJMP    ??rbWrite_1
    187                  }
    188              }
    189              else
    190              {
    191                  osal_memcpy(rb->rbTail, data, count);
   \                     ??rbWrite_4:
   \   00021C                ; Setup parameters for call to function osal_memcpy
   \   00021C   85....       MOV     ?V0 + 4,?V0 + 12
   \   00021F   85....       MOV     ?V0 + 5,?V0 + 13
   \   000222   75..00       MOV     ?V0 + 6,#0x0
   \   000225   78..         MOV     R0,#?V0 + 4
   \   000227   12....       LCALL   ?PUSH_XSTACK_I_THREE
   \   00022A   AC..         MOV     R4,?V0 + 0
   \   00022C   AD..         MOV     R5,?V0 + 1
   \   00022E   8E82         MOV     DPL,R6
   \   000230   8F83         MOV     DPH,R7
   \   000232   A3           INC     DPTR
   \   000233   A3           INC     DPTR
   \   000234   A3           INC     DPTR
   \   000235   A3           INC     DPTR
   \   000236   E0           MOVX    A,@DPTR
   \   000237   FA           MOV     R2,A
   \   000238   A3           INC     DPTR
   \   000239   E0           MOVX    A,@DPTR
   \   00023A   FB           MOV     R3,A
   \   00023B   12....       LCALL   ??osal_memcpy?relay
   \   00023E   7403         MOV     A,#0x3
   \   000240   12....       LCALL   ?DEALLOC_XSTACK8
    192                  rb->rbTail += count;
   \   000243   8E82         MOV     DPL,R6
   \   000245   8F83         MOV     DPH,R7
   \   000247   A3           INC     DPTR
   \   000248   A3           INC     DPTR
   \   000249   A3           INC     DPTR
   \   00024A   A3           INC     DPTR
   \   00024B   E0           MOVX    A,@DPTR
   \   00024C   25..         ADD     A,?V0 + 0
   \   00024E   F8           MOV     R0,A
   \   00024F   A3           INC     DPTR
   \   000250   E0           MOVX    A,@DPTR
   \   000251   35..         ADDC    A,?V0 + 1
   \   000253   F9           MOV     R1,A
   \   000254   8E82         MOV     DPL,R6
   \   000256   8F83         MOV     DPH,R7
   \   000258   A3           INC     DPTR
   \   000259   A3           INC     DPTR
   \   00025A   A3           INC     DPTR
   \   00025B   A3           INC     DPTR
   \   00025C   E8           MOV     A,R0
   \   00025D   F0           MOVX    @DPTR,A
   \   00025E   A3           INC     DPTR
   \   00025F   E9           MOV     A,R1
   \   000260   F0           MOVX    @DPTR,A
    193                  return count;
   \   000261   AA..         MOV     R2,?V0 + 0
   \   000263   AB..         MOV     R3,?V0 + 1
   \   000265   E4           CLR     A
   \   000266   FC           MOV     R4,A
   \   000267   FD           MOV     R5,A
   \                     ??rbWrite_1:
   \   000268   7F0E         MOV     R7,#0xe
   \   00026A   02....       LJMP    ?BANKED_LEAVE_XDATA
    194              }
    195          }
    196          /**@} */
    197          
    198          /**
    199          * @brief ÂêëÁéØÂΩ¢ÁºìÂÜ≤Âå∫ÂÜôÂÖ•Êï∞ÊçÆ
    200          * @param [in] buf        : bufÂú∞ÂùÄ
    201          * @param [in] len        : Â≠óËäÇÈïøÂ∫¶
    202          * @return   Ê≠£Á°Æ : ËøîÂõûÂÜôÂÖ•ÁöÑÊï∞ÊçÆÈïøÂ∫?            Â§±Ë¥• : -1
    203          */

   \                                 In  segment BANKED_CODE, align 1, keep-with-next
    204          int32 gizPutData(uint8 *buf, uint32 len)
   \                     gizPutData:
    205          {
   \   000000   74F0         MOV     A,#-0x10
   \   000002   12....       LCALL   ?BANKED_ENTER_XDATA
   \   000005                ; Saved register size: 16
   \   000005                ; Auto size: 0
   \   000005   7410         MOV     A,#0x10
   \   000007   12....       LCALL   ?XSTACK_DISP0_8
   \   00000A   78..         MOV     R0,#?V0 + 4
   \   00000C   12....       LCALL   ?L_MOV_X
    206              int32 count = 0;
    207          
    208              if(NULL == buf)
   \   00000F   EA           MOV     A,R2
   \   000010   4B           ORL     A,R3
   \   000011   700A         JNZ     ??gizPutData_0
    209              {
    210                  GIZWITS_LOG("ERROR: gizPutData buf is empty \n");
    211                  return -1;
   \                     ??gizPutData_1:
   \   000013   7AFF         MOV     R2,#-0x1
   \   000015   7BFF         MOV     R3,#-0x1
   \   000017   7CFF         MOV     R4,#-0x1
   \   000019   7DFF         MOV     R5,#-0x1
   \   00001B   802C         SJMP    ??gizPutData_2
    212              }
    213          
    214              count = rbWrite(&pRb, buf, len);
   \                     ??gizPutData_0:
   \   00001D                ; Setup parameters for call to function rbWrite
   \   00001D   85....       MOV     ?V0 + 0,?V0 + 4
   \   000020   85....       MOV     ?V0 + 1,?V0 + 5
   \   000023   78..         MOV     R0,#?V0 + 0
   \   000025   12....       LCALL   ?PUSH_XSTACK_I_TWO
   \   000028   EA           MOV     A,R2
   \   000029   FC           MOV     R4,A
   \   00002A   EB           MOV     A,R3
   \   00002B   FD           MOV     R5,A
   \   00002C   7A..         MOV     R2,#pRb & 0xff
   \   00002E   7B..         MOV     R3,#(pRb >> 8) & 0xff
   \   000030   12....       LCALL   ??rbWrite?relay
   \   000033   7402         MOV     A,#0x2
   \   000035   12....       LCALL   ?DEALLOC_XSTACK8
   \   000038   8A..         MOV     ?V0 + 0,R2
   \   00003A   8B..         MOV     ?V0 + 1,R3
   \   00003C   8C..         MOV     ?V0 + 2,R4
   \   00003E   8D..         MOV     ?V0 + 3,R5
    215              if(count != len)
   \   000040   78..         MOV     R0,#?V0 + 0
   \   000042   79..         MOV     R1,#?V0 + 4
   \   000044   12....       LCALL   ?L_EQ
   \   000047   70CA         JNZ     ??gizPutData_1
    216              {
    217                  GIZWITS_LOG("ERROR: Failed to rbWrite \n");
    218                  return -1;
    219              }
    220          
    221              return count;
   \                     ??gizPutData_2:
   \   000049   80..         SJMP    ??Subroutine61_0
    222          }

   \                                 In  segment BANKED_CODE, align 1, keep-with-next
   \                     ??Subroutine61_0:
   \   000000   7F08         MOV     R7,#0x8
   \   000002   02....       LJMP    ?BANKED_LEAVE_XDATA
    223          
    224          /**
    225          * @brief Êä•ÊñáÊï∞ÊçÆÊ†°È™åÂíåËÆ°ÁÆ?*
    226          * @param [in] buf   : bufÂú∞ÂùÄ
    227          * @param [in] len   : Â≠óËäÇÈïøÂ∫¶
    228          *
    229          * @return sum : ‰ªéÁºìÂÜ≤Âå∫Á¨?‰∏™Â≠óËäÇÂêéÊâÄÊúâÁöÑÂ≠óËäÇÁ¥ØÂä†Ê±ÇÂíå
    230          */

   \                                 In  segment BANKED_CODE, align 1, keep-with-next
    231          static uint8 gizProtocolSum(uint8 *buf, uint32 len)
   \                     gizProtocolSum:
    232          {
   \   000000   74EC         MOV     A,#-0x14
   \   000002   12....       LCALL   ?BANKED_ENTER_XDATA
   \   000005                ; Saved register size: 20
   \   000005                ; Auto size: 0
   \   000005   7414         MOV     A,#0x14
   \   000007   12....       LCALL   ?XSTACK_DISP0_8
   \   00000A   78..         MOV     R0,#?V0 + 4
   \   00000C   12....       LCALL   ?L_MOV_X
    233              uint8     sum = 0;
   \   00000F   7C00         MOV     R4,#0x0
    234              uint32    i = 0;
    235          
    236              if(buf == NULL || len <= 0)
   \   000011   EA           MOV     A,R2
   \   000012   4B           ORL     A,R3
   \   000013   600A         JZ      ??gizProtocolSum_0
   \   000015   E5..         MOV     A,?V0 + 4
   \   000017   45..         ORL     A,?V0 + 5
   \   000019   45..         ORL     A,?V0 + 6
   \   00001B   45..         ORL     A,?V0 + 7
   \   00001D   7004         JNZ     ??gizProtocolSum_1
    237              {
    238                  GIZWITS_LOG("ERROR: gizProtocolSum , buf is empty or len error %d \n", len);
    239                  return 0;
   \                     ??gizProtocolSum_0:
   \   00001F   7900         MOV     R1,#0x0
   \   000021   8044         SJMP    ??gizProtocolSum_2
    240              }
    241          
    242              for(i=2; i<len-1; i++)
   \                     ??gizProtocolSum_1:
   \   000023   90....       MOV     DPTR,#__Constant_2
   \   000026   78..         MOV     R0,#?V0 + 8
   \   000028   12....       LCALL   ?L_MOV_X
   \   00002B   801B         SJMP    ??gizProtocolSum_3
    243              {
    244                  sum += buf[i];
   \                     ??gizProtocolSum_4:
   \   00002D   85....       MOV     ?V0 + 0,?V0 + 8
   \   000030   85....       MOV     ?V0 + 1,?V0 + 9
   \   000033   EA           MOV     A,R2
   \   000034   25..         ADD     A,?V0 + 0
   \   000036   F582         MOV     DPL,A
   \   000038   EB           MOV     A,R3
   \   000039   35..         ADDC    A,?V0 + 1
   \   00003B   F583         MOV     DPH,A
   \   00003D   E0           MOVX    A,@DPTR
   \   00003E   2C           ADD     A,R4
   \   00003F   FC           MOV     R4,A
    245              }
   \   000040   90....       MOV     DPTR,#__Constant_1
   \   000043   78..         MOV     R0,#?V0 + 8
   \   000045   12....       LCALL   ?L_ADD_X
   \                     ??gizProtocolSum_3:
   \   000048   85....       MOV     ?V0 + 0,?V0 + 4
   \   00004B   85....       MOV     ?V0 + 1,?V0 + 5
   \   00004E   85....       MOV     ?V0 + 2,?V0 + 6
   \   000051   85....       MOV     ?V0 + 3,?V0 + 7
   \   000054   90....       MOV     DPTR,#__Constant_ffffffff
   \   000057   78..         MOV     R0,#?V0 + 0
   \   000059   12....       LCALL   ?L_ADD_X
   \   00005C   78..         MOV     R0,#?V0 + 0
   \   00005E   79..         MOV     R1,#?V0 + 8
   \   000060   12....       LCALL   ?UL_GT
   \   000063   40C8         JC      ??gizProtocolSum_4
    246          
    247              return sum;
   \   000065   EC           MOV     A,R4
   \   000066   F9           MOV     R1,A
   \                     ??gizProtocolSum_2:
   \   000067                REQUIRE ?Subroutine2
   \   000067                ; // Fall through to label ?Subroutine2
    248          }

   \                                 In  segment BANKED_CODE, align 1, keep-with-next
   \                     ?Subroutine2:
   \   000000   7F0C         MOV     R7,#0xc
   \   000002   02....       LJMP    ?BANKED_LEAVE_XDATA
    249          
    250          /**
    251          * @brief 16‰ΩçÊï∞ÊçÆÂ≠óËäÇÂ∫èËΩ¨Êç¢
    252          *
    253          * @param [in] value : ÈúÄË¶ÅËΩ¨Êç¢ÁöÑÊï∞ÊçÆ
    254          *
    255          * @return  tmp_value: ËΩ¨Êç¢ÂêéÁöÑÊï∞ÊçÆ
    256          */

   \                                 In  segment BANKED_CODE, align 1, keep-with-next
    257          static uint16 gizProtocolExchangeBytes(uint16 value)
   \                     gizProtocolExchangeBytes:
    258          {
   \   000000   C082         PUSH    DPL
   \   000002   C083         PUSH    DPH
   \   000004                ; Saved register size: 2
   \   000004                ; Auto size: 4
   \   000004   74FC         MOV     A,#-0x4
   \   000006   12....       LCALL   ?ALLOC_XSTACK8
   \   000009   7402         MOV     A,#0x2
   \   00000B   12....       LCALL   ?XSTACK_DISP0_8
   \   00000E   12....       LCALL   ?Subroutine12 & 0xFFFF
    259              uint16    tmp_value;
    260              uint8     *index_1, *index_2;
    261          
    262              index_1 = (uint8 *)&tmp_value;
    263              index_2 = (uint8 *)&value;
    264          
    265              *index_1 = *(index_2+1);
   \                     ??CrossCallReturnLabel_125:
   \   000011   85..82       MOV     DPL,?XSP + 0
   \   000014   85..83       MOV     DPH,?XSP + 1
   \   000017   F0           MOVX    @DPTR,A
    266              *(index_1+1) = *index_2;
   \   000018   7402         MOV     A,#0x2
   \   00001A   12....       LCALL   ?XSTACK_DISP0_8
   \   00001D   E0           MOVX    A,@DPTR
   \   00001E   C0E0         PUSH    A
   \   000020   7401         MOV     A,#0x1
   \   000022   12....       LCALL   ?XSTACK_DISP0_8
   \   000025   D0E0         POP     A
   \   000027   F0           MOVX    @DPTR,A
    267          
    268              return tmp_value;
   \   000028   12....       LCALL   ?Subroutine55 & 0xFFFF
   \                     ??CrossCallReturnLabel_182:
   \   00002B   7404         MOV     A,#0x4
   \   00002D   12....       LCALL   ?DEALLOC_XSTACK8
   \   000030                REQUIRE ?Subroutine3
   \   000030                ; // Fall through to label ?Subroutine3
    269          }

   \                                 In  segment BANKED_CODE, align 1, keep-with-next
   \                     ?Subroutine3:
   \   000000   D083         POP     DPH
   \   000002   D082         POP     DPL
   \   000004   02....       LJMP    ?BRET
    270          
    271          /**
    272          * @brief 32‰ΩçÊï∞ÊçÆÂ≠óËäÇÂ∫èËΩ¨Êç¢
    273          *
    274          * @param [in] value : ÈúÄË¶ÅËΩ¨Êç¢ÁöÑÊï∞ÊçÆ
    275          *
    276          * @return  tmp_value: ËΩ¨Êç¢ÂêéÁöÑÊï∞ÊçÆ
    277          */
    278          static uint32 gizExchangeWord(uint32  value)
    279          {
    280              return ((value & 0x000000FF) << 24) |
    281                  ((value & 0x0000FF00) << 8) |
    282                  ((value & 0x00FF0000) >> 8) |
    283                  ((value & 0xFF000000) >> 24) ;
    284          }
    285          
    286          /**
    287          * @brief Êï∞ÁªÑÁºìÂÜ≤Âå∫ÁΩëÁªúÂ≠óËäÇÂ∫èËΩ¨Êç¢
    288          *
    289          * @param [in] buf      : bufÂú∞ÂùÄ
    290          * @param [in] dataLen  : Â≠óËäÇÈïøÂ∫¶
    291          *
    292          * @return Ê≠£Á°Æ : 0 
    293                    Â§±Ë¥• : -1
    294          */
    295          static int8 gizByteOrderExchange(uint8 *buf,uint32 dataLen)
    296          {
    297              uint32 i = 0;
    298              uint8 preData = 0;
    299              uint8 aftData = 0;
    300          
    301              if(NULL == buf)
    302              {
    303                  GIZWITS_LOG("gizByteOrderExchange Error , Illegal Param\n");
    304                  return -1;
    305              }
    306          
    307              for(i = 0;i<dataLen/2;i++)
    308              {
    309                  preData = buf[i];
    310                  aftData = buf[dataLen - i - 1];
    311                  buf[i] = aftData;
    312                  buf[dataLen - i - 1] = preData;
    313              }
    314              return 0;
    315          }
    316          
    317          /**
    318          * @brief ËΩ¨Âåñ‰∏∫ÂçèËÆÆ‰∏≠ÁöÑxÂÄºÂèäÂÆûÈôÖÈÄöËÆØ‰º†ËæìÁöÑÂÄ?*
    319          * @param [in] ratio    : ‰øÆÊ≠£Á≥ªÊï∞k
    320          * @param [in] addition : Â¢ûÈáèm
    321          * @param [in] preValue : ‰Ωú‰∏∫ÂçèËÆÆ‰∏≠ÁöÑyÂÄ? ÊòØApp UIÁïåÈù¢ÁöÑÊòæÁ§∫ÂÄ?*
    322          * @return aft_value    : ‰Ωú‰∏∫ÂçèËÆÆ‰∏≠ÁöÑxÂÄ? ÊòØÂÆûÈôÖÈÄöËÆØ‰º†ËæìÁöÑÂÄ?*/
    323          static uint32 gizY2X(uint32 ratio, int32 addition, int32 preValue)
    324          {
    325              uint32 aftValue = 0;
    326          
    327              //x=(y - m)/k
    328              aftValue = ((preValue - addition) / ratio);
    329          
    330              return aftValue;
    331          }
    332          
    333          /**
    334          * @brief ËΩ¨Âåñ‰∏∫ÂçèËÆÆ‰∏≠ÁöÑyÂÄºÂèäApp UIÁïåÈù¢ÁöÑÊòæÁ§∫ÂÄ?*
    335          * @param [in] ratio    : ‰øÆÊ≠£Á≥ªÊï∞k
    336          * @param [in] addition : Â¢ûÈáèm
    337          * @param [in] preValue : ‰Ωú‰∏∫ÂçèËÆÆ‰∏≠ÁöÑxÂÄ? ÊòØÂÆûÈôÖÈÄöËÆØ‰º†ËæìÁöÑÂÄ?*
    338          * @return aftValue : ‰Ωú‰∏∫ÂçèËÆÆ‰∏≠ÁöÑyÂÄ? ÊòØApp UIÁïåÈù¢ÁöÑÊòæÁ§∫ÂÄ?*/
    339          static int32 gizX2Y(uint32 ratio, int32 addition, uint32 preValue)
    340          {
    341              int32 aftValue = 0;
    342          
    343              //y=k * x + m
    344              aftValue = (preValue * ratio + addition);
    345          
    346              return aftValue;
    347          }
    348          
    349          /**
    350          * @brief ËΩ¨Âåñ‰∏∫ÂçèËÆÆ‰∏≠ÁöÑxÂÄºÂèäÂÆûÈôÖÈÄöËÆØ‰º†ËæìÁöÑÂÄ?Âè™Áî®‰ΩúÂØπÊµÆÁÇπÂûãÊï∞ÊçÆÂÅöÂ§ÑÁêÜ
    351          *
    352          * @param [in] ratio    : ‰øÆÊ≠£Á≥ªÊï∞k
    353          * @param [in] addition : Â¢ûÈáèm
    354          * @param [in] preValue : ‰Ωú‰∏∫ÂçèËÆÆ‰∏≠ÁöÑyÂÄ? ÊòØApp UIÁïåÈù¢ÁöÑÊòæÁ§∫ÂÄ?*
    355          * @return  aft_value : ‰Ωú‰∏∫ÂçèËÆÆ‰∏≠ÁöÑxÂÄ? ÊòØÂÆûÈôÖÈÄöËÆØ‰º†ËæìÁöÑÂÄ?*/
    356          static uint32 gizY2XFloat(float ratio, float addition, float preValue)
    357          {
    358              uint32 aftValue = 0;
    359          
    360              //x=(y - m)/k
    361              aftValue = ((preValue - addition) / ratio);
                              ^
Warning[Pa093]: implicit conversion from floating point to integer
    362          
    363              return aftValue;
    364          }
    365          
    366          /**
    367          * @brief ËΩ¨Âåñ‰∏∫ÂçèËÆÆ‰∏≠ÁöÑyÂÄºÂèäApp UIÁïåÈù¢ÁöÑÊòæÁ§∫ÂÄ?Âè™Áî®‰ΩúÂØπÊµÆÁÇπÂûãÊï∞ÊçÆÂÅöÂ§ÑÁêÜ
    368          *
    369          * @param [in] ratio    : ‰øÆÊ≠£Á≥ªÊï∞k
    370          * @param [in] addition : Â¢ûÈáèm
    371          * @param [in] preValue : ‰Ωú‰∏∫ÂçèËÆÆ‰∏≠ÁöÑxÂÄ? ÊòØÂÆûÈôÖÈÄöËÆØ‰º†ËæìÁöÑÂÄ?*
    372          * @return : ‰Ωú‰∏∫ÂçèËÆÆ‰∏≠ÁöÑyÂÄ? ÊòØApp UIÁïåÈù¢ÁöÑÊòæÁ§∫ÂÄ?*/
    373          static float gizX2YFloat(float ratio, float addition, uint32 preValue)
    374          {
    375              float aftValue = 0;
    376          
    377              //y=k * x + m
    378              aftValue = (preValue * ratio + addition);
    379          
    380              return aftValue;
    381          }
    382          
    383          /**
    384          * @brief Êï∞ÊçÆÁÇπË∑®Â≠óËäÇÂà§Êñ≠
    385          *
    386          * @param [in] bitOffset     : ‰ΩçÂÅèÁß?* @param [in] bitLen        : Âç†Áî®‰ΩçÈïøÂ∫?
    387          *
    388          * @return Êú™Ë∑®Â≠óËäÇ : 0 
    389                      Ë∑®Â≠óËä?: 1
    390          */
    391          static uint8 gizAcrossByteJudge(uint32 bitOffset,uint32 bitLen)
    392          {
    393              if((0 == bitOffset)||(0 == bitOffset%8))
    394              {
    395                  if(bitLen <= 8)
    396                  {
    397                      return 0;
    398                  }
    399                  else
    400                  {
    401                      return 1;
    402                  }
    403              }
    404              else
    405              {
    406                  if(8 - bitOffset%8 >= bitLen)
    407                  {
    408                      return 0;
    409                  }
    410                  else
    411                  {
    412                      return 1; 
    413                  }
    414              }
    415          }
    416          /**
    417          * @brief ÂçèËÆÆÂ§¥ÂàùÂßãÂåñ
    418          *
    419          * @param [out] head         : ÂçèËÆÆÂ§¥ÊåáÈí?*
    420          * @return 0Ôº?ÊâßË°åÊàêÂäüÔº?Èù?0Ôº?Â§±Ë¥•    
    421          */

   \                                 In  segment BANKED_CODE, align 1, keep-with-next
    422          static int8 gizProtocolHeadInit(protocolHead_t *head)
   \                     gizProtocolHeadInit:
    423          {
   \   000000   74F7         MOV     A,#-0x9
   \   000002   12....       LCALL   ?BANKED_ENTER_XDATA
   \   000005                ; Saved register size: 9
   \   000005                ; Auto size: 0
   \   000005   EA           MOV     A,R2
   \   000006   FE           MOV     R6,A
   \   000007   EB           MOV     A,R3
   \   000008   FF           MOV     R7,A
    424              if(NULL == head)
   \   000009   EE           MOV     A,R6
   \   00000A   4F           ORL     A,R7
   \   00000B   7004         JNZ     ??gizProtocolHeadInit_0
    425              {
    426                  GIZWITS_LOG("ERROR: gizProtocolHeadInit head is empty \n");
    427                  return -1;
   \   00000D   79FF         MOV     R1,#-0x1
   \   00000F   8014         SJMP    ??gizProtocolHeadInit_1
    428              }
    429          
    430              osal_memset((uint8 *)head, 0, sizeof(protocolHead_t));
   \                     ??gizProtocolHeadInit_0:
   \   000011                ; Setup parameters for call to function osal_memset
   \   000011   7C08         MOV     R4,#0x8
   \   000013   7D00         MOV     R5,#0x0
   \   000015   7900         MOV     R1,#0x0
   \   000017   12....       LCALL   ??osal_memset?relay
    431              head->head[0] = 0xFF;
   \   00001A   8E82         MOV     DPL,R6
   \   00001C   8F83         MOV     DPH,R7
   \   00001E   74FF         MOV     A,#-0x1
   \   000020   F0           MOVX    @DPTR,A
    432              head->head[1] = 0xFF;
   \   000021   A3           INC     DPTR
   \   000022   F0           MOVX    @DPTR,A
    433          
    434              return 0;
   \   000023   7900         MOV     R1,#0x0
   \                     ??gizProtocolHeadInit_1:
   \   000025                REQUIRE ?Subroutine4
   \   000025                ; // Fall through to label ?Subroutine4
    435          }

   \                                 In  segment BANKED_CODE, align 1, keep-with-next
   \                     ?Subroutine4:
   \   000000   7F01         MOV     R7,#0x1
   \   000002   02....       LJMP    ?BANKED_LEAVE_XDATA
    436          
    437          /**
    438          * @brief ÂçèËÆÆACKÊ†°È™åÂ§ÑÁêÜÂáΩÊï∞
    439          *
    440          * @param [in] data            : Êï∞ÊçÆÂú∞ÂùÄ
    441          * @param [in] len             : Êï∞ÊçÆÈïøÂ∫¶
    442          *
    443          * @return 0Ôº?ÊâßË°åÊàêÂäüÔº?Èù?0Ôº?Â§±Ë¥•
    444          */

   \                                 In  segment BANKED_CODE, align 1, keep-with-next
    445          static int8 gizProtocolWaitAck(uint8 *data, uint32 len)
   \                     gizProtocolWaitAck:
    446          {
   \   000000   74F0         MOV     A,#-0x10
   \   000002   12....       LCALL   ?BANKED_ENTER_XDATA
   \   000005                ; Saved register size: 16
   \   000005                ; Auto size: 0
   \   000005   EA           MOV     A,R2
   \   000006   FE           MOV     R6,A
   \   000007   EB           MOV     A,R3
   \   000008   FF           MOV     R7,A
   \   000009   7410         MOV     A,#0x10
   \   00000B   12....       LCALL   ?XSTACK_DISP0_8
   \   00000E   78..         MOV     R0,#?V0 + 4
   \   000010   12....       LCALL   ?L_MOV_X
    447              if(NULL == data)
   \   000013   EE           MOV     A,R6
   \   000014   4F           ORL     A,R7
   \   000015   7004         JNZ     ??gizProtocolWaitAck_0
    448              {
    449                  GIZWITS_LOG("ERROR: data is empty \n");
    450                  return -1;
   \   000017   79FF         MOV     R1,#-0x1
   \   000019   8048         SJMP    ??gizProtocolWaitAck_1
    451              }
    452          
    453              osal_memset((uint8 *)&gizwitsProtocol.waitAck, 0, sizeof(protocolWaitAck_t));
   \                     ??gizProtocolWaitAck_0:
   \   00001B                ; Setup parameters for call to function osal_memset
   \   00001B   7C27         MOV     R4,#0x27
   \   00001D   7D00         MOV     R5,#0x0
   \   00001F   7900         MOV     R1,#0x0
   \   000021   7A..         MOV     R2,#(gizwitsProtocol + 75) & 0xff
   \   000023   7B..         MOV     R3,#((gizwitsProtocol + 75) >> 8) & 0xff
   \   000025   12....       LCALL   ??osal_memset?relay
    454              osal_memcpy((uint8 *)gizwitsProtocol.waitAck.buf, data, len);
   \   000028                ; Setup parameters for call to function osal_memcpy
   \   000028   8E..         MOV     ?V0 + 0,R6
   \   00002A   8F..         MOV     ?V0 + 1,R7
   \   00002C   75..00       MOV     ?V0 + 2,#0x0
   \   00002F   78..         MOV     R0,#?V0 + 0
   \   000031   12....       LCALL   ?PUSH_XSTACK_I_THREE
   \   000034   85....       MOV     ?V0 + 0,?V0 + 4
   \   000037   85....       MOV     ?V0 + 1,?V0 + 5
   \   00003A   AC..         MOV     R4,?V0 + 0
   \   00003C   AD..         MOV     R5,?V0 + 1
   \   00003E   7A..         MOV     R2,#(gizwitsProtocol + 77) & 0xff
   \   000040   7B..         MOV     R3,#((gizwitsProtocol + 77) >> 8) & 0xff
   \   000042   12....       LCALL   ??Subroutine62_0 & 0xFFFF
   \                     ??CrossCallReturnLabel_105:
   \   000045   12....       LCALL   ?DEALLOC_XSTACK8
    455              gizwitsProtocol.waitAck.dataLen = (uint16)len;
   \   000048   90....       MOV     DPTR,#gizwitsProtocol + 108
   \   00004B   E5..         MOV     A,?V0 + 0
   \   00004D   F0           MOVX    @DPTR,A
   \   00004E   A3           INC     DPTR
   \   00004F   E5..         MOV     A,?V0 + 1
   \   000051   F0           MOVX    @DPTR,A
    456              
    457              gizwitsProtocol.waitAck.flag = 1;
   \   000052   90....       MOV     DPTR,#gizwitsProtocol + 76
   \   000055   7401         MOV     A,#0x1
   \   000057   F0           MOVX    @DPTR,A
    458              gizwitsProtocol.waitAck.sendTime = gizGetTimerCount();
   \   000058                ; Setup parameters for call to function gizGetTimerCount
   \   000058   12....       LCALL   ??gizGetTimerCount?relay
   \   00005B   90....       MOV     DPTR,#gizwitsProtocol + 110
   \   00005E   12....       LCALL   ?XSTORE_R2345
    459          
    460              return 0;
   \   000061   7900         MOV     R1,#0x0
   \                     ??gizProtocolWaitAck_1:
   \   000063   02....       LJMP    ??Subroutine61_0 & 0xFFFF
    461          }

   \                                 In  segment BANKED_CODE, align 1, keep-with-next
   \                     ??Subroutine62_0:
   \   000000   12....       LCALL   ??osal_memcpy?relay
   \   000003   7403         MOV     A,#0x3
   \   000005   22           RET
    462          
    463          
    464          

   \                                 In  segment BANKED_CODE, align 1, keep-with-next
    465          uint32 ICACHE_FLASH_ATTR calculateDynamicBitPartLen(dataPointFlags_t *aFlag)
   \                     calculateDynamicBitPartLen:
    466          {
   \   000000                ; Saved register size: 0
   \   000000                ; Auto size: 0
    467              uint32 bitFieldBitLen = 0,bytetmpLen= 0;
    468              /* Âè™Â§ÑÁêÜÂèØÂÜôbool EnumÁ±ªÂûãÊï∞ÊçÆ */
    469          
    470              if(0 == bitFieldBitLen)
    471              {
    472                  bytetmpLen = 0;
    473              }
    474              else
    475              {
    476                  if(0 == bitFieldBitLen%8)
    477                  {
    478                      bytetmpLen = bitFieldBitLen/8;
    479                  }
    480                  else
    481                  {
    482                      bytetmpLen = bitFieldBitLen/8 + 1;
    483                  }
    484              }
    485              return bytetmpLen;
   \   000000   7A00         MOV     R2,#0x0
   \   000002   7B00         MOV     R3,#0x0
   \   000004   7C00         MOV     R4,#0x0
   \   000006   7D00         MOV     R5,#0x0
   \   000008   02....       LJMP    ?BRET
    486          }
    487          static int32 ICACHE_FLASH_ATTR gizCompressValue(uint32 bitOffset,uint32 bitLen,uint8 *bufAddr,uint32 srcData)
    488          {
    489              uint8 highBit = 0;
    490              uint8 lowBit = 0;
    491              uint8 ret = 0;
    492              uint32 byteOffset = 0;
    493              if(NULL == bufAddr)
    494              {
    495                  GIZWITS_LOG("gizCompressValue Error , Illegal Param\n");
    496                  return -1;
    497              }       
    498              /* Ê†πÊçÆbitOffsetËÆ°ÁÆó byteOffset*/
    499              byteOffset = bitOffset/8;
    500              ret = gizAcrossByteJudge(bitOffset,bitLen);
    501              if(0 == ret)
    502              {
    503                  bufAddr[byteOffset] |= (((uint8)srcData)<<(bitOffset%8));
    504              }
    505              else if(1 == ret)
    506              {
    507                  /* ÊöÇÊó∂ÊîØÊåÅÊúÄÂ§öË∑®‰∏§Â≠óËäÇÁöÑÂéãÁº© */ 
    508                  highBit = ((uint8)srcData)>>(8-bitOffset%8);
    509                  lowBit = (uint8)srcData & (0xFF >> (8-bitOffset%8));
    510                  bufAddr[byteOffset + 1] |=  highBit;
    511                  bufAddr[byteOffset] |= (lowBit<<(bitOffset%8));
    512              }
    513          
    514              return 0;
    515          }
    516          /**
    517          * @brief boolÂíåenumÁ±ªÂûãÊï∞ÊçÆÁÇπÊï∞ÊçÆËß£Âé?*
    518          * @param [in] bitOffset     : ‰ΩçÂÅèÁß?* @param [in] bitLen        : Âç†Áî®‰ΩçÈïøÂ∫?* @param [in] arrayAddr     : Êï∞ÁªÑÂú∞ÂùÄ
    519          * @param [in] arrayLen      : Êï∞ÁªÑÈïøÂ∫¶
    520          *
    521          * @return destValue         : Ëß£ÂéãÂêéÁªìÊûúÊï∞Êç?-1Ë°®Á§∫ÈîôËØØËøîÂõû
    522          */
    523          static int32 ICACHE_FLASH_ATTR gizDecompressionValue(uint32 bitOffset,uint32 bitLen,uint8 *arrayAddr,uint32 arrayLen)
    524          {
    525              int32 destValue = 0;
    526              return destValue;
    527          }
    528          /**
    529          * @brief Ê†πÊçÆÂçèËÆÆÁîüÊàê‚ÄúÊéßÂà∂Âûã‰∫ã‰ª∂‚Ä?
    530          * @param [in] issuedData  ÔºöÊéßÂà∂ÂûãÊï∞ÊçÆ
    531          * @param [out] info       Ôºö‰∫ã‰ª∂ÈòüÂà?* @param [out] dataPoints ÔºöÊï∞ÊçÆÁÇπÊï∞ÊçÆ
    532          * @return 0ÔºåÊâßË°åÊàêÂäüÔºå Èù?0ÔºåÂ§±Ë¥?*/

   \                                 In  segment BANKED_CODE, align 1, keep-with-next
    533          static int8 ICACHE_FLASH_ATTR gizDataPoint2Event(uint8 *issuedData, eventInfo_t *info, dataPoint_t *dataPoints)
   \                     gizDataPoint2Event:
    534          {
   \   000000   74F1         MOV     A,#-0xf
   \   000002   12....       LCALL   ?BANKED_ENTER_XDATA
   \   000005                ; Saved register size: 15
   \   000005                ; Auto size: 21
   \   000005   74EB         MOV     A,#-0x15
   \   000007   12....       LCALL   ?ALLOC_XSTACK8
   \   00000A   8A..         MOV     ?V0 + 0,R2
   \   00000C   8B..         MOV     ?V0 + 1,R3
   \   00000E   EC           MOV     A,R4
   \   00000F   FE           MOV     R6,A
   \   000010   ED           MOV     A,R5
   \   000011   FF           MOV     R7,A
   \   000012   7424         MOV     A,#0x24
   \   000014   12....       LCALL   ?XSTACK_DISP0_8
   \   000017   E0           MOVX    A,@DPTR
   \   000018   F5..         MOV     ?V0 + 2,A
   \   00001A   A3           INC     DPTR
   \   00001B   E0           MOVX    A,@DPTR
   \   00001C   F5..         MOV     ?V0 + 3,A
    535              uint32 bitFieldByteLen= 0;//‰ΩçÊÆµÂ≠óËäÇÈïøÂ∫¶
    536              uint32 bitFieldOffset = 0;//‰ΩçÊÆµ‰ΩçÂÅèÁß?
                            ^
Warning[Pe177]: variable "bitFieldOffset" was declared but never referenced
    537              uint32 byteFieldOffset = 0;//Â≠óËäÇÊÆµÂÅèÁß?
    538              gizwitsElongateP0Form_t elongateP0FormTmp;
    539              osal_memset((uint8 *)&elongateP0FormTmp,0,sizeof(gizwitsElongateP0Form_t));
   \   00001E                ; Setup parameters for call to function osal_memset
   \   00001E   7C15         MOV     R4,#0x15
   \   000020   7D00         MOV     R5,#0x0
   \   000022   7900         MOV     R1,#0x0
   \   000024   85..82       MOV     DPL,?XSP + 0
   \   000027   85..83       MOV     DPH,?XSP + 1
   \   00002A   AA82         MOV     R2,DPL
   \   00002C   AB83         MOV     R3,DPH
   \   00002E   12....       LCALL   ??osal_memset?relay
    540              osal_memcpy((uint8 *)&elongateP0FormTmp.devDatapointFlag,issuedData,DATAPOINT_FLAG_LEN);
   \   000031                ; Setup parameters for call to function osal_memcpy
   \   000031   85....       MOV     ?V0 + 4,?V0 + 0
   \   000034   85....       MOV     ?V0 + 5,?V0 + 1
   \   000037   75..00       MOV     ?V0 + 6,#0x0
   \   00003A   78..         MOV     R0,#?V0 + 4
   \   00003C   12....       LCALL   ?PUSH_XSTACK_I_THREE
   \   00003F   7C01         MOV     R4,#0x1
   \   000041   7D00         MOV     R5,#0x0
   \   000043   7403         MOV     A,#0x3
   \   000045   12....       LCALL   ?XSTACK_DISP0_8
   \   000048   12....       LCALL   ?Subroutine41 & 0xFFFF
   \                     ??CrossCallReturnLabel_93:
   \   00004B   12....       LCALL   ?DEALLOC_XSTACK8
    541          
    542              if((NULL == issuedData) || (NULL == info) ||(NULL == dataPoints))
   \   00004E   E5..         MOV     A,?V0 + 0
   \   000050   45..         ORL     A,?V0 + 1
   \   000052   600A         JZ      ??gizDataPoint2Event_0
   \   000054   EE           MOV     A,R6
   \   000055   4F           ORL     A,R7
   \   000056   6006         JZ      ??gizDataPoint2Event_0
   \   000058   E5..         MOV     A,?V0 + 2
   \   00005A   45..         ORL     A,?V0 + 3
   \   00005C   7004         JNZ     ??gizDataPoint2Event_1
    543              {
    544                  GIZWITS_LOG("gizDataPoint2Event Error , Illegal Param\n");
    545                  return -1;
   \                     ??gizDataPoint2Event_0:
   \   00005E   79FF         MOV     R1,#-0x1
   \   000060   8049         SJMP    ??gizDataPoint2Event_2
    546              }
    547              /** Â§ß‰∫é1Â≠óËäÇÂÅö‰ΩçÂ∫èËΩ¨Êç?**/
    548              if(DATAPOINT_FLAG_LEN > 1)
    549              {
    550                  if(-1 == gizByteOrderExchange((uint8 *)&elongateP0FormTmp.devDatapointFlag,DATAPOINT_FLAG_LEN))
    551                  {
    552                      GIZWITS_LOG("gizByteOrderExchange Error\n");
    553                      return -1;
    554                  }
    555              }
    556              /* ËÆ°ÁÆó‰ΩçÊÆµÂç†Áî®ÁöÑÂ≠óËäÇÈïøÂ∫?*/
    557              bitFieldByteLen = calculateDynamicBitPartLen(&elongateP0FormTmp.devDatapointFlag);
    558              byteFieldOffset += bitFieldByteLen + DATAPOINT_FLAG_LEN;//Êï∞ÂÄºÊÆµÂ≠óËäÇÂÅèÁßª
    559          
    560          
    561          
    562          
    563              if(0x01 == elongateP0FormTmp.devDatapointFlag.flagaa1)
   \                     ??gizDataPoint2Event_1:
   \   000062   85..82       MOV     DPL,?XSP + 0
   \   000065   85..83       MOV     DPH,?XSP + 1
   \   000068   E0           MOVX    A,@DPTR
   \   000069   A2E0         MOV     C,0xE0 /* A   */.0
   \   00006B   503C         JNC     ??gizDataPoint2Event_3
    564              {
    565                  info->event[info->num] = EVENT_AA1;
   \   00006D   8E82         MOV     DPL,R6
   \   00006F   8F83         MOV     DPH,R7
   \   000071   E0           MOVX    A,@DPTR
   \   000072   F8           MOV     R0,A
   \   000073   EE           MOV     A,R6
   \   000074   28           ADD     A,R0
   \   000075   F582         MOV     DPL,A
   \   000077   EF           MOV     A,R7
   \   000078   3400         ADDC    A,#0x0
   \   00007A   F583         MOV     DPH,A
   \   00007C   A3           INC     DPTR
   \   00007D   7410         MOV     A,#0x10
   \   00007F   F0           MOVX    @DPTR,A
    566                  info->num++;
   \   000080   8E82         MOV     DPL,R6
   \   000082   8F83         MOV     DPH,R7
   \   000084   E0           MOVX    A,@DPTR
   \   000085   04           INC     A
   \   000086   F0           MOVX    @DPTR,A
    567                  osal_memcpy((uint8 *)dataPoints->valueaa1,(uint8 *)&issuedData[byteFieldOffset],20);
   \   000087                ; Setup parameters for call to function osal_memcpy
   \   000087   85..82       MOV     DPL,?V0 + 0
   \   00008A   85..83       MOV     DPH,?V0 + 1
   \   00008D   A3           INC     DPTR
   \   00008E   A982         MOV     R1,DPL
   \   000090   AA83         MOV     R2,DPH
   \   000092   89..         MOV     ?V0 + 4,R1
   \   000094   8A..         MOV     ?V0 + 5,R2
   \   000096   78..         MOV     R0,#?V0 + 4
   \   000098   12....       LCALL   ?PUSH_XSTACK_I_THREE
   \   00009B   7C14         MOV     R4,#0x14
   \   00009D   7D00         MOV     R5,#0x0
   \   00009F   AA..         MOV     R2,?V0 + 2
   \   0000A1   AB..         MOV     R3,?V0 + 3
   \   0000A3   12....       LCALL   ??Subroutine62_0 & 0xFFFF
   \                     ??CrossCallReturnLabel_106:
   \   0000A6   12....       LCALL   ?DEALLOC_XSTACK8
    568                  byteFieldOffset += AA1_LEN;
    569              }
    570          
    571              return 0;
   \                     ??gizDataPoint2Event_3:
   \   0000A9   7900         MOV     R1,#0x0
   \                     ??gizDataPoint2Event_2:
   \   0000AB   7415         MOV     A,#0x15
   \   0000AD                REQUIRE ?Subroutine5
   \   0000AD                ; // Fall through to label ?Subroutine5
    572          }

   \                                 In  segment BANKED_CODE, align 1, keep-with-next
   \                     ?Subroutine5:
   \   000000   12....       LCALL   ?DEALLOC_XSTACK8
   \   000003   7F07         MOV     R7,#0x7
   \   000005   02....       LJMP    ?BANKED_LEAVE_XDATA

   \                                 In  segment BANKED_CODE, align 1, keep-with-next
   \                     ?Subroutine41:
   \   000000   AA82         MOV     R2,DPL
   \   000002   AB83         MOV     R3,DPH
   \   000004                REQUIRE ??Subroutine62_0
   \   000004                ; // Fall through to label ??Subroutine62_0
    573          
    574          
    575          /**
    576          * @brief ÂØπÊØîÂΩìÂâçÊï∞ÊçÆÂíå‰∏äÊ¨°Êï∞Êç?*
    577          * @param [in] cur        : ÂΩìÂâçÊï∞ÊçÆÁÇπÊï∞Êç?* @param [in] last       : ‰∏äÊ¨°Êï∞ÊçÆÁÇπÊï∞Êç?*
    578          * @return : 0,Êï∞ÊçÆÊó†ÂèòÂå?1ÔºåÊï∞ÊçÆÊúâÂèòÂåñ
    579          */
    580          #pragma optimize=none

   \                                 In  segment BANKED_CODE, align 1, keep-with-next
    581          static int8 ICACHE_FLASH_ATTR gizCheckReport(dataPoint_t *cur, dataPoint_t *last)
   \                     gizCheckReport:
    582          {
   \   000000   74F1         MOV     A,#-0xf
   \   000002   12....       LCALL   ?BANKED_ENTER_XDATA
   \   000005                ; Saved register size: 15
   \   000005                ; Auto size: 0
   \   000005   8A..         MOV     ?V0 + 0,R2
   \   000007   8B..         MOV     ?V0 + 1,R3
   \   000009   EC           MOV     A,R4
   \   00000A   FE           MOV     R6,A
   \   00000B   ED           MOV     A,R5
   \   00000C   FF           MOV     R7,A
    583              int8 ret = 0;
   \   00000D   75..00       MOV     ?V0 + 2,#0x0
    584              static uint32 lastReportTime = 0;
                                   ^
Warning[Pe177]: variable "lastReportTime" was declared but never referenced
    585          
    586              if((NULL == cur) || (NULL == last))
   \   000010   E5..         MOV     A,?V0 + 0
   \   000012   45..         ORL     A,?V0 + 1
   \   000014   6004         JZ      ??gizCheckReport_0
   \   000016   EE           MOV     A,R6
   \   000017   4F           ORL     A,R7
   \   000018   7004         JNZ     ??gizCheckReport_1
    587              {
    588                  GIZWITS_LOG("gizCheckReport Error , Illegal Param\n");
    589                  return -1;
   \                     ??gizCheckReport_0:
   \   00001A   79FF         MOV     R1,#-0x1
   \   00001C   8035         SJMP    ??gizCheckReport_2
    590              }
    591              if(TRUE != osal_memcmp((uint8 *)&last->valueaa1,(uint8 *)&cur->valueaa1,sizeof(last->valueaa1)))
   \                     ??gizCheckReport_1:
   \   00001E                ; Setup parameters for call to function osal_memcmp
   \   00001E   85....       MOV     ?V0 + 4,?V0 + 0
   \   000021   85....       MOV     ?V0 + 5,?V0 + 1
   \   000024   75..00       MOV     ?V0 + 6,#0x0
   \   000027   78..         MOV     R0,#?V0 + 4
   \   000029   12....       LCALL   ?PUSH_XSTACK_I_THREE
   \   00002C   7C14         MOV     R4,#0x14
   \   00002E   7D00         MOV     R5,#0x0
   \   000030   8E82         MOV     DPL,R6
   \   000032   8F83         MOV     DPH,R7
   \   000034   A982         MOV     R1,DPL
   \   000036   AA83         MOV     R2,DPH
   \   000038   7B00         MOV     R3,#0x0
   \   00003A   12....       LCALL   ??osal_memcmp?relay
   \   00003D   7403         MOV     A,#0x3
   \   00003F   12....       LCALL   ?DEALLOC_XSTACK8
   \   000042   E9           MOV     A,R1
   \   000043   6401         XRL     A,#0x1
   \   000045   600A         JZ      ??gizCheckReport_3
    592              {
    593                  GIZWITS_LOG("valueaa1 Changed\n");
    594                  gizwitsProtocol.waitReportDatapointFlag.flagaa1 = 1;
   \   000047   90....       MOV     DPTR,#gizwitsProtocol + 168
   \   00004A   E0           MOVX    A,@DPTR
   \   00004B   D2E0         SETB    0xE0 /* A   */.0
   \   00004D   F0           MOVX    @DPTR,A
    595                  ret = 1;
   \   00004E   75..01       MOV     ?V0 + 2,#0x1
    596              }
    597          
    598          
    599              return ret;
   \                     ??gizCheckReport_3:
   \   000051   A9..         MOV     R1,?V0 + 2
   \                     ??gizCheckReport_2:
   \   000053   7F07         MOV     R7,#0x7
   \   000055   02....       LJMP    ?BANKED_LEAVE_XDATA
    600          }
    601          
    602          /**
    603          * @brief Áî®Êà∑Êï∞ÊçÆÁÇπÊï∞ÊçÆËΩ¨Êç¢‰∏∫Êú∫Êô∫‰∫ë‰∏äÊä•Êï∞ÊçÆÁÇπÊï∞ÊçÆ
    604          *
    605          * @param [in]  dataPoints           : Áî®Êà∑Êï∞ÊçÆÁÇπÊï∞ÊçÆÂú∞ÂùÄ
    606          * @param [out] devStatusPtr         : Êú∫Êô∫‰∫ë‰∏äÊä•Êï∞ÊçÆÁÇπÊï∞ÊçÆÂú∞ÂùÄ
    607          *
    608          * @return 0,Ê≠£Á°ÆËøîÂõû;-1ÔºåÈîôËØØËøîÂõ?*/

   \                                 In  segment BANKED_CODE, align 1, keep-with-next
   \                     ?Subroutine1:
   \   000000   12....       LCALL   ?DEALLOC_XSTACK8
   \   000003                REQUIRE ??Subroutine61_0
   \   000003                ; // Fall through to label ??Subroutine61_0

   \                                 In  segment BANKED_CODE, align 1, keep-with-next
    609          static int8 ICACHE_FLASH_ATTR gizDataPoints2ReportData(dataPoint_t *dataPoints , uint8 *outData,uint32 *outDataLen)
   \                     gizDataPoints2ReportData:
    610          {
   \   000000   74F0         MOV     A,#-0x10
   \   000002   12....       LCALL   ?BANKED_ENTER_XDATA
   \   000005                ; Saved register size: 16
   \   000005                ; Auto size: 21
   \   000005   74EB         MOV     A,#-0x15
   \   000007   12....       LCALL   ?ALLOC_XSTACK8
   \   00000A   EA           MOV     A,R2
   \   00000B   FE           MOV     R6,A
   \   00000C   EB           MOV     A,R3
   \   00000D   FF           MOV     R7,A
   \   00000E   8C..         MOV     ?V0 + 2,R4
   \   000010   8D..         MOV     ?V0 + 3,R5
   \   000012   7425         MOV     A,#0x25
   \   000014   12....       LCALL   ?XSTACK_DISP0_8
   \   000017   12....       LCALL   ?Subroutine56 & 0xFFFF
    611              uint32 bitFieldByteLen= 0;//‰ΩçÊÆµÂ≠óËäÇÂ§ßÂ∞è
    612              uint32 bitFieldOffset = 0;//‰ΩçÂÅèÁß?  
    613              uint32 byteFieldOffset = 0;//Â≠óËäÇÂÅèÁßª
    614          
    615              uint8 allDatapointByteBuf[sizeof(gizwitsElongateP0Form_t)];//ÂºÄËæüÊúÄÂ§ßÊï∞ÊçÆÁÇπÁ©∫Èó¥
    616              osal_memset(allDatapointByteBuf,0,sizeof(gizwitsElongateP0Form_t));
   \                     ??CrossCallReturnLabel_88:
   \   00001A                ; Setup parameters for call to function osal_memset
   \   00001A   7C15         MOV     R4,#0x15
   \   00001C   7D00         MOV     R5,#0x0
   \   00001E   7900         MOV     R1,#0x0
   \   000020   85..82       MOV     DPL,?XSP + 0
   \   000023   85..83       MOV     DPH,?XSP + 1
   \   000026   AA82         MOV     R2,DPL
   \   000028   AB83         MOV     R3,DPH
   \   00002A   12....       LCALL   ??osal_memset?relay
    617          
    618              osal_memcpy(allDatapointByteBuf,(uint8 *)&gizwitsProtocol.waitReportDatapointFlag,DATAPOINT_FLAG_LEN);
   \   00002D                ; Setup parameters for call to function osal_memcpy
   \   00002D   75....       MOV     ?V0 + 4,#(gizwitsProtocol + 168) & 0xff
   \   000030   75....       MOV     ?V0 + 5,#((gizwitsProtocol + 168) >> 8) & 0xff
   \   000033   75..00       MOV     ?V0 + 6,#0x0
   \   000036   78..         MOV     R0,#?V0 + 4
   \   000038   12....       LCALL   ?PUSH_XSTACK_I_THREE
   \   00003B   7C01         MOV     R4,#0x1
   \   00003D   7D00         MOV     R5,#0x0
   \   00003F   7403         MOV     A,#0x3
   \   000041   12....       LCALL   ?XSTACK_DISP0_8
   \   000044   12....       LCALL   ?Subroutine41 & 0xFFFF
   \                     ??CrossCallReturnLabel_94:
   \   000047   12....       LCALL   ?DEALLOC_XSTACK8
    619              if(DATAPOINT_FLAG_LEN > 1)
    620              {
    621                  gizByteOrderExchange(allDatapointByteBuf,DATAPOINT_FLAG_LEN);
    622              }
    623              byteFieldOffset += DATAPOINT_FLAG_LEN;//ÂÖàÂÅèÁßªÂá∫FlagÂ§ßÂ∞èÁöÑ‰ΩçÁΩ?        
    624              devStatus_t devStatusTmp;//‰∏¥Êó∂ËÆæÂ§áÊï∞ÊçÆÁÇπÂèòÈá?    
                                 ^
Warning[Pe177]: variable "devStatusTmp" was declared but never referenced
    625              if((NULL == dataPoints) || (NULL == outData))
   \   00004A   EE           MOV     A,R6
   \   00004B   4F           ORL     A,R7
   \   00004C   6006         JZ      ??gizDataPoints2ReportData_0
   \   00004E   E5..         MOV     A,?V0 + 2
   \   000050   45..         ORL     A,?V0 + 3
   \   000052   7004         JNZ     ??gizDataPoints2ReportData_1
    626              {
    627                  GIZWITS_LOG("gizDataPoints2ReportData Error , Illegal Param\n");
    628                  return -1;
   \                     ??gizDataPoints2ReportData_0:
   \   000054   79FF         MOV     R1,#-0x1
   \   000056   807C         SJMP    ??gizDataPoints2ReportData_2
    629              }
    630          
    631              /*** Â°´ÂÖÖ‰ΩçÊÆµ ***/
    632          
    633              /* ÂæÖbitÊÆµÊãºË£ÖÁªìÊù?ËÆ°ÁÆóÊï∞ÂÄºÊÆµÁöÑÂÅèÁß?*/
    634              if(0 == bitFieldOffset)
    635              {
    636                  bitFieldByteLen = 0;
    637              }
    638              else
    639              {
    640                  if(0 == bitFieldOffset%8)
    641                  {
    642                      bitFieldByteLen = bitFieldOffset/8;
    643                  }
    644                  else
    645                  {
    646                      bitFieldByteLen = bitFieldOffset/8 + 1;
    647                  }
    648              }
    649              /** ‰ΩçÊÆµÂ≠óËäÇÂ∫èËΩ¨Êç?**/
    650              if(bitFieldByteLen > 1)
    651              {
    652                  gizByteOrderExchange((uint8 *)&allDatapointByteBuf[byteFieldOffset],bitFieldByteLen);
    653              }
    654              
    655              byteFieldOffset += bitFieldByteLen;//ÂÅèÁßªÂá∫‰ΩçÊÆµÂç†Áî®Â≠óËäÇÊï∞
   \                     ??gizDataPoints2ReportData_1:
   \   000058   90....       MOV     DPTR,#__Constant_1
   \   00005B   78..         MOV     R0,#?V0 + 4
   \   00005D   12....       LCALL   ?L_MOV_X
    656          
    657              /*** Â§ÑÁêÜÊï∞ÂÄºÊÆµ ***/
    658          
    659          
    660          
    661          
    662          
    663              if(gizwitsProtocol.waitReportDatapointFlag.flagaa1)
   \   000060   90....       MOV     DPTR,#gizwitsProtocol + 168
   \   000063   E0           MOVX    A,@DPTR
   \   000064   A2E0         MOV     C,0xE0 /* A   */.0
   \   000066   5023         JNC     ??gizDataPoints2ReportData_3
    664              {
    665                  osal_memcpy((uint8 *)&allDatapointByteBuf[byteFieldOffset],(uint8 *)dataPoints->valueaa1,sizeof(dataPoints->valueaa1));
   \   000068                ; Setup parameters for call to function osal_memcpy
   \   000068   8E..         MOV     ?V0 + 4,R6
   \   00006A   8F..         MOV     ?V0 + 5,R7
   \   00006C   75..00       MOV     ?V0 + 6,#0x0
   \   00006F   78..         MOV     R0,#?V0 + 4
   \   000071   12....       LCALL   ?PUSH_XSTACK_I_THREE
   \   000074   7C14         MOV     R4,#0x14
   \   000076   7D00         MOV     R5,#0x0
   \   000078   7404         MOV     A,#0x4
   \   00007A   12....       LCALL   ?XSTACK_DISP0_8
   \   00007D   12....       LCALL   ?Subroutine41 & 0xFFFF
   \                     ??CrossCallReturnLabel_95:
   \   000080   12....       LCALL   ?DEALLOC_XSTACK8
    666                  byteFieldOffset += sizeof(dataPoints->valueaa1);
   \   000083   90....       MOV     DPTR,#__Constant_15
   \   000086   78..         MOV     R0,#?V0 + 4
   \   000088   12....       LCALL   ?L_MOV_X
    667              }
    668          
    669              osal_memset((uint8 *)&gizwitsProtocol.waitReportDatapointFlag,0,DATAPOINT_FLAG_LEN);//Ê∏ÖÁ©∫Ê†áÂøó‰Ω?  
   \                     ??gizDataPoints2ReportData_3:
   \   00008B                ; Setup parameters for call to function osal_memset
   \   00008B   7C01         MOV     R4,#0x1
   \   00008D   7D00         MOV     R5,#0x0
   \   00008F   7900         MOV     R1,#0x0
   \   000091   7A..         MOV     R2,#(gizwitsProtocol + 168) & 0xff
   \   000093   7B..         MOV     R3,#((gizwitsProtocol + 168) >> 8) & 0xff
   \   000095   12....       LCALL   ??osal_memset?relay
    670              *outDataLen = byteFieldOffset;
   \   000098   85..82       MOV     DPL,?V0 + 0
   \   00009B   85..83       MOV     DPH,?V0 + 1
   \   00009E   78..         MOV     R0,#?V0 + 4
   \   0000A0   12....       LCALL   ?L_MOV_TO_X
    671              osal_memcpy(outData,allDatapointByteBuf,*outDataLen);
   \   0000A3                ; Setup parameters for call to function osal_memcpy
   \   0000A3   85..82       MOV     DPL,?XSP + 0
   \   0000A6   85..83       MOV     DPH,?XSP + 1
   \   0000A9   A982         MOV     R1,DPL
   \   0000AB   AA83         MOV     R2,DPH
   \   0000AD   89..         MOV     ?V0 + 4,R1
   \   0000AF   8A..         MOV     ?V0 + 5,R2
   \   0000B1   75..00       MOV     ?V0 + 6,#0x0
   \   0000B4   78..         MOV     R0,#?V0 + 4
   \   0000B6   12....       LCALL   ?PUSH_XSTACK_I_THREE
   \   0000B9   85..82       MOV     DPL,?V0 + 0
   \   0000BC   85..83       MOV     DPH,?V0 + 1
   \   0000BF   78..         MOV     R0,#?V0 + 4
   \   0000C1   12....       LCALL   ?L_MOV_X
   \   0000C4   AC..         MOV     R4,?V0 + 4
   \   0000C6   AD..         MOV     R5,?V0 + 5
   \   0000C8   AA..         MOV     R2,?V0 + 2
   \   0000CA   AB..         MOV     R3,?V0 + 3
   \   0000CC   12....       LCALL   ??Subroutine62_0 & 0xFFFF
   \                     ??CrossCallReturnLabel_107:
   \   0000CF   12....       LCALL   ?DEALLOC_XSTACK8
    672              return 0;
   \   0000D2   7900         MOV     R1,#0x0
   \                     ??gizDataPoints2ReportData_2:
   \   0000D4   7415         MOV     A,#0x15
   \   0000D6   02....       LJMP    ?Subroutine1 & 0xFFFF
    673          }
    674          
    675          /**@} */
    676          
    677          
    678          /**
    679          * @brief Êé•Êî∂ÂçèËÆÆÊä•ÊñáÂπ∂ËøõË°åÁõ∏Â∫îÁöÑÂçèËÆÆÂ§ÑÁêÜ
    680          
    681          * WifiÊ®°ÁªÑÊé•Êî∂Êù•Ëá™‰∫ëÁ´ØÊàñAPPÁ´Ø‰∏ãÂèëÁöÑÁõ∏ÂÖ≥ÂçèËÆÆÊï∞ÊçÆÂèëÈÄÅÂà∞MCUÁ´ØÔºåÁªèËøáÂçèËÆÆÊä•ÊñáËß£ÊûêÂêéÂ∞ÜÁõ∏ÂÖ≥ÂçèËÆÆÊï∞ÊçÆ‰º†ÂÖ•Ê¨°ÂáΩÊï∞ÔºåËøõË°å‰∏ã‰∏ÄÊ≠•ÁöÑÂçèËÆÆÂ§ÑÁêÜ
    682          
    683          * @param[in] inData   : ËæìÂÖ•ÁöÑÂçèËÆÆÊï∞Êç?* @param[in] inLen    : ËæìÂÖ•Êï∞ÊçÆÁöÑÈïøÂ∫?* @param[out] outData : ËæìÂá∫ÁöÑÂçèËÆÆÊï∞Êç?* @param[out] outLen  : ËæìÂá∫Êï∞ÊçÆÁöÑÈïøÂ∫?* @return 0Ôº?ÊâßË°åÊàêÂäüÔº?Èù?0Ôº?Â§±Ë¥•
    684          */

   \                                 In  segment BANKED_CODE, align 1, keep-with-next
    685          static int8 gizProtocolIssuedProcess(uint8 *inData, uint32 inLen, uint8 *outData, uint32 *outLen)
   \                     gizProtocolIssuedProcess:
    686          {
   \   000000   74EF         MOV     A,#-0x11
   \   000002   12....       LCALL   ?BANKED_ENTER_XDATA
   \   000005                ; Saved register size: 17
   \   000005                ; Auto size: 0
   \   000005   8A..         MOV     ?V0 + 2,R2
   \   000007   8B..         MOV     ?V0 + 3,R3
   \   000009   8C..         MOV     ?V0 + 0,R4
   \   00000B   8D..         MOV     ?V0 + 1,R5
   \   00000D   7411         MOV     A,#0x11
   \   00000F   12....       LCALL   ?XSTACK_DISP0_8
   \   000012   78..         MOV     R0,#?V0 + 4
   \   000014   12....       LCALL   ?L_MOV_X
   \   000017   7415         MOV     A,#0x15
   \   000019   12....       LCALL   ?XSTACK_DISP0_8
   \   00001C   E0           MOVX    A,@DPTR
   \   00001D   FE           MOV     R6,A
   \   00001E   A3           INC     DPTR
   \   00001F   E0           MOVX    A,@DPTR
   \   000020   FF           MOV     R7,A
    687              protocolP0Head_t *protocolIssuedData = (protocolP0Head_t *)inData;
    688              uint8 issuedAction = 0;
    689              issuedAction = protocolIssuedData->action;
   \   000021   8A82         MOV     DPL,R2
   \   000023   8B83         MOV     DPH,R3
   \   000025   A3           INC     DPTR
   \   000026   A3           INC     DPTR
   \   000027   A3           INC     DPTR
   \   000028   A3           INC     DPTR
   \   000029   A3           INC     DPTR
   \   00002A   A3           INC     DPTR
   \   00002B   A3           INC     DPTR
   \   00002C   A3           INC     DPTR
   \   00002D   E0           MOVX    A,@DPTR
   \   00002E   F5..         MOV     ?V0 + 8,A
    690          
    691              if((NULL == inData)||(NULL == outData)||(NULL == outLen))
   \   000030   EA           MOV     A,R2
   \   000031   45..         ORL     A,?V0 + 3
   \   000033   6009         JZ      ??gizProtocolIssuedProcess_0
   \   000035   EC           MOV     A,R4
   \   000036   45..         ORL     A,?V0 + 1
   \   000038   6004         JZ      ??gizProtocolIssuedProcess_0
   \   00003A   EE           MOV     A,R6
   \   00003B   4F           ORL     A,R7
   \   00003C   7005         JNZ     ??gizProtocolIssuedProcess_1
    692              {
    693                  GIZWITS_LOG("gizProtocolIssuedProcess Error , Illegal Param\n");
    694                  return -1;
   \                     ??gizProtocolIssuedProcess_0:
   \   00003E   79FF         MOV     R1,#-0x1
   \   000040   02....       LJMP    ??gizProtocolIssuedProcess_2 & 0xFFFF
    695              }
    696              
    697              osal_memset((uint8 *)&gizwitsProtocol.issuedProcessEvent, 0, sizeof(eventInfo_t));
   \                     ??gizProtocolIssuedProcess_1:
   \   000043                ; Setup parameters for call to function osal_memset
   \   000043   7C12         MOV     R4,#0x12
   \   000045   7D00         MOV     R5,#0x0
   \   000047   7900         MOV     R1,#0x0
   \   000049   7A..         MOV     R2,#(gizwitsProtocol + 114) & 0xff
   \   00004B   7B..         MOV     R3,#((gizwitsProtocol + 114) >> 8) & 0xff
   \   00004D   12....       LCALL   ??osal_memset?relay
    698              switch(issuedAction)
   \   000050   E5..         MOV     A,?V0 + 8
   \   000052   24FB         ADD     A,#-0x5
   \   000054   7003         JNZ     $+5
   \   000056   02....       LJMP    ??gizProtocolIssuedProcess_3 & 0xFFFF
   \   000059   24F4         ADD     A,#-0xc
   \   00005B   6006         JZ      ??gizProtocolIssuedProcess_4
   \   00005D   14           DEC     A
   \   00005E   602C         JZ      ??gizProtocolIssuedProcess_5
   \   000060   02....       LJMP    ??gizProtocolIssuedProcess_6 & 0xFFFF
    699              {
    700                  case ACTION_CONTROL_DEVICE:
    701                      GIZWITS_LOG("ACTION_ELONGATE_CONTROL_DEVICE \n");
    702                      gizDataPoint2Event(inData+sizeof(protocolP0Head_t), &gizwitsProtocol.issuedProcessEvent,&gizwitsProtocol.gizCurrentDataPoint);
   \                     ??gizProtocolIssuedProcess_4:
   \   000063                ; Setup parameters for call to function gizDataPoint2Event
   \   000063   75....       MOV     ?V0 + 0,#(gizwitsProtocol + 194) & 0xff
   \   000066   75....       MOV     ?V0 + 1,#((gizwitsProtocol + 194) >> 8) & 0xff
   \   000069   78..         MOV     R0,#?V0 + 0
   \   00006B   12....       LCALL   ?PUSH_XSTACK_I_TWO
   \   00006E   7C..         MOV     R4,#(gizwitsProtocol + 114) & 0xff
   \   000070   7D..         MOV     R5,#((gizwitsProtocol + 114) >> 8) & 0xff
   \   000072   E5..         MOV     A,?V0 + 2
   \   000074   2409         ADD     A,#0x9
   \   000076   FA           MOV     R2,A
   \   000077   E5..         MOV     A,?V0 + 3
   \   000079   3400         ADDC    A,#0x0
   \   00007B   FB           MOV     R3,A
   \   00007C   12....       LCALL   ??gizDataPoint2Event?relay
   \   00007F   7402         MOV     A,#0x2
   \   000081   12....       LCALL   ?DEALLOC_XSTACK8
    703                      gizwitsProtocol.issuedFlag = ACTION_CONTROL_TYPE;
   \   000084   90....       MOV     DPTR,#gizwitsProtocol
   \   000087   7401         MOV     A,#0x1
   \   000089   02....       LJMP    ??gizProtocolIssuedProcess_7 & 0xFFFF
    704                      outData = NULL;
    705                      *outLen = 0;
    706                      break;
    707                  
    708                  case ACTION_READ_DEV_STATUS:
    709                      GIZWITS_LOG("ACTION_ELONGATE_READ_DEV_STATUS \n");          
    710                      osal_memcpy((uint8 *)&gizwitsProtocol.waitReportDatapointFlag,inData+sizeof(protocolP0Head_t),DATAPOINT_FLAG_LEN);//Êã∑Ë¥ùÊü•ËØ¢FLAG               
   \                     ??gizProtocolIssuedProcess_5:
   \   00008C                ; Setup parameters for call to function osal_memcpy
   \   00008C   E5..         MOV     A,?V0 + 2
   \   00008E   2409         ADD     A,#0x9
   \   000090   F5..         MOV     ?V0 + 4,A
   \   000092   E5..         MOV     A,?V0 + 3
   \   000094   3400         ADDC    A,#0x0
   \   000096   F5..         MOV     ?V0 + 5,A
   \   000098   75..00       MOV     ?V0 + 6,#0x0
   \   00009B   78..         MOV     R0,#?V0 + 4
   \   00009D   12....       LCALL   ?PUSH_XSTACK_I_THREE
   \   0000A0   7C01         MOV     R4,#0x1
   \   0000A2   7D00         MOV     R5,#0x0
   \   0000A4   7A..         MOV     R2,#(gizwitsProtocol + 168) & 0xff
   \   0000A6   7B..         MOV     R3,#((gizwitsProtocol + 168) >> 8) & 0xff
   \   0000A8   12....       LCALL   ??Subroutine62_0 & 0xFFFF
   \                     ??CrossCallReturnLabel_108:
   \   0000AB   12....       LCALL   ?DEALLOC_XSTACK8
    711                      if(DATAPOINT_FLAG_LEN > 1)
    712                      {
    713                              gizByteOrderExchange((uint8 *)&gizwitsProtocol.waitReportDatapointFlag,DATAPOINT_FLAG_LEN);
    714                      }
    715                                  
    716                      if(0 == gizDataPoints2ReportData(&gizwitsProtocol.gizLastDataPoint,gizwitsProtocol.reportData,(uint32 *)&gizwitsProtocol.reportDataLen))
   \   0000AE                ; Setup parameters for call to function gizDataPoints2ReportData
   \   0000AE   75....       MOV     ?V0 + 2,#(gizwitsProtocol + 190) & 0xff
   \   0000B1   75....       MOV     ?V0 + 3,#((gizwitsProtocol + 190) >> 8) & 0xff
   \   0000B4   78..         MOV     R0,#?V0 + 2
   \   0000B6   12....       LCALL   ?PUSH_XSTACK_I_TWO
   \   0000B9   7C..         MOV     R4,#(gizwitsProtocol + 169) & 0xff
   \   0000BB   7D..         MOV     R5,#((gizwitsProtocol + 169) >> 8) & 0xff
   \   0000BD   7A..         MOV     R2,#(gizwitsProtocol + 214) & 0xff
   \   0000BF   7B..         MOV     R3,#((gizwitsProtocol + 214) >> 8) & 0xff
   \   0000C1   12....       LCALL   ??gizDataPoints2ReportData?relay
   \   0000C4   7402         MOV     A,#0x2
   \   0000C6   12....       LCALL   ?DEALLOC_XSTACK8
   \   0000C9   E9           MOV     A,R1
   \   0000CA   6003         JZ      $+5
   \   0000CC   02....       LJMP    ??gizProtocolIssuedProcess_0 & 0xFFFF
    717                      {  
    718                          osal_memcpy(outData, (uint8 *)&gizwitsProtocol.reportData, gizwitsProtocol.reportDataLen);
   \   0000CF                ; Setup parameters for call to function osal_memcpy
   \   0000CF   75....       MOV     ?V0 + 4,#(gizwitsProtocol + 169) & 0xff
   \   0000D2   75....       MOV     ?V0 + 5,#((gizwitsProtocol + 169) >> 8) & 0xff
   \   0000D5   78..         MOV     R0,#?V0 + 4
   \   0000D7   12....       LCALL   ?PUSH_XSTACK_I_THREE
   \   0000DA   90....       MOV     DPTR,#gizwitsProtocol + 190
   \   0000DD   78..         MOV     R0,#?V0 + 4
   \   0000DF   12....       LCALL   ?L_MOV_X
   \   0000E2   AC..         MOV     R4,?V0 + 4
   \   0000E4   AD..         MOV     R5,?V0 + 5
   \   0000E6   AA..         MOV     R2,?V0 + 0
   \   0000E8   AB..         MOV     R3,?V0 + 1
   \   0000EA   12....       LCALL   ??Subroutine62_0 & 0xFFFF
   \                     ??CrossCallReturnLabel_109:
   \   0000ED   12....       LCALL   ?DEALLOC_XSTACK8
    719                          *outLen = gizwitsProtocol.reportDataLen;
   \   0000F0   90....       MOV     DPTR,#gizwitsProtocol + 190
   \   0000F3   8060         SJMP    ??gizProtocolIssuedProcess_8
    720                      }
    721                      else
    722                      {
    723                          return -1;
    724                      }
    725                      break;
    726                  case ACTION_W2D_TRANSPARENT_DATA:
    727                      osal_memcpy(gizwitsProtocol.transparentBuff, inData+sizeof(protocolP0Head_t), inLen-sizeof(protocolP0Head_t)-1);
   \                     ??gizProtocolIssuedProcess_3:
   \   0000F5                ; Setup parameters for call to function osal_memcpy
   \   0000F5   E5..         MOV     A,?V0 + 2
   \   0000F7   2409         ADD     A,#0x9
   \   0000F9   F5..         MOV     ?V0 + 0,A
   \   0000FB   E5..         MOV     A,?V0 + 3
   \   0000FD   3400         ADDC    A,#0x0
   \   0000FF   F5..         MOV     ?V0 + 1,A
   \   000101   75..00       MOV     ?V0 + 2,#0x0
   \   000104   78..         MOV     R0,#?V0 + 0
   \   000106   12....       LCALL   ?PUSH_XSTACK_I_THREE
   \   000109   85....       MOV     ?V0 + 0,?V0 + 4
   \   00010C   85....       MOV     ?V0 + 1,?V0 + 5
   \   00010F   E5..         MOV     A,?V0 + 0
   \   000111   24F6         ADD     A,#-0xa
   \   000113   FC           MOV     R4,A
   \   000114   E5..         MOV     A,?V0 + 1
   \   000116   34FF         ADDC    A,#-0x1
   \   000118   FD           MOV     R5,A
   \   000119   7A..         MOV     R2,#(gizwitsProtocol + 32) & 0xff
   \   00011B   7B..         MOV     R3,#((gizwitsProtocol + 32) >> 8) & 0xff
   \   00011D   12....       LCALL   ??Subroutine62_0 & 0xFFFF
   \                     ??CrossCallReturnLabel_110:
   \   000120   12....       LCALL   ?DEALLOC_XSTACK8
    728                      gizwitsProtocol.transparentLen = inLen - sizeof(protocolP0Head_t) - 1;
   \   000123   90....       MOV     DPTR,#__Constant_fffffff6
   \   000126   78..         MOV     R0,#?V0 + 4
   \   000128   12....       LCALL   ?L_ADD_X
   \   00012B   90....       MOV     DPTR,#gizwitsProtocol + 63
   \   00012E   78..         MOV     R0,#?V0 + 4
   \   000130   12....       LCALL   ?L_MOV_TO_X
    729                      gizwitsProtocol.issuedProcessEvent.event[gizwitsProtocol.issuedProcessEvent.num] = TRANSPARENT_DATA;
   \   000133   90....       MOV     DPTR,#gizwitsProtocol + 114
   \   000136   E0           MOVX    A,@DPTR
   \   000137   F8           MOV     R0,A
   \   000138   74..         MOV     A,#(gizwitsProtocol + 115) & 0xff
   \   00013A   28           ADD     A,R0
   \   00013B   F582         MOV     DPL,A
   \   00013D   74..         MOV     A,#((gizwitsProtocol + 115) >> 8) & 0xff
   \   00013F   3400         ADDC    A,#0x0
   \   000141   F583         MOV     DPH,A
   \   000143   740F         MOV     A,#0xf
   \   000145   F0           MOVX    @DPTR,A
    730                      gizwitsProtocol.issuedProcessEvent.num++;
   \   000146   90....       MOV     DPTR,#gizwitsProtocol + 114
   \   000149   E0           MOVX    A,@DPTR
   \   00014A   04           INC     A
   \   00014B   F0           MOVX    @DPTR,A
    731                      gizwitsProtocol.issuedFlag = ACTION_W2D_TRANSPARENT_TYPE;
   \   00014C   90....       MOV     DPTR,#gizwitsProtocol
   \   00014F   7403         MOV     A,#0x3
   \                     ??gizProtocolIssuedProcess_7:
   \   000151   F0           MOVX    @DPTR,A
    732                      outData = NULL;
    733                      *outLen = 0;
   \   000152   90....       MOV     DPTR,#__Constant_0
   \                     ??gizProtocolIssuedProcess_8:
   \   000155   12....       LCALL   ?XLOAD_R2345
   \   000158   8E82         MOV     DPL,R6
   \   00015A   8F83         MOV     DPH,R7
   \   00015C   12....       LCALL   ?XSTORE_R2345
    734                      break;
    735                  
    736                  default:
    737                      break;
    738              }
    739          
    740              return 0;
   \                     ??gizProtocolIssuedProcess_6:
   \   00015F   7900         MOV     R1,#0x0
   \                     ??gizProtocolIssuedProcess_2:
   \   000161   7F09         MOV     R7,#0x9
   \   000163   02....       LJMP    ?BANKED_LEAVE_XDATA
    741          }
    742          /**
    743          * @brief ÂçèËÆÆ‰∏ãÂèëÊï∞ÊçÆËøîÂõûACK
    744          *
    745          * @param [in] head                  : ÂçèËÆÆÂ§¥ÊåáÈí?* @param [in] data                  : Êï∞ÊçÆÂú∞ÂùÄ
    746          * @param [in] len                   : Êï∞ÊçÆÈïøÂ∫¶
    747          *
    748          * @return : ÊúâÊïàÊï∞ÊçÆÈïøÂ∫¶,Ê≠£Á°ÆËøîÂõû;-1ÔºåÈîôËØØËøîÂõ?*/

   \                                 In  segment BANKED_CODE, align 1, keep-with-next
    749          static int32 gizProtocolIssuedDataAck(protocolHead_t *head, uint8 *data, uint32 len)
   \                     gizProtocolIssuedDataAck:
    750          {
   \   000000   74F1         MOV     A,#-0xf
   \   000002   12....       LCALL   ?BANKED_ENTER_XDATA
   \   000005                ; Saved register size: 15
   \   000005                ; Auto size: 31
   \   000005   74E1         MOV     A,#-0x1f
   \   000007   12....       LCALL   ?ALLOC_XSTACK8
   \   00000A   742E         MOV     A,#0x2e
   \   00000C   12....       LCALL   ?XSTACK_DISP0_8
   \   00000F   78..         MOV     R0,#?V0 + 0
   \   000011   12....       LCALL   ?L_MOV_X
    751              int32 ret = 0;
    752              uint16 dataLen = 0;
    753          
    754              uint8 tx_buf[MAX_PACKAGE_LEN];
    755              uint8 *pTxBuf = tx_buf;
    756          
    757              if((NULL == head)||(NULL == data))
   \   000014   EA           MOV     A,R2
   \   000015   4B           ORL     A,R3
   \   000016   6004         JZ      ??gizProtocolIssuedDataAck_0
   \   000018   EC           MOV     A,R4
   \   000019   4D           ORL     A,R5
   \   00001A   700B         JNZ     ??gizProtocolIssuedDataAck_1
    758              {
    759                  GIZWITS_LOG("gizProtocolIssuedDataAck Error , Illegal Param\n");
    760                  return -1;
   \                     ??gizProtocolIssuedDataAck_0:
   \   00001C   7AFF         MOV     R2,#-0x1
   \   00001E   7BFF         MOV     R3,#-0x1
   \   000020   7CFF         MOV     R4,#-0x1
   \   000022   7DFF         MOV     R5,#-0x1
   \   000024   02....       LJMP    ??gizProtocolIssuedDataAck_2 & 0xFFFF
    761              }
    762              
    763              if(0 == len)
   \                     ??gizProtocolIssuedDataAck_1:
   \   000027   E5..         MOV     A,?V0 + 0
   \   000029   45..         ORL     A,?V0 + 1
   \   00002B   45..         ORL     A,?V0 + 2
   \   00002D   45..         ORL     A,?V0 + 3
   \   00002F   7049         JNZ     ??gizProtocolIssuedDataAck_3
    764              {
    765                  dataLen =  5;
   \   000031   7E05         MOV     R6,#0x5
   \   000033   7F00         MOV     R7,#0x0
    766                  *pTxBuf ++= 0xFF;
   \   000035   85..82       MOV     DPL,?XSP + 0
   \   000038   85..83       MOV     DPH,?XSP + 1
   \   00003B   74FF         MOV     A,#-0x1
   \   00003D   F0           MOVX    @DPTR,A
    767                  *pTxBuf ++= 0xFF;
   \   00003E   7401         MOV     A,#0x1
   \   000040   12....       LCALL   ?XSTACK_DISP0_8
   \   000043   74FF         MOV     A,#-0x1
   \   000045   F0           MOVX    @DPTR,A
    768                  *pTxBuf ++= (uint8)(dataLen>>8);//len
   \   000046   7402         MOV     A,#0x2
   \   000048   12....       LCALL   ?XSTACK_DISP0_8
   \   00004B   E4           CLR     A
   \   00004C   F0           MOVX    @DPTR,A
    769                  *pTxBuf ++= (uint8)(dataLen);
   \   00004D   7403         MOV     A,#0x3
   \   00004F   12....       LCALL   ?XSTACK_DISP0_8
   \   000052   12....       LCALL   ?Subroutine17 & 0xFFFF
    770                  *pTxBuf ++= head->cmd+1;
   \                     ??CrossCallReturnLabel_18:
   \   000055   C0E0         PUSH    A
   \   000057   7404         MOV     A,#0x4
   \   000059   12....       LCALL   ?XSTACK_DISP0_8
   \   00005C   D0E0         POP     A
   \   00005E   12....       LCALL   ?Subroutine18 & 0xFFFF
    771                  *pTxBuf ++= head->sn;//sn
   \                     ??CrossCallReturnLabel_20:
   \   000061   C0E0         PUSH    A
   \   000063   EE           MOV     A,R6
   \   000064   12....       LCALL   ?XSTACK_DISP0_8
   \   000067   D0E0         POP     A
   \   000069   F0           MOVX    @DPTR,A
    772                  *pTxBuf ++= 0x00;//flag
   \   00006A   7406         MOV     A,#0x6
   \   00006C   12....       LCALL   ?XSTACK_DISP0_8
   \   00006F   E4           CLR     A
   \   000070   F0           MOVX    @DPTR,A
    773                  *pTxBuf ++= 0x00;//flag
   \   000071   7407         MOV     A,#0x7
   \   000073   12....       LCALL   ?XSTACK_DISP0_8
   \   000076   E4           CLR     A
   \   000077   F0           MOVX    @DPTR,A
   \   000078   806C         SJMP    ??gizProtocolIssuedDataAck_4
    774              }
    775              else
    776              {
    777                  dataLen = 6 + len;
   \                     ??gizProtocolIssuedDataAck_3:
   \   00007A   85....       MOV     ?V0 + 4,?V0 + 0
   \   00007D   85....       MOV     ?V0 + 5,?V0 + 1
   \   000080   E5..         MOV     A,?V0 + 4
   \   000082   2406         ADD     A,#0x6
   \   000084   FE           MOV     R6,A
   \   000085   E5..         MOV     A,?V0 + 5
   \   000087   12....       LCALL   ?Subroutine43 & 0xFFFF
    778                  *pTxBuf ++= 0xFF;
    779                  *pTxBuf ++= 0xFF;
   \                     ??CrossCallReturnLabel_69:
   \   00008A   12....       LCALL   ?XSTACK_DISP0_8
   \   00008D   74FF         MOV     A,#-0x1
   \   00008F   F0           MOVX    @DPTR,A
    780                  *pTxBuf ++= (uint8)(dataLen>>8);//len
   \   000090   7402         MOV     A,#0x2
   \   000092   12....       LCALL   ?XSTACK_DISP0_8
   \   000095   EF           MOV     A,R7
   \   000096   F0           MOVX    @DPTR,A
    781                  *pTxBuf ++= (uint8)(dataLen);
   \   000097   7403         MOV     A,#0x3
   \   000099   12....       LCALL   ?XSTACK_DISP0_8
   \   00009C   12....       LCALL   ?Subroutine17 & 0xFFFF
    782                  *pTxBuf ++= head->cmd+1;//0x1b cmd
   \                     ??CrossCallReturnLabel_19:
   \   00009F   C0E0         PUSH    A
   \   0000A1   7404         MOV     A,#0x4
   \   0000A3   12....       LCALL   ?XSTACK_DISP0_8
   \   0000A6   D0E0         POP     A
   \   0000A8   12....       LCALL   ?Subroutine18 & 0xFFFF
    783                  *pTxBuf ++= head->sn;//sn
   \                     ??CrossCallReturnLabel_21:
   \   0000AB   C0E0         PUSH    A
   \   0000AD   7405         MOV     A,#0x5
   \   0000AF   12....       LCALL   ?XSTACK_DISP0_8
   \   0000B2   D0E0         POP     A
   \   0000B4   F0           MOVX    @DPTR,A
    784                  *pTxBuf ++= 0x00;//flag
   \   0000B5   7406         MOV     A,#0x6
   \   0000B7   12....       LCALL   ?XSTACK_DISP0_8
   \   0000BA   E4           CLR     A
   \   0000BB   F0           MOVX    @DPTR,A
    785                  *pTxBuf ++= 0x00;//flag
   \   0000BC   7407         MOV     A,#0x7
   \   0000BE   12....       LCALL   ?XSTACK_DISP0_8
   \   0000C1   E4           CLR     A
   \   0000C2   F0           MOVX    @DPTR,A
    786                  *pTxBuf ++= ACTION_READ_DEV_STATUS_ACK;//P0_Cmd
   \   0000C3   7408         MOV     A,#0x8
   \   0000C5   12....       LCALL   ?XSTACK_DISP0_8
   \   0000C8   7413         MOV     A,#0x13
   \   0000CA   F0           MOVX    @DPTR,A
    787                  /* Êã∑Ë¥ùÊï∞ÊçÆÁÇπÊï∞Êç?*/
    788                  osal_memcpy(&tx_buf[9],data,len);
   \   0000CB                ; Setup parameters for call to function osal_memcpy
   \   0000CB   8C..         MOV     ?V0 + 4,R4
   \   0000CD   8D..         MOV     ?V0 + 5,R5
   \   0000CF   75..00       MOV     ?V0 + 6,#0x0
   \   0000D2   78..         MOV     R0,#?V0 + 4
   \   0000D4   12....       LCALL   ?PUSH_XSTACK_I_THREE
   \   0000D7   AC..         MOV     R4,?V0 + 0
   \   0000D9   AD..         MOV     R5,?V0 + 1
   \   0000DB   740C         MOV     A,#0xc
   \   0000DD   12....       LCALL   ?XSTACK_DISP0_8
   \   0000E0   12....       LCALL   ?Subroutine41 & 0xFFFF
    789              }
   \                     ??CrossCallReturnLabel_96:
   \   0000E3   12....       LCALL   ?DEALLOC_XSTACK8
   \                     ??gizProtocolIssuedDataAck_4:
   \   0000E6   12....       LCALL   ?Subroutine47 & 0xFFFF
   \                     ??CrossCallReturnLabel_73:
   \   0000E9   F5..         MOV     ?V0 + 2,A
   \   0000EB   F5..         MOV     ?V0 + 3,A
   \   0000ED                ; Setup parameters for call to function gizProtocolSum
   \   0000ED   78..         MOV     R0,#?V0 + 0
   \   0000EF   12....       LCALL   ?PUSH_XSTACK_I_FOUR
   \   0000F2   7404         MOV     A,#0x4
   \   0000F4   12....       LCALL   ?XSTACK_DISP0_8
   \   0000F7   12....       LCALL   ?Subroutine45 & 0xFFFF
   \                     ??CrossCallReturnLabel_141:
   \   0000FA   12....       LCALL   ?DEALLOC_XSTACK8
   \   0000FD   12....       LCALL   ?Subroutine42 & 0xFFFF
    790              tx_buf[dataLen + 4 - 1 ] = gizProtocolSum( tx_buf , (dataLen+4));
    791          
    792              ret = uartWrite(tx_buf, dataLen+4);
    793              if(ret < 0)
    794              {
    795                  //ÊâìÂç∞Êó•Âøó
    796                  GIZWITS_LOG("ERROR: uart write error %d \n", ret);
    797              }
    798              return ret;
   \                     ??CrossCallReturnLabel_67:
   \   000100   12....       LCALL   ?PUSH_XSTACK_I_FOUR
   \   000103   7404         MOV     A,#0x4
   \   000105   12....       LCALL   ?XSTACK_DISP0_8
   \   000108   12....       LCALL   ?Subroutine46 & 0xFFFF
   \                     ??CrossCallReturnLabel_133:
   \   00010B   12....       LCALL   ?DEALLOC_XSTACK8
   \                     ??gizProtocolIssuedDataAck_2:
   \   00010E   741F         MOV     A,#0x1f
   \   000110   02....       LJMP    ?Subroutine5 & 0xFFFF
    799          }

   \                                 In  segment BANKED_CODE, align 1, keep-with-next
   \                     ?Subroutine18:
   \   000000   12....       LCALL   ?Subroutine53 & 0xFFFF
   \                     ??CrossCallReturnLabel_85:
   \   000003   A3           INC     DPTR
   \   000004   E0           MOVX    A,@DPTR
   \   000005   22           RET

   \                                 In  segment BANKED_CODE, align 1, keep-with-next
   \                     ?Subroutine17:
   \   000000   EE           MOV     A,R6
   \   000001   12....       LCALL   ?Subroutine53 & 0xFFFF
   \                     ??CrossCallReturnLabel_86:
   \   000004   E0           MOVX    A,@DPTR
   \   000005   04           INC     A
   \   000006   22           RET

   \                                 In  segment BANKED_CODE, align 1, keep-with-next
   \                     ?Subroutine53:
   \   000000   F0           MOVX    @DPTR,A
   \   000001   8A82         MOV     DPL,R2
   \   000003   8B83         MOV     DPH,R3
   \   000005   A3           INC     DPTR
   \   000006   A3           INC     DPTR
   \   000007   A3           INC     DPTR
   \   000008   A3           INC     DPTR
   \   000009   22           RET

   \                                 In  segment BANKED_CODE, align 1, keep-with-next
   \                     ?Subroutine46:
   \   000000   AA82         MOV     R2,DPL
   \   000002   AB83         MOV     R3,DPH
   \   000004                REQUIRE ??Subroutine65_0
   \   000004                ; // Fall through to label ??Subroutine65_0

   \                                 In  segment BANKED_CODE, align 1, keep-with-next
   \                     ??Subroutine65_0:
   \   000000   12....       LCALL   ??uartWrite?relay
   \   000003   7404         MOV     A,#0x4
   \   000005   22           RET

   \                                 In  segment BANKED_CODE, align 1, keep-with-next
   \                     ?Subroutine45:
   \   000000   AA82         MOV     R2,DPL
   \   000002   AB83         MOV     R3,DPH
   \   000004                REQUIRE ??Subroutine66_0
   \   000004                ; // Fall through to label ??Subroutine66_0

   \                                 In  segment BANKED_CODE, align 1, keep-with-next
   \                     ??Subroutine66_0:
   \   000000   12....       LCALL   ??gizProtocolSum?relay
   \   000003   7404         MOV     A,#0x4
   \   000005   22           RET

   \                                 In  segment BANKED_CODE, align 1, keep-with-next
   \                     ?Subroutine47:
   \   000000   EE           MOV     A,R6
   \   000001   2404         ADD     A,#0x4
   \   000003   F5..         MOV     ?V0 + 0,A
   \   000005   EF           MOV     A,R7
   \   000006   3400         ADDC    A,#0x0
   \   000008   F5..         MOV     ?V0 + 1,A
   \   00000A   E4           CLR     A
   \   00000B   22           RET

   \                                 In  segment BANKED_CODE, align 1, keep-with-next
   \                     ?Subroutine43:
   \   000000   3400         ADDC    A,#0x0
   \   000002   FF           MOV     R7,A
   \   000003   85..82       MOV     DPL,?XSP + 0
   \   000006   85..83       MOV     DPH,?XSP + 1
   \   000009   74FF         MOV     A,#-0x1
   \   00000B   F0           MOVX    @DPTR,A
   \   00000C   7401         MOV     A,#0x1
   \   00000E   22           RET

   \                                 In  segment BANKED_CODE, align 1, keep-with-next
   \                     ?Subroutine42:
   \   000000   85..82       MOV     DPL,?XSP + 0
   \   000003   85..83       MOV     DPH,?XSP + 1
   \   000006   E582         MOV     A,DPL
   \   000008   2E           ADD     A,R6
   \   000009   F582         MOV     DPL,A
   \   00000B   E583         MOV     A,DPH
   \   00000D   3F           ADDC    A,R7
   \   00000E   F583         MOV     DPH,A
   \   000010   A3           INC     DPTR
   \   000011   A3           INC     DPTR
   \   000012   A3           INC     DPTR
   \   000013   E9           MOV     A,R1
   \   000014   F0           MOVX    @DPTR,A
   \   000015                ; Setup parameters for call to function uartWrite
   \   000015                ; Setup parameters for call to function uartWrite
   \   000015   78..         MOV     R0,#?V0 + 0
   \   000017   22           RET
    800          
    801          /**
    802          * @brief ‰∏äÊä•Êï∞ÊçÆ
    803          *
    804          * @param [in] action            : PO cmd
    805          * @param [in] data              : Êï∞ÊçÆÂú∞ÂùÄ
    806          * @param [in] len               : Êï∞ÊçÆÈïøÂ∫¶
    807          *
    808          * @return : Ê≠£Á°ÆËøîÂõûÊúâÊïàÊï∞ÊçÆÈïøÂ∫¶;-1ÔºåÈîôËØØËøîÂõ?*/
    809          #pragma optimize=none

   \                                 In  segment BANKED_CODE, align 1, keep-with-next
    810          static int32 gizReportData(uint8 action, uint8 *data, uint32 len)
   \                     gizReportData:
    811          {
   \   000000   74E8         MOV     A,#-0x18
   \   000002   12....       LCALL   ?BANKED_ENTER_XDATA
   \   000005                ; Saved register size: 24
   \   000005                ; Auto size: 32
   \   000005   74E0         MOV     A,#-0x20
   \   000007   12....       LCALL   ?ALLOC_XSTACK8
   \   00000A   E9           MOV     A,R1
   \   00000B   85..82       MOV     DPL,?XSP + 0
   \   00000E   85..83       MOV     DPH,?XSP + 1
   \   000011   F0           MOVX    @DPTR,A
   \   000012   8A..         MOV     ?V0 + 14,R2
   \   000014   8B..         MOV     ?V0 + 15,R3
   \   000016   7438         MOV     A,#0x38
   \   000018   12....       LCALL   ?XSTACK_DISP0_8
   \   00001B   78..         MOV     R0,#?V0 + 4
   \   00001D   12....       LCALL   ?L_MOV_X
    812              int32 ret = 0;
   \   000020   90....       MOV     DPTR,#__Constant_0
   \   000023   78..         MOV     R0,#?V0 + 8
   \   000025   12....       LCALL   ?L_MOV_X
    813              uint8 tx_buf[MAX_PACKAGE_LEN];
    814              if(NULL == data)
   \   000028   E5..         MOV     A,?V0 + 14
   \   00002A   45..         ORL     A,?V0 + 15
   \   00002C   700B         JNZ     ??gizReportData_0
    815              {
    816                  GIZWITS_LOG("[Error] gizwitsPassthroughData Error \n");
    817                  return (-1);
   \   00002E   7AFF         MOV     R2,#-0x1
   \   000030   7BFF         MOV     R3,#-0x1
   \   000032   7CFF         MOV     R4,#-0x1
   \   000034   7DFF         MOV     R5,#-0x1
   \   000036   02....       LJMP    ??gizReportData_1 & 0xFFFF
    818              }
    819              uint8 *pTxBuf = tx_buf;
   \                     ??gizReportData_0:
   \   000039   7401         MOV     A,#0x1
   \   00003B   12....       LCALL   ?XSTACK_DISP0_8
   \   00003E   8582..       MOV     ?V0 + 12,DPL
   \   000041   8583..       MOV     ?V0 + 13,DPH
    820              uint16 data_len = 6 + len;
   \   000044   85....       MOV     ?V0 + 0,?V0 + 4
   \   000047   85....       MOV     ?V0 + 1,?V0 + 5
   \   00004A   E5..         MOV     A,?V0 + 0
   \   00004C   2406         ADD     A,#0x6
   \   00004E   FE           MOV     R6,A
   \   00004F   E5..         MOV     A,?V0 + 1
   \   000051   3400         ADDC    A,#0x0
   \   000053   FF           MOV     R7,A
    821              *pTxBuf ++= 0xFF;
   \   000054   85..82       MOV     DPL,?V0 + 12
   \   000057   85..83       MOV     DPH,?V0 + 13
   \   00005A   74FF         MOV     A,#-0x1
   \   00005C   F0           MOVX    @DPTR,A
   \   00005D   85..82       MOV     DPL,?V0 + 12
   \   000060   85..83       MOV     DPH,?V0 + 13
   \   000063   A3           INC     DPTR
   \   000064   8582..       MOV     ?V0 + 12,DPL
   \   000067   8583..       MOV     ?V0 + 13,DPH
    822              *pTxBuf ++= 0xFF;
   \   00006A   85..82       MOV     DPL,?V0 + 12
   \   00006D   85..83       MOV     DPH,?V0 + 13
   \   000070   74FF         MOV     A,#-0x1
   \   000072   F0           MOVX    @DPTR,A
   \   000073   85..82       MOV     DPL,?V0 + 12
   \   000076   85..83       MOV     DPH,?V0 + 13
   \   000079   A3           INC     DPTR
   \   00007A   8582..       MOV     ?V0 + 12,DPL
   \   00007D   8583..       MOV     ?V0 + 13,DPH
    823              *pTxBuf ++= (uint8)(data_len>>8);//len
   \   000080   EE           MOV     A,R6
   \   000081   F8           MOV     R0,A
   \   000082   EF           MOV     A,R7
   \   000083   F9           MOV     R1,A
   \   000084   E4           CLR     A
   \   000085   E9           MOV     A,R1
   \   000086   F8           MOV     R0,A
   \   000087   85..82       MOV     DPL,?V0 + 12
   \   00008A   85..83       MOV     DPH,?V0 + 13
   \   00008D   F0           MOVX    @DPTR,A
   \   00008E   85..82       MOV     DPL,?V0 + 12
   \   000091   85..83       MOV     DPH,?V0 + 13
   \   000094   A3           INC     DPTR
   \   000095   8582..       MOV     ?V0 + 12,DPL
   \   000098   8583..       MOV     ?V0 + 13,DPH
    824              *pTxBuf ++= (uint8)(data_len);
   \   00009B   EE           MOV     A,R6
   \   00009C   85..82       MOV     DPL,?V0 + 12
   \   00009F   85..83       MOV     DPH,?V0 + 13
   \   0000A2   F0           MOVX    @DPTR,A
   \   0000A3   85..82       MOV     DPL,?V0 + 12
   \   0000A6   85..83       MOV     DPH,?V0 + 13
   \   0000A9   A3           INC     DPTR
   \   0000AA   8582..       MOV     ?V0 + 12,DPL
   \   0000AD   8583..       MOV     ?V0 + 13,DPH
    825              *pTxBuf ++= CMD_REPORT_P0;//0x1b cmd
   \   0000B0   85..82       MOV     DPL,?V0 + 12
   \   0000B3   85..83       MOV     DPH,?V0 + 13
   \   0000B6   7405         MOV     A,#0x5
   \   0000B8   F0           MOVX    @DPTR,A
   \   0000B9   85..82       MOV     DPL,?V0 + 12
   \   0000BC   85..83       MOV     DPH,?V0 + 13
   \   0000BF   A3           INC     DPTR
   \   0000C0   8582..       MOV     ?V0 + 12,DPL
   \   0000C3   8583..       MOV     ?V0 + 13,DPH
    826              *pTxBuf ++= gizwitsProtocol.sn++;//sn
   \   0000C6   90....       MOV     DPTR,#gizwitsProtocol + 67
   \   0000C9   78..         MOV     R0,#?V0 + 0
   \   0000CB   12....       LCALL   ?L_MOV_X
   \   0000CE   E5..         MOV     A,?V0 + 0
   \   0000D0   85..82       MOV     DPL,?V0 + 12
   \   0000D3   85..83       MOV     DPH,?V0 + 13
   \   0000D6   E5..         MOV     A,?V0 + 0
   \   0000D8   F0           MOVX    @DPTR,A
   \   0000D9   90....       MOV     DPTR,#__Constant_1
   \   0000DC   78..         MOV     R0,#?V0 + 0
   \   0000DE   12....       LCALL   ?L_MOV_X
   \   0000E1   90....       MOV     DPTR,#gizwitsProtocol + 67
   \   0000E4   78..         MOV     R0,#?V0 + 0
   \   0000E6   12....       LCALL   ?L_ADD_TO_X
   \   0000E9   85..82       MOV     DPL,?V0 + 12
   \   0000EC   85..83       MOV     DPH,?V0 + 13
   \   0000EF   A3           INC     DPTR
   \   0000F0   8582..       MOV     ?V0 + 12,DPL
   \   0000F3   8583..       MOV     ?V0 + 13,DPH
    827              *pTxBuf ++= 0x00;//flag
   \   0000F6   85..82       MOV     DPL,?V0 + 12
   \   0000F9   85..83       MOV     DPH,?V0 + 13
   \   0000FC   7400         MOV     A,#0x0
   \   0000FE   F0           MOVX    @DPTR,A
   \   0000FF   85..82       MOV     DPL,?V0 + 12
   \   000102   85..83       MOV     DPH,?V0 + 13
   \   000105   A3           INC     DPTR
   \   000106   8582..       MOV     ?V0 + 12,DPL
   \   000109   8583..       MOV     ?V0 + 13,DPH
    828              *pTxBuf ++= 0x00;//flag
   \   00010C   85..82       MOV     DPL,?V0 + 12
   \   00010F   85..83       MOV     DPH,?V0 + 13
   \   000112   7400         MOV     A,#0x0
   \   000114   F0           MOVX    @DPTR,A
   \   000115   85..82       MOV     DPL,?V0 + 12
   \   000118   85..83       MOV     DPH,?V0 + 13
   \   00011B   A3           INC     DPTR
   \   00011C   8582..       MOV     ?V0 + 12,DPL
   \   00011F   8583..       MOV     ?V0 + 13,DPH
    829              *pTxBuf ++= action;//P0_Cmd
   \   000122   85..82       MOV     DPL,?XSP + 0
   \   000125   85..83       MOV     DPH,?XSP + 1
   \   000128   E0           MOVX    A,@DPTR
   \   000129   85..82       MOV     DPL,?V0 + 12
   \   00012C   85..83       MOV     DPH,?V0 + 13
   \   00012F   F0           MOVX    @DPTR,A
   \   000130   85..82       MOV     DPL,?V0 + 12
   \   000133   85..83       MOV     DPH,?V0 + 13
   \   000136   A3           INC     DPTR
   \   000137   8582..       MOV     ?V0 + 12,DPL
   \   00013A   8583..       MOV     ?V0 + 13,DPH
    830          
    831              /* Êã∑Ë¥ùÊï∞ÊçÆÁÇπÊï∞Êç?*/
    832              osal_memcpy(&tx_buf[9],data,len);
   \   00013D                ; Setup parameters for call to function osal_memcpy
   \   00013D   85....       MOV     ?V0 + 0,?V0 + 14
   \   000140   85....       MOV     ?V0 + 1,?V0 + 15
   \   000143   75..00       MOV     ?V0 + 2,#0x0
   \   000146   78..         MOV     R0,#?V0 + 0
   \   000148   12....       LCALL   ?PUSH_XSTACK_I_THREE
   \   00014B   85....       MOV     ?V0 + 0,?V0 + 4
   \   00014E   85....       MOV     ?V0 + 1,?V0 + 5
   \   000151   AC..         MOV     R4,?V0 + 0
   \   000153   AD..         MOV     R5,?V0 + 1
   \   000155   740D         MOV     A,#0xd
   \   000157   12....       LCALL   ?XSTACK_DISP0_8
   \   00015A   AA82         MOV     R2,DPL
   \   00015C   AB83         MOV     R3,DPH
   \   00015E   12....       LCALL   ??osal_memcpy?relay
   \   000161   7403         MOV     A,#0x3
   \   000163   12....       LCALL   ?DEALLOC_XSTACK8
    833              
    834              tx_buf[data_len + 4 - 1 ] = gizProtocolSum( tx_buf , (data_len+4));
   \   000166                ; Setup parameters for call to function gizProtocolSum
   \   000166   EE           MOV     A,R6
   \   000167   2404         ADD     A,#0x4
   \   000169   F5..         MOV     ?V0 + 0,A
   \   00016B   EF           MOV     A,R7
   \   00016C   3400         ADDC    A,#0x0
   \   00016E   F5..         MOV     ?V0 + 1,A
   \   000170   E4           CLR     A
   \   000171   F5..         MOV     ?V0 + 2,A
   \   000173   F5..         MOV     ?V0 + 3,A
   \   000175   78..         MOV     R0,#?V0 + 0
   \   000177   12....       LCALL   ?PUSH_XSTACK_I_FOUR
   \   00017A   7405         MOV     A,#0x5
   \   00017C   12....       LCALL   ?XSTACK_DISP0_8
   \   00017F   AA82         MOV     R2,DPL
   \   000181   AB83         MOV     R3,DPH
   \   000183   12....       LCALL   ??gizProtocolSum?relay
   \   000186   7404         MOV     A,#0x4
   \   000188   12....       LCALL   ?DEALLOC_XSTACK8
   \   00018B   E9           MOV     A,R1
   \   00018C   C0E0         PUSH    A
   \   00018E   7401         MOV     A,#0x1
   \   000190   12....       LCALL   ?XSTACK_DISP0_8
   \   000193   E582         MOV     A,DPL
   \   000195   2E           ADD     A,R6
   \   000196   F582         MOV     DPL,A
   \   000198   E583         MOV     A,DPH
   \   00019A   3F           ADDC    A,R7
   \   00019B   F583         MOV     DPH,A
   \   00019D   A3           INC     DPTR
   \   00019E   A3           INC     DPTR
   \   00019F   A3           INC     DPTR
   \   0001A0   D0E0         POP     A
   \   0001A2   F0           MOVX    @DPTR,A
    835              
    836                ret = uartWrite(tx_buf, data_len+4);
   \   0001A3                ; Setup parameters for call to function uartWrite
   \   0001A3   EE           MOV     A,R6
   \   0001A4   2404         ADD     A,#0x4
   \   0001A6   F5..         MOV     ?V0 + 0,A
   \   0001A8   EF           MOV     A,R7
   \   0001A9   3400         ADDC    A,#0x0
   \   0001AB   F5..         MOV     ?V0 + 1,A
   \   0001AD   E4           CLR     A
   \   0001AE   F5..         MOV     ?V0 + 2,A
   \   0001B0   F5..         MOV     ?V0 + 3,A
   \   0001B2   78..         MOV     R0,#?V0 + 0
   \   0001B4   12....       LCALL   ?PUSH_XSTACK_I_FOUR
   \   0001B7   7405         MOV     A,#0x5
   \   0001B9   12....       LCALL   ?XSTACK_DISP0_8
   \   0001BC   AA82         MOV     R2,DPL
   \   0001BE   AB83         MOV     R3,DPH
   \   0001C0   12....       LCALL   ??uartWrite?relay
   \   0001C3   7404         MOV     A,#0x4
   \   0001C5   12....       LCALL   ?DEALLOC_XSTACK8
   \   0001C8   8A..         MOV     ?V0 + 0,R2
   \   0001CA   8B..         MOV     ?V0 + 1,R3
   \   0001CC   8C..         MOV     ?V0 + 2,R4
   \   0001CE   8D..         MOV     ?V0 + 3,R5
   \   0001D0   85....       MOV     ?V0 + 8,?V0 + 0
   \   0001D3   85....       MOV     ?V0 + 9,?V0 + 1
   \   0001D6   85....       MOV     ?V0 + 10,?V0 + 2
   \   0001D9   85....       MOV     ?V0 + 11,?V0 + 3
    837              if(ret < 0)
   \   0001DC   90....       MOV     DPTR,#__Constant_0
   \   0001DF   78..         MOV     R0,#?V0 + 8
   \   0001E1   12....       LCALL   ?SL_GE_X
   \   0001E4   400A         JC      ??gizReportData_2
    838              {
    839                  //ÊâìÂç∞Êó•Âøó
    840                  GIZWITS_LOG("ERROR: uart write error %d \n", ret);
    841                  return -1;
   \   0001E6   7AFF         MOV     R2,#-0x1
   \   0001E8   7BFF         MOV     R3,#-0x1
   \   0001EA   7CFF         MOV     R4,#-0x1
   \   0001EC   7DFF         MOV     R5,#-0x1
   \   0001EE   802E         SJMP    ??gizReportData_1
    842              }
    843          
    844              gizProtocolWaitAck(tx_buf, data_len+4);
   \                     ??gizReportData_2:
   \   0001F0                ; Setup parameters for call to function gizProtocolWaitAck
   \   0001F0   EE           MOV     A,R6
   \   0001F1   2404         ADD     A,#0x4
   \   0001F3   F5..         MOV     ?V0 + 0,A
   \   0001F5   EF           MOV     A,R7
   \   0001F6   3400         ADDC    A,#0x0
   \   0001F8   F5..         MOV     ?V0 + 1,A
   \   0001FA   E4           CLR     A
   \   0001FB   F5..         MOV     ?V0 + 2,A
   \   0001FD   F5..         MOV     ?V0 + 3,A
   \   0001FF   78..         MOV     R0,#?V0 + 0
   \   000201   12....       LCALL   ?PUSH_XSTACK_I_FOUR
   \   000204   7405         MOV     A,#0x5
   \   000206   12....       LCALL   ?XSTACK_DISP0_8
   \   000209   AA82         MOV     R2,DPL
   \   00020B   AB83         MOV     R3,DPH
   \   00020D   12....       LCALL   ??gizProtocolWaitAck?relay
   \   000210   7404         MOV     A,#0x4
   \   000212   12....       LCALL   ?DEALLOC_XSTACK8
   \   000215   E9           MOV     A,R1
    845          
    846              return 0;
   \   000216   7A00         MOV     R2,#0x0
   \   000218   7B00         MOV     R3,#0x0
   \   00021A   7C00         MOV     R4,#0x0
   \   00021C   7D00         MOV     R5,#0x0
   \                     ??gizReportData_1:
   \   00021E   7420         MOV     A,#0x20
   \   000220   12....       LCALL   ?DEALLOC_XSTACK8
   \   000223   7F10         MOV     R7,#0x10
   \   000225   02....       LJMP    ?BANKED_LEAVE_XDATA
    847          }
    848          
    849          /**
    850          * @brief ‰∏äÊä•Êú∫Âà∂
    851          *
    852          * @param [in] currentData       : Êï∞ÊçÆÂú∞ÂùÄ
    853          *
    854          * @return : Êó?*/

   \                                 In  segment BANKED_CODE, align 1, keep-with-next
    855          static void gizDevReportPolicy(dataPoint_t *currentData)
   \                     gizDevReportPolicy:
    856          {
   \   000000   74F0         MOV     A,#-0x10
   \   000002   12....       LCALL   ?BANKED_ENTER_XDATA
   \   000005                ; Saved register size: 16
   \   000005                ; Auto size: 0
   \   000005   EA           MOV     A,R2
   \   000006   FE           MOV     R6,A
   \   000007   EB           MOV     A,R3
   \   000008   FF           MOV     R7,A
    857              /** ÂèòÂåñ‰∏äÊä•Êú∫Âà∂ **/
    858              if((1 == gizCheckReport(currentData, (dataPoint_t *)&gizwitsProtocol.gizLastDataPoint)))
   \   000009                ; Setup parameters for call to function gizCheckReport
   \   000009   7C..         MOV     R4,#(gizwitsProtocol + 214) & 0xff
   \   00000B   7D..         MOV     R5,#((gizwitsProtocol + 214) >> 8) & 0xff
   \   00000D   12....       LCALL   ??gizCheckReport?relay
   \   000010   E9           MOV     A,R1
   \   000011   6401         XRL     A,#0x1
   \   000013   704C         JNZ     ??gizDevReportPolicy_0
    859              {
    860                  GIZWITS_LOG("changed, report data\n");
    861                  if(0 == gizDataPoints2ReportData(currentData,gizwitsProtocol.reportData,(uint32 *)&gizwitsProtocol.reportDataLen))
   \   000015                ; Setup parameters for call to function gizDataPoints2ReportData
   \   000015   75....       MOV     ?V0 + 0,#(gizwitsProtocol + 190) & 0xff
   \   000018   75....       MOV     ?V0 + 1,#((gizwitsProtocol + 190) >> 8) & 0xff
   \   00001B   78..         MOV     R0,#?V0 + 0
   \   00001D   12....       LCALL   ?PUSH_XSTACK_I_TWO
   \   000020   7C..         MOV     R4,#(gizwitsProtocol + 169) & 0xff
   \   000022   7D..         MOV     R5,#((gizwitsProtocol + 169) >> 8) & 0xff
   \   000024   EE           MOV     A,R6
   \   000025   FA           MOV     R2,A
   \   000026   EF           MOV     A,R7
   \   000027   FB           MOV     R3,A
   \   000028   12....       LCALL   ??gizDataPoints2ReportData?relay
   \   00002B   7402         MOV     A,#0x2
   \   00002D   12....       LCALL   ?DEALLOC_XSTACK8
   \   000030   E9           MOV     A,R1
   \   000031   7014         JNZ     ??gizDevReportPolicy_1
    862                  {
    863                      gizReportData(ACTION_REPORT_DEV_STATUS, gizwitsProtocol.reportData, gizwitsProtocol.reportDataLen);
   \   000033                ; Setup parameters for call to function gizReportData
   \   000033   90....       MOV     DPTR,#gizwitsProtocol + 190
   \   000036   12....       LCALL   ?PUSH_XSTACK8_X_FOUR
   \   000039   7A..         MOV     R2,#(gizwitsProtocol + 169) & 0xff
   \   00003B   7B..         MOV     R3,#((gizwitsProtocol + 169) >> 8) & 0xff
   \   00003D   7914         MOV     R1,#0x14
   \   00003F   12....       LCALL   ??gizReportData?relay
   \   000042   7404         MOV     A,#0x4
   \   000044   12....       LCALL   ?DEALLOC_XSTACK8
    864                  }
    865                  osal_memcpy((uint8 *)&gizwitsProtocol.gizLastDataPoint, (uint8 *)currentData, sizeof(dataPoint_t));
   \                     ??gizDevReportPolicy_1:
   \   000047                ; Setup parameters for call to function osal_memcpy
   \   000047   8E..         MOV     ?V0 + 0,R6
   \   000049   8F..         MOV     ?V0 + 1,R7
   \   00004B   75..00       MOV     ?V0 + 2,#0x0
   \   00004E   78..         MOV     R0,#?V0 + 0
   \   000050   12....       LCALL   ?PUSH_XSTACK_I_THREE
   \   000053   7C14         MOV     R4,#0x14
   \   000055   7D00         MOV     R5,#0x0
   \   000057   7A..         MOV     R2,#(gizwitsProtocol + 214) & 0xff
   \   000059   7B..         MOV     R3,#((gizwitsProtocol + 214) >> 8) & 0xff
   \   00005B   12....       LCALL   ??Subroutine62_0 & 0xFFFF
    866              }
   \                     ??CrossCallReturnLabel_111:
   \   00005E   12....       LCALL   ?DEALLOC_XSTACK8
    867              /** ÂÆöÊó∂‰∏äÊä•Êú∫Âà∂ **/
    868              if(0 == (gizGetTimerCount() % (600000)))
   \                     ??gizDevReportPolicy_0:
   \   000061                ; Setup parameters for call to function gizGetTimerCount
   \   000061   12....       LCALL   ??gizGetTimerCount?relay
   \   000064   8A..         MOV     ?V0 + 0,R2
   \   000066   8B..         MOV     ?V0 + 1,R3
   \   000068   8C..         MOV     ?V0 + 2,R4
   \   00006A   8D..         MOV     ?V0 + 3,R5
   \   00006C   90....       MOV     DPTR,#__Constant_927c0
   \   00006F   78..         MOV     R0,#?V0 + 4
   \   000071   12....       LCALL   ?L_MOV_X
   \   000074   78..         MOV     R0,#?V0 + 0
   \   000076   79..         MOV     R1,#?V0 + 4
   \   000078   12....       LCALL   ?UL_DIV_MOD
   \   00007B   E5..         MOV     A,?V0 + 4
   \   00007D   45..         ORL     A,?V0 + 5
   \   00007F   45..         ORL     A,?V0 + 6
   \   000081   45..         ORL     A,?V0 + 7
   \   000083   7059         JNZ     ??gizDevReportPolicy_2
    869              {
    870                  GIZWITS_LOG("Info: 600S report data\n");
    871                  osal_memset((uint8 *)&gizwitsProtocol.waitReportDatapointFlag,0xFF,DATAPOINT_FLAG_LEN);
   \   000085                ; Setup parameters for call to function osal_memset
   \   000085   7C01         MOV     R4,#0x1
   \   000087   7D00         MOV     R5,#0x0
   \   000089   79FF         MOV     R1,#-0x1
   \   00008B   7A..         MOV     R2,#(gizwitsProtocol + 168) & 0xff
   \   00008D   7B..         MOV     R3,#((gizwitsProtocol + 168) >> 8) & 0xff
   \   00008F   12....       LCALL   ??osal_memset?relay
    872                  if(0 == gizDataPoints2ReportData(currentData,gizwitsProtocol.reportData,(uint32 *)&gizwitsProtocol.reportDataLen))
   \   000092                ; Setup parameters for call to function gizDataPoints2ReportData
   \   000092   75....       MOV     ?V0 + 0,#(gizwitsProtocol + 190) & 0xff
   \   000095   75....       MOV     ?V0 + 1,#((gizwitsProtocol + 190) >> 8) & 0xff
   \   000098   78..         MOV     R0,#?V0 + 0
   \   00009A   12....       LCALL   ?PUSH_XSTACK_I_TWO
   \   00009D   7C..         MOV     R4,#(gizwitsProtocol + 169) & 0xff
   \   00009F   7D..         MOV     R5,#((gizwitsProtocol + 169) >> 8) & 0xff
   \   0000A1   EE           MOV     A,R6
   \   0000A2   FA           MOV     R2,A
   \   0000A3   EF           MOV     A,R7
   \   0000A4   FB           MOV     R3,A
   \   0000A5   12....       LCALL   ??gizDataPoints2ReportData?relay
   \   0000A8   7402         MOV     A,#0x2
   \   0000AA   12....       LCALL   ?DEALLOC_XSTACK8
   \   0000AD   E9           MOV     A,R1
   \   0000AE   7014         JNZ     ??gizDevReportPolicy_3
    873                      gizReportData(ACTION_REPORT_DEV_STATUS, gizwitsProtocol.reportData, gizwitsProtocol.reportDataLen);
   \   0000B0                ; Setup parameters for call to function gizReportData
   \   0000B0   90....       MOV     DPTR,#gizwitsProtocol + 190
   \   0000B3   12....       LCALL   ?PUSH_XSTACK8_X_FOUR
   \   0000B6   7A..         MOV     R2,#(gizwitsProtocol + 169) & 0xff
   \   0000B8   7B..         MOV     R3,#((gizwitsProtocol + 169) >> 8) & 0xff
   \   0000BA   7914         MOV     R1,#0x14
   \   0000BC   12....       LCALL   ??gizReportData?relay
   \   0000BF   7404         MOV     A,#0x4
   \   0000C1   12....       LCALL   ?DEALLOC_XSTACK8
    874                  osal_memcpy((uint8 *)&gizwitsProtocol.gizLastDataPoint, (uint8 *)currentData, sizeof(dataPoint_t));
   \                     ??gizDevReportPolicy_3:
   \   0000C4                ; Setup parameters for call to function osal_memcpy
   \   0000C4   8E..         MOV     ?V0 + 0,R6
   \   0000C6   8F..         MOV     ?V0 + 1,R7
   \   0000C8   75..00       MOV     ?V0 + 2,#0x0
   \   0000CB   78..         MOV     R0,#?V0 + 0
   \   0000CD   12....       LCALL   ?PUSH_XSTACK_I_THREE
   \   0000D0   7C14         MOV     R4,#0x14
   \   0000D2   7D00         MOV     R5,#0x0
   \   0000D4   7A..         MOV     R2,#(gizwitsProtocol + 214) & 0xff
   \   0000D6   7B..         MOV     R3,#((gizwitsProtocol + 214) >> 8) & 0xff
   \   0000D8   12....       LCALL   ??Subroutine62_0 & 0xFFFF
    875              }
   \                     ??CrossCallReturnLabel_112:
   \   0000DB   12....       LCALL   ?DEALLOC_XSTACK8
    876          }
   \                     ??gizDevReportPolicy_2:
   \   0000DE   02....       LJMP    ??Subroutine61_0 & 0xFFFF
    877          
    878          /**
    879          * @brief ‰ªéÁéØÂΩ¢ÁºìÂÜ≤Âå∫‰∏≠ÊäìÂèñ‰∏ÄÂåÖÊï∞Êç?*
    880          * @param [in]  rb                  : ËæìÂÖ•Êï∞ÊçÆÂú∞ÂùÄ
    881          * @param [out] data                : ËæìÂá∫Êï∞ÊçÆÂú∞ÂùÄ
    882          * @param [out] len                 : ËæìÂá∫Êï∞ÊçÆÈïøÂ∫¶
    883          *
    884          * @return : 0,Ê≠£Á°ÆËøîÂõû;-1ÔºåÈîôËØØËøîÂõ?-2ÔºåÊï∞ÊçÆÊ†°È™åÂ§±Ë¥?*/

   \                                 In  segment BANKED_CODE, align 1, keep-with-next
    885          static int8 gizProtocolGetOnePacket(rb_t *rb, uint8 *data, uint16 *len)
   \                     gizProtocolGetOnePacket:
    886          {
   \   000000   74EC         MOV     A,#-0x14
   \   000002   12....       LCALL   ?BANKED_ENTER_XDATA
   \   000005                ; Saved register size: 20
   \   000005                ; Auto size: 1
   \   000005   74FF         MOV     A,#-0x1
   \   000007   12....       LCALL   ?ALLOC_XSTACK8
   \   00000A   8A..         MOV     ?V0 + 2,R2
   \   00000C   8B..         MOV     ?V0 + 3,R3
   \   00000E   8C..         MOV     ?V0 + 0,R4
   \   000010   8D..         MOV     ?V0 + 1,R5
   \   000012   7415         MOV     A,#0x15
   \   000014   12....       LCALL   ?XSTACK_DISP0_8
   \   000017   E0           MOVX    A,@DPTR
   \   000018   F5..         MOV     ?V0 + 8,A
   \   00001A   A3           INC     DPTR
   \   00001B   E0           MOVX    A,@DPTR
   \   00001C   F5..         MOV     ?V0 + 9,A
    887              int32 ret = 0;
    888              uint8 sum = 0;
    889              int32 i = 0;
    890              uint8 tmpData;
    891              uint8 tmpLen = 0;
    892              uint16 tmpCount = 0;
   \   00001E   7E00         MOV     R6,#0x0
   \   000020   7F00         MOV     R7,#0x0
    893              static uint8 protocolFlag = 0;
    894              static uint16 protocolCount = 0;
    895              static uint8 lastData = 0;
    896              static uint8 debugCount = 0;
    897              uint8 *protocolBuff = data;
    898              protocolHead_t *head = NULL;
    899          
    900              if((NULL == rb) || (NULL == data) ||(NULL == len))
   \   000022   EA           MOV     A,R2
   \   000023   45..         ORL     A,?V0 + 3
   \   000025   600B         JZ      ??gizProtocolGetOnePacket_0
   \   000027   EC           MOV     A,R4
   \   000028   45..         ORL     A,?V0 + 1
   \   00002A   6006         JZ      ??gizProtocolGetOnePacket_0
   \   00002C   E5..         MOV     A,?V0 + 8
   \   00002E   45..         ORL     A,?V0 + 9
   \   000030   7005         JNZ     ??gizProtocolGetOnePacket_1
    901              {
    902                  GIZWITS_LOG("gizProtocolGetOnePacket Error , Illegal Param\n");
    903                  return -1;
   \                     ??gizProtocolGetOnePacket_0:
   \   000032   79FF         MOV     R1,#-0x1
   \   000034   02....       LJMP    ??gizProtocolGetOnePacket_2 & 0xFFFF
    904              }
    905          
    906              tmpLen = rbCanRead(rb);
   \                     ??gizProtocolGetOnePacket_1:
   \   000037                ; Setup parameters for call to function rbCanRead
   \   000037   12....       LCALL   ??rbCanRead?relay
   \   00003A   8A..         MOV     ?V0 + 4,R2
   \   00003C   EA           MOV     A,R2
    907              if(0 == tmpLen)
   \   00003D   60F3         JZ      ??gizProtocolGetOnePacket_0
    908              {
    909                  return -1;
    910              }
    911          
    912              for(i=0; i<tmpLen; i++)
   \   00003F   8E..         MOV     ?V0 + 5,R6
   \   000041   8E..         MOV     ?V0 + 6,R6
   \   000043   8E..         MOV     ?V0 + 7,R6
    913              {
    914                  ret = rbRead(rb, &tmpData, 1);
    915                  if(0 != ret)
   \                     ??gizProtocolGetOnePacket_3:
   \   000045                ; Setup parameters for call to function rbRead
   \   000045   75..01       MOV     ?V0 + 10,#0x1
   \   000048   75..00       MOV     ?V0 + 11,#0x0
   \   00004B   78..         MOV     R0,#?V0 + 10
   \   00004D   12....       LCALL   ?PUSH_XSTACK_I_TWO
   \   000050   7402         MOV     A,#0x2
   \   000052   12....       LCALL   ?XSTACK_DISP0_8
   \   000055   AC82         MOV     R4,DPL
   \   000057   AD83         MOV     R5,DPH
   \   000059   AA..         MOV     R2,?V0 + 2
   \   00005B   AB..         MOV     R3,?V0 + 3
   \   00005D   12....       LCALL   ??rbRead?relay
   \   000060   7402         MOV     A,#0x2
   \   000062   12....       LCALL   ?DEALLOC_XSTACK8
   \   000065   EA           MOV     A,R2
   \   000066   F8           MOV     R0,A
   \   000067   EB           MOV     A,R3
   \   000068   F9           MOV     R1,A
   \   000069   EC           MOV     A,R4
   \   00006A   FA           MOV     R2,A
   \   00006B   ED           MOV     A,R5
   \   00006C   FB           MOV     R3,A
   \   00006D   E8           MOV     A,R0
   \   00006E   49           ORL     A,R1
   \   00006F   4A           ORL     A,R2
   \   000070   4B           ORL     A,R3
   \   000071   7003         JNZ     $+5
   \   000073   02....       LJMP    ??gizProtocolGetOnePacket_4 & 0xFFFF
    916                  {
    917                      if((0xFF == lastData) && (0xFF == tmpData))
   \   000076   90....       MOV     DPTR,#??lastData
   \   000079   E0           MOVX    A,@DPTR
   \   00007A   F4           CPL     A
   \   00007B   7038         JNZ     ??gizProtocolGetOnePacket_5
   \   00007D   85..82       MOV     DPL,?XSP + 0
   \   000080   85..83       MOV     DPH,?XSP + 1
   \   000083   E0           MOVX    A,@DPTR
   \   000084   F4           CPL     A
   \   000085   7029         JNZ     ??gizProtocolGetOnePacket_6
    918                      {
    919                          if(0 == protocolFlag)
   \   000087   90....       MOV     DPTR,#??protocolFlag
   \   00008A   E0           MOVX    A,@DPTR
   \   00008B   A2E0         MOV     C,0xE0 /* A   */.0
   \   00008D   400B         JC      ??gizProtocolGetOnePacket_7
    920                          {
    921                              protocolBuff[0] = 0xFF;
   \   00008F   12....       LCALL   ?Subroutine15 & 0xFFFF
    922                              protocolBuff[1] = 0xFF;
    923                              protocolCount = 2;
   \                     ??CrossCallReturnLabel_14:
   \   000092   F0           MOVX    @DPTR,A
    924                              protocolFlag = 1;
   \   000093   90....       MOV     DPTR,#??protocolFlag
   \   000096   04           INC     A
   \                     ??gizProtocolGetOnePacket_8:
   \   000097   F0           MOVX    @DPTR,A
   \   000098   8069         SJMP    ??gizProtocolGetOnePacket_9
    925                          }
    926                          else
    927                          {
    928                              if((protocolCount > 4) && (protocolCount != tmpCount))
   \                     ??gizProtocolGetOnePacket_7:
   \   00009A   12....       LCALL   ?Subroutine32 & 0xFFFF
   \                     ??CrossCallReturnLabel_50:
   \   00009D   4064         JC      ??gizProtocolGetOnePacket_9
   \   00009F   90....       MOV     DPTR,#??protocolCount
   \   0000A2   E0           MOVX    A,@DPTR
   \   0000A3   6E           XRL     A,R6
   \   0000A4   7003         JNZ     ??gizProtocolGetOnePacket_10
   \   0000A6   A3           INC     DPTR
   \   0000A7   E0           MOVX    A,@DPTR
   \   0000A8   6F           XRL     A,R7
   \                     ??gizProtocolGetOnePacket_10:
   \   0000A9   6058         JZ      ??gizProtocolGetOnePacket_9
    929                              {
    930                                  protocolBuff[0] = 0xFF;
   \   0000AB   12....       LCALL   ?Subroutine15 & 0xFFFF
    931                                  protocolBuff[1] = 0xFF;
    932                                  protocolCount = 2;
    933                              }
    934                          }
    935                      }
   \                     ??CrossCallReturnLabel_15:
   \   0000AE   80E7         SJMP    ??gizProtocolGetOnePacket_8
   \                     ??gizProtocolGetOnePacket_6:
   \   0000B0   E0           MOVX    A,@DPTR
   \   0000B1   6455         XRL     A,#0x55
   \   0000B3   604E         JZ      ??gizProtocolGetOnePacket_9
    936                      else if((0xFF == lastData) && (0x55 == tmpData))
    937                      {
    938                      }
    939                      else
    940                      {
    941                          if(1 == protocolFlag)
   \                     ??gizProtocolGetOnePacket_5:
   \   0000B5   90....       MOV     DPTR,#??protocolFlag
   \   0000B8   E0           MOVX    A,@DPTR
   \   0000B9   A2E0         MOV     C,0xE0 /* A   */.0
   \   0000BB   5046         JNC     ??gizProtocolGetOnePacket_9
    942                          {
    943                              protocolBuff[protocolCount] = tmpData;
   \   0000BD   85..82       MOV     DPL,?XSP + 0
   \   0000C0   85..83       MOV     DPH,?XSP + 1
   \   0000C3   E0           MOVX    A,@DPTR
   \   0000C4   C0E0         PUSH    A
   \   0000C6   12....       LCALL   ?Subroutine38 & 0xFFFF
   \                     ??CrossCallReturnLabel_63:
   \   0000C9   F582         MOV     DPL,A
   \   0000CB   E5..         MOV     A,?V0 + 1
   \   0000CD   39           ADDC    A,R1
   \   0000CE   F583         MOV     DPH,A
   \   0000D0   D0E0         POP     A
   \   0000D2   F0           MOVX    @DPTR,A
    944                              protocolCount++;
   \   0000D3   90....       MOV     DPTR,#??protocolCount
   \   0000D6   E0           MOVX    A,@DPTR
   \   0000D7   2401         ADD     A,#0x1
   \   0000D9   F0           MOVX    @DPTR,A
   \   0000DA   A3           INC     DPTR
   \   0000DB   E0           MOVX    A,@DPTR
   \   0000DC   3400         ADDC    A,#0x0
   \   0000DE   F0           MOVX    @DPTR,A
    945          
    946                              if(protocolCount > 4)
   \   0000DF   12....       LCALL   ?Subroutine32 & 0xFFFF
   \                     ??CrossCallReturnLabel_51:
   \   0000E2   401F         JC      ??gizProtocolGetOnePacket_9
    947                              {
    948                                  head = (protocolHead_t *)protocolBuff;
    949                                  tmpCount = gizProtocolExchangeBytes(head->len)+4;
   \   0000E4                ; Setup parameters for call to function gizProtocolExchangeBytes
   \   0000E4   85..82       MOV     DPL,?V0 + 0
   \   0000E7   85..83       MOV     DPH,?V0 + 1
   \   0000EA   A3           INC     DPTR
   \   0000EB   A3           INC     DPTR
   \   0000EC   12....       LCALL   ?Subroutine29 & 0xFFFF
   \                     ??CrossCallReturnLabel_43:
   \   0000EF   EA           MOV     A,R2
   \   0000F0   2404         ADD     A,#0x4
   \   0000F2   FE           MOV     R6,A
   \   0000F3   EB           MOV     A,R3
   \   0000F4   3400         ADDC    A,#0x0
   \   0000F6   FF           MOV     R7,A
    950                                  if(protocolCount == tmpCount)
   \   0000F7   90....       MOV     DPTR,#??protocolCount
   \   0000FA   E0           MOVX    A,@DPTR
   \   0000FB   6E           XRL     A,R6
   \   0000FC   7003         JNZ     ??gizProtocolGetOnePacket_11
   \   0000FE   A3           INC     DPTR
   \   0000FF   E0           MOVX    A,@DPTR
   \   000100   6F           XRL     A,R7
   \                     ??gizProtocolGetOnePacket_11:
   \   000101   6029         JZ      ??gizProtocolGetOnePacket_12
    951                                  {
    952                                      break;
    953                                  }
    954                              }
    955                          }
    956                      }
    957          
    958                      lastData = tmpData;
   \                     ??gizProtocolGetOnePacket_9:
   \   000103   85..82       MOV     DPL,?XSP + 0
   \   000106   85..83       MOV     DPH,?XSP + 1
   \   000109   E0           MOVX    A,@DPTR
   \   00010A   90....       MOV     DPTR,#??lastData
   \   00010D   F0           MOVX    @DPTR,A
    959                      debugCount++;
   \   00010E   90....       MOV     DPTR,#??debugCount
   \   000111   E0           MOVX    A,@DPTR
   \   000112   04           INC     A
   \   000113   F0           MOVX    @DPTR,A
    960                  }
    961              }
   \                     ??gizProtocolGetOnePacket_4:
   \   000114   90....       MOV     DPTR,#__Constant_ffffffff
   \   000117   78..         MOV     R0,#?V0 + 4
   \   000119   12....       LCALL   ?L_ADD_X
   \   00011C   A9..         MOV     R1,?V0 + 5
   \   00011E   AA..         MOV     R2,?V0 + 6
   \   000120   AB..         MOV     R3,?V0 + 7
   \   000122   E5..         MOV     A,?V0 + 4
   \   000124   49           ORL     A,R1
   \   000125   4A           ORL     A,R2
   \   000126   4B           ORL     A,R3
   \   000127   6003         JZ      $+5
   \   000129   02....       LJMP    ??gizProtocolGetOnePacket_3 & 0xFFFF
    962          
    963              if((protocolCount > 4) && (protocolCount == tmpCount))
   \                     ??gizProtocolGetOnePacket_12:
   \   00012C   12....       LCALL   ?Subroutine32 & 0xFFFF
   \                     ??CrossCallReturnLabel_52:
   \   00012F   4077         JC      ??gizProtocolGetOnePacket_13
   \   000131   90....       MOV     DPTR,#??protocolCount
   \   000134   E0           MOVX    A,@DPTR
   \   000135   6E           XRL     A,R6
   \   000136   7003         JNZ     ??gizProtocolGetOnePacket_14
   \   000138   A3           INC     DPTR
   \   000139   E0           MOVX    A,@DPTR
   \   00013A   6F           XRL     A,R7
   \                     ??gizProtocolGetOnePacket_14:
   \   00013B   706B         JNZ     ??gizProtocolGetOnePacket_13
    964              {
    965                  sum = gizProtocolSum(protocolBuff, protocolCount);
    966          
    967                  if(protocolBuff[protocolCount-1] == sum)
   \   00013D   12....       LCALL   ?Subroutine38 & 0xFFFF
   \                     ??CrossCallReturnLabel_64:
   \   000140   F8           MOV     R0,A
   \   000141   E5..         MOV     A,?V0 + 1
   \   000143   39           ADDC    A,R1
   \   000144   F9           MOV     R1,A
   \   000145   E8           MOV     A,R0
   \   000146   24FF         ADD     A,#-0x1
   \   000148   F582         MOV     DPL,A
   \   00014A   E9           MOV     A,R1
   \   00014B   34FF         ADDC    A,#-0x1
   \   00014D   F583         MOV     DPH,A
   \   00014F   E0           MOVX    A,@DPTR
   \   000150   F5..         MOV     ?V0 + 2,A
   \   000152                ; Setup parameters for call to function gizProtocolSum
   \   000152   90....       MOV     DPTR,#??protocolCount
   \   000155   12....       LCALL   ?Subroutine24 & 0xFFFF
   \                     ??CrossCallReturnLabel_33:
   \   000158   12....       LCALL   ?PUSH_XSTACK_I_FOUR
   \   00015B   AA..         MOV     R2,?V0 + 0
   \   00015D   AB..         MOV     R3,?V0 + 1
   \   00015F   12....       LCALL   ??Subroutine66_0 & 0xFFFF
   \                     ??CrossCallReturnLabel_148:
   \   000162   12....       LCALL   ?DEALLOC_XSTACK8
   \   000165   E9           MOV     A,R1
   \   000166   65..         XRL     A,?V0 + 2
   \   000168   703A         JNZ     ??gizProtocolGetOnePacket_15
    968                  {
    969                      osal_memcpy(data, protocolBuff, tmpCount);
   \   00016A                ; Setup parameters for call to function osal_memcpy
   \   00016A   85....       MOV     ?V0 + 4,?V0 + 0
   \   00016D   85....       MOV     ?V0 + 5,?V0 + 1
   \   000170   78..         MOV     R0,#?V0 + 4
   \   000172   12....       LCALL   ?PUSH_XSTACK_I_THREE
   \   000175   EE           MOV     A,R6
   \   000176   FC           MOV     R4,A
   \   000177   EF           MOV     A,R7
   \   000178   FD           MOV     R5,A
   \   000179   AA..         MOV     R2,?V0 + 0
   \   00017B   AB..         MOV     R3,?V0 + 1
   \   00017D   12....       LCALL   ??Subroutine62_0 & 0xFFFF
   \                     ??CrossCallReturnLabel_113:
   \   000180   12....       LCALL   ?DEALLOC_XSTACK8
    970                      *len = tmpCount;
   \   000183   85..82       MOV     DPL,?V0 + 8
   \   000186   85..83       MOV     DPH,?V0 + 9
   \   000189   EE           MOV     A,R6
   \   00018A   F0           MOVX    @DPTR,A
   \   00018B   A3           INC     DPTR
   \   00018C   EF           MOV     A,R7
   \   00018D   F0           MOVX    @DPTR,A
    971                      protocolFlag = 0;
   \   00018E   90....       MOV     DPTR,#??protocolFlag
   \   000191   E4           CLR     A
   \   000192   F0           MOVX    @DPTR,A
    972          
    973                      protocolCount = 0;
   \   000193   90....       MOV     DPTR,#??protocolCount
   \   000196   F0           MOVX    @DPTR,A
   \   000197   A3           INC     DPTR
   \   000198   F0           MOVX    @DPTR,A
    974                      debugCount = 0;
   \   000199   90....       MOV     DPTR,#??debugCount
   \   00019C   F0           MOVX    @DPTR,A
    975                      lastData = 0;
   \   00019D   90....       MOV     DPTR,#??lastData
   \   0001A0   F0           MOVX    @DPTR,A
    976          
    977                      return 0;
   \   0001A1   F9           MOV     R1,A
   \   0001A2   8006         SJMP    ??gizProtocolGetOnePacket_2
    978                  }
    979                  else
    980                  {
    981                      return -2;
   \                     ??gizProtocolGetOnePacket_15:
   \   0001A4   79FE         MOV     R1,#-0x2
   \   0001A6   8002         SJMP    ??gizProtocolGetOnePacket_2
    982                  }
    983              }
    984          
    985              return 1;
   \                     ??gizProtocolGetOnePacket_13:
   \   0001A8   7901         MOV     R1,#0x1
   \                     ??gizProtocolGetOnePacket_2:
   \   0001AA   7401         MOV     A,#0x1
   \   0001AC   12....       LCALL   ?DEALLOC_XSTACK8
   \   0001AF   02....       LJMP    ?Subroutine2 & 0xFFFF
    986          }

   \                                 In  segment BANKED_CODE, align 1, keep-with-next
   \                     ?Subroutine38:
   \   000000   90....       MOV     DPTR,#??protocolCount
   \   000003   E0           MOVX    A,@DPTR
   \   000004   F8           MOV     R0,A
   \   000005   A3           INC     DPTR
   \   000006   E0           MOVX    A,@DPTR
   \   000007   F9           MOV     R1,A
   \   000008   E5..         MOV     A,?V0 + 0
   \   00000A   28           ADD     A,R0
   \   00000B   22           RET

   \                                 In  segment BANKED_CODE, align 1, keep-with-next
   \                     ?Subroutine32:
   \   000000   90....       MOV     DPTR,#??protocolCount
   \   000003   C3           CLR     C
   \   000004   E0           MOVX    A,@DPTR
   \   000005   9405         SUBB    A,#0x5
   \   000007   A3           INC     DPTR
   \   000008   E0           MOVX    A,@DPTR
   \   000009   9400         SUBB    A,#0x0
   \   00000B   22           RET

   \                                 In  segment BANKED_CODE, align 1, keep-with-next
   \                     ?Subroutine15:
   \   000000   85..82       MOV     DPL,?V0 + 0
   \   000003   85..83       MOV     DPH,?V0 + 1
   \   000006   74FF         MOV     A,#-0x1
   \   000008   F0           MOVX    @DPTR,A
   \   000009   A3           INC     DPTR
   \   00000A   F0           MOVX    @DPTR,A
   \   00000B   90....       MOV     DPTR,#??protocolCount
   \   00000E   7402         MOV     A,#0x2
   \   000010   F0           MOVX    @DPTR,A
   \   000011   A3           INC     DPTR
   \   000012   E4           CLR     A
   \   000013   22           RET

   \                                 In  segment BANKED_CODE, align 1, keep-with-next
   \                     ?Subroutine29:
   \   000000   12....       LCALL   ??Subroutine72_0 & 0xFFFF
   \                     ??CrossCallReturnLabel_179:
   \   000003   12....       LCALL   ??gizProtocolExchangeBytes?relay
   \   000006   22           RET

   \                                 In  segment BANKED_CODE, align 1, keep-with-next
   \                     ?Subroutine24:
   \   000000   E0           MOVX    A,@DPTR
   \   000001   F5..         MOV     ?V0 + 4,A
   \   000003   A3           INC     DPTR
   \   000004   E0           MOVX    A,@DPTR
   \   000005   F5..         MOV     ?V0 + 5,A
   \   000007   E4           CLR     A
   \   000008   F5..         MOV     ?V0 + 6,A
   \   00000A   F5..         MOV     ?V0 + 7,A
   \   00000C   78..         MOV     R0,#?V0 + 4
   \   00000E   22           RET

   \                                 In  segment XDATA_Z, align 1, keep-with-next
   \                     ??protocolFlag:
   \   000000                DS 1
   \   000001                REQUIRE __INIT_XDATA_Z

   \                                 In  segment XDATA_Z, align 1, keep-with-next
   \                     ??protocolCount:
   \   000000                DS 2
   \   000002                REQUIRE __INIT_XDATA_Z

   \                                 In  segment XDATA_Z, align 1, keep-with-next
   \                     ??lastData:
   \   000000                DS 1
   \   000001                REQUIRE __INIT_XDATA_Z

   \                                 In  segment XDATA_Z, align 1, keep-with-next
   \                     ??debugCount:
   \   000000                DS 1
   \   000001                REQUIRE __INIT_XDATA_Z
    987          
    988          
    989          
    990          /**
    991          * @brief ÂçèËÆÆÊï∞ÊçÆÈáçÂèë
    992          
    993          * Ê†°È™åË∂ÖÊó∂‰∏îÊª°Ë∂≥ÈáçÂèëÊ¨°Êï∞ÈôêÂà∂ÁöÑÂçèËÆÆÊï∞ÊçÆËøõË°åÈáçÂèë
    994          
    995          * @param none    
    996          *
    997          * @return none
    998          */
    999          static void gizProtocolResendData(void)
   1000          {
   1001              int32 ret = 0;
   1002          
   1003              if(0 == gizwitsProtocol.waitAck.flag)
   1004              {
   1005                  return;
   1006              }
   1007          
   1008              GIZWITS_LOG("Warning: timeout, resend data \n");
   1009              
   1010              ret = uartWrite(gizwitsProtocol.waitAck.buf, gizwitsProtocol.waitAck.dataLen);
   1011              if(ret != gizwitsProtocol.waitAck.dataLen)
   1012              {
   1013                  GIZWITS_LOG("ERROR: resend data error\n");
   1014              }
   1015          
   1016              gizwitsProtocol.waitAck.sendTime = gizGetTimerCount();
   1017          }
   1018          
   1019          /**
   1020          * @brief Ê∏ÖÈô§ACKÂçèËÆÆÊä•Êñá
   1021          *
   1022          * @param [in] head : ÂçèËÆÆÂ§¥Âú∞ÂùÄ
   1023          *
   1024          * @return 0Ôº?ÊâßË°åÊàêÂäüÔº?Èù?0Ôº?Â§±Ë¥•
   1025          */

   \                                 In  segment BANKED_CODE, align 1, keep-with-next
   1026          static int8 gizProtocolWaitAckCheck(protocolHead_t *head)
   \                     gizProtocolWaitAckCheck:
   1027          {
   \   000000   C082         PUSH    DPL
   \   000002   C083         PUSH    DPH
   \   000004                ; Saved register size: 2
   \   000004                ; Auto size: 0
   1028              protocolHead_t *waitAckHead = (protocolHead_t *)gizwitsProtocol.waitAck.buf;
   1029          
   1030              if(NULL == head)
   \   000004   EA           MOV     A,R2
   \   000005   4B           ORL     A,R3
   \   000006   7004         JNZ     ??gizProtocolWaitAckCheck_0
   1031              {
   1032                  GIZWITS_LOG("ERROR: data is empty \n");
   1033                  return -1;
   \   000008   79FF         MOV     R1,#-0x1
   \   00000A   8029         SJMP    ??gizProtocolWaitAckCheck_1
   1034              }
   1035          
   1036              if(waitAckHead->cmd+1 == head->cmd)
   \                     ??gizProtocolWaitAckCheck_0:
   \   00000C   90....       MOV     DPTR,#gizwitsProtocol + 81
   \   00000F   E0           MOVX    A,@DPTR
   \   000010   2401         ADD     A,#0x1
   \   000012   F8           MOV     R0,A
   \   000013   E4           CLR     A
   \   000014   3400         ADDC    A,#0x0
   \   000016   F9           MOV     R1,A
   \   000017   8A82         MOV     DPL,R2
   \   000019   8B83         MOV     DPH,R3
   \   00001B   A3           INC     DPTR
   \   00001C   A3           INC     DPTR
   \   00001D   A3           INC     DPTR
   \   00001E   A3           INC     DPTR
   \   00001F   E0           MOVX    A,@DPTR
   \   000020   68           XRL     A,R0
   \   000021   7001         JNZ     ??gizProtocolWaitAckCheck_2
   \   000023   E9           MOV     A,R1
   \                     ??gizProtocolWaitAckCheck_2:
   \   000024   700D         JNZ     ??gizProtocolWaitAckCheck_3
   1037              {
   1038                  osal_memset((uint8 *)&gizwitsProtocol.waitAck, 0, sizeof(protocolWaitAck_t));
   \   000026                ; Setup parameters for call to function osal_memset
   \   000026   7C27         MOV     R4,#0x27
   \   000028   7D00         MOV     R5,#0x0
   \   00002A   7900         MOV     R1,#0x0
   \   00002C   7A..         MOV     R2,#(gizwitsProtocol + 75) & 0xff
   \   00002E   7B..         MOV     R3,#((gizwitsProtocol + 75) >> 8) & 0xff
   \   000030   12....       LCALL   ??osal_memset?relay
   1039              }
   1040          
   1041              return 0;
   \                     ??gizProtocolWaitAckCheck_3:
   \   000033   7900         MOV     R1,#0x0
   \                     ??gizProtocolWaitAckCheck_1:
   \   000035   02....       LJMP    ?Subroutine3 & 0xFFFF
   1042          }
   1043          
   1044          /**
   1045          * @brief ÂèëÈÄÅÈÄöÁî®ÂçèËÆÆÊä•ÊñáÊï∞ÊçÆ
   1046          * 
   1047          * @param [in] head              : ÂçèËÆÆÂ§¥ÊåáÈí?*
   1048          * @return : ÊúâÊïàÊï∞ÊçÆÈïøÂ∫¶,Ê≠£Á°ÆËøîÂõû;-1ÔºåÈîôËØØËøîÂõ?*/

   \                                 In  segment BANKED_CODE, align 1, keep-with-next
   1049          static int32 gizProtocolCommonAck(protocolHead_t *head)
   \                     gizProtocolCommonAck:
   1050          {
   \   000000   74F5         MOV     A,#-0xb
   \   000002   12....       LCALL   ?BANKED_ENTER_XDATA
   \   000005                ; Saved register size: 11
   \   000005                ; Auto size: 9
   \   000005   74F7         MOV     A,#-0x9
   \   000007   12....       LCALL   ?ALLOC_XSTACK8
   1051              int32 ret = 0;
   1052              protocolCommon_t ack;
   1053          
   1054              if(NULL == head)
   \   00000A   EA           MOV     A,R2
   \   00000B   4B           ORL     A,R3
   \   00000C   700A         JNZ     ??gizProtocolCommonAck_0
   1055              {
   1056                  GIZWITS_LOG("ERROR: gizProtocolCommonAck data is empty \n");
   1057                  return -1;
   \   00000E   7AFF         MOV     R2,#-0x1
   \   000010   7BFF         MOV     R3,#-0x1
   \   000012   7CFF         MOV     R4,#-0x1
   \   000014   7DFF         MOV     R5,#-0x1
   \   000016   8055         SJMP    ??gizProtocolCommonAck_1
   1058              }
   1059              osal_memcpy((uint8 *)&ack, (uint8 *)head, sizeof(protocolHead_t));
   \                     ??gizProtocolCommonAck_0:
   \   000018                ; Setup parameters for call to function osal_memcpy
   \   000018   8A..         MOV     ?V0 + 0,R2
   \   00001A   8B..         MOV     ?V0 + 1,R3
   \   00001C   75..00       MOV     ?V0 + 2,#0x0
   \   00001F   78..         MOV     R0,#?V0 + 0
   \   000021   12....       LCALL   ?PUSH_XSTACK_I_THREE
   \   000024   7C08         MOV     R4,#0x8
   \   000026   7D00         MOV     R5,#0x0
   \   000028   7403         MOV     A,#0x3
   \   00002A   12....       LCALL   ?XSTACK_DISP0_8
   \   00002D   12....       LCALL   ?Subroutine41 & 0xFFFF
   \                     ??CrossCallReturnLabel_97:
   \   000030   12....       LCALL   ?DEALLOC_XSTACK8
   1060              ack.head.cmd = ack.head.cmd+1;
   \   000033   7404         MOV     A,#0x4
   \   000035   12....       LCALL   ?XSTACK_DISP0_8
   \   000038   E0           MOVX    A,@DPTR
   \   000039   04           INC     A
   \   00003A   F0           MOVX    @DPTR,A
   1061              ack.head.len = gizProtocolExchangeBytes(sizeof(protocolCommon_t)-4);
   \   00003B                ; Setup parameters for call to function gizProtocolExchangeBytes
   \   00003B   12....       LCALL   ?Subroutine59 & 0xFFFF
   \                     ??CrossCallReturnLabel_119:
   \   00003E   12....       LCALL   ?XSTACK_DISP0_8
   \   000041   12....       LCALL   ?Subroutine12 & 0xFFFF
   1062              ack.sum = gizProtocolSum((uint8 *)&ack, sizeof(protocolCommon_t));
   \                     ??CrossCallReturnLabel_126:
   \   000044                ; Setup parameters for call to function gizProtocolSum
   \   000044   90....       MOV     DPTR,#__Constant_9
   \   000047   12....       LCALL   ?PUSH_XSTACK8_X_FOUR
   \   00004A   7404         MOV     A,#0x4
   \   00004C   12....       LCALL   ?XSTACK_DISP0_8
   \   00004F   12....       LCALL   ?Subroutine45 & 0xFFFF
   \                     ??CrossCallReturnLabel_142:
   \   000052   12....       LCALL   ?DEALLOC_XSTACK8
   \   000055   7408         MOV     A,#0x8
   \   000057   12....       LCALL   ?XSTACK_DISP0_8
   \   00005A   E9           MOV     A,R1
   \   00005B   F0           MOVX    @DPTR,A
   1063          
   1064              ret = uartWrite((uint8 *)&ack, sizeof(protocolCommon_t));
   1065              if(ret < 0)
   1066              {
   1067                  //ÊâìÂç∞Êó•Âøó
   1068                  GIZWITS_LOG("ERROR: uart write error %d \n", ret);
   1069              }
   1070          
   1071              return ret;
   \   00005C                ; Setup parameters for call to function uartWrite
   \   00005C   90....       MOV     DPTR,#__Constant_9
   \   00005F   12....       LCALL   ?PUSH_XSTACK8_X_FOUR
   \   000062   7404         MOV     A,#0x4
   \   000064   12....       LCALL   ?XSTACK_DISP0_8
   \   000067   12....       LCALL   ?Subroutine46 & 0xFFFF
   \                     ??CrossCallReturnLabel_134:
   \   00006A   12....       LCALL   ?DEALLOC_XSTACK8
   \                     ??gizProtocolCommonAck_1:
   \   00006D   7409         MOV     A,#0x9
   \   00006F                REQUIRE ?Subroutine6
   \   00006F                ; // Fall through to label ?Subroutine6
   1072          }

   \                                 In  segment BANKED_CODE, align 1, keep-with-next
   \                     ?Subroutine6:
   \   000000   12....       LCALL   ?DEALLOC_XSTACK8
   \   000003   7F03         MOV     R7,#0x3
   \   000005   02....       LJMP    ?BANKED_LEAVE_XDATA

   \                                 In  segment BANKED_CODE, align 1, keep-with-next
   \                     ?Subroutine59:
   \   000000   7A05         MOV     R2,#0x5
   \   000002                REQUIRE ??Subroutine63_0
   \   000002                ; // Fall through to label ??Subroutine63_0

   \                                 In  segment BANKED_CODE, align 1, keep-with-next
   \                     ??Subroutine63_0:
   \   000000   7B00         MOV     R3,#0x0
   \   000002   12....       LCALL   ??gizProtocolExchangeBytes?relay
   \   000005   7402         MOV     A,#0x2
   \   000007   22           RET
   1073          
   1074          /**
   1075          * @brief ACKÈÄªËæëÂ§ÑÁêÜÂáΩÊï∞
   1076          
   1077          * ÂèëÈÄÅÂêéÁöÑÂçèËÆÆÊï∞ÊçÆËøõË°åË∂ÖÊó∂Âà§Êñ≠ÔºåË∂ÖÊó∂200msËøõË°åÈáçÂèëÔºåÈáçÂèë‰∏äÈôê‰∏∫‰∏âÊ¨°
   1078          
   1079          * @param none 
   1080          *
   1081          * @return none
   1082          */
   1083          static void gizProtocolAckHandle(void)
   1084          {
   1085              if(1 == gizwitsProtocol.waitAck.flag)
   1086              {
   1087                  if(SEND_MAX_NUM > gizwitsProtocol.waitAck.num)
   1088                  {
   1089                      // Ë∂ÖÊó∂Êú™Êî∂Âà∞ACKÈáçÂèë
   1090                      if(SEND_MAX_TIME < (gizGetTimerCount() - gizwitsProtocol.waitAck.sendTime))
   1091                      {
   1092                          GIZWITS_LOG("Warning:gizProtocolResendData %d %d %d\n", gizGetTimerCount(), gizwitsProtocol.waitAck.sendTime, gizwitsProtocol.waitAck.num);
   1093                          gizProtocolResendData();
   1094                          gizwitsProtocol.waitAck.num++;
   1095                      }
   1096                  }
   1097                  else
   1098                  {
   1099                      osal_memset((uint8 *)&gizwitsProtocol.waitAck, 0, sizeof(protocolWaitAck_t));
   1100                  }
   1101              }
   1102          }
   1103          
   1104          /**
   1105          * @brief ÂçèËÆÆ4.1 WiFiÊ®°ÁªÑËØ∑Ê±ÇËÆæÂ§á‰ø°ÊÅØ
   1106          *
   1107          * @param head : ÂæÖÂèëÈÄÅÁöÑÂçèËÆÆÊä•ÊñáÊï∞ÊçÆ
   1108          *
   1109          * @return ËøîÂõûÊúâÊïàÊï∞ÊçÆÈïøÂ∫¶; -1ÔºåÈîôËØØËøîÂõ?*/

   \                                 In  segment BANKED_CODE, align 1, keep-with-next
   1110          static int32 gizProtocolGetDeviceInfo(protocolHead_t * head)
   \                     gizProtocolGetDeviceInfo:
   1111          {
   \   000000   74F5         MOV     A,#-0xb
   \   000002   12....       LCALL   ?BANKED_ENTER_XDATA
   \   000005                ; Saved register size: 11
   \   000005                ; Auto size: 115
   \   000005   748D         MOV     A,#-0x73
   \   000007   12....       LCALL   ?ALLOC_XSTACK8
   \   00000A   EA           MOV     A,R2
   \   00000B   FE           MOV     R6,A
   \   00000C   EB           MOV     A,R3
   \   00000D   FF           MOV     R7,A
   1112              int32 ret = 0;
   1113              protocolDeviceInfo_t deviceInfo;
   1114          
   1115              if(NULL == head)
   \   00000E   EE           MOV     A,R6
   \   00000F   4F           ORL     A,R7
   \   000010   700B         JNZ     ??gizProtocolGetDeviceInfo_0
   1116              {
   1117                  GIZWITS_LOG("gizProtocolGetDeviceInfo Error , Illegal Param\n");
   1118                  return -1;
   \   000012   7AFF         MOV     R2,#-0x1
   \   000014   7BFF         MOV     R3,#-0x1
   \   000016   7CFF         MOV     R4,#-0x1
   \   000018   7DFF         MOV     R5,#-0x1
   \   00001A   02....       LJMP    ??gizProtocolGetDeviceInfo_1 & 0xFFFF
   1119              }
   1120          
   1121              gizProtocolHeadInit((protocolHead_t *)&deviceInfo);
   \                     ??gizProtocolGetDeviceInfo_0:
   \   00001D                ; Setup parameters for call to function gizProtocolHeadInit
   \   00001D   12....       LCALL   ?Subroutine48 & 0xFFFF
   1122              deviceInfo.head.cmd = ACK_GET_DEVICE_INFO;
   \                     ??CrossCallReturnLabel_75:
   \   000020   12....       LCALL   ?XSTACK_DISP0_8
   \   000023   7402         MOV     A,#0x2
   \   000025   12....       LCALL   ?Subroutine16 & 0xFFFF
   1123              deviceInfo.head.sn = head->sn;
   \                     ??CrossCallReturnLabel_16:
   \   000028   C0E0         PUSH    A
   \   00002A   7405         MOV     A,#0x5
   \   00002C   12....       LCALL   ?XSTACK_DISP0_8
   \   00002F   D0E0         POP     A
   \   000031   F0           MOVX    @DPTR,A
   1124              osal_memcpy((uint8 *)deviceInfo.protocolVer, protocol_VERSION, 8);
   \   000032                ; Setup parameters for call to function osal_memcpy
   \   000032   75....       MOV     ?V0 + 0,#`?<Constant "00000004">` & 0xff
   \   000035   75....       MOV     ?V0 + 1,#(`?<Constant "00000004">` >> 8) & 0xff
   \   000038   75..00       MOV     ?V0 + 2,#0x0
   \   00003B   78..         MOV     R0,#?V0 + 0
   \   00003D   12....       LCALL   ?PUSH_XSTACK_I_THREE
   \   000040   7C08         MOV     R4,#0x8
   \   000042   7D00         MOV     R5,#0x0
   \   000044   740B         MOV     A,#0xb
   \   000046   12....       LCALL   ?XSTACK_DISP0_8
   \   000049   12....       LCALL   ?Subroutine41 & 0xFFFF
   \                     ??CrossCallReturnLabel_98:
   \   00004C   12....       LCALL   ?DEALLOC_XSTACK8
   1125              osal_memcpy((uint8 *)deviceInfo.p0Ver, P0_VERSION, 8);
   \   00004F                ; Setup parameters for call to function osal_memcpy
   \   00004F   75....       MOV     ?V0 + 0,#`?<Constant "00000002">` & 0xff
   \   000052   75....       MOV     ?V0 + 1,#(`?<Constant "00000002">` >> 8) & 0xff
   \   000055   78..         MOV     R0,#?V0 + 0
   \   000057   12....       LCALL   ?PUSH_XSTACK_I_THREE
   \   00005A   7C08         MOV     R4,#0x8
   \   00005C   7D00         MOV     R5,#0x0
   \   00005E   7413         MOV     A,#0x13
   \   000060   12....       LCALL   ?XSTACK_DISP0_8
   \   000063   12....       LCALL   ?Subroutine41 & 0xFFFF
   \                     ??CrossCallReturnLabel_99:
   \   000066   12....       LCALL   ?DEALLOC_XSTACK8
   1126              osal_memcpy((uint8 *)deviceInfo.softVer, SOFTWARE_VERSION, 8);
   \   000069                ; Setup parameters for call to function osal_memcpy
   \   000069   75....       MOV     ?V0 + 0,#`?<Constant "03010101">` & 0xff
   \   00006C   75....       MOV     ?V0 + 1,#(`?<Constant "03010101">` >> 8) & 0xff
   \   00006F   78..         MOV     R0,#?V0 + 0
   \   000071   12....       LCALL   ?PUSH_XSTACK_I_THREE
   \   000074   7C08         MOV     R4,#0x8
   \   000076   7D00         MOV     R5,#0x0
   \   000078   7423         MOV     A,#0x23
   \   00007A   12....       LCALL   ?XSTACK_DISP0_8
   \   00007D   12....       LCALL   ?Subroutine41 & 0xFFFF
   \                     ??CrossCallReturnLabel_100:
   \   000080   12....       LCALL   ?DEALLOC_XSTACK8
   1127              osal_memcpy((uint8 *)deviceInfo.hardVer, HARDWARE_VERSION, 8);
   \   000083                ; Setup parameters for call to function osal_memcpy
   \   000083   75....       MOV     ?V0 + 0,#`?<Constant "03010100">` & 0xff
   \   000086   75....       MOV     ?V0 + 1,#(`?<Constant "03010100">` >> 8) & 0xff
   \   000089   78..         MOV     R0,#?V0 + 0
   \   00008B   12....       LCALL   ?PUSH_XSTACK_I_THREE
   \   00008E   7C08         MOV     R4,#0x8
   \   000090   7D00         MOV     R5,#0x0
   \   000092   741B         MOV     A,#0x1b
   \   000094   12....       LCALL   ?XSTACK_DISP0_8
   \   000097   12....       LCALL   ?Subroutine41 & 0xFFFF
   \                     ??CrossCallReturnLabel_101:
   \   00009A   12....       LCALL   ?DEALLOC_XSTACK8
   1128              osal_memcpy((uint8 *)deviceInfo.productKey, PRODUCT_KEY, 32);//strlen(PRODUCT_KEY));
   \   00009D                ; Setup parameters for call to function osal_memcpy
   \   00009D   75....       MOV     ?V0 + 0,#`?<Constant "5b3ad15cc49e41b08b7d5...">` & 0xff
   \   0000A0   75....       MOV     ?V0 + 1,#(`?<Constant "5b3ad15cc49e41b08b7d5...">` >> 8) & 0xff
   \   0000A3   78..         MOV     R0,#?V0 + 0
   \   0000A5   12....       LCALL   ?PUSH_XSTACK_I_THREE
   \   0000A8   7C20         MOV     R4,#0x20
   \   0000AA   7D00         MOV     R5,#0x0
   \   0000AC   742B         MOV     A,#0x2b
   \   0000AE   12....       LCALL   ?XSTACK_DISP0_8
   \   0000B1   12....       LCALL   ?Subroutine41 & 0xFFFF
   \                     ??CrossCallReturnLabel_102:
   \   0000B4   12....       LCALL   ?DEALLOC_XSTACK8
   1129              osal_memcpy((uint8 *)deviceInfo.productSecret, PRODUCT_SECRET, 32);//strlen(PRODUCT_SECRET));
   \   0000B7                ; Setup parameters for call to function osal_memcpy
   \   0000B7   75....       MOV     ?V0 + 0,#`?<Constant "553f92879b014e4680b2f...">` & 0xff
   \   0000BA   75....       MOV     ?V0 + 1,#(`?<Constant "553f92879b014e4680b2f...">` >> 8) & 0xff
   \   0000BD   78..         MOV     R0,#?V0 + 0
   \   0000BF   12....       LCALL   ?PUSH_XSTACK_I_THREE
   \   0000C2   7C20         MOV     R4,#0x20
   \   0000C4   7D00         MOV     R5,#0x0
   \   0000C6   7455         MOV     A,#0x55
   \   0000C8   12....       LCALL   ?XSTACK_DISP0_8
   \   0000CB   12....       LCALL   ?Subroutine41 & 0xFFFF
   \                     ??CrossCallReturnLabel_103:
   \   0000CE   12....       LCALL   ?DEALLOC_XSTACK8
   1130              osal_memset((uint8 *)deviceInfo.devAttr, 0, 8);
   \   0000D1                ; Setup parameters for call to function osal_memset
   \   0000D1   7C08         MOV     R4,#0x8
   \   0000D3   7D00         MOV     R5,#0x0
   \   0000D5   7900         MOV     R1,#0x0
   \   0000D7   744A         MOV     A,#0x4a
   \   0000D9   12....       LCALL   ?XSTACK_DISP0_8
   \   0000DC   AA82         MOV     R2,DPL
   \   0000DE   AB83         MOV     R3,DPH
   \   0000E0   12....       LCALL   ??osal_memset?relay
   1131              deviceInfo.devAttr[7] |= DEV_IS_GATEWAY<<0;
   1132              deviceInfo.devAttr[7] |= (0x01<<1);
   \   0000E3   7451         MOV     A,#0x51
   \   0000E5   12....       LCALL   ?XSTACK_DISP0_8
   \   0000E8   E0           MOVX    A,@DPTR
   \   0000E9   D2E1         SETB    0xE0 /* A   */.1
   \   0000EB   F0           MOVX    @DPTR,A
   1133              deviceInfo.ninableTime = gizProtocolExchangeBytes(NINABLETIME);
   \   0000EC                ; Setup parameters for call to function gizProtocolExchangeBytes
   \   0000EC   7A00         MOV     R2,#0x0
   \   0000EE   7B00         MOV     R3,#0x0
   \   0000F0   12....       LCALL   ??gizProtocolExchangeBytes?relay
   \   0000F3   7448         MOV     A,#0x48
   \   0000F5   12....       LCALL   ?XSTACK_DISP0_8
   \   0000F8   12....       LCALL   ?Subroutine12 & 0xFFFF
   1134              deviceInfo.head.len = gizProtocolExchangeBytes(sizeof(protocolDeviceInfo_t)-4);
   \                     ??CrossCallReturnLabel_127:
   \   0000FB                ; Setup parameters for call to function gizProtocolExchangeBytes
   \   0000FB   7A6F         MOV     R2,#0x6f
   \   0000FD   12....       LCALL   ??Subroutine63_0 & 0xFFFF
   \                     ??CrossCallReturnLabel_121:
   \   000100   12....       LCALL   ?XSTACK_DISP0_8
   \   000103   12....       LCALL   ?Subroutine12 & 0xFFFF
   1135              deviceInfo.sum = gizProtocolSum((uint8 *)&deviceInfo, sizeof(protocolDeviceInfo_t));
   \                     ??CrossCallReturnLabel_128:
   \   000106                ; Setup parameters for call to function gizProtocolSum
   \   000106   90....       MOV     DPTR,#__Constant_73
   \   000109   12....       LCALL   ?PUSH_XSTACK8_X_FOUR
   \   00010C   7404         MOV     A,#0x4
   \   00010E   12....       LCALL   ?XSTACK_DISP0_8
   \   000111   12....       LCALL   ?Subroutine45 & 0xFFFF
   \                     ??CrossCallReturnLabel_143:
   \   000114   12....       LCALL   ?DEALLOC_XSTACK8
   \   000117   7472         MOV     A,#0x72
   \   000119   12....       LCALL   ?XSTACK_DISP0_8
   \   00011C   E9           MOV     A,R1
   \   00011D   F0           MOVX    @DPTR,A
   1136          
   1137              ret = uartWrite((uint8 *)&deviceInfo, sizeof(protocolDeviceInfo_t));
   1138              if(ret < 0)
   1139              {
   1140                  //ÊâìÂç∞Êó•Âøó
   1141                  GIZWITS_LOG("ERROR: uart write error %d \n", ret);
   1142              }
   1143              
   1144              return ret;
   \   00011E                ; Setup parameters for call to function uartWrite
   \   00011E   90....       MOV     DPTR,#__Constant_73
   \   000121   12....       LCALL   ?PUSH_XSTACK8_X_FOUR
   \   000124   7404         MOV     A,#0x4
   \   000126   12....       LCALL   ?XSTACK_DISP0_8
   \   000129   12....       LCALL   ?Subroutine46 & 0xFFFF
   \                     ??CrossCallReturnLabel_135:
   \   00012C   12....       LCALL   ?DEALLOC_XSTACK8
   \                     ??gizProtocolGetDeviceInfo_1:
   \   00012F   7473         MOV     A,#0x73
   \   000131   02....       LJMP    ?Subroutine6 & 0xFFFF
   1145          }

   \                                 In  segment BANKED_CODE, align 1, keep-with-next
   \                     ?Subroutine16:
   \   000000   F0           MOVX    @DPTR,A
   \   000001   8E82         MOV     DPL,R6
   \   000003   8F83         MOV     DPH,R7
   \   000005   A3           INC     DPTR
   \   000006   A3           INC     DPTR
   \   000007   A3           INC     DPTR
   \   000008   A3           INC     DPTR
   \   000009   A3           INC     DPTR
   \   00000A   E0           MOVX    A,@DPTR
   \   00000B   22           RET

   \                                 In  segment BANKED_CODE, align 1, keep-with-next
   \                     ?Subroutine48:
   \   000000   85..82       MOV     DPL,?XSP + 0
   \   000003   85..83       MOV     DPH,?XSP + 1
   \   000006   AA82         MOV     R2,DPL
   \   000008   AB83         MOV     R3,DPH
   \   00000A   12....       LCALL   ??gizProtocolHeadInit?relay
   \   00000D   7404         MOV     A,#0x4
   \   00000F   22           RET
   1146          
   1147          /**
   1148          * @brief ÂçèËÆÆ4.7 ÈùûÊ≥ïÊ∂àÊÅØÈÄöÁü• ÁöÑÂ§ÑÁê?
   1149          * @param[in] head  : ÂçèËÆÆÂ§¥ÊåáÈí?* @param[in] errno : ÈùûÊ≥ïÊ∂àÊÅØÈÄöÁü•Á±ªÂûã
   1150          * @return 0Ôº?ÊâßË°åÊàêÂäüÔº?Èù?0Ôº?Â§±Ë¥•
   1151          */

   \                                 In  segment BANKED_CODE, align 1, keep-with-next
   1152          static int32 gizProtocolErrorCmd(protocolHead_t *head,errorPacketsType_t errno)
   \                     gizProtocolErrorCmd:
   1153          {
   \   000000   74F7         MOV     A,#-0x9
   \   000002   12....       LCALL   ?BANKED_ENTER_XDATA
   \   000005                ; Saved register size: 9
   \   000005                ; Auto size: 10
   \   000005   74F6         MOV     A,#-0xa
   \   000007   12....       LCALL   ?ALLOC_XSTACK8
   \   00000A   EA           MOV     A,R2
   \   00000B   FE           MOV     R6,A
   \   00000C   EB           MOV     A,R3
   \   00000D   FF           MOV     R7,A
   \   00000E   89..         MOV     ?V0 + 0,R1
   1154              int32 ret = 0;
   1155              protocolErrorType_t errorType;
   1156          
   1157              if(NULL == head)
   \   000010   EE           MOV     A,R6
   \   000011   4F           ORL     A,R7
   \   000012   700A         JNZ     ??gizProtocolErrorCmd_0
   1158              {
   1159                  GIZWITS_LOG("gizProtocolErrorCmd Error , Illegal Param\n");
   1160                  return -1;
   \   000014   7AFF         MOV     R2,#-0x1
   \   000016   7BFF         MOV     R3,#-0x1
   \   000018   7CFF         MOV     R4,#-0x1
   \   00001A   7DFF         MOV     R5,#-0x1
   \   00001C   804E         SJMP    ??gizProtocolErrorCmd_1
   1161              }
   1162              gizProtocolHeadInit((protocolHead_t *)&errorType);
   \                     ??gizProtocolErrorCmd_0:
   \   00001E                ; Setup parameters for call to function gizProtocolHeadInit
   \   00001E   12....       LCALL   ?Subroutine48 & 0xFFFF
   1163              errorType.head.cmd = ACK_ERROR_PACKAGE;
   \                     ??CrossCallReturnLabel_76:
   \   000021   12....       LCALL   ?XSTACK_DISP0_8
   \   000024   7412         MOV     A,#0x12
   \   000026   12....       LCALL   ?Subroutine16 & 0xFFFF
   1164              errorType.head.sn = head->sn;
   \                     ??CrossCallReturnLabel_17:
   \   000029   C0E0         PUSH    A
   \   00002B   7405         MOV     A,#0x5
   \   00002D   12....       LCALL   ?XSTACK_DISP0_8
   \   000030   D0E0         POP     A
   \   000032   12....       LCALL   ?Subroutine19 & 0xFFFF
   1165              
   1166              errorType.head.len = gizProtocolExchangeBytes(sizeof(protocolErrorType_t)-4);
   \                     ??CrossCallReturnLabel_22:
   \   000035   12....       LCALL   ?XSTACK_DISP0_8
   \   000038   12....       LCALL   ?Subroutine12 & 0xFFFF
   1167              errorType.error = errno;
   \                     ??CrossCallReturnLabel_129:
   \   00003B   7408         MOV     A,#0x8
   \   00003D   12....       LCALL   ?XSTACK_DISP0_8
   \   000040   E5..         MOV     A,?V0 + 0
   \   000042   F0           MOVX    @DPTR,A
   1168              errorType.sum = gizProtocolSum((uint8 *)&errorType, sizeof(protocolErrorType_t));
   \   000043                ; Setup parameters for call to function gizProtocolSum
   \   000043   90....       MOV     DPTR,#__Constant_a
   \   000046   12....       LCALL   ?PUSH_XSTACK8_X_FOUR
   \   000049   7404         MOV     A,#0x4
   \   00004B   12....       LCALL   ?XSTACK_DISP0_8
   \   00004E   12....       LCALL   ?Subroutine45 & 0xFFFF
   \                     ??CrossCallReturnLabel_144:
   \   000051   12....       LCALL   ?DEALLOC_XSTACK8
   \   000054   7409         MOV     A,#0x9
   \   000056   12....       LCALL   ?XSTACK_DISP0_8
   \   000059   E9           MOV     A,R1
   \   00005A   F0           MOVX    @DPTR,A
   1169              
   1170              ret = uartWrite((uint8 *)&errorType, sizeof(protocolErrorType_t));
   1171              if(ret < 0)
   1172              {
   1173                  //ÊâìÂç∞Êó•Âøó
   1174                  GIZWITS_LOG("ERROR: uart write error %d \n", ret);
   1175              }
   1176          
   1177              return ret;
   \   00005B                ; Setup parameters for call to function uartWrite
   \   00005B   90....       MOV     DPTR,#__Constant_a
   \   00005E   12....       LCALL   ?PUSH_XSTACK8_X_FOUR
   \   000061   7404         MOV     A,#0x4
   \   000063   12....       LCALL   ?XSTACK_DISP0_8
   \   000066   12....       LCALL   ?Subroutine46 & 0xFFFF
   \                     ??CrossCallReturnLabel_136:
   \   000069   12....       LCALL   ?DEALLOC_XSTACK8
   \                     ??gizProtocolErrorCmd_1:
   \   00006C   740A         MOV     A,#0xa
   \   00006E   12....       LCALL   ?DEALLOC_XSTACK8
   \   000071   02....       LJMP    ?Subroutine4 & 0xFFFF
   1178          }

   \                                 In  segment BANKED_CODE, align 1, keep-with-next
   \                     ?Subroutine19:
   \   000000   F0           MOVX    @DPTR,A
   \   000001                ; Setup parameters for call to function gizProtocolExchangeBytes
   \   000001                ; Setup parameters for call to function gizProtocolExchangeBytes
   \   000001   7A06         MOV     R2,#0x6
   \   000003   12....       LCALL   ??Subroutine63_0 & 0xFFFF
   \                     ??CrossCallReturnLabel_122:
   \   000006   22           RET
   1179          
   1180          /**
   1181          * @brief ÂØπÂ∫îÂçèËÆÆ 4.13 Êé•Êî∂ËøîÂõûÁöÑÁΩëÁªúÊó∂Èó?‰∏?*
   1182          * @param [in] head : ÂçèËÆÆÂ§¥Âú∞ÂùÄ
   1183          *
   1184          * @return 0Ôº?ÊâßË°åÊàêÂäüÔº?Èù?0Ôº?Â§±Ë¥•
   1185          */
   1186          static int8 gizProtocolNTP(protocolHead_t *head)
   1187          {
   1188              int32 ret = 0;
                           ^
Warning[Pe177]: variable "ret" was declared but never referenced
   1189              
   1190              protocolUTT_t *UTTInfo = (protocolUTT_t *)head;
   1191              
   1192              if(NULL == head)
   1193              {
   1194                  GIZWITS_LOG("ERROR: NTP is empty \n");
   1195                  return -1;
   1196              }
   1197              
   1198              osal_memcpy((uint8 *)&gizwitsProtocol.TimeNTP,(uint8 *)UTTInfo->time, (7 + 4));
   1199              gizwitsProtocol.TimeNTP.year = gizProtocolExchangeBytes(gizwitsProtocol.TimeNTP.year);
   1200              gizwitsProtocol.TimeNTP.ntp = gizExchangeWord(gizwitsProtocol.TimeNTP.ntp);
   1201          
   1202              gizwitsProtocol.NTPEvent.event[gizwitsProtocol.NTPEvent.num] = WIFI_NTP;
   1203              gizwitsProtocol.NTPEvent.num++;
   1204              
   1205              gizwitsProtocol.issuedFlag = GET_NTP_TYPE;
   1206              
   1207              
   1208              return 0;
   1209          }
   1210          
   1211          /**
   1212          * @brief ÂçèËÆÆ4.4 ËÆæÂ§áMCUÈáçÁΩÆWiFiÊ®°ÁªÑ ÁöÑÁõ∏ÂÖ≥Êìç‰Ω?
   1213          * @param none
   1214          * @return none
   1215          */
   1216          static void gizProtocolReboot(void)
   1217          {
   1218              uint32 timeDelay = gizGetTimerCount();
   1219              
   1220              /*Wait 600ms*/
   1221              while((gizGetTimerCount() - timeDelay) <= 600);
   1222              mcuRestart();
   1223          }
   1224          
   1225          /**
   1226          * @brief ÂçèËÆÆ 4.5 WiFiÊ®°ÁªÑÂêëËÆæÂ§áMCUÈÄöÁü•WiFiÊ®°ÁªÑÂ∑•‰ΩúÁä∂ÊÄÅÁöÑÂèòÂåñ
   1227          
   1228          * @param[in] status WiFiÊ®°ÁªÑÂ∑•‰ΩúÁä∂ÊÄ?* @return none
   1229          */

   \                                 In  segment BANKED_CODE, align 1, keep-with-next
   1230          static int8 gizProtocolModuleStatus(protocolWifiStatus_t *status)
   \                     gizProtocolModuleStatus:
   1231          {
   \   000000   74F4         MOV     A,#-0xc
   \   000002   12....       LCALL   ?BANKED_ENTER_XDATA
   \   000005                ; Saved register size: 12
   \   000005                ; Auto size: 0
   \   000005   EA           MOV     A,R2
   \   000006   FE           MOV     R6,A
   \   000007   EB           MOV     A,R3
   \   000008   FF           MOV     R7,A
   1232              static wifiStatus_t lastStatus;
   1233          
   1234              if(NULL == status)
   \   000009   EE           MOV     A,R6
   \   00000A   4F           ORL     A,R7
   \   00000B   7005         JNZ     ??gizProtocolModuleStatus_0
   1235              {
   1236                  GIZWITS_LOG("gizProtocolModuleStatus Error , Illegal Param\n");
   1237                  return -1;
   \   00000D   79FF         MOV     R1,#-0x1
   \   00000F   02....       LJMP    ??gizProtocolModuleStatus_1 & 0xFFFF
   1238              }
   1239          
   1240              status->ststus.value = gizProtocolExchangeBytes(status->ststus.value);
   \                     ??gizProtocolModuleStatus_0:
   \   000012   12....       LCALL   ?Subroutine49 & 0xFFFF
   \                     ??CrossCallReturnLabel_79:
   \   000015                ; Setup parameters for call to function gizProtocolExchangeBytes
   \   000015   85..82       MOV     DPL,?V0 + 0
   \   000018   F583         MOV     DPH,A
   \   00001A   12....       LCALL   ?Subroutine29 & 0xFFFF
   \                     ??CrossCallReturnLabel_44:
   \   00001D   8A..         MOV     ?V0 + 2,R2
   \   00001F   A8..         MOV     R0,?V0 + 2
   \   000021   85..82       MOV     DPL,?V0 + 0
   \   000024   85..83       MOV     DPH,?V0 + 1
   \   000027   E8           MOV     A,R0
   \   000028   12....       LCALL   ??Subroutine64_0 & 0xFFFF
   1241             
   1242              //OnBoarding mode status
   1243              if(lastStatus.types.onboarding != status->ststus.types.onboarding)
   \                     ??CrossCallReturnLabel_123:
   \   00002B   E8           MOV     A,R0
   \   00002C   13           RRC     A
   \   00002D   13           RRC     A
   \   00002E   543F         ANL     A,#0x3f
   \   000030   A2E0         MOV     C,0xE0 /* A   */.0
   \   000032   92F0         MOV     B.0,C
   \   000034   90....       MOV     DPTR,#??lastStatus
   \   000037   E0           MOVX    A,@DPTR
   \   000038   13           RRC     A
   \   000039   13           RRC     A
   \   00003A   543F         ANL     A,#0x3f
   \   00003C   A2E0         MOV     C,0xE0 /* A   */.0
   \   00003E   20F001       JB      B.0,??gizProtocolModuleStatus_2
   \   000041   B3           CPL     C
   \                     ??gizProtocolModuleStatus_2:
   \   000042   405E         JC      ??CrossCallReturnLabel_166
   1244              {
   1245                  if(1 == status->ststus.types.onboarding)
   \   000044   8E82         MOV     DPL,R6
   \   000046   8F83         MOV     DPH,R7
   \   000048   A3           INC     DPTR
   \   000049   A3           INC     DPTR
   \   00004A   A3           INC     DPTR
   \   00004B   A3           INC     DPTR
   \   00004C   A3           INC     DPTR
   \   00004D   A3           INC     DPTR
   \   00004E   A3           INC     DPTR
   \   00004F   A3           INC     DPTR
   \   000050   E0           MOVX    A,@DPTR
   \   000051   5404         ANL     A,#0x4
   \   000053   8E82         MOV     DPL,R6
   \   000055   8F83         MOV     DPH,R7
   \   000057   A3           INC     DPTR
   \   000058   A3           INC     DPTR
   \   000059   A3           INC     DPTR
   \   00005A   A3           INC     DPTR
   \   00005B   A3           INC     DPTR
   \   00005C   A3           INC     DPTR
   \   00005D   A3           INC     DPTR
   \   00005E   A3           INC     DPTR
   \   00005F   6020         JZ      ??gizProtocolModuleStatus_3
   1246                  {
   1247                      if(1 == status->ststus.types.softap)
   \   000061   E0           MOVX    A,@DPTR
   \   000062   A2E0         MOV     C,0xE0 /* A   */.0
   \   000064   5003         JNC     ??CrossCallReturnLabel_164
   1248                      {
   1249                          gizwitsProtocol.wifiStatusEvent.event[gizwitsProtocol.wifiStatusEvent.num] = WIFI_SOFTAP;
   \   000066   12....       LCALL   ?Subroutine10 & 0xFFFF
   1250                          gizwitsProtocol.wifiStatusEvent.num++;
   1251                          GIZWITS_LOG("OnBoarding: SoftAP or Web mode\n");
   1252                      }
   1253          
   1254                      if(1 == status->ststus.types.station)
   \                     ??CrossCallReturnLabel_164:
   \   000069   8E82         MOV     DPL,R6
   \   00006B   8F83         MOV     DPH,R7
   \   00006D   A3           INC     DPTR
   \   00006E   A3           INC     DPTR
   \   00006F   A3           INC     DPTR
   \   000070   A3           INC     DPTR
   \   000071   A3           INC     DPTR
   \   000072   A3           INC     DPTR
   \   000073   A3           INC     DPTR
   \   000074   A3           INC     DPTR
   \   000075   E0           MOVX    A,@DPTR
   \   000076   5402         ANL     A,#0x2
   \   000078   6028         JZ      ??CrossCallReturnLabel_166
   1255                      {
   1256                          gizwitsProtocol.wifiStatusEvent.event[gizwitsProtocol.wifiStatusEvent.num] = WIFI_AIRLINK;
   \   00007A   12....       LCALL   ?Subroutine22 & 0xFFFF
   1257                          gizwitsProtocol.wifiStatusEvent.num++;
   1258                          GIZWITS_LOG("OnBoarding: AirLink mode\n");
   1259                      }
   1260                  }
   \                     ??CrossCallReturnLabel_159:
   \   00007D   7401         MOV     A,#0x1
   \   00007F   801E         SJMP    ??gizProtocolModuleStatus_4
   1261                  else
   1262                  {
   1263                      if(1 == status->ststus.types.softap)
   \                     ??gizProtocolModuleStatus_3:
   \   000081   E0           MOVX    A,@DPTR
   \   000082   A2E0         MOV     C,0xE0 /* A   */.0
   \   000084   5003         JNC     ??CrossCallReturnLabel_165
   1264                      {
   1265                          gizwitsProtocol.wifiStatusEvent.event[gizwitsProtocol.wifiStatusEvent.num] = WIFI_SOFTAP;
   \   000086   12....       LCALL   ?Subroutine10 & 0xFFFF
   1266                          gizwitsProtocol.wifiStatusEvent.num++;
   1267                          GIZWITS_LOG("OnBoarding: SoftAP or Web mode\n");
   1268                      }
   1269          
   1270                      if(1 == status->ststus.types.station)
   \                     ??CrossCallReturnLabel_165:
   \   000089   8E82         MOV     DPL,R6
   \   00008B   8F83         MOV     DPH,R7
   \   00008D   A3           INC     DPTR
   \   00008E   A3           INC     DPTR
   \   00008F   A3           INC     DPTR
   \   000090   A3           INC     DPTR
   \   000091   A3           INC     DPTR
   \   000092   A3           INC     DPTR
   \   000093   A3           INC     DPTR
   \   000094   A3           INC     DPTR
   \   000095   E0           MOVX    A,@DPTR
   \   000096   5402         ANL     A,#0x2
   \   000098   6008         JZ      ??CrossCallReturnLabel_166
   1271                      {
   1272                          gizwitsProtocol.wifiStatusEvent.event[gizwitsProtocol.wifiStatusEvent.num] = WIFI_STATION;
   \   00009A   12....       LCALL   ?Subroutine22 & 0xFFFF
   1273                          gizwitsProtocol.wifiStatusEvent.num++;
   1274                          GIZWITS_LOG("OnBoarding: Station mode\n");
   1275                      }
   1276                  }
   1277              }
   \                     ??CrossCallReturnLabel_160:
   \   00009D   7402         MOV     A,#0x2
   \                     ??gizProtocolModuleStatus_4:
   \   00009F   12....       LCALL   ??Subroutine68_0 & 0xFFFF
   1278          
   1279              //binding mode status
   1280              if(lastStatus.types.binding != status->ststus.types.binding)
   \                     ??CrossCallReturnLabel_166:
   \   0000A2   8E82         MOV     DPL,R6
   \   0000A4   8F83         MOV     DPH,R7
   \   0000A6   A3           INC     DPTR
   \   0000A7   A3           INC     DPTR
   \   0000A8   A3           INC     DPTR
   \   0000A9   A3           INC     DPTR
   \   0000AA   A3           INC     DPTR
   \   0000AB   A3           INC     DPTR
   \   0000AC   A3           INC     DPTR
   \   0000AD   A3           INC     DPTR
   \   0000AE   12....       LCALL   ?Subroutine40 & 0xFFFF
   \                     ??CrossCallReturnLabel_65:
   \   0000B1   92F0         MOV     B.0,C
   \   0000B3   90....       MOV     DPTR,#??lastStatus
   \   0000B6   12....       LCALL   ?Subroutine40 & 0xFFFF
   \                     ??CrossCallReturnLabel_66:
   \   0000B9   20F001       JB      B.0,??gizProtocolModuleStatus_5
   \   0000BC   B3           CPL     C
   \                     ??gizProtocolModuleStatus_5:
   \   0000BD   4021         JC      ??CrossCallReturnLabel_3
   1281              {
   1282                  lastStatus.types.binding = status->ststus.types.binding;
   \   0000BF   E0           MOVX    A,@DPTR
   \   0000C0   54F7         ANL     A,#0xf7
   \   0000C2   12....       LCALL   ?Subroutine28 & 0xFFFF
   \                     ??CrossCallReturnLabel_40:
   \   0000C5   5408         ANL     A,#0x8
   \   0000C7   12....       LCALL   ?Subroutine8 & 0xFFFF
   1283                  if(1 == status->ststus.types.binding)
   \                     ??CrossCallReturnLabel_0:
   \   0000CA   5408         ANL     A,#0x8
   \   0000CC   90....       MOV     DPTR,#gizwitsProtocol + 132
   \   0000CF   6007         JZ      ??gizProtocolModuleStatus_6
   1284                  {
   1285                      gizwitsProtocol.wifiStatusEvent.event[gizwitsProtocol.wifiStatusEvent.num] = WIFI_OPEN_BINDING;
   \   0000D1   12....       LCALL   ??Subroutine67_0 & 0xFFFF
   1286                      gizwitsProtocol.wifiStatusEvent.num++;
   1287                      GIZWITS_LOG("WiFi status: in binding mode\n");
   1288                  }
   \                     ??CrossCallReturnLabel_149:
   \   0000D4   7403         MOV     A,#0x3
   \   0000D6   8005         SJMP    ??gizProtocolModuleStatus_7
   1289                  else
   1290                  {
   1291                      gizwitsProtocol.wifiStatusEvent.event[gizwitsProtocol.wifiStatusEvent.num] = WIFI_CLOSE_BINDING;
   \                     ??gizProtocolModuleStatus_6:
   \   0000D8   12....       LCALL   ??Subroutine67_0 & 0xFFFF
   1292                      gizwitsProtocol.wifiStatusEvent.num++;
   1293                      GIZWITS_LOG("WiFi status: out binding mode\n");
   1294                  }
   1295              }
   \                     ??CrossCallReturnLabel_150:
   \   0000DB   7404         MOV     A,#0x4
   \                     ??gizProtocolModuleStatus_7:
   \   0000DD   12....       LCALL   ?Subroutine9 & 0xFFFF
   1296          
   1297              //router status
   1298              if(lastStatus.types.con_route != status->ststus.types.con_route)
   \                     ??CrossCallReturnLabel_3:
   \   0000E0   8E82         MOV     DPL,R6
   \   0000E2   8F83         MOV     DPH,R7
   \   0000E4   A3           INC     DPTR
   \   0000E5   A3           INC     DPTR
   \   0000E6   A3           INC     DPTR
   \   0000E7   A3           INC     DPTR
   \   0000E8   A3           INC     DPTR
   \   0000E9   A3           INC     DPTR
   \   0000EA   A3           INC     DPTR
   \   0000EB   A3           INC     DPTR
   \   0000EC   E0           MOVX    A,@DPTR
   \   0000ED   C4           SWAP    A
   \   0000EE   540F         ANL     A,#0xf
   \   0000F0   A2E0         MOV     C,0xE0 /* A   */.0
   \   0000F2   92F0         MOV     B.0,C
   \   0000F4   90....       MOV     DPTR,#??lastStatus
   \   0000F7   E0           MOVX    A,@DPTR
   \   0000F8   C4           SWAP    A
   \   0000F9   540F         ANL     A,#0xf
   \   0000FB   A2E0         MOV     C,0xE0 /* A   */.0
   \   0000FD   20F001       JB      B.0,??gizProtocolModuleStatus_8
   \   000100   B3           CPL     C
   \                     ??gizProtocolModuleStatus_8:
   \   000101   4021         JC      ??CrossCallReturnLabel_167
   1299              {
   1300                  lastStatus.types.con_route = status->ststus.types.con_route;
   \   000103   E0           MOVX    A,@DPTR
   \   000104   54EF         ANL     A,#0xef
   \   000106   12....       LCALL   ?Subroutine28 & 0xFFFF
   \                     ??CrossCallReturnLabel_41:
   \   000109   5410         ANL     A,#0x10
   \   00010B   12....       LCALL   ?Subroutine8 & 0xFFFF
   1301                  if(1 == status->ststus.types.con_route)
   \                     ??CrossCallReturnLabel_1:
   \   00010E   5410         ANL     A,#0x10
   \   000110   90....       MOV     DPTR,#gizwitsProtocol + 132
   \   000113   6007         JZ      ??gizProtocolModuleStatus_9
   1302                  {
   1303                      gizwitsProtocol.wifiStatusEvent.event[gizwitsProtocol.wifiStatusEvent.num] = WIFI_CON_ROUTER;
   \   000115   12....       LCALL   ??Subroutine67_0 & 0xFFFF
   1304                      gizwitsProtocol.wifiStatusEvent.num++;
   1305                      GIZWITS_LOG("WiFi status: connected router\n");
   1306                  }
   \                     ??CrossCallReturnLabel_151:
   \   000118   7405         MOV     A,#0x5
   \   00011A   8005         SJMP    ??gizProtocolModuleStatus_10
   1307                  else
   1308                  {
   1309                      gizwitsProtocol.wifiStatusEvent.event[gizwitsProtocol.wifiStatusEvent.num] = WIFI_DISCON_ROUTER;
   \                     ??gizProtocolModuleStatus_9:
   \   00011C   12....       LCALL   ??Subroutine67_0 & 0xFFFF
   1310                      gizwitsProtocol.wifiStatusEvent.num++;
   1311                      GIZWITS_LOG("WiFi status: disconnected router\n");
   1312                  }
   1313              }
   \                     ??CrossCallReturnLabel_152:
   \   00011F   7406         MOV     A,#0x6
   \                     ??gizProtocolModuleStatus_10:
   \   000121   12....       LCALL   ??Subroutine68_0 & 0xFFFF
   1314          
   1315              //M2M server status
   1316              if(lastStatus.types.con_m2m != status->ststus.types.con_m2m)
   \                     ??CrossCallReturnLabel_167:
   \   000124   8E82         MOV     DPL,R6
   \   000126   8F83         MOV     DPH,R7
   \   000128   A3           INC     DPTR
   \   000129   A3           INC     DPTR
   \   00012A   A3           INC     DPTR
   \   00012B   A3           INC     DPTR
   \   00012C   A3           INC     DPTR
   \   00012D   A3           INC     DPTR
   \   00012E   A3           INC     DPTR
   \   00012F   A3           INC     DPTR
   \   000130   E0           MOVX    A,@DPTR
   \   000131   C4           SWAP    A
   \   000132   13           RRC     A
   \   000133   5407         ANL     A,#0x7
   \   000135   A2E0         MOV     C,0xE0 /* A   */.0
   \   000137   92F0         MOV     B.0,C
   \   000139   90....       MOV     DPTR,#??lastStatus
   \   00013C   E0           MOVX    A,@DPTR
   \   00013D   C4           SWAP    A
   \   00013E   13           RRC     A
   \   00013F   5407         ANL     A,#0x7
   \   000141   A2E0         MOV     C,0xE0 /* A   */.0
   \   000143   20F001       JB      B.0,??gizProtocolModuleStatus_11
   \   000146   B3           CPL     C
   \                     ??gizProtocolModuleStatus_11:
   \   000147   4021         JC      ??CrossCallReturnLabel_4
   1317              {
   1318                  lastStatus.types.con_m2m = status->ststus.types.con_m2m;
   \   000149   E0           MOVX    A,@DPTR
   \   00014A   54DF         ANL     A,#0xdf
   \   00014C   12....       LCALL   ?Subroutine28 & 0xFFFF
   \                     ??CrossCallReturnLabel_42:
   \   00014F   5420         ANL     A,#0x20
   \   000151   12....       LCALL   ?Subroutine8 & 0xFFFF
   1319                  if(1 == status->ststus.types.con_m2m)
   \                     ??CrossCallReturnLabel_2:
   \   000154   5420         ANL     A,#0x20
   \   000156   90....       MOV     DPTR,#gizwitsProtocol + 132
   \   000159   6007         JZ      ??gizProtocolModuleStatus_12
   1320                  {
   1321                      gizwitsProtocol.wifiStatusEvent.event[gizwitsProtocol.wifiStatusEvent.num] = WIFI_CON_M2M;
   \   00015B   12....       LCALL   ??Subroutine67_0 & 0xFFFF
   1322                      gizwitsProtocol.wifiStatusEvent.num++;
   1323                      GIZWITS_LOG("WiFi status: connected m2m\n");
   1324                  }
   \                     ??CrossCallReturnLabel_153:
   \   00015E   7407         MOV     A,#0x7
   \   000160   8005         SJMP    ??gizProtocolModuleStatus_13
   1325                  else
   1326                  {
   1327                      gizwitsProtocol.wifiStatusEvent.event[gizwitsProtocol.wifiStatusEvent.num] = WIFI_DISCON_M2M;
   \                     ??gizProtocolModuleStatus_12:
   \   000162   12....       LCALL   ??Subroutine67_0 & 0xFFFF
   1328                      gizwitsProtocol.wifiStatusEvent.num++;
   1329                      GIZWITS_LOG("WiFi status: disconnected m2m\n");
   1330                  }
   1331              }
   \                     ??CrossCallReturnLabel_154:
   \   000165   7408         MOV     A,#0x8
   \                     ??gizProtocolModuleStatus_13:
   \   000167   12....       LCALL   ?Subroutine9 & 0xFFFF
   1332          
   1333              //APP status
   1334              if(lastStatus.types.app != status->ststus.types.app)
   \                     ??CrossCallReturnLabel_4:
   \   00016A   8E82         MOV     DPL,R6
   \   00016C   8F83         MOV     DPH,R7
   \   00016E   A3           INC     DPTR
   \   00016F   A3           INC     DPTR
   \   000170   A3           INC     DPTR
   \   000171   A3           INC     DPTR
   \   000172   A3           INC     DPTR
   \   000173   A3           INC     DPTR
   \   000174   A3           INC     DPTR
   \   000175   A3           INC     DPTR
   \   000176   12....       LCALL   ?Subroutine30 & 0xFFFF
   \                     ??CrossCallReturnLabel_46:
   \   000179   12....       LCALL   ?US_SHR
   \   00017C   E5..         MOV     A,?V0 + 0
   \   00017E   A2E0         MOV     C,0xE0 /* A   */.0
   \   000180   92F0         MOV     B.0,C
   \   000182   90....       MOV     DPTR,#??lastStatus
   \   000185   12....       LCALL   ?Subroutine30 & 0xFFFF
   \                     ??CrossCallReturnLabel_47:
   \   000188   12....       LCALL   ?US_SHR
   \   00018B   E5..         MOV     A,?V0 + 0
   \   00018D   A2E0         MOV     C,0xE0 /* A   */.0
   \   00018F   20F001       JB      B.0,??gizProtocolModuleStatus_14
   \   000192   B3           CPL     C
   \                     ??gizProtocolModuleStatus_14:
   \   000193   4030         JC      ??CrossCallReturnLabel_5
   1335              {
   1336                  lastStatus.types.app = status->ststus.types.app;
   \   000195   12....       LCALL   ?Subroutine49 & 0xFFFF
   \                     ??CrossCallReturnLabel_80:
   \   000198   90....       MOV     DPTR,#??lastStatus
   \   00019B   E0           MOVX    A,@DPTR
   \   00019C   FA           MOV     R2,A
   \   00019D   A3           INC     DPTR
   \   00019E   E0           MOVX    A,@DPTR
   \   00019F   54F7         ANL     A,#0xf7
   \   0001A1   FB           MOV     R3,A
   \   0001A2   85..82       MOV     DPL,?V0 + 0
   \   0001A5   85..83       MOV     DPH,?V0 + 1
   \   0001A8   A3           INC     DPTR
   \   0001A9   E0           MOVX    A,@DPTR
   \   0001AA   5408         ANL     A,#0x8
   \   0001AC   12....       LCALL   ?Subroutine14 & 0xFFFF
   1337                  if(1 == status->ststus.types.app)
   \                     ??CrossCallReturnLabel_12:
   \   0001AF   5408         ANL     A,#0x8
   \   0001B1   90....       MOV     DPTR,#gizwitsProtocol + 132
   \   0001B4   6007         JZ      ??gizProtocolModuleStatus_15
   1338                  {
   1339                      gizwitsProtocol.wifiStatusEvent.event[gizwitsProtocol.wifiStatusEvent.num] = WIFI_CON_APP;
   \   0001B6   12....       LCALL   ??Subroutine67_0 & 0xFFFF
   1340                      gizwitsProtocol.wifiStatusEvent.num++;
   1341                      GIZWITS_LOG("WiFi status: app connect\n");
   1342                  }
   \                     ??CrossCallReturnLabel_155:
   \   0001B9   740B         MOV     A,#0xb
   \   0001BB   8005         SJMP    ??gizProtocolModuleStatus_16
   1343                  else
   1344                  {
   1345                      gizwitsProtocol.wifiStatusEvent.event[gizwitsProtocol.wifiStatusEvent.num] = WIFI_DISCON_APP;
   \                     ??gizProtocolModuleStatus_15:
   \   0001BD   12....       LCALL   ??Subroutine67_0 & 0xFFFF
   1346                      gizwitsProtocol.wifiStatusEvent.num++;
   1347                      GIZWITS_LOG("WiFi status: no app connect\n");
   1348                  }
   1349              }
   \                     ??CrossCallReturnLabel_156:
   \   0001C0   740C         MOV     A,#0xc
   \                     ??gizProtocolModuleStatus_16:
   \   0001C2   12....       LCALL   ?Subroutine9 & 0xFFFF
   1350          
   1351              //test mode status
   1352              if(lastStatus.types.test != status->ststus.types.test)
   \                     ??CrossCallReturnLabel_5:
   \   0001C5   8E82         MOV     DPL,R6
   \   0001C7   8F83         MOV     DPH,R7
   \   0001C9   A3           INC     DPTR
   \   0001CA   A3           INC     DPTR
   \   0001CB   A3           INC     DPTR
   \   0001CC   A3           INC     DPTR
   \   0001CD   A3           INC     DPTR
   \   0001CE   A3           INC     DPTR
   \   0001CF   A3           INC     DPTR
   \   0001D0   A3           INC     DPTR
   \   0001D1   12....       LCALL   ?Subroutine31 & 0xFFFF
   \                     ??CrossCallReturnLabel_48:
   \   0001D4   12....       LCALL   ?US_SHR
   \   0001D7   E5..         MOV     A,?V0 + 0
   \   0001D9   A2E0         MOV     C,0xE0 /* A   */.0
   \   0001DB   92F0         MOV     B.0,C
   \   0001DD   90....       MOV     DPTR,#??lastStatus
   \   0001E0   12....       LCALL   ?Subroutine31 & 0xFFFF
   \                     ??CrossCallReturnLabel_49:
   \   0001E3   12....       LCALL   ?US_SHR
   \   0001E6   E5..         MOV     A,?V0 + 0
   \   0001E8   A2E0         MOV     C,0xE0 /* A   */.0
   \   0001EA   20F001       JB      B.0,??gizProtocolModuleStatus_17
   \   0001ED   B3           CPL     C
   \                     ??gizProtocolModuleStatus_17:
   \   0001EE   4037         JC      ??CrossCallReturnLabel_6
   1353              {
   1354                  lastStatus.types.test = status->ststus.types.test;
   \   0001F0   EE           MOV     A,R6
   \   0001F1   2408         ADD     A,#0x8
   \   0001F3   F8           MOV     R0,A
   \   0001F4   EF           MOV     A,R7
   \   0001F5   3400         ADDC    A,#0x0
   \   0001F7   F9           MOV     R1,A
   \   0001F8   88..         MOV     ?V0 + 0,R0
   \   0001FA   89..         MOV     ?V0 + 1,R1
   \   0001FC   90....       MOV     DPTR,#??lastStatus
   \   0001FF   E0           MOVX    A,@DPTR
   \   000200   FA           MOV     R2,A
   \   000201   A3           INC     DPTR
   \   000202   E0           MOVX    A,@DPTR
   \   000203   54EF         ANL     A,#0xef
   \   000205   FB           MOV     R3,A
   \   000206   8882         MOV     DPL,R0
   \   000208   8983         MOV     DPH,R1
   \   00020A   A3           INC     DPTR
   \   00020B   E0           MOVX    A,@DPTR
   \   00020C   5410         ANL     A,#0x10
   \   00020E   12....       LCALL   ?Subroutine14 & 0xFFFF
   1355                  if(1 == status->ststus.types.test)
   \                     ??CrossCallReturnLabel_13:
   \   000211   5410         ANL     A,#0x10
   \   000213   90....       MOV     DPTR,#gizwitsProtocol + 132
   \   000216   6007         JZ      ??gizProtocolModuleStatus_18
   1356                  {
   1357                      gizwitsProtocol.wifiStatusEvent.event[gizwitsProtocol.wifiStatusEvent.num] = WIFI_OPEN_TESTMODE;
   \   000218   12....       LCALL   ??Subroutine67_0 & 0xFFFF
   1358                      gizwitsProtocol.wifiStatusEvent.num++;
   1359                      GIZWITS_LOG("WiFi status: in test mode\n");
   1360                  }
   \                     ??CrossCallReturnLabel_157:
   \   00021B   7409         MOV     A,#0x9
   \   00021D   8005         SJMP    ??gizProtocolModuleStatus_19
   1361                  else
   1362                  {
   1363                      gizwitsProtocol.wifiStatusEvent.event[gizwitsProtocol.wifiStatusEvent.num] = WIFI_CLOSE_TESTMODE;
   \                     ??gizProtocolModuleStatus_18:
   \   00021F   12....       LCALL   ??Subroutine67_0 & 0xFFFF
   1364                      gizwitsProtocol.wifiStatusEvent.num++;
   1365                      GIZWITS_LOG("WiFi status: out test mode\n");
   1366                  }
   1367              }
   \                     ??CrossCallReturnLabel_158:
   \   000222   740A         MOV     A,#0xa
   \                     ??gizProtocolModuleStatus_19:
   \   000224   12....       LCALL   ?Subroutine9 & 0xFFFF
   1368          
   1369              gizwitsProtocol.wifiStatusEvent.event[gizwitsProtocol.wifiStatusEvent.num] = WIFI_RSSI;
   \                     ??CrossCallReturnLabel_6:
   \   000227   12....       LCALL   ?Subroutine22 & 0xFFFF
   \                     ??CrossCallReturnLabel_161:
   \   00022A   740D         MOV     A,#0xd
   \   00022C   12....       LCALL   ?Subroutine9 & 0xFFFF
   1370              gizwitsProtocol.wifiStatusEvent.num++;
   1371              gizwitsProtocol.wifiStatusData.rssi = status->ststus.types.rssi;
   \                     ??CrossCallReturnLabel_7:
   \   00022F   8E82         MOV     DPL,R6
   \   000231   8F83         MOV     DPH,R7
   \   000233   A3           INC     DPTR
   \   000234   A3           INC     DPTR
   \   000235   A3           INC     DPTR
   \   000236   A3           INC     DPTR
   \   000237   A3           INC     DPTR
   \   000238   A3           INC     DPTR
   \   000239   A3           INC     DPTR
   \   00023A   A3           INC     DPTR
   \   00023B   A3           INC     DPTR
   \   00023C   E0           MOVX    A,@DPTR
   \   00023D   5407         ANL     A,#0x7
   \   00023F   90....       MOV     DPTR,#gizwitsProtocol + 234
   \   000242   F0           MOVX    @DPTR,A
   1372              GIZWITS_LOG("RSSI is %d \n", gizwitsProtocol.wifiStatusData.rssi);
   1373          
   1374              gizwitsProtocol.issuedFlag = WIFI_STATUS_TYPE;
   \   000243   90....       MOV     DPTR,#gizwitsProtocol
   \   000246   7402         MOV     A,#0x2
   \   000248   F0           MOVX    @DPTR,A
   1375          
   1376              return 0;
   \   000249   7900         MOV     R1,#0x0
   \                     ??gizProtocolModuleStatus_1:
   \   00024B   02....       LJMP    ??Subroutine69_0 & 0xFFFF
   1377          }

   \                                 In  segment BANKED_CODE, align 1, keep-with-next
   \                     ?Subroutine49:
   \   000000   EE           MOV     A,R6
   \   000001   2408         ADD     A,#0x8
   \   000003   F5..         MOV     ?V0 + 0,A
   \   000005   EF           MOV     A,R7
   \   000006   3400         ADDC    A,#0x0
   \   000008   F5..         MOV     ?V0 + 1,A
   \   00000A   22           RET

   \                                 In  segment BANKED_CODE, align 1, keep-with-next
   \                     ?Subroutine40:
   \   000000   E0           MOVX    A,@DPTR
   \   000001   13           RRC     A
   \   000002   13           RRC     A
   \   000003   13           RRC     A
   \   000004   541F         ANL     A,#0x1f
   \   000006   A2E0         MOV     C,0xE0 /* A   */.0
   \   000008   22           RET

   \                                 In  segment BANKED_CODE, align 1, keep-with-next
   \                     ?Subroutine31:
   \   000000   12....       LCALL   ?Subroutine56 & 0xFFFF
   \                     ??CrossCallReturnLabel_90:
   \   000003   740C         MOV     A,#0xc
   \   000005   78..         MOV     R0,#?V0 + 0
   \   000007   22           RET

   \                                 In  segment BANKED_CODE, align 1, keep-with-next
   \                     ?Subroutine30:
   \   000000   12....       LCALL   ?Subroutine56 & 0xFFFF
   \                     ??CrossCallReturnLabel_89:
   \   000003   740B         MOV     A,#0xb
   \   000005   78..         MOV     R0,#?V0 + 0
   \   000007   22           RET

   \                                 In  segment BANKED_CODE, align 1, keep-with-next
   \                     ?Subroutine28:
   \   000000   FA           MOV     R2,A
   \   000001   A3           INC     DPTR
   \   000002   E0           MOVX    A,@DPTR
   \   000003   FB           MOV     R3,A
   \   000004   85..82       MOV     DPL,?V0 + 0
   \   000007   85..83       MOV     DPH,?V0 + 1
   \   00000A   E0           MOVX    A,@DPTR
   \   00000B   22           RET

   \                                 In  segment BANKED_CODE, align 1, keep-with-next
   \                     ?Subroutine22:
   \   000000   90....       MOV     DPTR,#gizwitsProtocol + 132
   \   000003                REQUIRE ??Subroutine67_0
   \   000003                ; // Fall through to label ??Subroutine67_0

   \                                 In  segment BANKED_CODE, align 1, keep-with-next
   \                     ??Subroutine67_0:
   \   000000   12....       LCALL   ?Subroutine57 & 0xFFFF
   \                     ??CrossCallReturnLabel_163:
   \   000003   22           RET

   \                                 In  segment BANKED_CODE, align 1, keep-with-next
   \                     ?Subroutine57:
   \   000000   E0           MOVX    A,@DPTR
   \   000001   F8           MOV     R0,A
   \   000002   74..         MOV     A,#(gizwitsProtocol + 133) & 0xff
   \   000004   28           ADD     A,R0
   \   000005   F582         MOV     DPL,A
   \   000007   74..         MOV     A,#((gizwitsProtocol + 133) >> 8) & 0xff
   \   000009   3400         ADDC    A,#0x0
   \   00000B   F583         MOV     DPH,A
   \   00000D   22           RET

   \                                 In  segment BANKED_CODE, align 1, keep-with-next
   \                     ?Subroutine14:
   \   000000   F9           MOV     R1,A
   \   000001   EA           MOV     A,R2
   \   000002   F8           MOV     R0,A
   \   000003   EB           MOV     A,R3
   \   000004   49           ORL     A,R1
   \   000005   12....       LCALL   ?Subroutine52 & 0xFFFF
   \                     ??CrossCallReturnLabel_83:
   \   000008   A3           INC     DPTR
   \   000009   E0           MOVX    A,@DPTR
   \   00000A   22           RET

   \                                 In  segment BANKED_CODE, align 1, keep-with-next
   \                     ?Subroutine10:
   \   000000   90....       MOV     DPTR,#gizwitsProtocol + 132
   \   000003   12....       LCALL   ?Subroutine57 & 0xFFFF
   \                     ??CrossCallReturnLabel_162:
   \   000006   E4           CLR     A
   \   000007                REQUIRE ??Subroutine68_0
   \   000007                ; // Fall through to label ??Subroutine68_0

   \                                 In  segment BANKED_CODE, align 1, keep-with-next
   \                     ??Subroutine68_0:
   \   000000   F0           MOVX    @DPTR,A
   \   000001   90....       MOV     DPTR,#gizwitsProtocol + 132
   \   000004   E0           MOVX    A,@DPTR
   \   000005   2401         ADD     A,#0x1
   \   000007   F0           MOVX    @DPTR,A
   \   000008   22           RET

   \                                 In  segment BANKED_CODE, align 1, keep-with-next
   \                     ?Subroutine9:
   \   000000   F0           MOVX    @DPTR,A
   \   000001   90....       MOV     DPTR,#gizwitsProtocol + 132
   \   000004   E0           MOVX    A,@DPTR
   \   000005   04           INC     A
   \   000006   F0           MOVX    @DPTR,A
   \   000007   22           RET

   \                                 In  segment BANKED_CODE, align 1, keep-with-next
   \                     ?Subroutine8:
   \   000000   F8           MOV     R0,A
   \   000001   EA           MOV     A,R2
   \   000002   48           ORL     A,R0
   \   000003   F8           MOV     R0,A
   \   000004   EB           MOV     A,R3
   \   000005   12....       LCALL   ?Subroutine52 & 0xFFFF
   \                     ??CrossCallReturnLabel_84:
   \   000008   E0           MOVX    A,@DPTR
   \   000009   22           RET

   \                                 In  segment BANKED_CODE, align 1, keep-with-next
   \                     ?Subroutine52:
   \   000000   F9           MOV     R1,A
   \   000001   90....       MOV     DPTR,#??lastStatus
   \   000004   12....       LCALL   ??Subroutine74_0 & 0xFFFF
   \                     ??CrossCallReturnLabel_194:
   \   000007   85..82       MOV     DPL,?V0 + 0
   \   00000A   85..83       MOV     DPH,?V0 + 1
   \   00000D   22           RET

   \                                 In  segment BANKED_CODE, align 1, keep-with-next
   \                     ??Subroutine69_0:
   \   000000   7F04         MOV     R7,#0x4
   \   000002   02....       LJMP    ?BANKED_LEAVE_XDATA

   \                                 In  segment XDATA_Z, align 1, keep-with-next
   \                     ??lastStatus:
   \   000000                DS 2
   \   000002                REQUIRE __INIT_XDATA_Z
   1378          
   1379          
   1380          /**@name Gizwits Áî®Êà∑APIÊé•Âè£
   1381          * @{
   1382          */
   1383          
   1384          /**
   1385          * @brief gizwitsÂçèËÆÆÂàùÂßãÂåñÊé•Âè?
   1386          * Áî®Êà∑Ë∞ÉÁî®ËØ•Êé•Âè£ÂèØ‰ª•ÂÆåÊàêGizwitsÂçèËÆÆÁõ∏ÂÖ≥ÂàùÂßãÂåñÔºàÂåÖÊã¨ÂçèËÆÆÁõ∏ÂÖ≥ÂÆöÊó∂Âô®„ÄÅ‰∏≤Âè£ÁöÑÂàùÂßãÔº?
   1387          * Áî®Êà∑ÂèØÂú®Âú®Ê≠§Êé•Âè£ÂÜÖÂÆåÊàêÊï∞ÊçÆÁÇπÁöÑÂàùÂßãÂåñÁä∂ÊÄÅËÆæÁΩ?
   1388          * @param none
   1389          * @return none
   1390          */

   \                                 In  segment BANKED_CODE, align 1, keep-with-next
   1391          void gizwitsInit(void)
   \                     gizwitsInit:
   1392          {    
   \   000000   C082         PUSH    DPL
   \   000002   C083         PUSH    DPH
   \   000004                ; Saved register size: 2
   \   000004                ; Auto size: 0
   1393              pRb.rbCapacity = RB_MAX_LEN;
   \   000004   90....       MOV     DPTR,#pRb
   \   000007   743E         MOV     A,#0x3e
   \   000009   F0           MOVX    @DPTR,A
   \   00000A   A3           INC     DPTR
   \   00000B   E4           CLR     A
   \   00000C   F0           MOVX    @DPTR,A
   1394              pRb.rbBuff = rbBuf;
   \   00000D   90....       MOV     DPTR,#pRb + 6
   \   000010   74..         MOV     A,#rbBuf & 0xff
   \   000012   F0           MOVX    @DPTR,A
   \   000013   A3           INC     DPTR
   \   000014   74..         MOV     A,#(rbBuf >> 8) & 0xff
   \   000016   F0           MOVX    @DPTR,A
   1395              rbCreate(&pRb);
   \   000017   90....       MOV     DPTR,#pRb + 2
   \   00001A   74..         MOV     A,#rbBuf & 0xff
   \   00001C   F0           MOVX    @DPTR,A
   \   00001D   A3           INC     DPTR
   \   00001E   74..         MOV     A,#(rbBuf >> 8) & 0xff
   \   000020   F0           MOVX    @DPTR,A
   \   000021   A3           INC     DPTR
   \   000022   74..         MOV     A,#rbBuf & 0xff
   \   000024   F0           MOVX    @DPTR,A
   \   000025   A3           INC     DPTR
   \   000026   74..         MOV     A,#(rbBuf >> 8) & 0xff
   \   000028   F0           MOVX    @DPTR,A
   1396              
   1397              osal_memset((uint8 *)&gizwitsProtocol, 0, sizeof(gizwitsProtocol_t));
   \   000029                ; Setup parameters for call to function osal_memset
   \   000029   7CF6         MOV     R4,#-0xa
   \   00002B   7D00         MOV     R5,#0x0
   \   00002D   7900         MOV     R1,#0x0
   \   00002F   7A..         MOV     R2,#gizwitsProtocol & 0xff
   \   000031   7B..         MOV     R3,#(gizwitsProtocol >> 8) & 0xff
   \   000033   12....       LCALL   ??osal_memset?relay
   1398          }
   \   000036   02....       LJMP    ?Subroutine3 & 0xFFFF
   1399          
   1400          /**
   1401          * @brief WiFiÈÖçÁΩÆÊé•Âè£
   1402          
   1403          * Áî®Êà∑ÂèØ‰ª•Ë∞ÉÁî®ËØ•Êé•Âè£‰ΩøWiFiÊ®°ÁªÑËøõÂÖ•Áõ∏Â∫îÁöÑÈÖçÁΩÆÊ®°ÂºèÊàñËÄÖÂ§ç‰ΩçÊ®°Áª?
   1404          * @param[in] mode ÈÖçÁΩÆÊ®°ÂºèÈÄâÊã©Ôº?x0Ôº?Ê®°ÁªÑÂ§ç‰Ωç ;0x01Ôº?SoftApÊ®°Âºè ;0x02Ôº?AirLinkÊ®°Âºè ;0x03Ôº?‰∫ßÊµãÊ®°ÂºèÊ®°Âºè; 0x04:ÂÖÅËÆ∏Áî®Êà∑ÁªëÂÆöËÆæÂ§á
   1405          
   1406          * @return ÈîôËØØÂëΩ‰ª§Á†?*/

   \                                 In  segment BANKED_CODE, align 1, keep-with-next
   1407          uint32 gizwitsSetMode(uint8 mode)
   \                     gizwitsSetMode:
   1408          {
   \   000000   74F4         MOV     A,#-0xc
   \   000002   12....       LCALL   ?BANKED_ENTER_XDATA
   \   000005                ; Saved register size: 12
   \   000005                ; Auto size: 10
   \   000005   74F6         MOV     A,#-0xa
   \   000007   12....       LCALL   ?ALLOC_XSTACK8
   \   00000A   E9           MOV     A,R1
   \   00000B   FE           MOV     R6,A
   1409              uint32 ret = 0;
   \   00000C   90....       MOV     DPTR,#__Constant_0
   \   00000F   78..         MOV     R0,#?V0 + 0
   \   000011   12....       LCALL   ?L_MOV_X
   1410              protocolCfgMode_t cfgMode;
   1411              protocolCommon_t setDefault;
                                      ^
Warning[Pe177]: variable "setDefault" was declared but never referenced

  static void rbDelete(rb_t* rb)
              ^
"E:\work\smartlight\ZigLight001\Projects\zstack\Samples\ZigLightApp\Source\gizwits_protocol.c",46  Warning[Pe177]: 
          function "rbDelete" was declared but never referenced

  static uint32 gizY2X(uint32 ratio, int32 addition, int32 preValue)
                ^
"E:\work\smartlight\ZigLight001\Projects\zstack\Samples\ZigLightApp\Source\gizwits_protocol.c",323  Warning[Pe177]: 
          function "gizY2X" was declared but never referenced

  static int32 gizX2Y(uint32 ratio, int32 addition, uint32 preValue)
               ^
"E:\work\smartlight\ZigLight001\Projects\zstack\Samples\ZigLightApp\Source\gizwits_protocol.c",339  Warning[Pe177]: 
          function "gizX2Y" was declared but never referenced

  static uint32 gizY2XFloat(float ratio, float addition, float preValue)
                ^
"E:\work\smartlight\ZigLight001\Projects\zstack\Samples\ZigLightApp\Source\gizwits_protocol.c",356  Warning[Pe177]: 
          function "gizY2XFloat" was declared but never referenced

  static float gizX2YFloat(float ratio, float addition, uint32 preValue)
               ^
"E:\work\smartlight\ZigLight001\Projects\zstack\Samples\ZigLightApp\Source\gizwits_protocol.c",373  Warning[Pe177]: 
          function "gizX2YFloat" was declared but never referenced

  static int32 ICACHE_FLASH_ATTR gizCompressValue(uint32 bitOffset,uint32 bitLen,uint8 *bufAddr,uint32 srcData)
                                 ^
"E:\work\smartlight\ZigLight001\Projects\zstack\Samples\ZigLightApp\Source\gizwits_protocol.c",487  Warning[Pe177]: 
          function "gizCompressValue" was declared but never referenced

  static int32 ICACHE_FLASH_ATTR gizDecompressionValue(uint32 bitOffset,uint32 bitLen,uint8 *arrayAddr,uint32 arrayLen)
                                 ^
"E:\work\smartlight\ZigLight001\Projects\zstack\Samples\ZigLightApp\Source\gizwits_protocol.c",523  Warning[Pe177]: 
          function "gizDecompressionValue" was declared but never referenced
   1412          
   1413              switch(mode)
   \   000014   7402         MOV     A,#0x2
   \   000016   6E           XRL     A,R6
   \   000017   7079         JNZ     ??gizwitsSetMode_0
   1414              {
   1415          //        case WIFI_RESET_MODE:
   1416          //            gizProtocolHeadInit((protocolHead_t *)&setDefault);
   1417          //            setDefault.head.cmd = CMD_SET_DEFAULT;
   1418          //            setDefault.head.sn = gizwitsProtocol.sn++;
   1419          //            setDefault.head.len = gizProtocolExchangeBytes(sizeof(protocolCommon_t)-4);
   1420          //            setDefault.sum = gizProtocolSum((uint8 *)&setDefault, sizeof(protocolCommon_t));
   1421          //            ret = uartWrite((uint8 *)&setDefault, sizeof(protocolCommon_t));
   1422          //            if(ret < 0)
   1423          //            {
   1424          //                GIZWITS_LOG("ERROR: uart write error %d \n", ret);
   1425          //            }
   1426          //
   1427          //            gizProtocolWaitAck((uint8 *)&setDefault, sizeof(protocolCommon_t));   
   1428          //            break;
   1429          //        case WIFI_SOFTAP_MODE:
   1430          //            gizProtocolHeadInit((protocolHead_t *)&cfgMode);
   1431          //            cfgMode.head.cmd = CMD_WIFI_CONFIG;
   1432          //            cfgMode.head.sn = gizwitsProtocol.sn++;
   1433          //            cfgMode.cfgMode = mode;
   1434          //            cfgMode.head.len = gizProtocolExchangeBytes(sizeof(protocolCfgMode_t)-4);
   1435          //            cfgMode.sum = gizProtocolSum((uint8 *)&cfgMode, sizeof(protocolCfgMode_t));
   1436          //            ret = uartWrite((uint8 *)&cfgMode, sizeof(protocolCfgMode_t));
   1437          //            if(ret < 0)
   1438          //            {
   1439          //                GIZWITS_LOG("ERROR: uart write error %d \n", ret);
   1440          //            }
   1441          //            gizProtocolWaitAck((uint8 *)&cfgMode, sizeof(protocolCfgMode_t)); 
   1442          //            break;
   1443                  case WIFI_AIRLINK_MODE:
   1444                      gizProtocolHeadInit((protocolHead_t *)&cfgMode);
   \   000019                ; Setup parameters for call to function gizProtocolHeadInit
   \   000019   12....       LCALL   ?Subroutine48 & 0xFFFF
   1445                      cfgMode.head.cmd = CMD_WIFI_CONFIG;
   \                     ??CrossCallReturnLabel_77:
   \   00001C   12....       LCALL   ?XSTACK_DISP0_8
   \   00001F   7409         MOV     A,#0x9
   \   000021   12....       LCALL   ?Subroutine20 & 0xFFFF
   1446                      cfgMode.head.sn = gizwitsProtocol.sn++;
   \                     ??CrossCallReturnLabel_24:
   \   000024   12....       LCALL   ?L_MOV_X
   \   000027   7405         MOV     A,#0x5
   \   000029   12....       LCALL   ?XSTACK_DISP0_8
   \   00002C   12....       LCALL   ?Subroutine21 & 0xFFFF
   \                     ??CrossCallReturnLabel_27:
   \   00002F   12....       LCALL   ?L_MOV_X
   \   000032   90....       MOV     DPTR,#gizwitsProtocol + 67
   \   000035   78..         MOV     R0,#?V0 + 0
   \   000037   12....       LCALL   ?L_ADD_TO_X
   1447                      cfgMode.cfgMode = mode;
   \   00003A   7408         MOV     A,#0x8
   \   00003C   12....       LCALL   ?XSTACK_DISP0_8
   \   00003F   7402         MOV     A,#0x2
   \   000041   12....       LCALL   ?Subroutine19 & 0xFFFF
   1448                      cfgMode.head.len = gizProtocolExchangeBytes(sizeof(protocolCfgMode_t)-4);
   \                     ??CrossCallReturnLabel_23:
   \   000044   12....       LCALL   ?XSTACK_DISP0_8
   \   000047   12....       LCALL   ?Subroutine12 & 0xFFFF
   1449                      cfgMode.sum = gizProtocolSum((uint8 *)&cfgMode, sizeof(protocolCfgMode_t));
   \                     ??CrossCallReturnLabel_130:
   \   00004A                ; Setup parameters for call to function gizProtocolSum
   \   00004A   90....       MOV     DPTR,#__Constant_a
   \   00004D   12....       LCALL   ?PUSH_XSTACK8_X_FOUR
   \   000050   7404         MOV     A,#0x4
   \   000052   12....       LCALL   ?XSTACK_DISP0_8
   \   000055   12....       LCALL   ?Subroutine45 & 0xFFFF
   \                     ??CrossCallReturnLabel_145:
   \   000058   12....       LCALL   ?DEALLOC_XSTACK8
   \   00005B   7409         MOV     A,#0x9
   \   00005D   12....       LCALL   ?XSTACK_DISP0_8
   \   000060   E9           MOV     A,R1
   \   000061   F0           MOVX    @DPTR,A
   1450                      ret = uartWrite((uint8 *)&cfgMode, sizeof(protocolCfgMode_t));
   \   000062                ; Setup parameters for call to function uartWrite
   \   000062   90....       MOV     DPTR,#__Constant_a
   \   000065   12....       LCALL   ?PUSH_XSTACK8_X_FOUR
   \   000068   7404         MOV     A,#0x4
   \   00006A   12....       LCALL   ?XSTACK_DISP0_8
   \   00006D   12....       LCALL   ?Subroutine46 & 0xFFFF
   \                     ??CrossCallReturnLabel_137:
   \   000070   12....       LCALL   ?DEALLOC_XSTACK8
   \   000073   8A..         MOV     ?V0 + 0,R2
   \   000075   8B..         MOV     ?V0 + 1,R3
   \   000077   8C..         MOV     ?V0 + 2,R4
   \   000079   8D..         MOV     ?V0 + 3,R5
   1451                      if(ret == 0)
   1452                      {
   1453                          GIZWITS_LOG("ERROR: uart write error %d \n", ret);
   1454                      }
   1455                      gizProtocolWaitAck((uint8 *)&cfgMode, sizeof(protocolCfgMode_t)); 
   \   00007B                ; Setup parameters for call to function gizProtocolWaitAck
   \   00007B   90....       MOV     DPTR,#__Constant_a
   \   00007E   12....       LCALL   ?PUSH_XSTACK8_X_FOUR
   \   000081   7404         MOV     A,#0x4
   \   000083   12....       LCALL   ?XSTACK_DISP0_8
   \   000086   AA82         MOV     R2,DPL
   \   000088   AB83         MOV     R3,DPH
   \   00008A   12....       LCALL   ??gizProtocolWaitAck?relay
   \   00008D   7404         MOV     A,#0x4
   \   00008F   12....       LCALL   ?DEALLOC_XSTACK8
   1456                      break;
   1457          //        case WIFI_PRODUCTION_TEST:
   1458          //            gizProtocolHeadInit((protocolHead_t *)&setDefault);
   1459          //            setDefault.head.cmd = CMD_PRODUCTION_TEST;
   1460          //            setDefault.head.sn = gizwitsProtocol.sn++;
   1461          //            setDefault.head.len = gizProtocolExchangeBytes(sizeof(protocolCommon_t)-4);
   1462          //            setDefault.sum = gizProtocolSum((uint8 *)&setDefault, sizeof(protocolCommon_t));
   1463          //            ret = uartWrite((uint8 *)&setDefault, sizeof(protocolCommon_t));
   1464          //            if(ret < 0)
   1465          //            {
   1466          //                GIZWITS_LOG("ERROR: uart write error %d \n", ret);
   1467          //            }
   1468          //
   1469          //            gizProtocolWaitAck((uint8 *)&setDefault, sizeof(protocolCommon_t));
   1470          //            break;
   1471          //        case WIFI_NINABLE_MODE:
   1472          //            gizProtocolHeadInit((protocolHead_t *)&setDefault);
   1473          //            setDefault.head.cmd = CMD_NINABLE_MODE;
   1474          //            setDefault.head.sn = gizwitsProtocol.sn++;
   1475          //            setDefault.head.len = gizProtocolExchangeBytes(sizeof(protocolCommon_t)-4);
   1476          //            setDefault.sum = gizProtocolSum((uint8 *)&setDefault, sizeof(protocolCommon_t));
   1477          //            ret = uartWrite((uint8 *)&setDefault, sizeof(protocolCommon_t));
   1478          //            if(ret < 0)
   1479          //            {
   1480          //                GIZWITS_LOG("ERROR: uart write error %d \n", ret);
   1481          //            }
   1482          //
   1483          //            gizProtocolWaitAck((uint8 *)&setDefault, sizeof(protocolCommon_t)); 
   1484          //            break;
   1485                  default:
   1486                      GIZWITS_LOG("ERROR: CfgMode error!\n");
   1487                      break;
   1488              }
   1489          
   1490              return ret;
   \                     ??gizwitsSetMode_0:
   \   000092   AA..         MOV     R2,?V0 + 0
   \   000094   AB..         MOV     R3,?V0 + 1
   \   000096   AC..         MOV     R4,?V0 + 2
   \   000098   AD..         MOV     R5,?V0 + 3
   \   00009A   740A         MOV     A,#0xa
   \   00009C                REQUIRE ?Subroutine7
   \   00009C                ; // Fall through to label ?Subroutine7
   1491          }

   \                                 In  segment BANKED_CODE, align 1, keep-with-next
   \                     ?Subroutine7:
   \   000000   12....       LCALL   ?DEALLOC_XSTACK8
   \   000003                REQUIRE ??Subroutine69_0
   \   000003                ; // Fall through to label ??Subroutine69_0

   \                                 In  segment BANKED_CODE, align 1, keep-with-next
   \                     ?Subroutine21:
   \   000000   E5..         MOV     A,?V0 + 0
   \   000002   F0           MOVX    @DPTR,A
   \   000003   90....       MOV     DPTR,#__Constant_1
   \   000006   78..         MOV     R0,#?V0 + 0
   \   000008   22           RET

   \                                 In  segment BANKED_CODE, align 1, keep-with-next
   \                     ?Subroutine20:
   \   000000   F0           MOVX    @DPTR,A
   \   000001   90....       MOV     DPTR,#gizwitsProtocol + 67
   \   000004   78..         MOV     R0,#?V0 + 0
   \   000006   22           RET
   1492          
   1493          /**
   1494          * @brief Ëé∑ÂèñÁΩëÁªúÊó∂Èó¥ÁöÑÊé•Âè?
   1495          * ÂØπÂ∫îÂçèËÆÆ 4.13 MCUËØ∑Ê±ÇËé∑ÂèñÁΩëÁªúÊó∂Èó¥ ‰∏≠ÁöÑ ËÆæÂ§áMCUÂèëÈÄ?
   1496          * @param[in] none
   1497          * @return none
   1498          */

   \                                 In  segment BANKED_CODE, align 1, keep-with-next
   1499          void gizwitsGetNTP(void)
   \                     gizwitsGetNTP:
   1500          {
   \   000000   74F4         MOV     A,#-0xc
   \   000002   12....       LCALL   ?BANKED_ENTER_XDATA
   \   000005                ; Saved register size: 12
   \   000005                ; Auto size: 9
   \   000005   74F7         MOV     A,#-0x9
   \   000007   12....       LCALL   ?ALLOC_XSTACK8
   1501              int32 ret = 0;
   1502              protocolCommon_t getNTP;
   1503          
   1504              gizProtocolHeadInit((protocolHead_t *)&getNTP);
   \   00000A                ; Setup parameters for call to function gizProtocolHeadInit
   \   00000A   12....       LCALL   ?Subroutine48 & 0xFFFF
   1505              getNTP.head.cmd = CMD_GET_NTP;
   \                     ??CrossCallReturnLabel_78:
   \   00000D   12....       LCALL   ?XSTACK_DISP0_8
   \   000010   7417         MOV     A,#0x17
   \   000012   12....       LCALL   ?Subroutine20 & 0xFFFF
   1506              getNTP.head.sn = gizwitsProtocol.sn++;
   \                     ??CrossCallReturnLabel_25:
   \   000015   12....       LCALL   ?L_MOV_X
   \   000018   7405         MOV     A,#0x5
   \   00001A   12....       LCALL   ?XSTACK_DISP0_8
   \   00001D   12....       LCALL   ?Subroutine21 & 0xFFFF
   \                     ??CrossCallReturnLabel_28:
   \   000020   12....       LCALL   ?L_MOV_X
   \   000023   90....       MOV     DPTR,#gizwitsProtocol + 67
   \   000026   78..         MOV     R0,#?V0 + 0
   \   000028   12....       LCALL   ?L_ADD_TO_X
   1507              getNTP.head.len = gizProtocolExchangeBytes(sizeof(protocolCommon_t)-4);
   \   00002B                ; Setup parameters for call to function gizProtocolExchangeBytes
   \   00002B   12....       LCALL   ?Subroutine59 & 0xFFFF
   \                     ??CrossCallReturnLabel_120:
   \   00002E   12....       LCALL   ?XSTACK_DISP0_8
   \   000031   12....       LCALL   ?Subroutine12 & 0xFFFF
   1508              getNTP.sum = gizProtocolSum((uint8 *)&getNTP, sizeof(protocolCommon_t));
   \                     ??CrossCallReturnLabel_131:
   \   000034                ; Setup parameters for call to function gizProtocolSum
   \   000034   90....       MOV     DPTR,#__Constant_9
   \   000037   12....       LCALL   ?PUSH_XSTACK8_X_FOUR
   \   00003A   7404         MOV     A,#0x4
   \   00003C   12....       LCALL   ?XSTACK_DISP0_8
   \   00003F   12....       LCALL   ?Subroutine45 & 0xFFFF
   \                     ??CrossCallReturnLabel_146:
   \   000042   12....       LCALL   ?DEALLOC_XSTACK8
   \   000045   7408         MOV     A,#0x8
   \   000047   12....       LCALL   ?XSTACK_DISP0_8
   \   00004A   E9           MOV     A,R1
   \   00004B   F0           MOVX    @DPTR,A
   1509              ret = uartWrite((uint8 *)&getNTP, sizeof(protocolCommon_t));
   \   00004C                ; Setup parameters for call to function uartWrite
   \   00004C   90....       MOV     DPTR,#__Constant_9
   \   00004F   12....       LCALL   ?PUSH_XSTACK8_X_FOUR
   \   000052   7404         MOV     A,#0x4
   \   000054   12....       LCALL   ?XSTACK_DISP0_8
   \   000057   12....       LCALL   ?Subroutine46 & 0xFFFF
   \                     ??CrossCallReturnLabel_138:
   \   00005A   12....       LCALL   ?DEALLOC_XSTACK8
   1510              if(ret < 0)
   1511              {
   1512                  GIZWITS_LOG("ERROR[NTP]: uart write error %d \n", ret);
   1513              }
   1514          
   1515              gizProtocolWaitAck((uint8 *)&getNTP, sizeof(protocolCommon_t));
   \   00005D                ; Setup parameters for call to function gizProtocolWaitAck
   \   00005D   90....       MOV     DPTR,#__Constant_9
   \   000060   12....       LCALL   ?PUSH_XSTACK8_X_FOUR
   \   000063   7404         MOV     A,#0x4
   \   000065   12....       LCALL   ?XSTACK_DISP0_8
   \   000068   AA82         MOV     R2,DPL
   \   00006A   AB83         MOV     R3,DPH
   \   00006C   12....       LCALL   ??gizProtocolWaitAck?relay
   \   00006F   7404         MOV     A,#0x4
   \   000071   12....       LCALL   ?DEALLOC_XSTACK8
   1516          }
   \   000074   7409         MOV     A,#0x9
   \   000076   02....       LJMP    ?Subroutine7 & 0xFFFF
   1517          
   1518          /**
   1519          * @brief ÂçèËÆÆÂ§ÑÁêÜÂáΩÊï∞
   1520          
   1521          * ËØ•ÂáΩÊï∞‰∏≠ÂÆåÊàê‰∫ÜÁõ∏Â∫îÂçèËÆÆÊï∞ÊçÆÁöÑÂ§ÑÁêÜÂèäÊï∞ÊçÆ‰∏ªÂä®‰∏äÊä•ÁöÑÁõ∏ÂÖ≥Êìç‰Ωú
   1522          
   1523          * @param [in] currentData ÂæÖ‰∏äÊä•ÁöÑÂçèËÆÆÊï∞ÊçÆÊåáÈíà
   1524          * @return none
   1525          */

   \                                 In  segment BANKED_CODE, align 1, keep-with-next
   1526          int32 gizwitsHandle(dataPoint_t *currentData)
   \                     gizwitsHandle:
   1527          {
   \   000000   74E8         MOV     A,#-0x18
   \   000002   12....       LCALL   ?BANKED_ENTER_XDATA
   \   000005                ; Saved register size: 24
   \   000005                ; Auto size: 68
   \   000005   74BC         MOV     A,#-0x44
   \   000007   12....       LCALL   ?ALLOC_XSTACK8
   \   00000A   8A..         MOV     ?V0 + 0,R2
   \   00000C   8B..         MOV     ?V0 + 1,R3
   1528              int8 ret = 0;
   1529              uint16 i = 0;
   1530              uint8 ackData[RB_MAX_LEN];
   1531              uint16 protocolLen = 0;
   \   00000E   85..82       MOV     DPL,?XSP + 0
   \   000011   85..83       MOV     DPH,?XSP + 1
   \   000014   E4           CLR     A
   \   000015   F0           MOVX    @DPTR,A
   \   000016   A3           INC     DPTR
   \   000017   F0           MOVX    @DPTR,A
   1532              uint32 ackLen = 0;
   \   000018   90....       MOV     DPTR,#__Constant_0
   \   00001B   12....       LCALL   ?XLOAD_R2345
   \   00001E   7402         MOV     A,#0x2
   \   000020   12....       LCALL   ?XSTACK_DISP0_8
   \   000023   12....       LCALL   ?XSTORE_R2345
   1533              protocolHead_t *recvHead = NULL;
   1534              static Node * nodeptr=NULL;
   1535              Node * deletnodeptr;
   1536              static Node * updatenodeptr=NULL;
   1537              if(NULL == currentData)
   \   000026   E5..         MOV     A,?V0 + 0
   \   000028   45..         ORL     A,?V0 + 1
   \   00002A   700B         JNZ     ??gizwitsHandle_0
   1538              {
   1539                  GIZWITS_LOG("GizwitsHandle Error , Illegal Param\n");
   1540                  return -1;
   \   00002C   7AFF         MOV     R2,#-0x1
   \                     ??gizwitsHandle_1:
   \   00002E   7BFF         MOV     R3,#-0x1
   \   000030   7CFF         MOV     R4,#-0x1
   \   000032   7DFF         MOV     R5,#-0x1
   \   000034   02....       LJMP    ??gizwitsHandle_2 & 0xFFFF
   1541              }
   1542          
   1543              /*ÈáçÂèëÊú∫Âà∂*/
   1544              gizProtocolAckHandle();
   \                     ??gizwitsHandle_0:
   \   000037   90....       MOV     DPTR,#gizwitsProtocol + 76
   \   00003A   E0           MOVX    A,@DPTR
   \   00003B   6401         XRL     A,#0x1
   \   00003D   7055         JNZ     ??gizwitsHandle_3
   \   00003F   90....       MOV     DPTR,#gizwitsProtocol + 75
   \   000042   E0           MOVX    A,@DPTR
   \   000043   C3           CLR     C
   \   000044   9402         SUBB    A,#0x2
   \   000046   503F         JNC     ??gizwitsHandle_4
   \   000048                ; Setup parameters for call to function gizGetTimerCount
   \   000048   12....       LCALL   ?Subroutine44 & 0xFFFF
   \                     ??CrossCallReturnLabel_71:
   \   00004B   90....       MOV     DPTR,#gizwitsProtocol + 110
   \   00004E   78..         MOV     R0,#?V0 + 4
   \   000050   12....       LCALL   ?L_SUB_X
   \   000053   90....       MOV     DPTR,#__Constant_7d1
   \   000056   78..         MOV     R0,#?V0 + 4
   \   000058   12....       LCALL   ?UL_GE_X
   \   00005B   5037         JNC     ??gizwitsHandle_3
   \   00005D   90....       MOV     DPTR,#gizwitsProtocol + 76
   \   000060   E0           MOVX    A,@DPTR
   \   000061   601C         JZ      ??gizwitsHandle_5
   \   000063                ; Setup parameters for call to function uartWrite
   \   000063   90....       MOV     DPTR,#gizwitsProtocol + 108
   \   000066   12....       LCALL   ?Subroutine24 & 0xFFFF
   \                     ??CrossCallReturnLabel_34:
   \   000069   12....       LCALL   ?PUSH_XSTACK_I_FOUR
   \   00006C   7A..         MOV     R2,#(gizwitsProtocol + 77) & 0xff
   \   00006E   7B..         MOV     R3,#((gizwitsProtocol + 77) >> 8) & 0xff
   \   000070   12....       LCALL   ??Subroutine65_0 & 0xFFFF
   \                     ??CrossCallReturnLabel_140:
   \   000073   12....       LCALL   ?DEALLOC_XSTACK8
   \   000076                ; Setup parameters for call to function gizGetTimerCount
   \   000076   12....       LCALL   ??gizGetTimerCount?relay
   \   000079   90....       MOV     DPTR,#gizwitsProtocol + 110
   \   00007C   12....       LCALL   ?XSTORE_R2345
   \                     ??gizwitsHandle_5:
   \   00007F   90....       MOV     DPTR,#gizwitsProtocol + 75
   \   000082   E0           MOVX    A,@DPTR
   \   000083   04           INC     A
   \   000084   F0           MOVX    @DPTR,A
   \   000085   800D         SJMP    ??gizwitsHandle_3
   \                     ??gizwitsHandle_4:
   \   000087                ; Setup parameters for call to function osal_memset
   \   000087   7C27         MOV     R4,#0x27
   \   000089   7D00         MOV     R5,#0x0
   \   00008B   7900         MOV     R1,#0x0
   \   00008D   7A..         MOV     R2,#(gizwitsProtocol + 75) & 0xff
   \   00008F   7B..         MOV     R3,#((gizwitsProtocol + 75) >> 8) & 0xff
   \   000091   12....       LCALL   ??osal_memset?relay
   1545              ret = gizProtocolGetOnePacket(&pRb, gizwitsProtocol.protocolBuf, &protocolLen);
   \                     ??gizwitsHandle_3:
   \   000094                ; Setup parameters for call to function gizProtocolGetOnePacket
   \   000094   85..82       MOV     DPL,?XSP + 0
   \   000097   85..83       MOV     DPH,?XSP + 1
   \   00009A   8582..       MOV     ?V0 + 2,DPL
   \   00009D   8583..       MOV     ?V0 + 3,DPH
   \   0000A0   78..         MOV     R0,#?V0 + 2
   \   0000A2   12....       LCALL   ?PUSH_XSTACK_I_TWO
   \   0000A5   7C..         MOV     R4,#(gizwitsProtocol + 1) & 0xff
   \   0000A7   7D..         MOV     R5,#((gizwitsProtocol + 1) >> 8) & 0xff
   \   0000A9   7A..         MOV     R2,#pRb & 0xff
   \   0000AB   7B..         MOV     R3,#(pRb >> 8) & 0xff
   \   0000AD   12....       LCALL   ??gizProtocolGetOnePacket?relay
   \   0000B0   7402         MOV     A,#0x2
   \   0000B2   12....       LCALL   ?DEALLOC_XSTACK8
   \   0000B5   E9           MOV     A,R1
   \   0000B6   F8           MOV     R0,A
   1546          
   1547              if(0 == ret)
   \   0000B7   6003         JZ      $+5
   \   0000B9   02....       LJMP    ??gizwitsHandle_6 & 0xFFFF
   1548              {
   1549                  GIZWITS_LOG("Get One Packet!\n");
   1550                  
   1551          #ifdef PROTOCOL_DEBUG
   1552                  GIZWITS_LOG("WiFi2MCU[%4d:%4d]: ", gizGetTimerCount(), protocolLen);
   1553                  for(i=0; i<protocolLen;i++)
   1554                  {
   1555                      GIZWITS_LOG("%02x ", gizwitsProtocol.protocolBuf[i]);
   1556                  }
   1557                  GIZWITS_LOG("\n");
   1558          #endif
   1559          
   1560                  recvHead = (protocolHead_t *)gizwitsProtocol.protocolBuf;
   1561                  switch (recvHead->cmd)
   \   0000BC   90....       MOV     DPTR,#gizwitsProtocol + 5
   \   0000BF   E0           MOVX    A,@DPTR
   \   0000C0   14           DEC     A
   \   0000C1   604B         JZ      ??gizwitsHandle_7
   \   0000C3   24FE         ADD     A,#-0x2
   \   0000C5   7003         JNZ     $+5
   \   0000C7   02....       LJMP    ??gizwitsHandle_8 & 0xFFFF
   \   0000CA   24FD         ADD     A,#-0x3
   \   0000CC   7003         JNZ     $+5
   \   0000CE   02....       LJMP    ??gizwitsHandle_9 & 0xFFFF
   \   0000D1   14           DEC     A
   \   0000D2   7003         JNZ     $+5
   \   0000D4   02....       LJMP    ??gizwitsHandle_10 & 0xFFFF
   \   0000D7   24FD         ADD     A,#-0x3
   \   0000D9   7003         JNZ     $+5
   \   0000DB   02....       LJMP    ??gizwitsHandle_9 & 0xFFFF
   \   0000DE   24FE         ADD     A,#-0x2
   \   0000E0   7003         JNZ     $+5
   \   0000E2   02....       LJMP    ??gizwitsHandle_9 & 0xFFFF
   \   0000E5   14           DEC     A
   \   0000E6   7003         JNZ     $+5
   \   0000E8   02....       LJMP    ??gizwitsHandle_11 & 0xFFFF
   \   0000EB   24FE         ADD     A,#-0x2
   \   0000ED   7003         JNZ     $+5
   \   0000EF   02....       LJMP    ??gizwitsHandle_12 & 0xFFFF
   \   0000F2   24FE         ADD     A,#-0x2
   \   0000F4   601F         JZ      ??gizwitsHandle_13
   \   0000F6   24FD         ADD     A,#-0x3
   \   0000F8   7003         JNZ     $+5
   \   0000FA   02....       LJMP    ??gizwitsHandle_9 & 0xFFFF
   \   0000FD   24FE         ADD     A,#-0x2
   \   0000FF   7003         JNZ     $+5
   \   000101   02....       LJMP    ??gizwitsHandle_9 & 0xFFFF
   \   000104   24FE         ADD     A,#-0x2
   \   000106   7003         JNZ     $+5
   \   000108   02....       LJMP    ??gizwitsHandle_14 & 0xFFFF
   \   00010B   02....       LJMP    ??gizwitsHandle_15 & 0xFFFF
   1562                  {
   1563                      case CMD_GET_DEVICE_INTO:
   1564                          gizProtocolGetDeviceInfo(recvHead);
   \                     ??gizwitsHandle_7:
   \   00010E                ; Setup parameters for call to function gizProtocolGetDeviceInfo
   \   00010E   7A..         MOV     R2,#(gizwitsProtocol + 1) & 0xff
   \   000110   7B..         MOV     R3,#((gizwitsProtocol + 1) >> 8) & 0xff
   \   000112   12....       LCALL   ??gizProtocolGetDeviceInfo?relay
   1565                          break;
   1566                      case CMD_ISSUED_P0:
   1567                          if(0 == gizProtocolIssuedProcess(gizwitsProtocol.protocolBuf, protocolLen, ackData, &ackLen))
   1568                          {
   1569                              gizProtocolIssuedDataAck(recvHead, ackData, ackLen);
   1570                          }
   1571                          break;
   1572                      case CMD_HEARTBEAT:
   1573                          gizProtocolCommonAck(recvHead);
   1574                          break;
   1575                      case CMD_WIFISTATUS:
   1576                          gizProtocolCommonAck(recvHead);
   1577                          gizProtocolModuleStatus((protocolWifiStatus_t *)recvHead);
   1578                          break;
   1579                      case ACK_REPORT_P0:
   1580                      case ACK_WIFI_CONFIG:
   1581                      case ACK_SET_DEFAULT:
   1582                      case ACK_NINABLE_MODE:
   1583                          gizProtocolWaitAckCheck(recvHead);
   1584                          break;
   1585                      case CMD_MCU_REBOOT:
   1586                          gizProtocolCommonAck(recvHead);
   1587                          GIZWITS_LOG("report:MCU reboot!\n");
   1588                          
   1589                          gizProtocolReboot();
   1590                          break;
   1591                      case CMD_ERROR_PACKAGE:
   1592                          break;
   1593                      case ACK_PRODUCTION_TEST:
   1594                          gizProtocolWaitAckCheck(recvHead);
   1595                          GIZWITS_LOG("Ack PRODUCTION_MODE success \n");
   1596                          break;           
   1597                      case ACK_GET_NTP:
   1598                          gizProtocolWaitAckCheck(recvHead);
   1599                          gizProtocolNTP(recvHead);
   1600                          GIZWITS_LOG("Ack GET_UTT success \n");
   1601                          break;   
   1602                      default:
   1603                          gizProtocolErrorCmd(recvHead,ERROR_CMD);
   1604                          GIZWITS_LOG("ERROR: cmd code error!\n");
   1605                          break;
   1606                  }
   1607              }
   1608              else if(-2 == ret)
   1609              {
   1610                  //Ê†°È™åÂ§±Ë¥•ÔºåÊä•ÂëäÂºÇÂ∏?        recvHead = (protocolHead_t *)gizwitsProtocol.protocolBuf;
   1611                  gizProtocolErrorCmd(recvHead,ERROR_ACK_SUM);
   1612                  GIZWITS_LOG("ERROR: check sum error!\n");
   1613                  return -2;
   1614              }
   1615              
   1616              switch(gizwitsProtocol.issuedFlag)
   \                     ??gizwitsHandle_13:
   \   000115   90....       MOV     DPTR,#gizwitsProtocol
   \   000118   E0           MOVX    A,@DPTR
   \   000119   14           DEC     A
   \   00011A   6015         JZ      ??gizwitsHandle_16
   \   00011C   14           DEC     A
   \   00011D   7003         JNZ     $+5
   \   00011F   02....       LJMP    ??gizwitsHandle_17 & 0xFFFF
   \   000122   14           DEC     A
   \   000123   7003         JNZ     $+5
   \   000125   02....       LJMP    ??gizwitsHandle_18 & 0xFFFF
   \   000128   14           DEC     A
   \   000129   7003         JNZ     $+5
   \   00012B   02....       LJMP    ??gizwitsHandle_19 & 0xFFFF
   \   00012E   02....       LJMP    ??gizwitsHandle_20 & 0xFFFF
   1617              {
   1618                  case ACTION_CONTROL_TYPE:
   1619                      gizwitsProtocol.issuedFlag = STATELESS_TYPE;
   \                     ??gizwitsHandle_16:
   \   000131   E4           CLR     A
   \   000132   F0           MOVX    @DPTR,A
   1620                      gizwitsEventProcess(&gizwitsProtocol.issuedProcessEvent, (uint8 *)&gizwitsProtocol.gizCurrentDataPoint, sizeof(dataPoint_t));
   \   000133                ; Setup parameters for call to function gizwitsEventProcess
   \   000133   90....       MOV     DPTR,#__Constant_14
   \   000136   12....       LCALL   ?PUSH_XSTACK8_X_FOUR
   \   000139   7C..         MOV     R4,#(gizwitsProtocol + 194) & 0xff
   \   00013B   7D..         MOV     R5,#((gizwitsProtocol + 194) >> 8) & 0xff
   \   00013D   12....       LCALL   ?Subroutine50 & 0xFFFF
   \                     ??CrossCallReturnLabel_168:
   \   000140   12....       LCALL   ?DEALLOC_XSTACK8
   1621                      osal_memset((uint8 *)&gizwitsProtocol.issuedProcessEvent,0x0,sizeof(gizwitsProtocol.issuedProcessEvent));  
   \   000143                ; Setup parameters for call to function osal_memset
   \   000143   7C12         MOV     R4,#0x12
   \   000145   7D00         MOV     R5,#0x0
   \   000147   7900         MOV     R1,#0x0
   \   000149   7A..         MOV     R2,#(gizwitsProtocol + 114) & 0xff
   \   00014B   7B..         MOV     R3,#((gizwitsProtocol + 114) >> 8) & 0xff
   \                     ??gizwitsHandle_21:
   \   00014D   12....       LCALL   ??osal_memset?relay
   1622                      break;
   \   000150   02....       LJMP    ??gizwitsHandle_22 & 0xFFFF
   \                     ??gizwitsHandle_8:
   \   000153                ; Setup parameters for call to function gizProtocolIssuedProcess
   \   000153   7402         MOV     A,#0x2
   \   000155   12....       LCALL   ?XSTACK_DISP0_8
   \   000158   8582..       MOV     ?V0 + 2,DPL
   \   00015B   8583..       MOV     ?V0 + 3,DPH
   \   00015E   78..         MOV     R0,#?V0 + 2
   \   000160   12....       LCALL   ?PUSH_XSTACK_I_TWO
   \   000163   7402         MOV     A,#0x2
   \   000165   12....       LCALL   ?XSTACK_DISP0_8
   \   000168   12....       LCALL   ?Subroutine24 & 0xFFFF
   \                     ??CrossCallReturnLabel_35:
   \   00016B   12....       LCALL   ?PUSH_XSTACK_I_FOUR
   \   00016E   740C         MOV     A,#0xc
   \   000170   12....       LCALL   ?XSTACK_DISP0_8
   \   000173   AC82         MOV     R4,DPL
   \   000175   AD83         MOV     R5,DPH
   \   000177   7A..         MOV     R2,#(gizwitsProtocol + 1) & 0xff
   \   000179   7B..         MOV     R3,#((gizwitsProtocol + 1) >> 8) & 0xff
   \   00017B   12....       LCALL   ??gizProtocolIssuedProcess?relay
   \   00017E   7406         MOV     A,#0x6
   \   000180   12....       LCALL   ?DEALLOC_XSTACK8
   \   000183   E9           MOV     A,R1
   \   000184   708F         JNZ     ??gizwitsHandle_13
   \   000186                ; Setup parameters for call to function gizProtocolIssuedDataAck
   \   000186   7402         MOV     A,#0x2
   \   000188   12....       LCALL   ?XSTACK_DISP0_8
   \   00018B   12....       LCALL   ?PUSH_XSTACK8_X_FOUR
   \   00018E   740A         MOV     A,#0xa
   \   000190   12....       LCALL   ?XSTACK_DISP0_8
   \   000193   AC82         MOV     R4,DPL
   \   000195   AD83         MOV     R5,DPH
   \   000197   7A..         MOV     R2,#(gizwitsProtocol + 1) & 0xff
   \   000199   7B..         MOV     R3,#((gizwitsProtocol + 1) >> 8) & 0xff
   \   00019B   12....       LCALL   ??gizProtocolIssuedDataAck?relay
   \   00019E   7404         MOV     A,#0x4
   \   0001A0   12....       LCALL   ?DEALLOC_XSTACK8
   \   0001A3   02....       LJMP    ??gizwitsHandle_13 & 0xFFFF
   \                     ??gizwitsHandle_10:
   \   0001A6                ; Setup parameters for call to function gizProtocolCommonAck
   \   0001A6   7A..         MOV     R2,#(gizwitsProtocol + 1) & 0xff
   \   0001A8   7B..         MOV     R3,#((gizwitsProtocol + 1) >> 8) & 0xff
   \   0001AA   12....       LCALL   ??gizProtocolCommonAck?relay
   \   0001AD   02....       LJMP    ??gizwitsHandle_13 & 0xFFFF
   \                     ??gizwitsHandle_11:
   \   0001B0                ; Setup parameters for call to function gizProtocolCommonAck
   \   0001B0   7A..         MOV     R2,#(gizwitsProtocol + 1) & 0xff
   \   0001B2   7B..         MOV     R3,#((gizwitsProtocol + 1) >> 8) & 0xff
   \   0001B4   12....       LCALL   ??gizProtocolCommonAck?relay
   \   0001B7                ; Setup parameters for call to function gizProtocolModuleStatus
   \   0001B7   7A..         MOV     R2,#(gizwitsProtocol + 1) & 0xff
   \   0001B9   7B..         MOV     R3,#((gizwitsProtocol + 1) >> 8) & 0xff
   \   0001BB   12....       LCALL   ??gizProtocolModuleStatus?relay
   \   0001BE   02....       LJMP    ??gizwitsHandle_13 & 0xFFFF
   \                     ??gizwitsHandle_9:
   \   0001C1                ; Setup parameters for call to function gizProtocolWaitAckCheck
   \   0001C1   7A..         MOV     R2,#(gizwitsProtocol + 1) & 0xff
   \   0001C3   7B..         MOV     R3,#((gizwitsProtocol + 1) >> 8) & 0xff
   \   0001C5   12....       LCALL   ??gizProtocolWaitAckCheck?relay
   \   0001C8   02....       LJMP    ??gizwitsHandle_13 & 0xFFFF
   \                     ??gizwitsHandle_12:
   \   0001CB                ; Setup parameters for call to function gizProtocolCommonAck
   \   0001CB   7A..         MOV     R2,#(gizwitsProtocol + 1) & 0xff
   \   0001CD   7B..         MOV     R3,#((gizwitsProtocol + 1) >> 8) & 0xff
   \   0001CF   12....       LCALL   ??gizProtocolCommonAck?relay
   \   0001D2                ; Setup parameters for call to function gizGetTimerCount
   \   0001D2   12....       LCALL   ?Subroutine44 & 0xFFFF
   \                     ??CrossCallReturnLabel_72:
   \   0001D5                ; Setup parameters for call to function gizGetTimerCount
   \   0001D5   12....       LCALL   ??gizGetTimerCount?relay
   \   0001D8   8A..         MOV     ?V0 + 8,R2
   \   0001DA   8B..         MOV     ?V0 + 9,R3
   \   0001DC   8C..         MOV     ?V0 + 10,R4
   \   0001DE   8D..         MOV     ?V0 + 11,R5
   \   0001E0   78..         MOV     R0,#?V0 + 8
   \   0001E2   79..         MOV     R1,#?V0 + 4
   \   0001E4   12....       LCALL   ?L_SUB
   \   0001E7   90....       MOV     DPTR,#__Constant_259
   \   0001EA   78..         MOV     R0,#?V0 + 8
   \   0001EC   12....       LCALL   ?UL_GE_X
   \   0001EF   50E4         JNC     ??CrossCallReturnLabel_72
   \   0001F1                ; Setup parameters for call to function mcuRestart
   \   0001F1   12....       LCALL   ??mcuRestart?relay
   \   0001F4   02....       LJMP    ??gizwitsHandle_13 & 0xFFFF
   \                     ??gizwitsHandle_14:
   \   0001F7                ; Setup parameters for call to function gizProtocolWaitAckCheck
   \   0001F7   7A..         MOV     R2,#(gizwitsProtocol + 1) & 0xff
   \   0001F9   7B..         MOV     R3,#((gizwitsProtocol + 1) >> 8) & 0xff
   \   0001FB   12....       LCALL   ??gizProtocolWaitAckCheck?relay
   \   0001FE                ; Setup parameters for call to function osal_memcpy
   \   0001FE   75....       MOV     ?V0 + 4,#(gizwitsProtocol + 9) & 0xff
   \   000201   75....       MOV     ?V0 + 5,#((gizwitsProtocol + 9) >> 8) & 0xff
   \   000204   75..00       MOV     ?V0 + 6,#0x0
   \   000207   78..         MOV     R0,#?V0 + 4
   \   000209   12....       LCALL   ?PUSH_XSTACK_I_THREE
   \   00020C   7C0B         MOV     R4,#0xb
   \   00020E   7D00         MOV     R5,#0x0
   \   000210   7A..         MOV     R2,#(gizwitsProtocol + 235) & 0xff
   \   000212   7B..         MOV     R3,#((gizwitsProtocol + 235) >> 8) & 0xff
   \   000214   12....       LCALL   ??Subroutine62_0 & 0xFFFF
   \                     ??CrossCallReturnLabel_118:
   \   000217   12....       LCALL   ?DEALLOC_XSTACK8
   \   00021A                ; Setup parameters for call to function gizProtocolExchangeBytes
   \   00021A   90....       MOV     DPTR,#gizwitsProtocol + 235
   \   00021D   12....       LCALL   ?Subroutine29 & 0xFFFF
   \                     ??CrossCallReturnLabel_45:
   \   000220   90....       MOV     DPTR,#gizwitsProtocol + 235
   \   000223   12....       LCALL   ?Subroutine12 & 0xFFFF
   \                     ??CrossCallReturnLabel_132:
   \   000226   90....       MOV     DPTR,#gizwitsProtocol + 242
   \   000229   78..         MOV     R0,#?V0 + 12
   \   00022B   12....       LCALL   ?L_MOV_X
   \   00022E   85....       MOV     ?V0 + 8,?V0 + 12
   \   000231   85....       MOV     ?V0 + 9,?V0 + 13
   \   000234   85....       MOV     ?V0 + 10,?V0 + 14
   \   000237   85....       MOV     ?V0 + 11,?V0 + 15
   \   00023A   7418         MOV     A,#0x18
   \   00023C   78..         MOV     R0,#?V0 + 8
   \   00023E   12....       LCALL   ?L_SHL
   \   000241   85....       MOV     ?V0 + 4,?V0 + 12
   \   000244   85....       MOV     ?V0 + 5,?V0 + 13
   \   000247   85....       MOV     ?V0 + 6,?V0 + 14
   \   00024A   85....       MOV     ?V0 + 7,?V0 + 15
   \   00024D   90....       MOV     DPTR,#__Constant_ff00
   \   000250   78..         MOV     R0,#?V0 + 4
   \   000252   12....       LCALL   ?L_AND_X
   \   000255   7408         MOV     A,#0x8
   \   000257   78..         MOV     R0,#?V0 + 4
   \   000259   12....       LCALL   ?L_SHL
   \   00025C   78..         MOV     R0,#?V0 + 8
   \   00025E   79..         MOV     R1,#?V0 + 4
   \   000260   12....       LCALL   ?L_IOR
   \   000263   85....       MOV     ?V0 + 4,?V0 + 12
   \   000266   85....       MOV     ?V0 + 5,?V0 + 13
   \   000269   85....       MOV     ?V0 + 6,?V0 + 14
   \   00026C   85....       MOV     ?V0 + 7,?V0 + 15
   \   00026F   7408         MOV     A,#0x8
   \   000271   78..         MOV     R0,#?V0 + 4
   \   000273   12....       LCALL   ?UL_SHR
   \   000276   90....       MOV     DPTR,#__Constant_ff00
   \   000279   78..         MOV     R0,#?V0 + 4
   \   00027B   12....       LCALL   ?L_AND_X
   \   00027E   78..         MOV     R0,#?V0 + 8
   \   000280   79..         MOV     R1,#?V0 + 4
   \   000282   12....       LCALL   ?L_IOR
   \   000285   7418         MOV     A,#0x18
   \   000287   78..         MOV     R0,#?V0 + 12
   \   000289   12....       LCALL   ?UL_SHR
   \   00028C   78..         MOV     R0,#?V0 + 8
   \   00028E   79..         MOV     R1,#?V0 + 12
   \   000290   12....       LCALL   ?L_IOR
   \   000293   90....       MOV     DPTR,#gizwitsProtocol + 242
   \   000296   78..         MOV     R0,#?V0 + 8
   \   000298   12....       LCALL   ?L_MOV_TO_X
   \   00029B   90....       MOV     DPTR,#gizwitsProtocol + 150
   \   00029E   E0           MOVX    A,@DPTR
   \   00029F   F8           MOV     R0,A
   \   0002A0   74..         MOV     A,#(gizwitsProtocol + 151) & 0xff
   \   0002A2   28           ADD     A,R0
   \   0002A3   F582         MOV     DPL,A
   \   0002A5   74..         MOV     A,#((gizwitsProtocol + 151) >> 8) & 0xff
   \   0002A7   3400         ADDC    A,#0x0
   \   0002A9   F583         MOV     DPH,A
   \   0002AB   740E         MOV     A,#0xe
   \   0002AD   F0           MOVX    @DPTR,A
   \   0002AE   90....       MOV     DPTR,#gizwitsProtocol + 150
   \   0002B1   E0           MOVX    A,@DPTR
   \   0002B2   04           INC     A
   \   0002B3   F0           MOVX    @DPTR,A
   \   0002B4   90....       MOV     DPTR,#gizwitsProtocol
   \   0002B7   7404         MOV     A,#0x4
   \   0002B9   F0           MOVX    @DPTR,A
   1623                  case WIFI_STATUS_TYPE:
   1624                      gizwitsProtocol.issuedFlag = STATELESS_TYPE;
   1625                      gizwitsEventProcess(&gizwitsProtocol.wifiStatusEvent, (uint8 *)&gizwitsProtocol.wifiStatusData, sizeof(moduleStatusInfo_t));
   1626                      osal_memset((uint8 *)&gizwitsProtocol.wifiStatusEvent,0x0,sizeof(gizwitsProtocol.wifiStatusEvent));
   1627                      break;
   1628                  case ACTION_W2D_TRANSPARENT_TYPE:
   1629                      gizwitsProtocol.issuedFlag = STATELESS_TYPE;
   1630                      gizwitsEventProcess(&gizwitsProtocol.issuedProcessEvent, (uint8 *)gizwitsProtocol.transparentBuff, gizwitsProtocol.transparentLen);
   1631                      break;
   1632                  case GET_NTP_TYPE:
   1633                      gizwitsProtocol.issuedFlag = STATELESS_TYPE;
   \                     ??gizwitsHandle_19:
   \   0002BA   E4           CLR     A
   \   0002BB   F0           MOVX    @DPTR,A
   1634                      gizwitsEventProcess(&gizwitsProtocol.NTPEvent, (uint8 *)&gizwitsProtocol.TimeNTP, sizeof(protocolTime_t));
   \   0002BC                ; Setup parameters for call to function gizwitsEventProcess
   \   0002BC   90....       MOV     DPTR,#__Constant_b
   \   0002BF   12....       LCALL   ?PUSH_XSTACK8_X_FOUR
   \   0002C2   7C..         MOV     R4,#(gizwitsProtocol + 235) & 0xff
   \   0002C4   7D..         MOV     R5,#((gizwitsProtocol + 235) >> 8) & 0xff
   \   0002C6   7A..         MOV     R2,#(gizwitsProtocol + 150) & 0xff
   \   0002C8   7B..         MOV     R3,#((gizwitsProtocol + 150) >> 8) & 0xff
   \   0002CA   12....       LCALL   ??Subroutine70_0 & 0xFFFF
   \                     ??CrossCallReturnLabel_170:
   \   0002CD   12....       LCALL   ?DEALLOC_XSTACK8
   1635                      osal_memset((uint8 *)&gizwitsProtocol.NTPEvent,0x0,sizeof(gizwitsProtocol.NTPEvent));
   \   0002D0                ; Setup parameters for call to function osal_memset
   \   0002D0   7C12         MOV     R4,#0x12
   \   0002D2   7D00         MOV     R5,#0x0
   \   0002D4   7900         MOV     R1,#0x0
   \   0002D6   7A..         MOV     R2,#(gizwitsProtocol + 150) & 0xff
   \   0002D8   7B..         MOV     R3,#((gizwitsProtocol + 150) >> 8) & 0xff
   \   0002DA   02....       LJMP    ??gizwitsHandle_21 & 0xFFFF
   \                     ??gizwitsHandle_15:
   \   0002DD                ; Setup parameters for call to function gizProtocolErrorCmd
   \   0002DD   7902         MOV     R1,#0x2
   \   0002DF   7A..         MOV     R2,#(gizwitsProtocol + 1) & 0xff
   \   0002E1   7B..         MOV     R3,#((gizwitsProtocol + 1) >> 8) & 0xff
   \   0002E3   12....       LCALL   ??gizProtocolErrorCmd?relay
   \   0002E6   02....       LJMP    ??gizwitsHandle_13 & 0xFFFF
   \                     ??gizwitsHandle_6:
   \   0002E9   74FE         MOV     A,#-0x2
   \   0002EB   68           XRL     A,R0
   \   0002EC   6003         JZ      $+5
   \   0002EE   02....       LJMP    ??gizwitsHandle_13 & 0xFFFF
   \   0002F1                ; Setup parameters for call to function gizProtocolErrorCmd
   \   0002F1   7901         MOV     R1,#0x1
   \   0002F3   7A00         MOV     R2,#0x0
   \   0002F5   7B00         MOV     R3,#0x0
   \   0002F7   12....       LCALL   ??gizProtocolErrorCmd?relay
   \   0002FA   7AFE         MOV     R2,#-0x2
   \   0002FC   02....       LJMP    ??gizwitsHandle_1 & 0xFFFF
   \                     ??gizwitsHandle_17:
   \   0002FF   E4           CLR     A
   \   000300   F0           MOVX    @DPTR,A
   \   000301                ; Setup parameters for call to function gizwitsEventProcess
   \   000301   90....       MOV     DPTR,#__Constant_1
   \   000304   12....       LCALL   ?PUSH_XSTACK8_X_FOUR
   \   000307   7C..         MOV     R4,#(gizwitsProtocol + 234) & 0xff
   \   000309   7D..         MOV     R5,#((gizwitsProtocol + 234) >> 8) & 0xff
   \   00030B   7A..         MOV     R2,#(gizwitsProtocol + 132) & 0xff
   \   00030D   7B..         MOV     R3,#((gizwitsProtocol + 132) >> 8) & 0xff
   \   00030F   12....       LCALL   ??Subroutine70_0 & 0xFFFF
   \                     ??CrossCallReturnLabel_171:
   \   000312   12....       LCALL   ?DEALLOC_XSTACK8
   \   000315                ; Setup parameters for call to function osal_memset
   \   000315   7C12         MOV     R4,#0x12
   \   000317   7D00         MOV     R5,#0x0
   \   000319   7900         MOV     R1,#0x0
   \   00031B   7A..         MOV     R2,#(gizwitsProtocol + 132) & 0xff
   \   00031D   7B..         MOV     R3,#((gizwitsProtocol + 132) >> 8) & 0xff
   \   00031F   02....       LJMP    ??gizwitsHandle_21 & 0xFFFF
   \                     ??gizwitsHandle_18:
   \   000322   E4           CLR     A
   \   000323   F0           MOVX    @DPTR,A
   \   000324                ; Setup parameters for call to function gizwitsEventProcess
   \   000324   90....       MOV     DPTR,#gizwitsProtocol + 63
   \   000327   12....       LCALL   ?PUSH_XSTACK8_X_FOUR
   \   00032A   7C..         MOV     R4,#(gizwitsProtocol + 32) & 0xff
   \   00032C   7D..         MOV     R5,#((gizwitsProtocol + 32) >> 8) & 0xff
   \   00032E   12....       LCALL   ?Subroutine50 & 0xFFFF
   \                     ??CrossCallReturnLabel_169:
   \   000331   12....       LCALL   ?DEALLOC_XSTACK8
   \   000334   02....       LJMP    ??gizwitsHandle_22 & 0xFFFF
   1636                      break;  
   1637                  default:
   1638                    if(MacToAppFlag ==1){
   \                     ??gizwitsHandle_20:
   \   000337   90....       MOV     DPTR,#MacToAppFlag
   \   00033A   E0           MOVX    A,@DPTR
   \   00033B   6401         XRL     A,#0x1
   \   00033D   6003         JZ      $+5
   \   00033F   02....       LJMP    ??gizwitsHandle_23 & 0xFFFF
   1639                      if(nodeptr == NULL){
   \   000342   12....       LCALL   ?Subroutine25 & 0xFFFF
   \                     ??CrossCallReturnLabel_189:
   \   000345   7016         JNZ     ??gizwitsHandle_24
   1640                        nodeptr = nodelist;
   \   000347   90....       MOV     DPTR,#nodelist
   \   00034A   12....       LCALL   ??Subroutine71_0 & 0xFFFF
   \                     ??CrossCallReturnLabel_173:
   \   00034D   90....       MOV     DPTR,#??nodeptr
   \   000350   12....       LCALL   ??Subroutine74_0 & 0xFFFF
   1641                        for(i=0;i<20;i++)
   1642                          currentDataPoint.valueaa1[i]=0;
   \                     ??CrossCallReturnLabel_191:
   \   000353   E4           CLR     A
   \   000354   90....       MOV     DPTR,#currentDataPoint
   \   000357   7814         MOV     R0,#0x14
   \                     ??gizwitsHandle_25:
   \   000359   F0           MOVX    @DPTR,A
   \   00035A   A3           INC     DPTR
   \   00035B   D8FC         DJNZ    R0,??gizwitsHandle_25
   1643                      }
   1644                      for(i=0;nodeptr&&i<=1;nodeptr=nodeptr->next,i++)
   \                     ??gizwitsHandle_24:
   \   00035D   7E00         MOV     R6,#0x0
   \   00035F   7F00         MOV     R7,#0x0
   \   000361   8036         SJMP    ??CrossCallReturnLabel_11
   \                     ??gizwitsHandle_26:
   \   000363   C3           CLR     C
   \   000364   EE           MOV     A,R6
   \   000365   9402         SUBB    A,#0x2
   \   000367   EF           MOV     A,R7
   \   000368   9400         SUBB    A,#0x0
   \   00036A   5037         JNC     ??gizwitsHandle_27
   1645                      {
   1646                        osal_memcpy((uint8 *)&currentDataPoint.valueaa1[3+8*i],(uint8 *)&nodeptr->extaddr, 8);
   \   00036C                ; Setup parameters for call to function osal_memcpy
   \   00036C   90....       MOV     DPTR,#??nodeptr
   \   00036F   12....       LCALL   ?Subroutine23 & 0xFFFF
   1647                      }
   \                     ??CrossCallReturnLabel_30:
   \   000372   12....       LCALL   ?PUSH_XSTACK_I_THREE
   \   000375   7C08         MOV     R4,#0x8
   \   000377   7D00         MOV     R5,#0x0
   \   000379   8E..         MOV     ?V0 + 2,R6
   \   00037B   8F..         MOV     ?V0 + 3,R7
   \   00037D   7403         MOV     A,#0x3
   \   00037F   78..         MOV     R0,#?V0 + 2
   \   000381   12....       LCALL   ?S_SHL
   \   000384   12....       LCALL   ?Subroutine51 & 0xFFFF
   \                     ??CrossCallReturnLabel_81:
   \   000387   12....       LCALL   ??Subroutine62_0 & 0xFFFF
   \                     ??CrossCallReturnLabel_114:
   \   00038A   12....       LCALL   ?DEALLOC_XSTACK8
   \   00038D   90....       MOV     DPTR,#??nodeptr
   \   000390   12....       LCALL   ?Subroutine26 & 0xFFFF
   \                     ??CrossCallReturnLabel_36:
   \   000393   90....       MOV     DPTR,#??nodeptr
   \   000396   12....       LCALL   ?Subroutine13 & 0xFFFF
   \                     ??CrossCallReturnLabel_11:
   \   000399   12....       LCALL   ?Subroutine25 & 0xFFFF
   \                     ??CrossCallReturnLabel_190:
   \   00039C   70C5         JNZ     ??gizwitsHandle_26
   1648          
   1649                      if(nodeptr == NULL){
   1650                        MacToAppFlag = 0;
   \   00039E   90....       MOV     DPTR,#MacToAppFlag
   \   0003A1   E4           CLR     A
   \   0003A2   F0           MOVX    @DPTR,A
   1651                      }
   1652                      currentDataPoint.valueaa1[0]=0x10;
   \                     ??gizwitsHandle_27:
   \   0003A3   90....       MOV     DPTR,#currentDataPoint
   \   0003A6   7410         MOV     A,#0x10
   \   0003A8   F0           MOVX    @DPTR,A
   1653                      currentDataPoint.valueaa1[1]=i;
   \   0003A9   EE           MOV     A,R6
   \   0003AA   A3           INC     DPTR
   \   0003AB   F0           MOVX    @DPTR,A
   1654                      if(i==1)
   \   0003AC   7401         MOV     A,#0x1
   \   0003AE   6E           XRL     A,R6
   \   0003AF   7001         JNZ     ??gizwitsHandle_28
   \   0003B1   EF           MOV     A,R7
   \                     ??gizwitsHandle_28:
   \   0003B2   6003         JZ      $+5
   \   0003B4   02....       LJMP    ??gizwitsHandle_22 & 0xFFFF
   1655                        for(i=11;i<20;i++)
   1656                          currentDataPoint.valueaa1[i]=0;
   \   0003B7   E4           CLR     A
   \   0003B8   90....       MOV     DPTR,#currentDataPoint + 11
   \   0003BB   7809         MOV     R0,#0x9
   \                     ??gizwitsHandle_29:
   \   0003BD   F0           MOVX    @DPTR,A
   \   0003BE   A3           INC     DPTR
   \   0003BF   D8FC         DJNZ    R0,??gizwitsHandle_29
   \   0003C1   02....       LJMP    ??gizwitsHandle_22 & 0xFFFF
   1657                    }
   1658                    else if(deletnodelist){
   \                     ??gizwitsHandle_23:
   \   0003C4   90....       MOV     DPTR,#deletnodelist
   \   0003C7   12....       LCALL   ??Subroutine73_0 & 0xFFFF
   \                     ??CrossCallReturnLabel_187:
   \   0003CA   7003         JNZ     $+5
   \   0003CC   02....       LJMP    ??gizwitsHandle_30 & 0xFFFF
   1659                      AutoUpateMac = 1;
   \   0003CF   90....       MOV     DPTR,#AutoUpateMac
   \   0003D2   7401         MOV     A,#0x1
   \   0003D4   12....       LCALL   ?Subroutine11 & 0xFFFF
   1660                      deletnodeptr = deletnodelist->next;
   \                     ??CrossCallReturnLabel_8:
   \   0003D7   FE           MOV     R6,A
   \   0003D8   A3           INC     DPTR
   \   0003D9   E0           MOVX    A,@DPTR
   \   0003DA   FF           MOV     R7,A
   1661                      for(i=0;i<20;i++)
   1662                        currentDataPoint.valueaa1[i]=0;
   \   0003DB   E4           CLR     A
   \   0003DC   90....       MOV     DPTR,#currentDataPoint
   \   0003DF   7814         MOV     R0,#0x14
   \                     ??gizwitsHandle_31:
   \   0003E1   F0           MOVX    @DPTR,A
   \   0003E2   A3           INC     DPTR
   \   0003E3   D8FC         DJNZ    R0,??gizwitsHandle_31
   1663                      osal_memcpy((uint8 *)&currentDataPoint.valueaa1[3],(uint8 *)&deletnodelist->extaddr, 8);
   \   0003E5                ; Setup parameters for call to function osal_memcpy
   \   0003E5   90....       MOV     DPTR,#deletnodelist
   \   0003E8   12....       LCALL   ?Subroutine23 & 0xFFFF
   \                     ??CrossCallReturnLabel_31:
   \   0003EB   12....       LCALL   ?PUSH_XSTACK_I_THREE
   \   0003EE   7C08         MOV     R4,#0x8
   \   0003F0   7D00         MOV     R5,#0x0
   \   0003F2   7A..         MOV     R2,#(currentDataPoint + 3) & 0xff
   \   0003F4   7B..         MOV     R3,#((currentDataPoint + 3) >> 8) & 0xff
   \   0003F6   12....       LCALL   ??Subroutine62_0 & 0xFFFF
   \                     ??CrossCallReturnLabel_115:
   \   0003F9   12....       LCALL   ?DEALLOC_XSTACK8
   1664                      osal_mem_free(((Node*)deletnodelist));
   \   0003FC                ; Setup parameters for call to function osal_mem_free
   \   0003FC   12....       LCALL   ?Subroutine37 & 0xFFFF
   1665                      deletnodelist = deletnodeptr;
   \                     ??CrossCallReturnLabel_61:
   \   0003FF   90....       MOV     DPTR,#deletnodelist
   \   000402   EE           MOV     A,R6
   \   000403   F0           MOVX    @DPTR,A
   \   000404   A3           INC     DPTR
   \   000405   EF           MOV     A,R7
   \   000406   12....       LCALL   ?Subroutine11 & 0xFFFF
   1666                      if(deletnodelist->next){
   \                     ??CrossCallReturnLabel_9:
   \   000409   F8           MOV     R0,A
   \   00040A   A3           INC     DPTR
   \   00040B   E0           MOVX    A,@DPTR
   \   00040C   F9           MOV     R1,A
   \   00040D   E8           MOV     A,R0
   \   00040E   49           ORL     A,R1
   \   00040F   603A         JZ      ??gizwitsHandle_32
   1667                        deletnodeptr = deletnodelist->next;
   \   000411   12....       LCALL   ?Subroutine54 & 0xFFFF
   \                     ??CrossCallReturnLabel_198:
   \   000414   FE           MOV     R6,A
   \   000415   A3           INC     DPTR
   \   000416   E0           MOVX    A,@DPTR
   \   000417   FF           MOV     R7,A
   1668                        osal_memcpy((uint8 *)&currentDataPoint.valueaa1[3+8],(uint8 *)&deletnodelist->extaddr, 8);
   \   000418                ; Setup parameters for call to function osal_memcpy
   \   000418   90....       MOV     DPTR,#deletnodelist
   \   00041B   12....       LCALL   ?Subroutine58 & 0xFFFF
   \                     ??CrossCallReturnLabel_91:
   \   00041E   78..         MOV     R0,#?V0 + 4
   \   000420   12....       LCALL   ?PUSH_XSTACK_I_THREE
   \   000423   7C08         MOV     R4,#0x8
   \   000425   7D00         MOV     R5,#0x0
   \   000427   7A..         MOV     R2,#(currentDataPoint + 11) & 0xff
   \   000429   7B..         MOV     R3,#((currentDataPoint + 11) >> 8) & 0xff
   \   00042B   12....       LCALL   ??Subroutine62_0 & 0xFFFF
   \                     ??CrossCallReturnLabel_116:
   \   00042E   12....       LCALL   ?DEALLOC_XSTACK8
   1669                        currentDataPoint.valueaa1[0] = 0x20;
   \   000431   90....       MOV     DPTR,#currentDataPoint
   \   000434   7420         MOV     A,#0x20
   \   000436   F0           MOVX    @DPTR,A
   1670                        currentDataPoint.valueaa1[1] = 2;
   \   000437   A3           INC     DPTR
   \   000438   7402         MOV     A,#0x2
   \   00043A   F0           MOVX    @DPTR,A
   1671                        osal_mem_free(((Node*)deletnodelist));
   \   00043B                ; Setup parameters for call to function osal_mem_free
   \   00043B   12....       LCALL   ?Subroutine37 & 0xFFFF
   1672                        deletnodelist = deletnodeptr;
   \                     ??CrossCallReturnLabel_62:
   \   00043E   EE           MOV     A,R6
   \   00043F   F8           MOV     R0,A
   \   000440   EF           MOV     A,R7
   \   000441   F9           MOV     R1,A
   \   000442   90....       MOV     DPTR,#deletnodelist
   \   000445   E8           MOV     A,R0
   \   000446   F0           MOVX    @DPTR,A
   \   000447   A3           INC     DPTR
   \   000448   E9           MOV     A,R1
   \   000449   8009         SJMP    ??gizwitsHandle_33
   1673                      }
   1674                      else{
   1675                        currentDataPoint.valueaa1[0] = 0x20;
   \                     ??gizwitsHandle_32:
   \   00044B   90....       MOV     DPTR,#currentDataPoint
   \   00044E   7420         MOV     A,#0x20
   \   000450   F0           MOVX    @DPTR,A
   1676                        currentDataPoint.valueaa1[1] = 1;
   \   000451   A3           INC     DPTR
   \   000452   7401         MOV     A,#0x1
   \                     ??gizwitsHandle_33:
   \   000454   F0           MOVX    @DPTR,A
   1677                      }
   1678                      AutoUpateMac = 0;
   \   000455   90....       MOV     DPTR,#AutoUpateMac
   \   000458   E4           CLR     A
   \   000459   8075         SJMP    ??gizwitsHandle_34
   1679                    }
   1680                    else if(NewMacUpate){
   \                     ??gizwitsHandle_30:
   \   00045B   90....       MOV     DPTR,#NewMacUpate
   \   00045E   E0           MOVX    A,@DPTR
   \   00045F   6070         JZ      ??gizwitsHandle_22
   1681                      updatenodeptr = nodelist;
   \   000461   90....       MOV     DPTR,#nodelist
   \   000464   12....       LCALL   ??Subroutine71_0 & 0xFFFF
   \                     ??CrossCallReturnLabel_174:
   \   000467   90....       MOV     DPTR,#??updatenodeptr
   \   00046A   12....       LCALL   ??Subroutine74_0 & 0xFFFF
   1682                      for(i=0;updatenodeptr && i<2;i++){
   \                     ??CrossCallReturnLabel_192:
   \   00046D   7E00         MOV     R6,#0x0
   \   00046F   7F00         MOV     R7,#0x0
   \   000471   8048         SJMP    ??CrossCallReturnLabel_10
   \                     ??gizwitsHandle_35:
   \   000473   C3           CLR     C
   \   000474   EE           MOV     A,R6
   \   000475   9402         SUBB    A,#0x2
   \   000477   EF           MOV     A,R7
   \   000478   9400         SUBB    A,#0x0
   \   00047A   504C         JNC     ??gizwitsHandle_36
   1683                        if(updatenodeptr->element){
   \   00047C   E0           MOVX    A,@DPTR
   \   00047D   F583         MOV     DPH,A
   \   00047F   8882         MOV     DPL,R0
   \   000481   E0           MOVX    A,@DPTR
   \   000482   602B         JZ      ??gizwitsHandle_37
   1684                          updatenodeptr->element = 0;
   \   000484   90....       MOV     DPTR,#??updatenodeptr + 1
   \   000487   E0           MOVX    A,@DPTR
   \   000488   F583         MOV     DPH,A
   \   00048A   8882         MOV     DPL,R0
   \   00048C   E4           CLR     A
   \   00048D   F0           MOVX    @DPTR,A
   1685                          osal_memcpy((uint8 *)&currentDataPoint.valueaa1[3+8*i],(uint8 *)&updatenodeptr->extaddr, 8);
   \   00048E                ; Setup parameters for call to function osal_memcpy
   \   00048E   90....       MOV     DPTR,#??updatenodeptr
   \   000491   12....       LCALL   ?Subroutine23 & 0xFFFF
   1686                        }
   \                     ??CrossCallReturnLabel_32:
   \   000494   12....       LCALL   ?PUSH_XSTACK_I_THREE
   \   000497   7C08         MOV     R4,#0x8
   \   000499   7D00         MOV     R5,#0x0
   \   00049B   8E..         MOV     ?V0 + 2,R6
   \   00049D   8F..         MOV     ?V0 + 3,R7
   \   00049F   7403         MOV     A,#0x3
   \   0004A1   78..         MOV     R0,#?V0 + 2
   \   0004A3   12....       LCALL   ?S_SHL
   \   0004A6   12....       LCALL   ?Subroutine51 & 0xFFFF
   \                     ??CrossCallReturnLabel_82:
   \   0004A9   12....       LCALL   ??Subroutine62_0 & 0xFFFF
   \                     ??CrossCallReturnLabel_117:
   \   0004AC   12....       LCALL   ?DEALLOC_XSTACK8
   1687                        updatenodeptr = updatenodeptr->next;
   \                     ??gizwitsHandle_37:
   \   0004AF   90....       MOV     DPTR,#??updatenodeptr
   \   0004B2   12....       LCALL   ?Subroutine26 & 0xFFFF
   1688                      }
   \                     ??CrossCallReturnLabel_37:
   \   0004B5   90....       MOV     DPTR,#??updatenodeptr
   \   0004B8   12....       LCALL   ?Subroutine13 & 0xFFFF
   \                     ??CrossCallReturnLabel_10:
   \   0004BB   90....       MOV     DPTR,#??updatenodeptr
   \   0004BE   12....       LCALL   ??Subroutine73_0 & 0xFFFF
   \                     ??CrossCallReturnLabel_188:
   \   0004C1   70B0         JNZ     ??gizwitsHandle_35
   1689                      if(updatenodeptr==NULL){
   1690                        NewMacUpate = 0;
   \   0004C3   90....       MOV     DPTR,#NewMacUpate
   \   0004C6   E4           CLR     A
   \   0004C7   F0           MOVX    @DPTR,A
   1691                      }
   1692                      currentDataPoint.valueaa1[0] = 0x10;
   \                     ??gizwitsHandle_36:
   \   0004C8   90....       MOV     DPTR,#currentDataPoint
   \   0004CB   7410         MOV     A,#0x10
   \   0004CD   F0           MOVX    @DPTR,A
   1693                      currentDataPoint.valueaa1[1] = i;
   \   0004CE   EE           MOV     A,R6
   \   0004CF   A3           INC     DPTR
   \                     ??gizwitsHandle_34:
   \   0004D0   F0           MOVX    @DPTR,A
   1694                    }
   1695                      break;
   1696              }
   1697          
   1698              gizDevReportPolicy(currentData);
   \                     ??gizwitsHandle_22:
   \   0004D1                ; Setup parameters for call to function gizDevReportPolicy
   \   0004D1   AA..         MOV     R2,?V0 + 0
   \   0004D3   AB..         MOV     R3,?V0 + 1
   \   0004D5   12....       LCALL   ??gizDevReportPolicy?relay
   1699          
   1700              return 0;
   \   0004D8   7A00         MOV     R2,#0x0
   \   0004DA   7B00         MOV     R3,#0x0
   \   0004DC   7C00         MOV     R4,#0x0
   \   0004DE   7D00         MOV     R5,#0x0
   \                     ??gizwitsHandle_2:
   \   0004E0   7444         MOV     A,#0x44
   \   0004E2   02....       LJMP    ?Subroutine0 & 0xFFFF
   1701          }

   \                                 In  segment BANKED_CODE, align 1, keep-with-next
   \                     ?Subroutine51:
   \   000000   74..         MOV     A,#(currentDataPoint + 3) & 0xff
   \   000002   25..         ADD     A,?V0 + 2
   \   000004   FA           MOV     R2,A
   \   000005   74..         MOV     A,#((currentDataPoint + 3) >> 8) & 0xff
   \   000007   35..         ADDC    A,?V0 + 3
   \   000009   FB           MOV     R3,A
   \   00000A   22           RET

   \                                 In  segment BANKED_CODE, align 1, keep-with-next
   \                     ?Subroutine50:
   \   000000   7A..         MOV     R2,#(gizwitsProtocol + 114) & 0xff
   \   000002   7B..         MOV     R3,#((gizwitsProtocol + 114) >> 8) & 0xff
   \   000004                REQUIRE ??Subroutine70_0
   \   000004                ; // Fall through to label ??Subroutine70_0

   \                                 In  segment BANKED_CODE, align 1, keep-with-next
   \                     ??Subroutine70_0:
   \   000000   12....       LCALL   ??gizwitsEventProcess?relay
   \   000003   7404         MOV     A,#0x4
   \   000005   22           RET

   \                                 In  segment BANKED_CODE, align 1, keep-with-next
   \                     ?Subroutine37:
   \   000000   90....       MOV     DPTR,#deletnodelist
   \   000003   12....       LCALL   ??Subroutine72_0 & 0xFFFF
   \                     ??CrossCallReturnLabel_181:
   \   000006   12....       LCALL   ??osal_mem_free?relay
   \   000009   22           RET

   \                                 In  segment BANKED_CODE, align 1, keep-with-next
   \                     ?Subroutine26:
   \   000000   12....       LCALL   ??Subroutine75_0 & 0xFFFF
   \                     ??CrossCallReturnLabel_197:
   \   000003   F8           MOV     R0,A
   \   000004   A3           INC     DPTR
   \   000005   E0           MOVX    A,@DPTR
   \   000006   F9           MOV     R1,A
   \   000007   22           RET

   \                                 In  segment BANKED_CODE, align 1, keep-with-next
   \                     ?Subroutine25:
   \   000000   90....       MOV     DPTR,#??nodeptr
   \   000003                REQUIRE ??Subroutine73_0
   \   000003                ; // Fall through to label ??Subroutine73_0

   \                                 In  segment BANKED_CODE, align 1, keep-with-next
   \                     ?Subroutine23:
   \   000000   12....       LCALL   ?Subroutine58 & 0xFFFF
   \                     ??CrossCallReturnLabel_92:
   \   000003   75..00       MOV     ?V0 + 6,#0x0
   \   000006   78..         MOV     R0,#?V0 + 4
   \   000008   22           RET

   \                                 In  segment BANKED_CODE, align 1, keep-with-next
   \                     ?Subroutine58:
   \   000000   E0           MOVX    A,@DPTR
   \   000001   2401         ADD     A,#0x1
   \   000003   F5..         MOV     ?V0 + 4,A
   \   000005   A3           INC     DPTR
   \   000006   E0           MOVX    A,@DPTR
   \   000007   3400         ADDC    A,#0x0
   \   000009   F5..         MOV     ?V0 + 5,A
   \   00000B   22           RET

   \                                 In  segment BANKED_CODE, align 1, keep-with-next
   \                     ?Subroutine13:
   \   000000   12....       LCALL   ??Subroutine74_0 & 0xFFFF
   \                     ??CrossCallReturnLabel_193:
   \   000003   EE           MOV     A,R6
   \   000004   2401         ADD     A,#0x1
   \   000006   0E           INC     R6
   \   000007   EF           MOV     A,R7
   \   000008   3400         ADDC    A,#0x0
   \   00000A   FF           MOV     R7,A
   \   00000B   22           RET

   \                                 In  segment BANKED_CODE, align 1, keep-with-next
   \                     ?Subroutine11:
   \   000000   F0           MOVX    @DPTR,A
   \   000001   12....       LCALL   ?Subroutine54 & 0xFFFF
   \                     ??CrossCallReturnLabel_199:
   \   000004   22           RET

   \                                 In  segment BANKED_CODE, align 1, keep-with-next
   \                     ?Subroutine54:
   \   000000   90....       MOV     DPTR,#deletnodelist
   \   000003                REQUIRE ??Subroutine75_0
   \   000003                ; // Fall through to label ??Subroutine75_0

   \                                 In  segment BANKED_CODE, align 1, keep-with-next
   \                     ??Subroutine75_0:
   \   000000   E0           MOVX    A,@DPTR
   \   000001   240C         ADD     A,#0xc
   \   000003   F8           MOV     R0,A
   \   000004   A3           INC     DPTR
   \   000005   E0           MOVX    A,@DPTR
   \   000006   3400         ADDC    A,#0x0
   \   000008   F9           MOV     R1,A
   \   000009   8882         MOV     DPL,R0
   \   00000B   8983         MOV     DPH,R1
   \   00000D   E0           MOVX    A,@DPTR
   \   00000E   22           RET

   \                                 In  segment XDATA_Z, align 1, keep-with-next
   \                     ??nodeptr:
   \   000000                DS 2
   \   000002                REQUIRE __INIT_XDATA_Z

   \                                 In  segment XDATA_Z, align 1, keep-with-next
   \                     ??updatenodeptr:
   \   000000                DS 2
   \   000002                REQUIRE __INIT_XDATA_Z
   1702          
   1703          /**
   1704          * @brief gizwits‰∏äÊä•ÈÄè‰º†Êï∞ÊçÆÊé•Âè£
   1705          
   1706          * Áî®Êà∑Ë∞ÉÁî®ËØ•Êé•Âè£ÂèØ‰ª•ÂÆåÊàêÁßÅÊúâÂçèËÆÆÊï∞ÊçÆÁöÑ‰∏äÊä•
   1707          
   1708          * @param [in] data ËæìÂÖ•ÁöÑÁßÅÊúâÂçèËÆÆÊï∞Êç?* @param [in] len ËæìÂÖ•ÁöÑÁßÅÊúâÂçèËÆÆÊï∞ÊçÆÈïøÂ∫?* @return -1 , ÈîôËØØËøîÂõû;0,Ê≠£Á°ÆËøîÂõû
   1709          */

   \                                 In  segment BANKED_CODE, align 1, keep-with-next
   1710          int32 gizwitsPassthroughData(uint8 * data, uint32 len)
   \                     gizwitsPassthroughData:
   1711          {
   \   000000   74F0         MOV     A,#-0x10
   \   000002   12....       LCALL   ?BANKED_ENTER_XDATA
   \   000005                ; Saved register size: 16
   \   000005                ; Auto size: 31
   \   000005   74E1         MOV     A,#-0x1f
   \   000007   12....       LCALL   ?ALLOC_XSTACK8
   \   00000A   742F         MOV     A,#0x2f
   \   00000C   12....       LCALL   ?XSTACK_DISP0_8
   \   00000F   78..         MOV     R0,#?V0 + 4
   \   000011   12....       LCALL   ?L_MOV_X
   1712          	int32 ret = 0;
   1713          	uint8 tx_buf[MAX_PACKAGE_LEN];
   1714              if(NULL == data)
   \   000014   EA           MOV     A,R2
   \   000015   4B           ORL     A,R3
   \   000016   700B         JNZ     ??gizwitsPassthroughData_0
   1715              {
   1716                  GIZWITS_LOG("[Error] gizwitsPassthroughData Error \n");
   1717                  return (-1);
   \   000018   7AFF         MOV     R2,#-0x1
   \   00001A   7BFF         MOV     R3,#-0x1
   \   00001C   7CFF         MOV     R4,#-0x1
   \   00001E   7DFF         MOV     R5,#-0x1
   \   000020   02....       LJMP    ??gizwitsPassthroughData_1 & 0xFFFF
   1718              }
   1719          	uint8 *pTxBuf = tx_buf;
   1720          	uint16 data_len = 6+len;
   \                     ??gizwitsPassthroughData_0:
   \   000023   85....       MOV     ?V0 + 0,?V0 + 4
   \   000026   85....       MOV     ?V0 + 1,?V0 + 5
   \   000029   E5..         MOV     A,?V0 + 0
   \   00002B   2406         ADD     A,#0x6
   \   00002D   FE           MOV     R6,A
   \   00002E   E5..         MOV     A,?V0 + 1
   \   000030   12....       LCALL   ?Subroutine43 & 0xFFFF
   1721          	*pTxBuf ++= 0xFF;
   1722          	*pTxBuf ++= 0xFF;
   \                     ??CrossCallReturnLabel_70:
   \   000033   12....       LCALL   ?XSTACK_DISP0_8
   \   000036   74FF         MOV     A,#-0x1
   \   000038   F0           MOVX    @DPTR,A
   1723          	*pTxBuf ++= (uint8)(data_len>>8);//len
   \   000039   7402         MOV     A,#0x2
   \   00003B   12....       LCALL   ?XSTACK_DISP0_8
   \   00003E   EF           MOV     A,R7
   \   00003F   F0           MOVX    @DPTR,A
   1724          	*pTxBuf ++= (uint8)(data_len);
   \   000040   7403         MOV     A,#0x3
   \   000042   12....       LCALL   ?XSTACK_DISP0_8
   \   000045   EE           MOV     A,R6
   \   000046   F0           MOVX    @DPTR,A
   1725          	*pTxBuf ++= CMD_REPORT_P0;//0x1b cmd
   \   000047   7404         MOV     A,#0x4
   \   000049   12....       LCALL   ?XSTACK_DISP0_8
   \   00004C   7405         MOV     A,#0x5
   \   00004E   12....       LCALL   ?Subroutine20 & 0xFFFF
   1726          	*pTxBuf ++= gizwitsProtocol.sn++;//sn
   \                     ??CrossCallReturnLabel_26:
   \   000051   12....       LCALL   ?L_MOV_X
   \   000054   7405         MOV     A,#0x5
   \   000056   12....       LCALL   ?XSTACK_DISP0_8
   \   000059   12....       LCALL   ?Subroutine21 & 0xFFFF
   \                     ??CrossCallReturnLabel_29:
   \   00005C   12....       LCALL   ?L_MOV_X
   \   00005F   90....       MOV     DPTR,#gizwitsProtocol + 67
   \   000062   78..         MOV     R0,#?V0 + 0
   \   000064   12....       LCALL   ?L_ADD_TO_X
   1727          	*pTxBuf ++= 0x00;//flag
   \   000067   7406         MOV     A,#0x6
   \   000069   12....       LCALL   ?XSTACK_DISP0_8
   \   00006C   E4           CLR     A
   \   00006D   F0           MOVX    @DPTR,A
   1728          	*pTxBuf ++= 0x00;//flag
   \   00006E   7407         MOV     A,#0x7
   \   000070   12....       LCALL   ?XSTACK_DISP0_8
   \   000073   E4           CLR     A
   \   000074   F0           MOVX    @DPTR,A
   1729          	*pTxBuf ++= ACTION_D2W_TRANSPARENT_DATA;//P0_Cmd
   \   000075   7408         MOV     A,#0x8
   \   000077   12....       LCALL   ?XSTACK_DISP0_8
   \   00007A   7406         MOV     A,#0x6
   \   00007C   F0           MOVX    @DPTR,A
   1730          
   1731              osal_memcpy(&tx_buf[9],data,len);
   \   00007D                ; Setup parameters for call to function osal_memcpy
   \   00007D   8A..         MOV     ?V0 + 0,R2
   \   00007F   8B..         MOV     ?V0 + 1,R3
   \   000081   75..00       MOV     ?V0 + 2,#0x0
   \   000084   78..         MOV     R0,#?V0 + 0
   \   000086   12....       LCALL   ?PUSH_XSTACK_I_THREE
   \   000089   AC..         MOV     R4,?V0 + 4
   \   00008B   AD..         MOV     R5,?V0 + 5
   \   00008D   740C         MOV     A,#0xc
   \   00008F   12....       LCALL   ?XSTACK_DISP0_8
   \   000092   12....       LCALL   ?Subroutine41 & 0xFFFF
   \                     ??CrossCallReturnLabel_104:
   \   000095   12....       LCALL   ?DEALLOC_XSTACK8
   \   000098   12....       LCALL   ?Subroutine47 & 0xFFFF
   \                     ??CrossCallReturnLabel_74:
   \   00009B   F5..         MOV     ?V0 + 3,A
   \   00009D                ; Setup parameters for call to function gizProtocolSum
   \   00009D   78..         MOV     R0,#?V0 + 0
   \   00009F   12....       LCALL   ?PUSH_XSTACK_I_FOUR
   \   0000A2   7404         MOV     A,#0x4
   \   0000A4   12....       LCALL   ?XSTACK_DISP0_8
   \   0000A7   12....       LCALL   ?Subroutine45 & 0xFFFF
   \                     ??CrossCallReturnLabel_147:
   \   0000AA   12....       LCALL   ?DEALLOC_XSTACK8
   \   0000AD   12....       LCALL   ?Subroutine42 & 0xFFFF
   1732              tx_buf[data_len + 4 - 1 ] = gizProtocolSum( tx_buf , (data_len+4));
   1733              
   1734          	ret = uartWrite(tx_buf, data_len+4);
   \                     ??CrossCallReturnLabel_68:
   \   0000B0   12....       LCALL   ?PUSH_XSTACK_I_FOUR
   \   0000B3   7404         MOV     A,#0x4
   \   0000B5   12....       LCALL   ?XSTACK_DISP0_8
   \   0000B8   12....       LCALL   ?Subroutine46 & 0xFFFF
   \                     ??CrossCallReturnLabel_139:
   \   0000BB   12....       LCALL   ?DEALLOC_XSTACK8
   1735              if(ret < 0)
   1736              {
   1737                  //ÊâìÂç∞Êó•Âøó
   1738                  GIZWITS_LOG("ERROR: uart write error %d \n", ret);
   1739              }
   1740          
   1741              gizProtocolWaitAck(tx_buf, data_len+4);
   \   0000BE                ; Setup parameters for call to function gizProtocolWaitAck
   \   0000BE   78..         MOV     R0,#?V0 + 0
   \   0000C0   12....       LCALL   ?PUSH_XSTACK_I_FOUR
   \   0000C3   7404         MOV     A,#0x4
   \   0000C5   12....       LCALL   ?XSTACK_DISP0_8
   \   0000C8   AA82         MOV     R2,DPL
   \   0000CA   AB83         MOV     R3,DPH
   \   0000CC   12....       LCALL   ??gizProtocolWaitAck?relay
   \   0000CF   7404         MOV     A,#0x4
   \   0000D1   12....       LCALL   ?DEALLOC_XSTACK8
   1742          
   1743              return 0;
   \   0000D4   7A00         MOV     R2,#0x0
   \   0000D6   7B00         MOV     R3,#0x0
   \   0000D8   7C00         MOV     R4,#0x0
   \   0000DA   7D00         MOV     R5,#0x0
   \                     ??gizwitsPassthroughData_1:
   \   0000DC   741F         MOV     A,#0x1f
   \   0000DE   02....       LJMP    ?Subroutine1 & 0xFFFF
   1744          }

   \                                 In  segment BANKED_CODE, align 1, keep-with-next
   \                     ?Subroutine44:
   \   000000   12....       LCALL   ??gizGetTimerCount?relay
   \   000003   8A..         MOV     ?V0 + 4,R2
   \   000005   8B..         MOV     ?V0 + 5,R3
   \   000007   8C..         MOV     ?V0 + 6,R4
   \   000009   8D..         MOV     ?V0 + 7,R5
   \   00000B   22           RET

   \                                 In  segment BANK_RELAYS, align 1
   \                     ??rbCapacity?relay:
   \   000000   12....       LCALL   ?BDISPATCH
   \   000003   ......       DC24    rbCapacity

   \                                 In  segment BANK_RELAYS, align 1
   \                     ??rbCanRead?relay:
   \   000000   12....       LCALL   ?BDISPATCH
   \   000003   ......       DC24    rbCanRead

   \                                 In  segment BANK_RELAYS, align 1
   \                     ??rbCanWrite?relay:
   \   000000   12....       LCALL   ?BDISPATCH
   \   000003   ......       DC24    rbCanWrite

   \                                 In  segment BANK_RELAYS, align 1
   \                     ??rbRead?relay:
   \   000000   12....       LCALL   ?BDISPATCH
   \   000003   ......       DC24    rbRead

   \                                 In  segment BANK_RELAYS, align 1
   \                     ??rbWrite?relay:
   \   000000   12....       LCALL   ?BDISPATCH
   \   000003   ......       DC24    rbWrite

   \                                 In  segment BANK_RELAYS, align 1
   \                     ??gizPutData?relay:
   \   000000   12....       LCALL   ?BDISPATCH
   \   000003   ......       DC24    gizPutData

   \                                 In  segment BANK_RELAYS, align 1
   \                     ??gizProtocolSum?relay:
   \   000000   12....       LCALL   ?BDISPATCH
   \   000003   ......       DC24    gizProtocolSum

   \                                 In  segment BANK_RELAYS, align 1
   \                     ??gizProtocolExchangeBytes?relay:
   \   000000   12....       LCALL   ?BDISPATCH
   \   000003   ......       DC24    gizProtocolExchangeBytes

   \                                 In  segment BANK_RELAYS, align 1
   \                     ??gizProtocolHeadInit?relay:
   \   000000   12....       LCALL   ?BDISPATCH
   \   000003   ......       DC24    gizProtocolHeadInit

   \                                 In  segment BANK_RELAYS, align 1
   \                     ??gizProtocolWaitAck?relay:
   \   000000   12....       LCALL   ?BDISPATCH
   \   000003   ......       DC24    gizProtocolWaitAck

   \                                 In  segment BANK_RELAYS, align 1
   \                     ??calculateDynamicBitPartLen?relay:
   \   000000   12....       LCALL   ?BDISPATCH
   \   000003   ......       DC24    calculateDynamicBitPartLen

   \                                 In  segment BANK_RELAYS, align 1
   \                     ??gizDataPoint2Event?relay:
   \   000000   12....       LCALL   ?BDISPATCH
   \   000003   ......       DC24    gizDataPoint2Event

   \                                 In  segment BANK_RELAYS, align 1
   \                     ??gizCheckReport?relay:
   \   000000   12....       LCALL   ?BDISPATCH
   \   000003   ......       DC24    gizCheckReport

   \                                 In  segment BANK_RELAYS, align 1
   \                     ??gizDataPoints2ReportData?relay:
   \   000000   12....       LCALL   ?BDISPATCH
   \   000003   ......       DC24    gizDataPoints2ReportData

   \                                 In  segment BANK_RELAYS, align 1
   \                     ??gizProtocolIssuedProcess?relay:
   \   000000   12....       LCALL   ?BDISPATCH
   \   000003   ......       DC24    gizProtocolIssuedProcess

   \                                 In  segment BANK_RELAYS, align 1
   \                     ??gizProtocolIssuedDataAck?relay:
   \   000000   12....       LCALL   ?BDISPATCH
   \   000003   ......       DC24    gizProtocolIssuedDataAck

   \                                 In  segment BANK_RELAYS, align 1
   \                     ??gizReportData?relay:
   \   000000   12....       LCALL   ?BDISPATCH
   \   000003   ......       DC24    gizReportData

   \                                 In  segment BANK_RELAYS, align 1
   \                     ??gizDevReportPolicy?relay:
   \   000000   12....       LCALL   ?BDISPATCH
   \   000003   ......       DC24    gizDevReportPolicy

   \                                 In  segment BANK_RELAYS, align 1
   \                     ??gizProtocolGetOnePacket?relay:
   \   000000   12....       LCALL   ?BDISPATCH
   \   000003   ......       DC24    gizProtocolGetOnePacket

   \                                 In  segment BANK_RELAYS, align 1
   \                     ??gizProtocolWaitAckCheck?relay:
   \   000000   12....       LCALL   ?BDISPATCH
   \   000003   ......       DC24    gizProtocolWaitAckCheck

   \                                 In  segment BANK_RELAYS, align 1
   \                     ??gizProtocolCommonAck?relay:
   \   000000   12....       LCALL   ?BDISPATCH
   \   000003   ......       DC24    gizProtocolCommonAck

   \                                 In  segment BANK_RELAYS, align 1
   \                     ??gizProtocolGetDeviceInfo?relay:
   \   000000   12....       LCALL   ?BDISPATCH
   \   000003   ......       DC24    gizProtocolGetDeviceInfo

   \                                 In  segment BANK_RELAYS, align 1
   \                     ??gizProtocolErrorCmd?relay:
   \   000000   12....       LCALL   ?BDISPATCH
   \   000003   ......       DC24    gizProtocolErrorCmd

   \                                 In  segment BANK_RELAYS, align 1
   \                     ??gizProtocolModuleStatus?relay:
   \   000000   12....       LCALL   ?BDISPATCH
   \   000003   ......       DC24    gizProtocolModuleStatus

   \                                 In  segment BANK_RELAYS, align 1
   \                     ??gizwitsInit?relay:
   \   000000   12....       LCALL   ?BDISPATCH
   \   000003   ......       DC24    gizwitsInit

   \                                 In  segment BANK_RELAYS, align 1
   \                     ??gizwitsSetMode?relay:
   \   000000   12....       LCALL   ?BDISPATCH
   \   000003   ......       DC24    gizwitsSetMode

   \                                 In  segment BANK_RELAYS, align 1
   \                     ??gizwitsGetNTP?relay:
   \   000000   12....       LCALL   ?BDISPATCH
   \   000003   ......       DC24    gizwitsGetNTP

   \                                 In  segment BANK_RELAYS, align 1
   \                     ??gizwitsHandle?relay:
   \   000000   12....       LCALL   ?BDISPATCH
   \   000003   ......       DC24    gizwitsHandle

   \                                 In  segment BANK_RELAYS, align 1
   \                     ??gizwitsPassthroughData?relay:
   \   000000   12....       LCALL   ?BDISPATCH
   \   000003   ......       DC24    gizwitsPassthroughData

   \                                 In  segment XDATA_ROM_C, align 1
   \                     `?<Constant "00000004">`:
   \   000000   30303030     DB "00000004"
   \            30303034
   \            00      

   \                                 In  segment XDATA_ROM_C, align 1
   \                     `?<Constant "00000002">`:
   \   000000   30303030     DB "00000002"
   \            30303032
   \            00      

   \                                 In  segment XDATA_ROM_C, align 1
   \                     `?<Constant "03010101">`:
   \   000000   30333031     DB "03010101"
   \            30313031
   \            00      

   \                                 In  segment XDATA_ROM_C, align 1
   \                     `?<Constant "03010100">`:
   \   000000   30333031     DB "03010100"
   \            30313030
   \            00      

   \                                 In  segment XDATA_ROM_C, align 1
   \                     `?<Constant "5b3ad15cc49e41b08b7d5...">`:
   \   000000   35623361     DB "5b3ad15cc49e41b08b7d5d1440ece31a"
   \            64313563
   \            63343965
   \            34316230
   \            38623764
   \            35643134
   \            34306563
   \            65333161
   \            00      

   \                                 In  segment XDATA_ROM_C, align 1
   \                     `?<Constant "553f92879b014e4680b2f...">`:
   \   000000   35353366     DB "553f92879b014e4680b2f8da6c2e1bd1"
   \            39323837
   \            39623031
   \            34653436
   \            38306232
   \            66386461
   \            36633265
   \            31626431
   \            00      

   \                                 In  segment XDATA_ROM_C, align 1
   \                     __Constant_2:
   \   000000   02000000     DD 2

   \                                 In  segment XDATA_ROM_C, align 1
   \                     __Constant_1:
   \   000000   01000000     DD 1

   \                                 In  segment XDATA_ROM_C, align 1
   \                     __Constant_ffffffff:
   \   000000   FFFFFFFF     DD 4294967295

   \                                 In  segment XDATA_ROM_C, align 1
   \                     __Constant_15:
   \   000000   15000000     DD 21

   \                                 In  segment XDATA_ROM_C, align 1
   \                     __Constant_0:
   \   000000   00000000     DD 0

   \                                 In  segment XDATA_ROM_C, align 1
   \                     __Constant_fffffff6:
   \   000000   F6FFFFFF     DD 4294967286

   \                                 In  segment XDATA_ROM_C, align 1
   \                     __Constant_927c0:
   \   000000   C0270900     DD 600000

   \                                 In  segment XDATA_ROM_C, align 1
   \                     __Constant_9:
   \   000000   09000000     DD 9

   \                                 In  segment XDATA_ROM_C, align 1
   \                     __Constant_73:
   \   000000   73000000     DD 115

   \                                 In  segment XDATA_ROM_C, align 1
   \                     __Constant_a:
   \   000000   0A000000     DD 10

   \                                 In  segment XDATA_ROM_C, align 1
   \                     __Constant_7d1:
   \   000000   D1070000     DD 2001

   \                                 In  segment XDATA_ROM_C, align 1
   \                     __Constant_14:
   \   000000   14000000     DD 20

   \                                 In  segment XDATA_ROM_C, align 1
   \                     __Constant_259:
   \   000000   59020000     DD 601

   \                                 In  segment XDATA_ROM_C, align 1
   \                     __Constant_ff00:
   \   000000   00FF0000     DD 65280

   \                                 In  segment XDATA_ROM_C, align 1
   \                     __Constant_b:
   \   000000   0B000000     DD 11
   1745          /**@} */

   Maximum stack usage in bytes:

     Function                      ISTACK PSTACK XSTACK
     --------                      ------ ------ ------
     calculateDynamicBitPartLen        0      0      0
     gizCheckReport                    0      0     34
       -> osal_memcmp                  0      0     36
     gizDataPoint2Event                0      0     58
       -> osal_memset                  0      0     72
       -> osal_memcpy                  0      0     78
       -> osal_memcpy                  0      0     78
     gizDataPoints2ReportData          0      0     59
       -> osal_memset                  0      0     74
       -> osal_memcpy                  0      0     80
       -> osal_memcpy                  0      0     80
       -> osal_memset                  0      0     74
       -> osal_memcpy                  0      0     80
     gizDevReportPolicy                0      0    112
       -> gizCheckReport               0      0     32
       -> gizDataPoints2ReportData     0      0     36
       -> gizReportData                0      0     40
       -> osal_memcpy                  0      0     38
       -> gizGetTimerCount             0      0     32
       -> osal_memset                  0      0     32
       -> gizDataPoints2ReportData     0      0     36
       -> gizReportData                0      0     40
       -> osal_memcpy                  0      0     38
     gizProtocolCommonAck              1      0    116
       -> osal_memcpy                  0      0     46
       -> gizProtocolExchangeBytes     0      0     40
       -> gizProtocolSum               0      0     48
       -> uartWrite                    0      0     48
     gizProtocolErrorCmd               1      0    115
       -> gizProtocolHeadInit          0      0     38
       -> gizProtocolExchangeBytes     0      0     38
       -> gizProtocolSum               0      0     46
       -> uartWrite                    0      0     46
     gizProtocolExchangeBytes          3      0    130
     gizProtocolGetDeviceInfo          1      0    222
       -> gizProtocolHeadInit          0      0    252
       -> osal_memcpy                  0      0    258
       -> osal_memcpy                  0      0    258
       -> osal_memcpy                  0      0    258
       -> osal_memcpy                  0      0    258
       -> osal_memcpy                  0      0    258
       -> osal_memcpy                  0      0    258
       -> osal_memset                  0      0    252
       -> gizProtocolExchangeBytes     0      0    252
       -> gizProtocolExchangeBytes     0      0    252
       -> gizProtocolSum               0      0    260
       -> uartWrite                    0      0    260
     gizProtocolGetOnePacket           1      0    119
       -> rbCanRead                    0      0     42
       -> rbRead                       0      0     46
       -> gizProtocolExchangeBytes     0      0     42
       -> gizProtocolSum               0      0     50
       -> osal_memcpy                  0      0     48
     gizProtocolHeadInit               0      0    135
       -> osal_memset                  0      0     18
     gizProtocolIssuedDataAck          1      0    146
       -> osal_memcpy                  0      0     98
       -> gizProtocolSum               0      0    100
       -> uartWrite                    0      0    100
     gizProtocolIssuedProcess          0      0    118
       -> osal_memset                  0      0     34
       -> gizDataPoint2Event           0      0     38
       -> osal_memcpy                  0      0     40
       -> gizDataPoints2ReportData     0      0     38
       -> osal_memcpy                  0      0     40
       -> osal_memcpy                  0      0     40
     gizProtocolModuleStatus           0      0    104
       -> gizProtocolExchangeBytes     0      0     24
     gizProtocolSum                    0      0    150
     gizProtocolWaitAck                0      0     79
       -> osal_memset                  0      0     32
       -> osal_memcpy                  0      0     38
       -> gizGetTimerCount             0      0     32
     gizProtocolWaitAckCheck           2      0     92
       -> osal_memset                  4      0      0
     gizPutData                        0      0     22
       -> rbWrite                      0      0     36
     gizReportData                     1      0     80
       -> osal_memcpy                  0      0    118
       -> gizProtocolSum               0      0    120
       -> uartWrite                    0      0    120
       -> gizProtocolWaitAck           0      0    120
     gizwitsGetNTP                     1      0     25
       -> gizProtocolHeadInit          0      0     42
       -> gizProtocolExchangeBytes     0      0     42
       -> gizProtocolSum               0      0     50
       -> uartWrite                    0      0     50
       -> gizProtocolWaitAck           0      0     50
     gizwitsHandle                     0      0     98
       -> gizGetTimerCount             0      0    184
       -> uartWrite                    0      0    192
       -> gizGetTimerCount             0      0    184
       -> osal_memset                  0      0    184
       -> gizProtocolGetOnePacket      0      0    188
       -> gizProtocolGetDeviceInfo     0      0    184
       -> gizwitsEventProcess          0      0    192
       -> osal_memset                  0      0    184
       -> gizProtocolIssuedProcess     0      0    196
       -> gizProtocolIssuedDataAck     0      0    192
       -> gizProtocolCommonAck         0      0    184
       -> gizProtocolCommonAck         0      0    184
       -> gizProtocolModuleStatus      0      0    184
       -> gizProtocolWaitAckCheck      0      0    184
       -> gizProtocolCommonAck         0      0    184
       -> gizGetTimerCount             0      0    184
       -> gizGetTimerCount             0      0    184
       -> mcuRestart                   0      0    184
       -> gizProtocolWaitAckCheck      0      0    184
       -> osal_memcpy                  0      0    190
       -> gizProtocolExchangeBytes     0      0    184
       -> gizwitsEventProcess          0      0    192
       -> osal_memset                  0      0    184
       -> gizProtocolErrorCmd          0      0    184
       -> gizProtocolErrorCmd          0      0    184
       -> gizwitsEventProcess          0      0    192
       -> osal_memset                  0      0    184
       -> gizwitsEventProcess          0      0    192
       -> osal_memcpy                  0      0    190
       -> osal_memcpy                  0      0    190
       -> osal_mem_free                0      0    184
       -> osal_memcpy                  0      0    190
       -> osal_mem_free                0      0    184
       -> osal_memcpy                  0      0    190
       -> gizDevReportPolicy           0      0    184
     gizwitsInit                       2      0      0
       -> osal_memset                  4      0      0
     gizwitsPassthroughData            1      0     55
       -> osal_memcpy                  0      0    100
       -> gizProtocolSum               0      0    102
       -> uartWrite                    0      0    102
       -> gizProtocolWaitAck           0      0    102
     gizwitsSetMode                    1      0     26
       -> gizProtocolHeadInit          0      0     44
       -> gizProtocolExchangeBytes     0      0     44
       -> gizProtocolSum               0      0     52
       -> uartWrite                    0      0     52
       -> gizProtocolWaitAck           0      0     52
     rbCanRead                         2      0     44
       -> rbCapacity                   0      0     32
     rbCanWrite                        0      0     38
       -> rbCapacity                   0      0     32
       -> rbCanRead                    0      0     32
     rbCapacity                        0      0     38
     rbRead                            2      0     61
       -> rbCanRead                    0      0     56
       -> rbCanRead                    0      0     56
       -> osal_memcpy                  0      0     62
       -> rbCapacity                   0      0     56
       -> osal_memcpy                  0      0     62
       -> rbCapacity                   0      0     56
       -> osal_memcpy                  0      0     62
       -> rbRead                       0      0     60
     rbWrite                           2      0     49
       -> rbCanWrite                   0      0     44
       -> rbCapacity                   0      0     44
       -> osal_memcpy                  0      0     50
       -> rbCapacity                   4      0     44
       -> osal_memcpy                  0      0     50
       -> rbWrite                      0      0     48
       -> osal_memcpy                  0      0     50


   Segment part sizes:

     Function/Label                         Bytes
     --------------                         -----
     gizwitsProtocol                         246
     pRb                                       8
     rbBuf                                    62
     rbCapacity                               44
     rbCanRead                               222
     rbCanWrite                               73
     rbRead                                  423
     ?Subroutine0                              8
     ?Subroutine36                             7
     ?Subroutine35                             7
     ?Subroutine34                             9
     ?Subroutine33                            17
     ?Subroutine27                            24
     ?Subroutine12                             1
     ??Subroutine64_0                          5
     ?Subroutine56                             8
     ?Subroutine39                             4
     ??Subroutine71_0                          6
     ?Subroutine55                             6
     ??Subroutine72_0                          6
     ??Subroutine73_0                          8
     ?Subroutine60                             6
     ??Subroutine74_0                          6
     rbWrite                                 621
     gizPutData                               75
     ??Subroutine61_0                          5
     gizProtocolSum                          103
     ?Subroutine2                              5
     gizProtocolExchangeBytes                 48
     ?Subroutine3                              7
     gizProtocolHeadInit                      37
     ?Subroutine4                              5
     gizProtocolWaitAck                      102
     ??Subroutine62_0                          6
     calculateDynamicBitPartLen               11
     gizDataPoint2Event                      173
     ?Subroutine5                              8
     ?Subroutine41                             4
     gizCheckReport                           88
     ?Subroutine1                              3
     gizDataPoints2ReportData                217
     gizProtocolIssuedProcess                358
     gizProtocolIssuedDataAck                275
     ?Subroutine18                             6
     ?Subroutine17                             7
     ?Subroutine53                            10
     ?Subroutine46                             4
     ??Subroutine65_0                          6
     ?Subroutine45                             4
     ??Subroutine66_0                          6
     ?Subroutine47                            12
     ?Subroutine43                            15
     ?Subroutine42                            24
     gizReportData                           552
     gizDevReportPolicy                      225
     gizProtocolGetOnePacket                 434
     ?Subroutine38                            12
     ?Subroutine32                            12
     ?Subroutine15                            20
     ?Subroutine29                             7
     ?Subroutine24                            15
     protocolFlag                              1
     protocolCount                             2
     lastData                                  1
     debugCount                                1
     gizProtocolWaitAckCheck                  56
     gizProtocolCommonAck                    111
     ?Subroutine6                              8
     ?Subroutine59                             2
     ??Subroutine63_0                          8
     gizProtocolGetDeviceInfo                308
     ?Subroutine16                            12
     ?Subroutine48                            16
     gizProtocolErrorCmd                     116
     ?Subroutine19                             7
     gizProtocolModuleStatus                 590
     ?Subroutine49                            11
     ?Subroutine40                             9
     ?Subroutine31                             8
     ?Subroutine30                             8
     ?Subroutine28                            12
     ?Subroutine22                             3
     ??Subroutine67_0                          4
     ?Subroutine57                            14
     ?Subroutine14                            11
     ?Subroutine10                             7
     ??Subroutine68_0                          9
     ?Subroutine9                              8
     ?Subroutine8                             10
     ?Subroutine52                            14
     ??Subroutine69_0                          5
     lastStatus                                2
     gizwitsInit                              57
     gizwitsSetMode                          156
     ?Subroutine7                              3
     ?Subroutine21                             9
     ?Subroutine20                             7
     gizwitsGetNTP                           121
     gizwitsHandle                          1253
     ?Subroutine51                            11
     ?Subroutine50                             4
     ??Subroutine70_0                          6
     ?Subroutine37                            10
     ?Subroutine26                             8
     ?Subroutine25                             3
     ?Subroutine23                             9
     ?Subroutine58                            12
     ?Subroutine13                            12
     ?Subroutine11                             5
     ?Subroutine54                             3
     ??Subroutine75_0                         15
     nodeptr                                   2
     updatenodeptr                             2
     gizwitsPassthroughData                  225
     ?Subroutine44                            12
     ??rbCapacity?relay                        6
     ??rbCanRead?relay                         6
     ??rbCanWrite?relay                        6
     ??rbRead?relay                            6
     ??rbWrite?relay                           6
     ??gizPutData?relay                        6
     ??gizProtocolSum?relay                    6
     ??gizProtocolExchangeBytes?relay          6
     ??gizProtocolHeadInit?relay               6
     ??gizProtocolWaitAck?relay                6
     ??calculateDynamicBitPartLen?relay        6
     ??gizDataPoint2Event?relay                6
     ??gizCheckReport?relay                    6
     ??gizDataPoints2ReportData?relay          6
     ??gizProtocolIssuedProcess?relay          6
     ??gizProtocolIssuedDataAck?relay          6
     ??gizReportData?relay                     6
     ??gizDevReportPolicy?relay                6
     ??gizProtocolGetOnePacket?relay           6
     ??gizProtocolWaitAckCheck?relay           6
     ??gizProtocolCommonAck?relay              6
     ??gizProtocolGetDeviceInfo?relay          6
     ??gizProtocolErrorCmd?relay               6
     ??gizProtocolModuleStatus?relay           6
     ??gizwitsInit?relay                       6
     ??gizwitsSetMode?relay                    6
     ??gizwitsGetNTP?relay                     6
     ??gizwitsHandle?relay                     6
     ??gizwitsPassthroughData?relay            6
     ?<Constant "00000004">                    9
     ?<Constant "00000002">                    9
     ?<Constant "03010101">                    9
     ?<Constant "03010100">                    9
     ?<Constant "5b3ad15cc49e41b08b7d5...">   33
     ?<Constant "553f92879b014e4680b2f...">   33
     __Constant_2                              4
     __Constant_1                              4
     __Constant_ffffffff                       4
     __Constant_15                             4
     __Constant_0                              4
     __Constant_fffffff6                       4
     __Constant_927c0                          4
     __Constant_9                              4
     __Constant_73                             4
     __Constant_a                              4
     __Constant_7d1                            4
     __Constant_14                             4
     __Constant_259                            4
     __Constant_ff00                           4
     __Constant_b                              4

 
 7 720 bytes in segment BANKED_CODE
   174 bytes in segment BANK_RELAYS
   162 bytes in segment XDATA_ROM_C
   327 bytes in segment XDATA_Z
 
 7 894 bytes of CODE  memory
   102 bytes of CONST memory (+ 60 bytes shared)
   327 bytes of XDATA memory

Errors: none
Warnings: 13
