///////////////////////////////////////////////////////////////////////////////
//                                                                            /
// IAR C/C++ Compiler V8.10.3.10338/W32 for 8051        03/Jun/2017  14:51:43 /
// Copyright 2004-2011 IAR Systems AB.                                        /
//                                                                            /
//    Core               =  plain                                             /
//    Code model         =  banked                                            /
//    Data model         =  large                                             /
//    Calling convention =  xdata reentrant                                   /
//    Constant location  =  data_rom                                          /
//    Dptr setup         =  1,16                                              /
//    Source file        =  E:\work\smartlight\ZigLight001\Components\mt\MT_U /
//                          ART.c                                             /
//    Command line       =  -f E:\work\smartlight\ZigLight001\Projects\zstack /
//                          \Samples\ZigLightApp\CC2530DB\..\..\..\Tools\CC25 /
//                          30DB\f8wRouter.cfg (-DCPU32MHZ                    /
//                          -DROOT=__near_func -DMAC_CFG_APP_PENDING_QUEUE=TR /
//                          UE -DMAC_CFG_TX_DATA_MAX=5 -DMAC_CFG_TX_MAX=8     /
//                          -DMAC_CFG_RX_MAX=5 -DRTR_NWK) -f                  /
//                          E:\work\smartlight\ZigLight001\Projects\zstack\Sa /
//                          mples\ZigLightApp\CC2530DB\..\..\..\Tools\CC2530D /
//                          B\f8wConfig.cfg (-DZIGBEEPRO -DSECURE=0           /
//                          -DZG_SECURE_DYNAMIC=0 -DREFLECTOR                 /
//                          -DDEFAULT_CHANLIST=0x00000800                     /
//                          -DZDAPP_CONFIG_PAN_ID=0xFF00                      /
//                          -DNWK_START_DELAY=100 -DEXTENDED_JOINING_RANDOM_M /
//                          ASK=0x007F -DBEACON_REQUEST_DELAY=100             /
//                          -DBEACON_REQ_DELAY_MASK=0x00FF                    /
//                          -DLINK_STATUS_JITTER_MASK=0x007F                  /
//                          -DROUTE_EXPIRY_TIME=30 -DAPSC_ACK_WAIT_DURATION_P /
//                          OLLED=3000 -DNWK_INDIRECT_MSG_TIMEOUT=7           /
//                          -DMAX_RREQ_ENTRIES=8 -DAPSC_MAX_FRAME_RETRIES=3   /
//                          -DNWK_MAX_DATA_RETRIES=2                          /
//                          -DMAX_POLL_FAILURE_RETRIES=2 -DMAX_BCAST=9        /
//                          -DAPS_MAX_GROUPS=16 -DMAX_RTG_ENTRIES=40          /
//                          -DNWK_MAX_BINDING_ENTRIES=4                       /
//                          -DMAX_BINDING_CLUSTER_IDS=4                       /
//                          "-DDEFAULT_KEY={0x01, 0x03, 0x05, 0x07, 0x09,     /
//                          0x0B, 0x0D, 0x0F, 0x00, 0x02, 0x04, 0x06, 0x08,   /
//                          0x0A, 0x0C, 0x0D}" -DMAC_MAX_FRAME_SIZE=116       /
//                          -DZDNWKMGR_MIN_TRANSMISSIONS=20 "-DCONST=const    /
//                          __code" -DGENERIC=__generic                       /
//                          -DRFD_RCVC_ALWAYS_ON=FALSE -DPOLL_RATE=1000       /
//                          -DQUEUED_POLL_RATE=100 -DRESPONSE_POLL_RATE=100)  /
//                          -DREJOIN_POLL_RATE=440 E:\work\smartlight\ZigLigh /
//                          t001\Components\mt\MT_UART.c -D ZTOOL_P1 -D       /
//                          MT_TASK -D MT_SYS_FUNC -D MT_ZDO_FUNC -D          /
//                          xLCD_SUPPORTED=DEBUG -D MT_ZDO_MGMT -lC           /
//                          E:\work\smartlight\ZigLight001\Projects\zstack\Sa /
//                          mples\ZigLightApp\CC2530DB\RouterEB\List\ -lA     /
//                          E:\work\smartlight\ZigLight001\Projects\zstack\Sa /
//                          mples\ZigLightApp\CC2530DB\RouterEB\List\         /
//                          --diag_suppress Pe001,Pa010 -o                    /
//                          E:\work\smartlight\ZigLight001\Projects\zstack\Sa /
//                          mples\ZigLightApp\CC2530DB\RouterEB\Obj\ -e       /
//                          --no_code_motion --debug --core=plain             /
//                          --dptr=16,1 --data_model=large                    /
//                          --code_model=banked --calling_convention=xdata_re /
//                          entrant --place_constants=data_rom                /
//                          --nr_virtual_regs 16 -I                           /
//                          E:\work\smartlight\ZigLight001\Projects\zstack\Sa /
//                          mples\ZigLightApp\CC2530DB\ -I                    /
//                          E:\work\smartlight\ZigLight001\Projects\zstack\Sa /
//                          mples\ZigLightApp\CC2530DB\..\Source\ -I          /
//                          E:\work\smartlight\ZigLight001\Projects\zstack\Sa /
//                          mples\ZigLightApp\CC2530DB\..\..\..\ZMain\TI2530D /
//                          B\ -I E:\work\smartlight\ZigLight001\Projects\zst /
//                          ack\Samples\ZigLightApp\CC2530DB\..\..\..\..\..\C /
//                          omponents\hal\include\ -I                         /
//                          E:\work\smartlight\ZigLight001\Projects\zstack\Sa /
//                          mples\ZigLightApp\CC2530DB\..\..\..\..\..\Compone /
//                          nts\hal\target\CC2530EB\ -I                       /
//                          E:\work\smartlight\ZigLight001\Projects\zstack\Sa /
//                          mples\ZigLightApp\CC2530DB\..\..\..\..\..\Compone /
//                          nts\mac\include\ -I E:\work\smartlight\ZigLight00 /
//                          1\Projects\zstack\Samples\ZigLightApp\CC2530DB\.. /
//                          \..\..\..\..\Components\mac\high_level\ -I        /
//                          E:\work\smartlight\ZigLight001\Projects\zstack\Sa /
//                          mples\ZigLightApp\CC2530DB\..\..\..\..\..\Compone /
//                          nts\mac\low_level\srf04\ -I                       /
//                          E:\work\smartlight\ZigLight001\Projects\zstack\Sa /
//                          mples\ZigLightApp\CC2530DB\..\..\..\..\..\Compone /
//                          nts\mac\low_level\srf04\single_chip\ -I           /
//                          E:\work\smartlight\ZigLight001\Projects\zstack\Sa /
//                          mples\ZigLightApp\CC2530DB\..\..\..\..\..\Compone /
//                          nts\mt\ -I E:\work\smartlight\ZigLight001\Project /
//                          s\zstack\Samples\ZigLightApp\CC2530DB\..\..\..\.. /
//                          \..\Components\osal\include\ -I                   /
//                          E:\work\smartlight\ZigLight001\Projects\zstack\Sa /
//                          mples\ZigLightApp\CC2530DB\..\..\..\..\..\Compone /
//                          nts\services\saddr\ -I E:\work\smartlight\ZigLigh /
//                          t001\Projects\zstack\Samples\ZigLightApp\CC2530DB /
//                          \..\..\..\..\..\Components\services\sdata\ -I     /
//                          E:\work\smartlight\ZigLight001\Projects\zstack\Sa /
//                          mples\ZigLightApp\CC2530DB\..\..\..\..\..\Compone /
//                          nts\stack\af\ -I E:\work\smartlight\ZigLight001\P /
//                          rojects\zstack\Samples\ZigLightApp\CC2530DB\..\.. /
//                          \..\..\..\Components\stack\nwk\ -I                /
//                          E:\work\smartlight\ZigLight001\Projects\zstack\Sa /
//                          mples\ZigLightApp\CC2530DB\..\..\..\..\..\Compone /
//                          nts\stack\sapi\ -I E:\work\smartlight\ZigLight001 /
//                          \Projects\zstack\Samples\ZigLightApp\CC2530DB\..\ /
//                          ..\..\..\..\Components\stack\sec\ -I              /
//                          E:\work\smartlight\ZigLight001\Projects\zstack\Sa /
//                          mples\ZigLightApp\CC2530DB\..\..\..\..\..\Compone /
//                          nts\stack\sys\ -I E:\work\smartlight\ZigLight001\ /
//                          Projects\zstack\Samples\ZigLightApp\CC2530DB\..\. /
//                          .\..\..\..\Components\stack\zdo\ -I               /
//                          E:\work\smartlight\ZigLight001\Projects\zstack\Sa /
//                          mples\ZigLightApp\CC2530DB\..\..\..\..\..\Compone /
//                          nts\zmac\ -I E:\work\smartlight\ZigLight001\Proje /
//                          cts\zstack\Samples\ZigLightApp\CC2530DB\..\..\..\ /
//                          ..\..\Components\zmac\f8w\ -Ohz                   /
//                          --require_prototypes                              /
//    List file          =  E:\work\smartlight\ZigLight001\Projects\zstack\Sa /
//                          mples\ZigLightApp\CC2530DB\RouterEB\List\MT_UART. /
//                          s51                                               /
//                                                                            /
//                                                                            /
///////////////////////////////////////////////////////////////////////////////

        NAME MT_UART

        RTMODEL "__SystemLibrary", "CLib"
        RTMODEL "__calling_convention", "xdata_reentrant"
        RTMODEL "__code_model", "banked"
        RTMODEL "__core", "plain"
        RTMODEL "__data_model", "large"
        RTMODEL "__dptr_size", "16"
        RTMODEL "__extended_stack", "disabled"
        RTMODEL "__location_for_constants", "data"
        RTMODEL "__number_of_dptrs", "1"
        RTMODEL "__rt_version", "1"

        RSEG DOVERLAY:DATA:NOROOT(0)
        RSEG IOVERLAY:IDATA:NOROOT(0)
        RSEG ISTACK:IDATA:NOROOT(0)
        RSEG PSTACK:XDATA:NOROOT(0)
        RSEG XSTACK:XDATA:NOROOT(0)

        EXTERN ?ALLOC_XSTACK8
        EXTERN ?BANKED_ENTER_XDATA
        EXTERN ?BANKED_LEAVE_XDATA
        EXTERN ?BDISPATCH
        EXTERN ?BRET
        EXTERN ?DEALLOC_XSTACK8
        EXTERN ?PUSH_XSTACK8_X_FOUR
        EXTERN ?PUSH_XSTACK_I_FOUR
        EXTERN ?V0
        EXTERN ?XSP
        EXTERN ?XSTACK_DISP0_8
        EXTERN __INIT_XDATA_Z

        PUBLIC ??MT_UartCalcFCS?relay
        FUNCTION ??MT_UartCalcFCS?relay,0203H
        PUBLIC ??MT_UartInit?relay
        FUNCTION ??MT_UartInit?relay,0203H
        PUBLIC ??MT_UartProcessZToolData?relay
        FUNCTION ??MT_UartProcessZToolData?relay,0203H
        PUBLIC ??MT_UartRegisterTaskID?relay
        FUNCTION ??MT_UartRegisterTaskID?relay,0203H
        PUBLIC ??zigLight_uartProcess?relay
        FUNCTION ??zigLight_uartProcess?relay,0203H
        PUBLIC App_TaskID
        PUBLIC CMD_Token
        PUBLIC FSC_Token
        PUBLIC LEN_Token
        PUBLIC MT_UartCalcFCS
        FUNCTION MT_UartCalcFCS,0203H
        ARGFRAME XSTACK, 0, STACK
        LOCFRAME ISTACK, 2, STACK
        PUBLIC MT_UartInit
        FUNCTION MT_UartInit,021203H
        ARGFRAME XSTACK, 0, STACK
        LOCFRAME ISTACK, 2, STACK
        LOCFRAME XSTACK, 29, STACK
        PUBLIC MT_UartProcessZToolData
        FUNCTION MT_UartProcessZToolData,021603H
        ARGFRAME XSTACK, 0, STACK
        LOCFRAME ISTACK, 1, STACK
        LOCFRAME XSTACK, 17, STACK
        PUBLIC MT_UartRegisterTaskID
        FUNCTION MT_UartRegisterTaskID,0203H
        ARGFRAME XSTACK, 0, STACK
        LOCFRAME ISTACK, 2, STACK
        PUBWEAK __Constant_1
        PUBWEAK __Constant_a
        PUBLIC pMsg
        PUBLIC state
        PUBLIC tempDataLen
        PUBLIC zigLight_uartProcess
        FUNCTION zigLight_uartProcess,021203H
        ARGFRAME XSTACK, 0, STACK
        LOCFRAME XSTACK, 26, STACK
        
        CFI Names cfiNames0
        CFI StackFrame CFA_SP SP IDATA
        CFI StackFrame CFA_PSP16 PSP16 XDATA
        CFI StackFrame CFA_XSP16 XSP16 XDATA
        CFI StaticOverlayFrame CFA_IOVERLAY IOVERLAY
        CFI StaticOverlayFrame CFA_DOVERLAY DOVERLAY
        CFI Resource `PSW.CY`:1, `B.BR0`:1, `B.BR1`:1, `B.BR2`:1, `B.BR3`:1
        CFI Resource `B.BR4`:1, `B.BR5`:1, `B.BR6`:1, `B.BR7`:1, `VB.BR8`:1
        CFI Resource `VB.BR9`:1, `VB.BR10`:1, `VB.BR11`:1, `VB.BR12`:1
        CFI Resource `VB.BR13`:1, `VB.BR14`:1, `VB.BR15`:1, VB:8, B:8, A:8
        CFI Resource PSW:8, DPL0:8, DPH0:8, R0:8, R1:8, R2:8, R3:8, R4:8, R5:8
        CFI Resource R6:8, R7:8, V0:8, V1:8, V2:8, V3:8, V4:8, V5:8, V6:8, V7:8
        CFI Resource V8:8, V9:8, V10:8, V11:8, V12:8, V13:8, V14:8, V15:8, SP:8
        CFI Resource PSPH:8, PSPL:8, PSP16:16, XSPH:8, XSPL:8, XSP16:16
        CFI VirtualResource ?RET:24
        CFI Resource ?BRET_EXT:8
        CFI VirtualResource ?RET_HIGH:8, ?RET_LOW:8
        CFI ResourceParts PSP16 PSPH, PSPL
        CFI ResourceParts XSP16 XSPH, XSPL
        CFI ResourceParts ?RET ?BRET_EXT, ?RET_HIGH, ?RET_LOW
        CFI EndNames cfiNames0
        
        CFI Common cfiCommon0 Using cfiNames0
        CFI CodeAlign 1
        CFI DataAlign -1
        CFI ReturnAddress ?RET CODE
        CFI CFA_DOVERLAY Used
        CFI CFA_IOVERLAY Used
        CFI CFA_SP SP+-3
        CFI CFA_PSP16 PSP16+0
        CFI CFA_XSP16 XSP16+0
        CFI `PSW.CY` SameValue
        CFI `B.BR0` SameValue
        CFI `B.BR1` SameValue
        CFI `B.BR2` SameValue
        CFI `B.BR3` SameValue
        CFI `B.BR4` SameValue
        CFI `B.BR5` SameValue
        CFI `B.BR6` SameValue
        CFI `B.BR7` SameValue
        CFI `VB.BR8` SameValue
        CFI `VB.BR9` SameValue
        CFI `VB.BR10` SameValue
        CFI `VB.BR11` SameValue
        CFI `VB.BR12` SameValue
        CFI `VB.BR13` SameValue
        CFI `VB.BR14` SameValue
        CFI `VB.BR15` SameValue
        CFI VB SameValue
        CFI B Undefined
        CFI A Undefined
        CFI PSW SameValue
        CFI DPL0 SameValue
        CFI DPH0 SameValue
        CFI R0 Undefined
        CFI R1 Undefined
        CFI R2 Undefined
        CFI R3 Undefined
        CFI R4 Undefined
        CFI R5 Undefined
        CFI R6 SameValue
        CFI R7 SameValue
        CFI V0 SameValue
        CFI V1 SameValue
        CFI V2 SameValue
        CFI V3 SameValue
        CFI V4 SameValue
        CFI V5 SameValue
        CFI V6 SameValue
        CFI V7 SameValue
        CFI V8 SameValue
        CFI V9 SameValue
        CFI V10 SameValue
        CFI V11 SameValue
        CFI V12 SameValue
        CFI V13 SameValue
        CFI V14 SameValue
        CFI V15 SameValue
        CFI PSPH Undefined
        CFI PSPL Undefined
        CFI XSPH Undefined
        CFI XSPL Undefined
        CFI ?RET Concat
        CFI ?BRET_EXT Frame(CFA_SP, 3)
        CFI ?RET_HIGH Frame(CFA_SP, 2)
        CFI ?RET_LOW Frame(CFA_SP, 1)
        CFI EndCommon cfiCommon0
        
        
        CFI Common cfiCommon1 Using cfiNames0
        CFI CodeAlign 1
        CFI DataAlign -1
        CFI ReturnAddress ?RET CODE
        CFI CFA_DOVERLAY Used
        CFI CFA_IOVERLAY Used
        CFI CFA_SP SP+-2
        CFI CFA_PSP16 PSP16+0
        CFI CFA_XSP16 XSP16+0
        CFI `PSW.CY` SameValue
        CFI `B.BR0` SameValue
        CFI `B.BR1` SameValue
        CFI `B.BR2` SameValue
        CFI `B.BR3` SameValue
        CFI `B.BR4` SameValue
        CFI `B.BR5` SameValue
        CFI `B.BR6` SameValue
        CFI `B.BR7` SameValue
        CFI `VB.BR8` SameValue
        CFI `VB.BR9` SameValue
        CFI `VB.BR10` SameValue
        CFI `VB.BR11` SameValue
        CFI `VB.BR12` SameValue
        CFI `VB.BR13` SameValue
        CFI `VB.BR14` SameValue
        CFI `VB.BR15` SameValue
        CFI VB SameValue
        CFI B SameValue
        CFI A SameValue
        CFI PSW SameValue
        CFI DPL0 SameValue
        CFI DPH0 SameValue
        CFI R0 SameValue
        CFI R1 SameValue
        CFI R2 SameValue
        CFI R3 SameValue
        CFI R4 SameValue
        CFI R5 SameValue
        CFI R6 SameValue
        CFI R7 SameValue
        CFI V0 SameValue
        CFI V1 SameValue
        CFI V2 SameValue
        CFI V3 SameValue
        CFI V4 SameValue
        CFI V5 SameValue
        CFI V6 SameValue
        CFI V7 SameValue
        CFI V8 SameValue
        CFI V9 SameValue
        CFI V10 SameValue
        CFI V11 SameValue
        CFI V12 SameValue
        CFI V13 SameValue
        CFI V14 SameValue
        CFI V15 SameValue
        CFI PSPH Undefined
        CFI PSPL Undefined
        CFI XSPH Undefined
        CFI XSPL Undefined
        CFI ?RET Concat
        CFI ?BRET_EXT SameValue
        CFI ?RET_HIGH Frame(CFA_SP, 2)
        CFI ?RET_LOW Frame(CFA_SP, 1)
        CFI EndCommon cfiCommon1
        
HalUARTOpen         SYMBOL "HalUARTOpen"
Hal_UART_RxBufLen   SYMBOL "Hal_UART_RxBufLen"
HalUARTRead         SYMBOL "HalUARTRead"
gizPutData          SYMBOL "gizPutData"
osal_msg_allocate   SYMBOL "osal_msg_allocate"
osal_msg_send       SYMBOL "osal_msg_send"
??HalUARTOpen?relay SYMBOL "?relay", HalUARTOpen
??HalUARTRead?relay SYMBOL "?relay", HalUARTRead
??Hal_UART_RxBufLen?relay SYMBOL "?relay", Hal_UART_RxBufLen
??gizPutData?relay  SYMBOL "?relay", gizPutData
??osal_msg_allocate?relay SYMBOL "?relay", osal_msg_allocate
??osal_msg_send?relay SYMBOL "?relay", osal_msg_send
MT_UartCalcFCS      SYMBOL "MT_UartCalcFCS"
??MT_UartCalcFCS?relay SYMBOL "?relay", MT_UartCalcFCS
MT_UartInit         SYMBOL "MT_UartInit"
??MT_UartInit?relay SYMBOL "?relay", MT_UartInit
MT_UartProcessZToolData SYMBOL "MT_UartProcessZToolData"
??MT_UartProcessZToolData?relay SYMBOL "?relay", MT_UartProcessZToolData
MT_UartRegisterTaskID SYMBOL "MT_UartRegisterTaskID"
??MT_UartRegisterTaskID?relay SYMBOL "?relay", MT_UartRegisterTaskID
zigLight_uartProcess SYMBOL "zigLight_uartProcess"
??zigLight_uartProcess?relay SYMBOL "?relay", zigLight_uartProcess

        EXTERN HalUARTOpen
        FUNCTION HalUARTOpen,0202H
        ARGFRAME ISTACK, 2, STACK
        ARGFRAME PSTACK, 0, STACK
        ARGFRAME XSTACK, 29, STACK
        ARGFRAME IOVERLAY, 0, STATIC
        ARGFRAME DOVERLAY, 0, STATIC
        EXTERN Hal_UART_RxBufLen
        FUNCTION Hal_UART_RxBufLen,0202H
        ARGFRAME ISTACK, 0, STACK
        ARGFRAME PSTACK, 0, STACK
        ARGFRAME XSTACK, 22, STACK
        ARGFRAME IOVERLAY, 0, STATIC
        ARGFRAME DOVERLAY, 0, STATIC
        EXTERN HalUARTRead
        FUNCTION HalUARTRead,0202H
        ARGFRAME ISTACK, 0, STACK
        ARGFRAME PSTACK, 0, STACK
        ARGFRAME XSTACK, 22, STACK
        ARGFRAME IOVERLAY, 0, STATIC
        ARGFRAME DOVERLAY, 0, STATIC
        EXTERN gizPutData
        FUNCTION gizPutData,0202H
        ARGFRAME ISTACK, 0, STACK
        ARGFRAME PSTACK, 0, STACK
        ARGFRAME XSTACK, 26, STACK
        ARGFRAME IOVERLAY, 0, STATIC
        ARGFRAME DOVERLAY, 0, STATIC
        EXTERN osal_msg_allocate
        FUNCTION osal_msg_allocate,0202H
        ARGFRAME ISTACK, 0, STACK
        ARGFRAME PSTACK, 0, STACK
        ARGFRAME XSTACK, 13, STACK
        ARGFRAME IOVERLAY, 0, STATIC
        ARGFRAME DOVERLAY, 0, STATIC
        EXTERN osal_msg_send
        FUNCTION osal_msg_send,0202H
        ARGFRAME ISTACK, 0, STACK
        ARGFRAME PSTACK, 0, STACK
        ARGFRAME XSTACK, 13, STACK
        ARGFRAME IOVERLAY, 0, STATIC
        ARGFRAME DOVERLAY, 0, STATIC
        EXTERN ??HalUARTOpen?relay
        FUNCTION ??HalUARTOpen?relay,00H
        EXTERN ??HalUARTRead?relay
        FUNCTION ??HalUARTRead?relay,00H
        EXTERN ??Hal_UART_RxBufLen?relay
        FUNCTION ??Hal_UART_RxBufLen?relay,00H
        EXTERN ??gizPutData?relay
        FUNCTION ??gizPutData?relay,00H
        EXTERN ??osal_msg_allocate?relay
        FUNCTION ??osal_msg_allocate?relay,00H
        EXTERN ??osal_msg_send?relay
        FUNCTION ??osal_msg_send?relay,00H

// E:\work\smartlight\ZigLight001\Components\mt\MT_UART.c
//    1 /***************************************************************************************************
//    2   Filename:       MT_UART.c
//    3   Revised:        $Date: 2009-03-12 16:25:22 -0700 (Thu, 12 Mar 2009) $
//    4   Revision:       $Revision: 19404 $
//    5 
//    6   Description:  This module handles anything dealing with the serial port.
//    7 
//    8   Copyright 2007 Texas Instruments Incorporated. All rights reserved.
//    9 
//   10   IMPORTANT: Your use of this Software is limited to those specific rights
//   11   granted under the terms of a software license agreement between the user
//   12   who downloaded the software, his/her employer (which must be your employer)
//   13   and Texas Instruments Incorporated (the "License").  You may not use this
//   14   Software unless you agree to abide by the terms of the License. The License
//   15   limits your use, and you acknowledge, that the Software may not be modified,
//   16   copied or distributed unless embedded on a Texas Instruments microcontroller
//   17   or used solely and exclusively in conjunction with a Texas Instruments radio
//   18   frequency transceiver, which is integrated into your product.  Other than for
//   19   the foregoing purpose, you may not use, reproduce, copy, prepare derivative
//   20   works of, modify, distribute, perform, display or sell this Software and/or
//   21   its documentation for any purpose.
//   22 
//   23   YOU FURTHER ACKNOWLEDGE AND AGREE THAT THE SOFTWARE AND DOCUMENTATION ARE
//   24   PROVIDED “AS IS?WITHOUT WARRANTY OF ANY KIND, EITHER EXPRESS OR IMPLIED,
//   25   INCLUDING WITHOUT LIMITATION, ANY WARRANTY OF MERCHANTABILITY, TITLE,
//   26   NON-INFRINGEMENT AND FITNESS FOR A PARTICULAR PURPOSE. IN NO EVENT SHALL
//   27   TEXAS INSTRUMENTS OR ITS LICENSORS BE LIABLE OR OBLIGATED UNDER CONTRACT,
//   28   NEGLIGENCE, STRICT LIABILITY, CONTRIBUTION, BREACH OF WARRANTY, OR OTHER
//   29   LEGAL EQUITABLE THEORY ANY DIRECT OR INDIRECT DAMAGES OR EXPENSES
//   30   INCLUDING BUT NOT LIMITED TO ANY INCIDENTAL, SPECIAL, INDIRECT, PUNITIVE
//   31   OR CONSEQUENTIAL DAMAGES, LOST PROFITS OR LOST DATA, COST OF PROCUREMENT
//   32   OF SUBSTITUTE GOODS, TECHNOLOGY, SERVICES, OR ANY CLAIMS BY THIRD PARTIES
//   33   (INCLUDING BUT NOT LIMITED TO ANY DEFENSE THEREOF), OR OTHER SIMILAR COSTS.
//   34 
//   35   Should you have any questions regarding your right to use this Software,
//   36   contact Texas Instruments Incorporated at www.TI.com.
//   37 
//   38 ***************************************************************************************************/
//   39 
//   40 /***************************************************************************************************
//   41  * INCLUDES
//   42  ***************************************************************************************************/
//   43 #include "ZComDef.h"
//   44 #include "OSAL.h"
//   45 #include "hal_uart.h"
//   46 #include "MT.h"
//   47 #include "MT_UART.h"
//   48 #include "OSAL_Memory.h"
//   49 
//   50 
//   51 /***************************************************************************************************
//   52  * MACROS
//   53  ***************************************************************************************************/
//   54 
//   55 /***************************************************************************************************
//   56  * CONSTANTS
//   57  ***************************************************************************************************/
//   58 /* State values for ZTool protocal */
//   59 #define SOP_STATE      0x00
//   60 #define CMD_STATE1     0x01
//   61 #define CMD_STATE2     0x02
//   62 #define LEN_STATE      0x03
//   63 #define DATA_STATE     0x04
//   64 #define FCS_STATE      0x05
//   65 
//   66 #define SERIAL_INCOMING_MSG                  0xE1 //BY LIU
//   67 extern int32 gizPutData(uint8 *buf, uint32 len);//BY LIU
//   68 /***************************************************************************************************
//   69  *                                         GLOBAL VARIABLES
//   70  ***************************************************************************************************/
//   71 /* Used to indentify the application ID for osal task */

        RSEG XDATA_Z:XDATA:NOROOT(0)
        DATA8
//   72 byte App_TaskID;
App_TaskID:
        DS 1
        REQUIRE __INIT_XDATA_Z
//   73 
//   74 /* ZTool protocal parameters */

        RSEG XDATA_Z:XDATA:NOROOT(0)
        DATA8
//   75 uint8 state;
state:
        DS 1
        REQUIRE __INIT_XDATA_Z

        RSEG XDATA_Z:XDATA:NOROOT(0)
        DATA16
//   76 uint8  CMD_Token[2];
CMD_Token:
        DS 2
        REQUIRE __INIT_XDATA_Z

        RSEG XDATA_Z:XDATA:NOROOT(0)
        DATA8
//   77 uint8  LEN_Token;
LEN_Token:
        DS 1
        REQUIRE __INIT_XDATA_Z

        RSEG XDATA_Z:XDATA:NOROOT(0)
        DATA8
//   78 uint8  FSC_Token;
FSC_Token:
        DS 1
        REQUIRE __INIT_XDATA_Z

        RSEG XDATA_Z:XDATA:NOROOT(0)
        DATA16
//   79 mtOSALSerialData_t  *pMsg;
pMsg:
        DS 2
        REQUIRE __INIT_XDATA_Z

        RSEG XDATA_Z:XDATA:NOROOT(0)
        DATA8
//   80 uint8  tempDataLen;
tempDataLen:
        DS 1
        REQUIRE __INIT_XDATA_Z
//   81 
//   82 #if defined (ZAPP_P1) || defined (ZAPP_P2)
//   83 uint16  MT_UartMaxZAppBufLen;
//   84 bool    MT_UartZAppRxStatus;
//   85 #endif
//   86 
//   87 
//   88 /***************************************************************************************************
//   89  *                                          LOCAL FUNCTIONS
//   90  ***************************************************************************************************/
//   91 
//   92 /***************************************************************************************************
//   93  * @fn      MT_UartInit
//   94  *
//   95  * @brief   Initialize MT with UART support
//   96  *
//   97  * @param   None
//   98  *
//   99  * @return  None
//  100 ***************************************************************************************************/

        RSEG BANKED_CODE:CODE:NOROOT(0)
//  101 void MT_UartInit ()
MT_UartInit:
        CFI Block cfiBlock0 Using cfiCommon0
        CFI Function MT_UartInit
        CODE
//  102 {
        FUNCALL MT_UartInit, HalUARTOpen
        LOCFRAME ISTACK, 2, STACK
        LOCFRAME PSTACK, 0, STACK
        LOCFRAME XSTACK, 29, STACK
        LOCFRAME IOVERLAY, 0, STATIC
        LOCFRAME DOVERLAY, 0, STATIC
        ARGFRAME ISTACK, 2, STACK
        ARGFRAME PSTACK, 0, STACK
        ARGFRAME XSTACK, 29, STACK
        ARGFRAME IOVERLAY, 0, STATIC
        ARGFRAME DOVERLAY, 0, STATIC
        PUSH    DPL
        CFI DPL0 Frame(CFA_SP, 4)
        CFI CFA_SP SP+-4
        PUSH    DPH
        CFI DPH0 Frame(CFA_SP, 5)
        CFI CFA_SP SP+-5
        ; Saved register size: 2
        ; Auto size: 29
        MOV     A,#-0x1d
        LCALL   ?ALLOC_XSTACK8
        CFI CFA_XSP16 add(XSP16, 29)
//  103   halUARTCfg_t uartConfig;
//  104 
//  105   /* Initialize APP ID */
//  106   App_TaskID = 0;
        MOV     DPTR,#App_TaskID
        CLR     A
        MOVX    @DPTR,A
//  107 
//  108   /* UART Configuration */
//  109   uartConfig.configured           = TRUE;
        MOV     DPL,?XSP + 0
        MOV     DPH,?XSP + 1
        INC     A
        MOVX    @DPTR,A
//  110   uartConfig.baudRate             = MT_UART_DEFAULT_BAUDRATE;
        LCALL   ?XSTACK_DISP0_8
        CLR     A
        MOVX    @DPTR,A
//  111   uartConfig.flowControl          = MT_UART_DEFAULT_OVERFLOW;
        MOV     A,#0x2
        LCALL   ?XSTACK_DISP0_8
        CLR     A
        MOVX    @DPTR,A
//  112   uartConfig.flowControlThreshold = MT_UART_DEFAULT_THRESHOLD;
        MOV     A,#0x3
        LCALL   ?XSTACK_DISP0_8
        MOV     A,#0x40
        MOVX    @DPTR,A
        INC     DPTR
        CLR     A
        MOVX    @DPTR,A
//  113   uartConfig.rx.maxBufSize        = MT_UART_DEFAULT_MAX_RX_BUFF;
        MOV     A,#0xa
        LCALL   ?XSTACK_DISP0_8
        MOV     A,#-0x80
        MOVX    @DPTR,A
        INC     DPTR
        CLR     A
        MOVX    @DPTR,A
//  114   uartConfig.tx.maxBufSize        = MT_UART_DEFAULT_MAX_TX_BUFF;
        MOV     A,#0x12
        LCALL   ?XSTACK_DISP0_8
        MOV     A,#-0x80
        MOVX    @DPTR,A
        INC     DPTR
        CLR     A
        MOVX    @DPTR,A
//  115   uartConfig.idleTimeout          = MT_UART_DEFAULT_IDLE_TIMEOUT;
        MOV     A,#0x5
        LCALL   ?XSTACK_DISP0_8
        MOV     A,#0x6
        MOVX    @DPTR,A
//  116   uartConfig.intEnable            = TRUE;
        MOV     A,#0x16
        LCALL   ?XSTACK_DISP0_8
        MOV     A,#0x1
        MOVX    @DPTR,A
//  117 #if defined (ZTOOL_P1) || defined (ZTOOL_P2)
//  118   uartConfig.callBackFunc         = MT_UartProcessZToolData;
        MOV     A,#0x1b
        LCALL   ?XSTACK_DISP0_8
        MOV     A,#??MT_UartProcessZToolData?relay & 0xff
        MOVX    @DPTR,A
        INC     DPTR
        MOV     A,#(??MT_UartProcessZToolData?relay >> 8) & 0xff
        MOVX    @DPTR,A
//  119 //  uartConfig.callBackFunc         = zigLight_uartProcess;//MT_UartProcessZToolData; //by liu
//  120 #elif defined (ZAPP_P1) || defined (ZAPP_P2)
//  121   uartConfig.callBackFunc         = MT_UartProcessZAppData;
//  122 #else
//  123   uartConfig.callBackFunc         = NULL;
//  124 #endif
//  125 
//  126   /* Start UART */
//  127 #if defined (MT_UART_DEFAULT_PORT)
//  128   HalUARTOpen (MT_UART_DEFAULT_PORT, &uartConfig);
        ; Setup parameters for call to function HalUARTOpen
        MOV     DPL,?XSP + 0
        MOV     DPH,?XSP + 1
        MOV     R2,DPL
        MOV     R3,DPH
        MOV     R1,#0x0
        LCALL   ??HalUARTOpen?relay
//  129 #else
//  130   /* Silence IAR compiler warning */
//  131   (void)uartConfig;
//  132 #endif
//  133 
//  134   /* Initialize for ZApp */
//  135 #if defined (ZAPP_P1) || defined (ZAPP_P2)
//  136   /* Default max bytes that ZAPP can take */
//  137   MT_UartMaxZAppBufLen  = 1;
//  138   MT_UartZAppRxStatus   = MT_UART_ZAPP_RX_READY;
//  139 #endif
//  140 
//  141 }
        MOV     A,#0x1d
        LCALL   ?DEALLOC_XSTACK8
        CFI EndBlock cfiBlock0
        REQUIRE ?Subroutine0
        ; // Fall through to label ?Subroutine0

        RSEG BANKED_CODE:CODE:NOROOT(0)
?Subroutine0:
        CFI Block cfiBlock1 Using cfiCommon0
        CFI NoFunction
        CFI CFA_SP SP+-5
        CFI DPL0 Frame(CFA_SP, 4)
        CFI DPH0 Frame(CFA_SP, 5)
        POP     DPH
        CFI CFA_SP SP+-4
        CFI DPH0 SameValue
        POP     DPL
        CFI CFA_SP SP+-3
        CFI DPL0 SameValue
        LJMP    ?BRET
        CFI EndBlock cfiBlock1
//  142 
//  143 /***************************************************************************************************
//  144  * @fn      MT_SerialRegisterTaskID
//  145  *
//  146  * @brief   This function registers the taskID of the application so it knows
//  147  *          where to send the messages whent they come in.
//  148  *
//  149  * @param   void
//  150  *
//  151  * @return  void
//  152  ***************************************************************************************************/

        RSEG BANKED_CODE:CODE:NOROOT(0)
//  153 void MT_UartRegisterTaskID( byte taskID )
MT_UartRegisterTaskID:
        CFI Block cfiBlock2 Using cfiCommon0
        CFI Function MT_UartRegisterTaskID
        CODE
//  154 {
        PUSH    DPL
        CFI DPL0 Frame(CFA_SP, 4)
        CFI CFA_SP SP+-4
        PUSH    DPH
        CFI DPH0 Frame(CFA_SP, 5)
        CFI CFA_SP SP+-5
        ; Saved register size: 2
        ; Auto size: 0
//  155   App_TaskID = taskID;
        MOV     A,R1
        MOV     DPTR,#App_TaskID
        MOVX    @DPTR,A
//  156 }
        SJMP    ?Subroutine0
        CFI EndBlock cfiBlock2
//  157 
//  158 /***************************************************************************************************
//  159  * @fn      SPIMgr_CalcFCS
//  160  *
//  161  * @brief   Calculate the FCS of a message buffer by XOR'ing each byte.
//  162  *          Remember to NOT include SOP and FCS fields, so start at the CMD field.
//  163  *
//  164  * @param   byte *msg_ptr - message pointer
//  165  * @param   byte len - length (in bytes) of message
//  166  *
//  167  * @return  result byte
//  168  ***************************************************************************************************/

        RSEG BANKED_CODE:CODE:NOROOT(0)
//  169 byte MT_UartCalcFCS( uint8 *msg_ptr, uint8 len )
MT_UartCalcFCS:
        CFI Block cfiBlock3 Using cfiCommon0
        CFI Function MT_UartCalcFCS
        CODE
//  170 {
        PUSH    DPL
        CFI DPL0 Frame(CFA_SP, 4)
        CFI CFA_SP SP+-4
        PUSH    DPH
        CFI DPH0 Frame(CFA_SP, 5)
        CFI CFA_SP SP+-5
        ; Saved register size: 2
        ; Auto size: 0
        MOV     A,R1
        MOV     R4,A
//  171   byte x;
//  172   byte xorResult;
//  173 
//  174   xorResult = 0;
        MOV     R1,#0x0
//  175 
//  176   for ( x = 0; x < len; x++, msg_ptr++ )
        MOV     R0,#0x0
        SJMP    ??MT_UartCalcFCS_0
//  177     xorResult = xorResult ^ *msg_ptr;
??MT_UartCalcFCS_1:
        MOV     DPL,R2
        MOV     DPH,R3
        MOVX    A,@DPTR
        XCH     A,R1
        XRL     A,R1
        MOV     R1,A
        INC     R0
        INC     DPTR
        MOV     R2,DPL
        MOV     R3,DPH
??MT_UartCalcFCS_0:
        MOV     A,R0
        CLR     C
        SUBB    A,R4
        JC      ??MT_UartCalcFCS_1
//  178 
//  179   return ( xorResult );
        SJMP    ?Subroutine0
        CFI EndBlock cfiBlock3
//  180 }
//  181 
//  182 /***********************************************
//  183 *
//  184 *******************************************************/

        RSEG BANKED_CODE:CODE:NOROOT(0)
//  185 void zigLight_uartProcess ( uint8 port, uint8 event )
zigLight_uartProcess:
        CFI Block cfiBlock4 Using cfiCommon0
        CFI Function zigLight_uartProcess
        CODE
//  186 {
        FUNCALL zigLight_uartProcess, Hal_UART_RxBufLen
        LOCFRAME ISTACK, 0, STACK
        LOCFRAME PSTACK, 0, STACK
        LOCFRAME XSTACK, 22, STACK
        LOCFRAME IOVERLAY, 0, STATIC
        LOCFRAME DOVERLAY, 0, STATIC
        ARGFRAME ISTACK, 0, STACK
        ARGFRAME PSTACK, 0, STACK
        ARGFRAME XSTACK, 22, STACK
        ARGFRAME IOVERLAY, 0, STATIC
        ARGFRAME DOVERLAY, 0, STATIC
        FUNCALL zigLight_uartProcess, HalUARTRead
        LOCFRAME ISTACK, 0, STACK
        LOCFRAME PSTACK, 0, STACK
        LOCFRAME XSTACK, 22, STACK
        LOCFRAME IOVERLAY, 0, STATIC
        LOCFRAME DOVERLAY, 0, STATIC
        ARGFRAME ISTACK, 0, STACK
        ARGFRAME PSTACK, 0, STACK
        ARGFRAME XSTACK, 22, STACK
        ARGFRAME IOVERLAY, 0, STATIC
        ARGFRAME DOVERLAY, 0, STATIC
        FUNCALL zigLight_uartProcess, gizPutData
        LOCFRAME ISTACK, 0, STACK
        LOCFRAME PSTACK, 0, STACK
        LOCFRAME XSTACK, 26, STACK
        LOCFRAME IOVERLAY, 0, STATIC
        LOCFRAME DOVERLAY, 0, STATIC
        ARGFRAME ISTACK, 0, STACK
        ARGFRAME PSTACK, 0, STACK
        ARGFRAME XSTACK, 26, STACK
        ARGFRAME IOVERLAY, 0, STATIC
        ARGFRAME DOVERLAY, 0, STATIC
        FUNCALL zigLight_uartProcess, HalUARTRead
        LOCFRAME ISTACK, 0, STACK
        LOCFRAME PSTACK, 0, STACK
        LOCFRAME XSTACK, 22, STACK
        LOCFRAME IOVERLAY, 0, STATIC
        LOCFRAME DOVERLAY, 0, STATIC
        ARGFRAME ISTACK, 0, STACK
        ARGFRAME PSTACK, 0, STACK
        ARGFRAME XSTACK, 22, STACK
        ARGFRAME IOVERLAY, 0, STATIC
        ARGFRAME DOVERLAY, 0, STATIC
        FUNCALL zigLight_uartProcess, gizPutData
        LOCFRAME ISTACK, 0, STACK
        LOCFRAME PSTACK, 0, STACK
        LOCFRAME XSTACK, 26, STACK
        LOCFRAME IOVERLAY, 0, STATIC
        LOCFRAME DOVERLAY, 0, STATIC
        ARGFRAME ISTACK, 0, STACK
        ARGFRAME PSTACK, 0, STACK
        ARGFRAME XSTACK, 26, STACK
        ARGFRAME IOVERLAY, 0, STATIC
        ARGFRAME DOVERLAY, 0, STATIC
        MOV     A,#-0xc
        LCALL   ?BANKED_ENTER_XDATA
        CFI DPH0 load(1, XDATA, add(CFA_XSP16, literal(-1)))
        CFI DPL0 load(1, XDATA, add(CFA_XSP16, literal(-2)))
        CFI ?BRET_EXT load(1, XDATA, add(CFA_XSP16, literal(-3)))
        CFI ?RET_HIGH load(1, XDATA, add(CFA_XSP16, literal(-4)))
        CFI ?RET_LOW load(1, XDATA, add(CFA_XSP16, literal(-5)))
        CFI R7 load(1, XDATA, add(CFA_XSP16, literal(-6)))
        CFI V3 load(1, XDATA, add(CFA_XSP16, literal(-7)))
        CFI V2 load(1, XDATA, add(CFA_XSP16, literal(-8)))
        CFI V1 load(1, XDATA, add(CFA_XSP16, literal(-9)))
        CFI V0 load(1, XDATA, add(CFA_XSP16, literal(-10)))
        CFI VB load(1, XDATA, add(CFA_XSP16, literal(-11)))
        CFI R6 load(1, XDATA, add(CFA_XSP16, literal(-12)))
        CFI CFA_SP SP+0
        CFI CFA_XSP16 add(XSP16, 12)
        ; Saved register size: 12
        ; Auto size: 10
        MOV     A,#-0xa
        LCALL   ?ALLOC_XSTACK8
        CFI CFA_XSP16 add(XSP16, 22)
        MOV     A,R1
        MOV     R6,A
//  187 #define TPBUF_LEN 10
//  188   uint8  bytesInRxBuffer;
//  189   uint8  tpbuf[TPBUF_LEN];
//  190   (void)event;  // Intentionally unreferenced parameter
//  191   bytesInRxBuffer = Hal_UART_RxBufLen(port);
        ; Setup parameters for call to function Hal_UART_RxBufLen
        LCALL   ??Hal_UART_RxBufLen?relay
        MOV     A,R2
        SJMP    ??zigLight_uartProcess_0
//  192   while (bytesInRxBuffer)
//  193   {
//  194     if(bytesInRxBuffer>TPBUF_LEN){
//  195       HalUARTRead (port, tpbuf, TPBUF_LEN);
??zigLight_uartProcess_1:
        ; Setup parameters for call to function HalUARTRead
        MOV     R4,#0xa
        MOV     R5,#0x0
        MOV     DPL,?XSP + 0
        MOV     DPH,?XSP + 1
        MOV     R2,DPL
        MOV     R3,DPH
        MOV     A,R6
        MOV     R1,A
        LCALL   ??HalUARTRead?relay
//  196       gizPutData(tpbuf,TPBUF_LEN);
        ; Setup parameters for call to function gizPutData
        MOV     DPTR,#__Constant_a
        LCALL   ?PUSH_XSTACK8_X_FOUR
        CFI CFA_XSP16 add(XSP16, 26)
        MOV     A,#0x4
        LCALL   ?XSTACK_DISP0_8
        LCALL   ?Subroutine6 & 0xFFFF
??CrossCallReturnLabel_8:
        LCALL   ?DEALLOC_XSTACK8
        CFI CFA_XSP16 add(XSP16, 22)
//  197       bytesInRxBuffer -= TPBUF_LEN;
        MOV     A,#-0xa
        ADD     A,R7
??zigLight_uartProcess_0:
        MOV     R7,A
//  198     }
        MOV     A,R7
        JZ      ??zigLight_uartProcess_2
        CLR     C
        SUBB    A,#0xb
        JNC     ??zigLight_uartProcess_1
//  199     else{
//  200       HalUARTRead (port, tpbuf, bytesInRxBuffer);
        ; Setup parameters for call to function HalUARTRead
        MOV     ?V0 + 0,R7
        MOV     R4,?V0 + 0
        MOV     R5,#0x0
        MOV     DPL,?XSP + 0
        MOV     DPH,?XSP + 1
        MOV     R2,DPL
        MOV     R3,DPH
        MOV     A,R6
        MOV     R1,A
        LCALL   ??HalUARTRead?relay
//  201       gizPutData(tpbuf,bytesInRxBuffer);
        ; Setup parameters for call to function gizPutData
        CLR     A
        MOV     ?V0 + 1,A
        MOV     ?V0 + 2,A
        MOV     ?V0 + 3,A
        MOV     R0,#?V0 + 0
        LCALL   ?PUSH_XSTACK_I_FOUR
        CFI CFA_XSP16 add(XSP16, 26)
        MOV     A,#0x4
        LCALL   ?XSTACK_DISP0_8
        LCALL   ?Subroutine6 & 0xFFFF
??CrossCallReturnLabel_9:
        LCALL   ?DEALLOC_XSTACK8
        CFI CFA_XSP16 add(XSP16, 22)
//  202       bytesInRxBuffer = 0;
//  203     }
//  204   }
//  205 }
??zigLight_uartProcess_2:
        MOV     A,#0xa
        CFI EndBlock cfiBlock4
        REQUIRE ?Subroutine1
        ; // Fall through to label ?Subroutine1

        RSEG BANKED_CODE:CODE:NOROOT(0)
?Subroutine1:
        CFI Block cfiBlock5 Using cfiCommon0
        CFI NoFunction
        CFI CFA_SP SP+0
        CFI CFA_XSP16 add(XSP16, 22)
        CFI VB load(1, XDATA, add(CFA_XSP16, literal(-11)))
        CFI DPL0 load(1, XDATA, add(CFA_XSP16, literal(-2)))
        CFI DPH0 load(1, XDATA, add(CFA_XSP16, literal(-1)))
        CFI R6 load(1, XDATA, add(CFA_XSP16, literal(-12)))
        CFI R7 load(1, XDATA, add(CFA_XSP16, literal(-6)))
        CFI V0 load(1, XDATA, add(CFA_XSP16, literal(-10)))
        CFI V1 load(1, XDATA, add(CFA_XSP16, literal(-9)))
        CFI V2 load(1, XDATA, add(CFA_XSP16, literal(-8)))
        CFI V3 load(1, XDATA, add(CFA_XSP16, literal(-7)))
        CFI ?BRET_EXT load(1, XDATA, add(CFA_XSP16, literal(-3)))
        CFI ?RET_HIGH load(1, XDATA, add(CFA_XSP16, literal(-4)))
        CFI ?RET_LOW load(1, XDATA, add(CFA_XSP16, literal(-5)))
        CFI Invalid
        LCALL   ?DEALLOC_XSTACK8
        CFI CFA_XSP16 add(XSP16, 12)
        CFI Valid
        MOV     R7,#0x4
        LJMP    ?BANKED_LEAVE_XDATA
        CFI EndBlock cfiBlock5
//  206 /***************************************************************************************************
//  207  * @fn      MT_UartProcessZToolData
//  208  *
//  209  * @brief   | SOP | Data Length  |   CMD   |   Data   |  FCS  |
//  210  *          |  1  |     1        |    2    |  0-Len   |   1   |
//  211  *
//  212  *          Parses the data and determine either is SPI or just simply serial data
//  213  *          then send the data to correct place (MT or APP)
//  214  *
//  215  * @param   port     - UART port
//  216  *          event    - Event that causes the callback
//  217  *
//  218  *
//  219  * @return  None
//  220  ***************************************************************************************************/

        RSEG BANKED_CODE:CODE:NOROOT(0)
//  221 void MT_UartProcessZToolData ( uint8 port, uint8 event )
MT_UartProcessZToolData:
        CFI Block cfiBlock6 Using cfiCommon0
        CFI Function MT_UartProcessZToolData
        CODE
//  222 {
        FUNCALL MT_UartProcessZToolData, Hal_UART_RxBufLen
        LOCFRAME ISTACK, 0, STACK
        LOCFRAME PSTACK, 0, STACK
        LOCFRAME XSTACK, 13, STACK
        LOCFRAME IOVERLAY, 0, STATIC
        LOCFRAME DOVERLAY, 0, STATIC
        ARGFRAME ISTACK, 0, STACK
        ARGFRAME PSTACK, 0, STACK
        ARGFRAME XSTACK, 13, STACK
        ARGFRAME IOVERLAY, 0, STATIC
        ARGFRAME DOVERLAY, 0, STATIC
        FUNCALL MT_UartProcessZToolData, HalUARTRead
        LOCFRAME ISTACK, 0, STACK
        LOCFRAME PSTACK, 0, STACK
        LOCFRAME XSTACK, 13, STACK
        LOCFRAME IOVERLAY, 0, STATIC
        LOCFRAME DOVERLAY, 0, STATIC
        ARGFRAME ISTACK, 0, STACK
        ARGFRAME PSTACK, 0, STACK
        ARGFRAME XSTACK, 13, STACK
        ARGFRAME IOVERLAY, 0, STATIC
        ARGFRAME DOVERLAY, 0, STATIC
        FUNCALL MT_UartProcessZToolData, gizPutData
        LOCFRAME ISTACK, 0, STACK
        LOCFRAME PSTACK, 0, STACK
        LOCFRAME XSTACK, 17, STACK
        LOCFRAME IOVERLAY, 0, STATIC
        LOCFRAME DOVERLAY, 0, STATIC
        ARGFRAME ISTACK, 0, STACK
        ARGFRAME PSTACK, 0, STACK
        ARGFRAME XSTACK, 17, STACK
        ARGFRAME IOVERLAY, 0, STATIC
        ARGFRAME DOVERLAY, 0, STATIC
        FUNCALL MT_UartProcessZToolData, osal_msg_allocate
        LOCFRAME ISTACK, 0, STACK
        LOCFRAME PSTACK, 0, STACK
        LOCFRAME XSTACK, 13, STACK
        LOCFRAME IOVERLAY, 0, STATIC
        LOCFRAME DOVERLAY, 0, STATIC
        ARGFRAME ISTACK, 0, STACK
        ARGFRAME PSTACK, 0, STACK
        ARGFRAME XSTACK, 13, STACK
        ARGFRAME IOVERLAY, 0, STATIC
        ARGFRAME DOVERLAY, 0, STATIC
        FUNCALL MT_UartProcessZToolData, Hal_UART_RxBufLen
        LOCFRAME ISTACK, 0, STACK
        LOCFRAME PSTACK, 0, STACK
        LOCFRAME XSTACK, 13, STACK
        LOCFRAME IOVERLAY, 0, STATIC
        LOCFRAME DOVERLAY, 0, STATIC
        ARGFRAME ISTACK, 0, STACK
        ARGFRAME PSTACK, 0, STACK
        ARGFRAME XSTACK, 13, STACK
        ARGFRAME IOVERLAY, 0, STATIC
        ARGFRAME DOVERLAY, 0, STATIC
        FUNCALL MT_UartProcessZToolData, HalUARTRead
        LOCFRAME ISTACK, 0, STACK
        LOCFRAME PSTACK, 0, STACK
        LOCFRAME XSTACK, 13, STACK
        LOCFRAME IOVERLAY, 0, STATIC
        LOCFRAME DOVERLAY, 0, STATIC
        ARGFRAME ISTACK, 0, STACK
        ARGFRAME PSTACK, 0, STACK
        ARGFRAME XSTACK, 13, STACK
        ARGFRAME IOVERLAY, 0, STATIC
        ARGFRAME DOVERLAY, 0, STATIC
        FUNCALL MT_UartProcessZToolData, gizPutData
        LOCFRAME ISTACK, 0, STACK
        LOCFRAME PSTACK, 0, STACK
        LOCFRAME XSTACK, 17, STACK
        LOCFRAME IOVERLAY, 0, STATIC
        LOCFRAME DOVERLAY, 0, STATIC
        ARGFRAME ISTACK, 0, STACK
        ARGFRAME PSTACK, 0, STACK
        ARGFRAME XSTACK, 17, STACK
        ARGFRAME IOVERLAY, 0, STATIC
        ARGFRAME DOVERLAY, 0, STATIC
        FUNCALL MT_UartProcessZToolData, HalUARTRead
        LOCFRAME ISTACK, 0, STACK
        LOCFRAME PSTACK, 0, STACK
        LOCFRAME XSTACK, 13, STACK
        LOCFRAME IOVERLAY, 0, STATIC
        LOCFRAME DOVERLAY, 0, STATIC
        ARGFRAME ISTACK, 0, STACK
        ARGFRAME PSTACK, 0, STACK
        ARGFRAME XSTACK, 13, STACK
        ARGFRAME IOVERLAY, 0, STATIC
        ARGFRAME DOVERLAY, 0, STATIC
        FUNCALL MT_UartProcessZToolData, gizPutData
        LOCFRAME ISTACK, 0, STACK
        LOCFRAME PSTACK, 0, STACK
        LOCFRAME XSTACK, 17, STACK
        LOCFRAME IOVERLAY, 0, STATIC
        LOCFRAME DOVERLAY, 0, STATIC
        ARGFRAME ISTACK, 0, STACK
        ARGFRAME PSTACK, 0, STACK
        ARGFRAME XSTACK, 17, STACK
        ARGFRAME IOVERLAY, 0, STATIC
        ARGFRAME DOVERLAY, 0, STATIC
        FUNCALL MT_UartProcessZToolData, osal_msg_send
        LOCFRAME ISTACK, 0, STACK
        LOCFRAME PSTACK, 0, STACK
        LOCFRAME XSTACK, 13, STACK
        LOCFRAME IOVERLAY, 0, STATIC
        LOCFRAME DOVERLAY, 0, STATIC
        ARGFRAME ISTACK, 0, STACK
        ARGFRAME PSTACK, 0, STACK
        ARGFRAME XSTACK, 13, STACK
        ARGFRAME IOVERLAY, 0, STATIC
        ARGFRAME DOVERLAY, 0, STATIC
        MOV     A,#-0xc
        LCALL   ?BANKED_ENTER_XDATA
        CFI DPH0 load(1, XDATA, add(CFA_XSP16, literal(-1)))
        CFI DPL0 load(1, XDATA, add(CFA_XSP16, literal(-2)))
        CFI ?BRET_EXT load(1, XDATA, add(CFA_XSP16, literal(-3)))
        CFI ?RET_HIGH load(1, XDATA, add(CFA_XSP16, literal(-4)))
        CFI ?RET_LOW load(1, XDATA, add(CFA_XSP16, literal(-5)))
        CFI R7 load(1, XDATA, add(CFA_XSP16, literal(-6)))
        CFI V3 load(1, XDATA, add(CFA_XSP16, literal(-7)))
        CFI V2 load(1, XDATA, add(CFA_XSP16, literal(-8)))
        CFI V1 load(1, XDATA, add(CFA_XSP16, literal(-9)))
        CFI V0 load(1, XDATA, add(CFA_XSP16, literal(-10)))
        CFI VB load(1, XDATA, add(CFA_XSP16, literal(-11)))
        CFI R6 load(1, XDATA, add(CFA_XSP16, literal(-12)))
        CFI CFA_SP SP+0
        CFI CFA_XSP16 add(XSP16, 12)
        ; Saved register size: 12
        ; Auto size: 1
        MOV     A,#-0x1
        LCALL   ?ALLOC_XSTACK8
        CFI CFA_XSP16 add(XSP16, 13)
        MOV     A,R1
        MOV     R6,A
//  223   uint8  ch;
//  224   uint8  bytesInRxBuffer;
//  225   
//  226   (void)event;  // Intentionally unreferenced parameter
        SJMP    ??MT_UartProcessZToolData_0
//  227 
//  228   while (Hal_UART_RxBufLen(port))
//  229   {
//  230     HalUARTRead (port, &ch, 1);
//  231     gizPutData(&ch,1);
//  232     switch (state)
//  233     {
//  234       case SOP_STATE:
//  235         if (ch == MT_UART_SOF)
//  236           state = LEN_STATE;
//  237         break;
//  238 
//  239       case LEN_STATE:
//  240         LEN_Token = ch;
//  241 
//  242         tempDataLen = 0;
//  243 
//  244         /* Allocate memory for the data */
//  245         pMsg = (mtOSALSerialData_t *)osal_msg_allocate( sizeof ( mtOSALSerialData_t ) +
//  246                                                         MT_RPC_FRAME_HDR_SZ + LEN_Token );
//  247 
//  248         if (pMsg)
//  249         {
//  250           /* Fill up what we can */
//  251           pMsg->hdr.event = SERIAL_INCOMING_MSG;
??MT_UartProcessZToolData_1:
        LCALL   ??Subroutine11_0 & 0xFFFF
??CrossCallReturnLabel_19:
        MOV     A,#-0x1f
        MOVX    @DPTR,A
//  252           pMsg->msg = (uint8*)(pMsg+1);
        MOV     DPTR,#pMsg
        MOVX    A,@DPTR
        ADD     A,#0x4
        MOV     R0,A
        INC     DPTR
        MOVX    A,@DPTR
        ADDC    A,#0x0
        MOV     R1,A
        LCALL   ?Subroutine9 & 0xFFFF
??CrossCallReturnLabel_17:
        MOV     A,R0
        MOVX    @DPTR,A
        INC     DPTR
        MOV     A,R1
        MOVX    @DPTR,A
//  253           pMsg->msg[MT_RPC_POS_LEN] = LEN_Token;
        MOV     DPTR,#LEN_Token
        MOVX    A,@DPTR
        PUSH    A
        CFI CFA_SP SP+-1
        LCALL   ?Subroutine5 & 0xFFFF
??CrossCallReturnLabel_6:
        LCALL   ?Subroutine10 & 0xFFFF
??CrossCallReturnLabel_20:
        POP     A
        CFI CFA_SP SP+0
        MOVX    @DPTR,A
//  254           state = CMD_STATE1;
        MOV     DPTR,#state
        MOV     A,#0x1
??MT_UartProcessZToolData_2:
        MOVX    @DPTR,A
//  255         }
//  256         else
//  257         {
//  258           state = SOP_STATE;
//  259           return;
//  260         }
//  261         break;
??MT_UartProcessZToolData_0:
        ; Setup parameters for call to function Hal_UART_RxBufLen
        MOV     A,R6
        MOV     R1,A
        LCALL   ??Hal_UART_RxBufLen?relay
        MOV     ?V0 + 1,R3
        MOV     A,R2
        ORL     A,?V0 + 1
        JNZ     $+5
        LJMP    ??MT_UartProcessZToolData_3 & 0xFFFF
        ; Setup parameters for call to function HalUARTRead
        MOV     R4,#0x1
        MOV     R5,#0x0
        MOV     DPL,?XSP + 0
        MOV     DPH,?XSP + 1
        MOV     R2,DPL
        MOV     R3,DPH
        MOV     A,R6
        MOV     R1,A
        LCALL   ??HalUARTRead?relay
        ; Setup parameters for call to function gizPutData
        MOV     DPTR,#__Constant_1
        LCALL   ?PUSH_XSTACK8_X_FOUR
        CFI CFA_XSP16 add(XSP16, 17)
        MOV     A,#0x4
        LCALL   ?XSTACK_DISP0_8
        LCALL   ?Subroutine6 & 0xFFFF
??CrossCallReturnLabel_10:
        LCALL   ?DEALLOC_XSTACK8
        CFI CFA_XSP16 add(XSP16, 13)
        MOV     DPTR,#state
        MOVX    A,@DPTR
        JZ      ??MT_UartProcessZToolData_4
        DEC     A
        JZ      ??MT_UartProcessZToolData_5
        DEC     A
        JZ      ??MT_UartProcessZToolData_6
        DEC     A
        JZ      ??MT_UartProcessZToolData_7
        DEC     A
        JNZ     $+5
        LJMP    ??MT_UartProcessZToolData_8 & 0xFFFF
        DEC     A
        JNZ     $+5
        LJMP    ??MT_UartProcessZToolData_9 & 0xFFFF
        SJMP    ??MT_UartProcessZToolData_0
??MT_UartProcessZToolData_4:
        MOV     DPL,?XSP + 0
        MOV     DPH,?XSP + 1
        MOVX    A,@DPTR
        XRL     A,#0xfe
        JNZ     ??MT_UartProcessZToolData_0
        MOV     DPTR,#state
        MOV     A,#0x3
        SJMP    ??MT_UartProcessZToolData_2
??MT_UartProcessZToolData_7:
        MOV     DPL,?XSP + 0
        MOV     DPH,?XSP + 1
        MOVX    A,@DPTR
        MOV     DPTR,#LEN_Token
        MOVX    @DPTR,A
        MOV     DPTR,#tempDataLen
        CLR     A
        MOVX    @DPTR,A
        ; Setup parameters for call to function osal_msg_allocate
        MOV     DPTR,#LEN_Token
        MOVX    A,@DPTR
        ADD     A,#0x7
        MOV     R2,A
        CLR     A
        ADDC    A,#0x0
        MOV     R3,A
        LCALL   ??osal_msg_allocate?relay
        MOV     DPTR,#pMsg
        MOV     A,R2
        MOVX    @DPTR,A
        INC     DPTR
        MOV     A,R3
        MOVX    @DPTR,A
        MOV     DPTR,#pMsg
        MOVX    A,@DPTR
        MOV     R0,A
        INC     DPTR
        MOVX    A,@DPTR
        MOV     R1,A
        MOV     A,R0
        ORL     A,R1
        JZ      $+5
        LJMP    ??MT_UartProcessZToolData_1 & 0xFFFF
        MOV     DPTR,#state
        CLR     A
        MOVX    @DPTR,A
??MT_UartProcessZToolData_3:
        MOV     A,#0x1
        LJMP    ?Subroutine1 & 0xFFFF
//  262 
//  263       case CMD_STATE1:
//  264         pMsg->msg[MT_RPC_POS_CMD0] = ch;
??MT_UartProcessZToolData_5:
        MOV     DPL,?XSP + 0
        MOV     DPH,?XSP + 1
        MOVX    A,@DPTR
        PUSH    A
        CFI CFA_SP SP+-1
        LCALL   ?Subroutine4 & 0xFFFF
??CrossCallReturnLabel_4:
        POP     A
        CFI CFA_SP SP+0
        MOVX    @DPTR,A
//  265         state = CMD_STATE2;
        MOV     DPTR,#state
        MOV     A,#0x2
        LJMP    ??MT_UartProcessZToolData_2 & 0xFFFF
//  266         break;
//  267 
//  268       case CMD_STATE2:
//  269         pMsg->msg[MT_RPC_POS_CMD1] = ch;
??MT_UartProcessZToolData_6:
        MOV     DPL,?XSP + 0
        MOV     DPH,?XSP + 1
        MOVX    A,@DPTR
        PUSH    A
        CFI CFA_SP SP+-1
        LCALL   ?Subroutine4 & 0xFFFF
??CrossCallReturnLabel_5:
        INC     DPTR
        POP     A
        CFI CFA_SP SP+0
        MOVX    @DPTR,A
//  270         /* If there is no data, skip to FCS state */
//  271         if (LEN_Token)
        MOV     DPTR,#LEN_Token
        MOVX    A,@DPTR
        JNZ     $+5
        LJMP    ??MT_UartProcessZToolData_10 & 0xFFFF
//  272         {
//  273           state = DATA_STATE;
        MOV     DPTR,#state
        MOV     A,#0x4
        LJMP    ??MT_UartProcessZToolData_2 & 0xFFFF
//  274         }
//  275         else
//  276         {
//  277           state = FCS_STATE;
//  278         }
//  279         break;
//  280 
//  281       case DATA_STATE:
//  282 
//  283         /* Fill in the buffer the first byte of the data */
//  284         pMsg->msg[MT_RPC_FRAME_HDR_SZ + tempDataLen++] = ch;
??MT_UartProcessZToolData_8:
        MOV     DPL,?XSP + 0
        MOV     DPH,?XSP + 1
        MOVX    A,@DPTR
        PUSH    A
        CFI CFA_SP SP+-1
        LCALL   ?Subroutine3 & 0xFFFF
??CrossCallReturnLabel_2:
        POP     A
        CFI CFA_SP SP+0
        MOVX    @DPTR,A
        MOV     DPTR,#tempDataLen
        MOVX    A,@DPTR
        INC     A
        MOVX    @DPTR,A
//  285 
//  286         /* Check number of bytes left in the Rx buffer */
//  287         bytesInRxBuffer = Hal_UART_RxBufLen(port);
        ; Setup parameters for call to function Hal_UART_RxBufLen
        MOV     A,R6
        MOV     R1,A
        LCALL   ??Hal_UART_RxBufLen?relay
        MOV     A,R2
        MOV     R7,A
//  288 
//  289         /* If the remain of the data is there, read them all, otherwise, just read enough */
//  290         if (bytesInRxBuffer <= LEN_Token - tempDataLen)
        MOV     DPTR,#LEN_Token
        MOVX    A,@DPTR
        MOV     R0,A
        MOV     DPTR,#tempDataLen
        MOVX    A,@DPTR
        MOV     R2,A
        MOV     A,R0
        CLR     C
        SUBB    A,R2
        MOV     R0,A
        SUBB    A,0xE0 /* A   */
        MOV     R1,A
        MOV     ?V0 + 0,R7
        CLR     C
        MOV     A,R0
        SUBB    A,?V0 + 0
        MOV     A,R1
        SUBB    A,#0x0
        MOV     C,0xD0 /* PSW */.2
        XRL     A,PSW
        RLC     A
        JC      ??MT_UartProcessZToolData_11
//  291         {
//  292           HalUARTRead (port, &pMsg->msg[MT_RPC_FRAME_HDR_SZ + tempDataLen], bytesInRxBuffer);
        ; Setup parameters for call to function HalUARTRead
        MOV     R4,?V0 + 0
        MOV     R5,#0x0
        MOVX    A,@DPTR
        MOV     R0,A
        LCALL   ?Subroutine2 & 0xFFFF
//  293           gizPutData(&pMsg->msg[MT_RPC_FRAME_HDR_SZ + tempDataLen],bytesInRxBuffer);
??CrossCallReturnLabel_0:
        ; Setup parameters for call to function gizPutData
        CLR     A
        MOV     ?V0 + 1,A
        MOV     ?V0 + 2,A
        MOV     ?V0 + 3,A
        MOV     R0,#?V0 + 0
        LCALL   ?PUSH_XSTACK_I_FOUR
        CFI CFA_XSP16 add(XSP16, 17)
        LCALL   ?Subroutine3 & 0xFFFF
??CrossCallReturnLabel_3:
        LCALL   ?Subroutine6 & 0xFFFF
??CrossCallReturnLabel_11:
        LCALL   ?DEALLOC_XSTACK8
        CFI CFA_XSP16 add(XSP16, 13)
//  294           tempDataLen += bytesInRxBuffer;
        MOV     DPTR,#tempDataLen
        MOVX    A,@DPTR
        ADD     A,R7
        SJMP    ??MT_UartProcessZToolData_12
//  295         }
//  296         else
//  297         {
//  298           HalUARTRead (port, &pMsg->msg[MT_RPC_FRAME_HDR_SZ + tempDataLen], LEN_Token - tempDataLen);
??MT_UartProcessZToolData_11:
        MOVX    A,@DPTR
        MOV     R0,A
        ; Setup parameters for call to function HalUARTRead
        MOV     DPTR,#LEN_Token
        MOVX    A,@DPTR
        CLR     C
        SUBB    A,R0
        MOV     R4,A
        SUBB    A,0xE0 /* A   */
        MOV     R5,A
        LCALL   ?Subroutine2 & 0xFFFF
//  299           gizPutData(&pMsg->msg[MT_RPC_FRAME_HDR_SZ + tempDataLen],LEN_Token - tempDataLen);
??CrossCallReturnLabel_1:
        MOV     DPTR,#tempDataLen
        MOVX    A,@DPTR
        MOV     R2,A
        ; Setup parameters for call to function gizPutData
        MOV     DPTR,#LEN_Token
        MOVX    A,@DPTR
        CLR     C
        SUBB    A,R2
        MOV     ?V0 + 0,A
        SUBB    A,0xE0 /* A   */
        MOV     ?V0 + 1,A
        SUBB    A,0xE0 /* A   */
        MOV     ?V0 + 2,A
        MOV     ?V0 + 3,A
        MOV     R0,#?V0 + 0
        LCALL   ?PUSH_XSTACK_I_FOUR
        CFI CFA_XSP16 add(XSP16, 17)
        LCALL   ?Subroutine5 & 0xFFFF
??CrossCallReturnLabel_7:
        ADD     A,R2
        MOV     R0,A
        INC     DPTR
        MOVX    A,@DPTR
        ADDC    A,#0x0
        MOV     DPL,R0
        MOV     DPH,A
        INC     DPTR
        INC     DPTR
        INC     DPTR
        LCALL   ?Subroutine6 & 0xFFFF
??CrossCallReturnLabel_12:
        LCALL   ?DEALLOC_XSTACK8
        CFI CFA_XSP16 add(XSP16, 13)
//  300           tempDataLen += (LEN_Token - tempDataLen);
        MOV     DPTR,#LEN_Token
        MOVX    A,@DPTR
        MOV     DPTR,#tempDataLen
??MT_UartProcessZToolData_12:
        MOVX    @DPTR,A
//  301         }
//  302 
//  303         /* If number of bytes read is equal to data length, time to move on to FCS */
//  304         if ( tempDataLen == LEN_Token )
        MOVX    A,@DPTR
        MOV     R0,A
        MOV     DPTR,#LEN_Token
        MOVX    A,@DPTR
        XRL     A,R0
        JZ      $+5
        LJMP    ??MT_UartProcessZToolData_0 & 0xFFFF
??MT_UartProcessZToolData_10:
        MOV     DPTR,#state
        MOV     A,#0x5
        LJMP    ??MT_UartProcessZToolData_2 & 0xFFFF
//  305             state = FCS_STATE;
//  306 
//  307         break;
//  308 
//  309       case FCS_STATE:
//  310 
//  311         FSC_Token = ch;
??MT_UartProcessZToolData_9:
        MOV     DPL,?XSP + 0
        MOV     DPH,?XSP + 1
        MOVX    A,@DPTR
        MOV     DPTR,#FSC_Token
        MOVX    @DPTR,A
//  312 
//  313         /* Make sure it's correct */
//  314 //        if ((MT_UartCalcFCS ((uint8*)&pMsg->msg[0], MT_RPC_FRAME_HDR_SZ + LEN_Token) == FSC_Token))
//  315         {
//  316           osal_msg_send( App_TaskID, (byte *)pMsg );
        ; Setup parameters for call to function osal_msg_send
        MOV     DPTR,#pMsg
        MOVX    A,@DPTR
        MOV     R2,A
        INC     DPTR
        MOVX    A,@DPTR
        MOV     R3,A
        MOV     DPTR,#App_TaskID
        MOVX    A,@DPTR
        MOV     R1,A
        LCALL   ??osal_msg_send?relay
//  317         }
//  318 //        else
//  319 //        {
//  320 //          /* deallocate the msg */
//  321 //          osal_msg_deallocate ( (uint8 *)pMsg );
//  322 //        }
//  323 
//  324         /* Reset the state, send or discard the buffers at this point */
//  325         state = SOP_STATE;
        MOV     DPTR,#state
        CLR     A
        LJMP    ??MT_UartProcessZToolData_2 & 0xFFFF
        CFI EndBlock cfiBlock6
//  326 
//  327         break;
//  328 
//  329       default:
//  330        break;
//  331     }
//  332   }
//  333 }

        RSEG BANKED_CODE:CODE:NOROOT(0)
?Subroutine6:
        CFI Block cfiCond7 Using cfiCommon0
        CFI NoFunction
        CFI Conditional ??CrossCallReturnLabel_8
        CFI R6 load(1, XDATA, add(CFA_XSP16, literal(-12)))
        CFI VB load(1, XDATA, add(CFA_XSP16, literal(-11)))
        CFI V0 load(1, XDATA, add(CFA_XSP16, literal(-10)))
        CFI V1 load(1, XDATA, add(CFA_XSP16, literal(-9)))
        CFI V2 load(1, XDATA, add(CFA_XSP16, literal(-8)))
        CFI V3 load(1, XDATA, add(CFA_XSP16, literal(-7)))
        CFI R7 load(1, XDATA, add(CFA_XSP16, literal(-6)))
        CFI ?RET_LOW load(1, XDATA, add(CFA_XSP16, literal(-5)))
        CFI ?RET_HIGH load(1, XDATA, add(CFA_XSP16, literal(-4)))
        CFI ?BRET_EXT load(1, XDATA, add(CFA_XSP16, literal(-3)))
        CFI DPL0 load(1, XDATA, add(CFA_XSP16, literal(-2)))
        CFI DPH0 load(1, XDATA, add(CFA_XSP16, literal(-1)))
        CFI CFA_SP SP+0
        CFI CFA_XSP16 add(XSP16, 26)
        CFI Block cfiCond8 Using cfiCommon0
        CFI (cfiCond8) NoFunction
        CFI (cfiCond8) Conditional ??CrossCallReturnLabel_9
        CFI (cfiCond8) R6 load(1, XDATA, add(CFA_XSP16, literal(-12)))
        CFI (cfiCond8) VB load(1, XDATA, add(CFA_XSP16, literal(-11)))
        CFI (cfiCond8) V0 load(1, XDATA, add(CFA_XSP16, literal(-10)))
        CFI (cfiCond8) V1 load(1, XDATA, add(CFA_XSP16, literal(-9)))
        CFI (cfiCond8) V2 load(1, XDATA, add(CFA_XSP16, literal(-8)))
        CFI (cfiCond8) V3 load(1, XDATA, add(CFA_XSP16, literal(-7)))
        CFI (cfiCond8) R7 load(1, XDATA, add(CFA_XSP16, literal(-6)))
        CFI (cfiCond8) ?RET_LOW load(1, XDATA, add(CFA_XSP16, literal(-5)))
        CFI (cfiCond8) ?RET_HIGH load(1, XDATA, add(CFA_XSP16, literal(-4)))
        CFI (cfiCond8) ?BRET_EXT load(1, XDATA, add(CFA_XSP16, literal(-3)))
        CFI (cfiCond8) DPL0 load(1, XDATA, add(CFA_XSP16, literal(-2)))
        CFI (cfiCond8) DPH0 load(1, XDATA, add(CFA_XSP16, literal(-1)))
        CFI (cfiCond8) CFA_SP SP+0
        CFI (cfiCond8) CFA_XSP16 add(XSP16, 26)
        CFI Block cfiCond9 Using cfiCommon0
        CFI (cfiCond9) NoFunction
        CFI (cfiCond9) Conditional ??CrossCallReturnLabel_10
        CFI (cfiCond9) R6 load(1, XDATA, add(CFA_XSP16, literal(-12)))
        CFI (cfiCond9) VB load(1, XDATA, add(CFA_XSP16, literal(-11)))
        CFI (cfiCond9) V0 load(1, XDATA, add(CFA_XSP16, literal(-10)))
        CFI (cfiCond9) V1 load(1, XDATA, add(CFA_XSP16, literal(-9)))
        CFI (cfiCond9) V2 load(1, XDATA, add(CFA_XSP16, literal(-8)))
        CFI (cfiCond9) V3 load(1, XDATA, add(CFA_XSP16, literal(-7)))
        CFI (cfiCond9) R7 load(1, XDATA, add(CFA_XSP16, literal(-6)))
        CFI (cfiCond9) ?RET_LOW load(1, XDATA, add(CFA_XSP16, literal(-5)))
        CFI (cfiCond9) ?RET_HIGH load(1, XDATA, add(CFA_XSP16, literal(-4)))
        CFI (cfiCond9) ?BRET_EXT load(1, XDATA, add(CFA_XSP16, literal(-3)))
        CFI (cfiCond9) DPL0 load(1, XDATA, add(CFA_XSP16, literal(-2)))
        CFI (cfiCond9) DPH0 load(1, XDATA, add(CFA_XSP16, literal(-1)))
        CFI (cfiCond9) CFA_SP SP+0
        CFI (cfiCond9) CFA_XSP16 add(XSP16, 17)
        CFI Block cfiCond10 Using cfiCommon0
        CFI (cfiCond10) NoFunction
        CFI (cfiCond10) Conditional ??CrossCallReturnLabel_11
        CFI (cfiCond10) R6 load(1, XDATA, add(CFA_XSP16, literal(-12)))
        CFI (cfiCond10) VB load(1, XDATA, add(CFA_XSP16, literal(-11)))
        CFI (cfiCond10) V0 load(1, XDATA, add(CFA_XSP16, literal(-10)))
        CFI (cfiCond10) V1 load(1, XDATA, add(CFA_XSP16, literal(-9)))
        CFI (cfiCond10) V2 load(1, XDATA, add(CFA_XSP16, literal(-8)))
        CFI (cfiCond10) V3 load(1, XDATA, add(CFA_XSP16, literal(-7)))
        CFI (cfiCond10) R7 load(1, XDATA, add(CFA_XSP16, literal(-6)))
        CFI (cfiCond10) ?RET_LOW load(1, XDATA, add(CFA_XSP16, literal(-5)))
        CFI (cfiCond10) ?RET_HIGH load(1, XDATA, add(CFA_XSP16, literal(-4)))
        CFI (cfiCond10) ?BRET_EXT load(1, XDATA, add(CFA_XSP16, literal(-3)))
        CFI (cfiCond10) DPL0 load(1, XDATA, add(CFA_XSP16, literal(-2)))
        CFI (cfiCond10) DPH0 load(1, XDATA, add(CFA_XSP16, literal(-1)))
        CFI (cfiCond10) CFA_SP SP+0
        CFI (cfiCond10) CFA_XSP16 add(XSP16, 17)
        CFI Block cfiCond11 Using cfiCommon0
        CFI (cfiCond11) NoFunction
        CFI (cfiCond11) Conditional ??CrossCallReturnLabel_12
        CFI (cfiCond11) R6 load(1, XDATA, add(CFA_XSP16, literal(-12)))
        CFI (cfiCond11) VB load(1, XDATA, add(CFA_XSP16, literal(-11)))
        CFI (cfiCond11) V0 load(1, XDATA, add(CFA_XSP16, literal(-10)))
        CFI (cfiCond11) V1 load(1, XDATA, add(CFA_XSP16, literal(-9)))
        CFI (cfiCond11) V2 load(1, XDATA, add(CFA_XSP16, literal(-8)))
        CFI (cfiCond11) V3 load(1, XDATA, add(CFA_XSP16, literal(-7)))
        CFI (cfiCond11) R7 load(1, XDATA, add(CFA_XSP16, literal(-6)))
        CFI (cfiCond11) ?RET_LOW load(1, XDATA, add(CFA_XSP16, literal(-5)))
        CFI (cfiCond11) ?RET_HIGH load(1, XDATA, add(CFA_XSP16, literal(-4)))
        CFI (cfiCond11) ?BRET_EXT load(1, XDATA, add(CFA_XSP16, literal(-3)))
        CFI (cfiCond11) DPL0 load(1, XDATA, add(CFA_XSP16, literal(-2)))
        CFI (cfiCond11) DPH0 load(1, XDATA, add(CFA_XSP16, literal(-1)))
        CFI (cfiCond11) CFA_SP SP+0
        CFI (cfiCond11) CFA_XSP16 add(XSP16, 17)
        CFI Block cfiPicker12 Using cfiCommon1
        CFI (cfiPicker12) NoFunction
        CFI (cfiPicker12) Picker
        MOV     R2,DPL
        MOV     R3,DPH
        LCALL   ??gizPutData?relay
        MOV     A,#0x4
        RET
        CFI EndBlock cfiCond7
        CFI EndBlock cfiCond8
        CFI EndBlock cfiCond9
        CFI EndBlock cfiCond10
        CFI EndBlock cfiCond11
        CFI EndBlock cfiPicker12

        RSEG BANKED_CODE:CODE:NOROOT(0)
?Subroutine5:
        CFI Block cfiCond13 Using cfiCommon0
        CFI NoFunction
        CFI Conditional ??CrossCallReturnLabel_6
        CFI R6 load(1, XDATA, add(CFA_XSP16, literal(-12)))
        CFI VB load(1, XDATA, add(CFA_XSP16, literal(-11)))
        CFI V0 load(1, XDATA, add(CFA_XSP16, literal(-10)))
        CFI V1 load(1, XDATA, add(CFA_XSP16, literal(-9)))
        CFI V2 load(1, XDATA, add(CFA_XSP16, literal(-8)))
        CFI V3 load(1, XDATA, add(CFA_XSP16, literal(-7)))
        CFI R7 load(1, XDATA, add(CFA_XSP16, literal(-6)))
        CFI ?RET_LOW load(1, XDATA, add(CFA_XSP16, literal(-5)))
        CFI ?RET_HIGH load(1, XDATA, add(CFA_XSP16, literal(-4)))
        CFI ?BRET_EXT load(1, XDATA, add(CFA_XSP16, literal(-3)))
        CFI DPL0 load(1, XDATA, add(CFA_XSP16, literal(-2)))
        CFI DPH0 load(1, XDATA, add(CFA_XSP16, literal(-1)))
        CFI CFA_SP SP+-1
        CFI CFA_XSP16 add(XSP16, 13)
        CFI Block cfiCond14 Using cfiCommon0
        CFI (cfiCond14) NoFunction
        CFI (cfiCond14) Conditional ??CrossCallReturnLabel_7
        CFI (cfiCond14) R6 load(1, XDATA, add(CFA_XSP16, literal(-12)))
        CFI (cfiCond14) VB load(1, XDATA, add(CFA_XSP16, literal(-11)))
        CFI (cfiCond14) V0 load(1, XDATA, add(CFA_XSP16, literal(-10)))
        CFI (cfiCond14) V1 load(1, XDATA, add(CFA_XSP16, literal(-9)))
        CFI (cfiCond14) V2 load(1, XDATA, add(CFA_XSP16, literal(-8)))
        CFI (cfiCond14) V3 load(1, XDATA, add(CFA_XSP16, literal(-7)))
        CFI (cfiCond14) R7 load(1, XDATA, add(CFA_XSP16, literal(-6)))
        CFI (cfiCond14) ?RET_LOW load(1, XDATA, add(CFA_XSP16, literal(-5)))
        CFI (cfiCond14) ?RET_HIGH load(1, XDATA, add(CFA_XSP16, literal(-4)))
        CFI (cfiCond14) ?BRET_EXT load(1, XDATA, add(CFA_XSP16, literal(-3)))
        CFI (cfiCond14) DPL0 load(1, XDATA, add(CFA_XSP16, literal(-2)))
        CFI (cfiCond14) DPH0 load(1, XDATA, add(CFA_XSP16, literal(-1)))
        CFI (cfiCond14) CFA_SP SP+0
        CFI (cfiCond14) CFA_XSP16 add(XSP16, 17)
        CFI Block cfiPicker15 Using cfiCommon1
        CFI (cfiPicker15) NoFunction
        CFI (cfiPicker15) Picker
        LCALL   ?Subroutine8 & 0xFFFF
??CrossCallReturnLabel_16:
        RET
        CFI EndBlock cfiCond13
        CFI EndBlock cfiCond14
        CFI EndBlock cfiPicker15

        RSEG BANKED_CODE:CODE:NOROOT(0)
?Subroutine8:
        CFI Block cfiCond16 Using cfiCommon0
        CFI NoFunction
        CFI Conditional ??CrossCallReturnLabel_16, ??CrossCallReturnLabel_6
        CFI R6 load(1, XDATA, add(CFA_XSP16, literal(-12)))
        CFI VB load(1, XDATA, add(CFA_XSP16, literal(-11)))
        CFI V0 load(1, XDATA, add(CFA_XSP16, literal(-10)))
        CFI V1 load(1, XDATA, add(CFA_XSP16, literal(-9)))
        CFI V2 load(1, XDATA, add(CFA_XSP16, literal(-8)))
        CFI V3 load(1, XDATA, add(CFA_XSP16, literal(-7)))
        CFI R7 load(1, XDATA, add(CFA_XSP16, literal(-6)))
        CFI ?RET_LOW load(1, XDATA, add(CFA_XSP16, literal(-5)))
        CFI ?RET_HIGH load(1, XDATA, add(CFA_XSP16, literal(-4)))
        CFI ?BRET_EXT load(1, XDATA, add(CFA_XSP16, literal(-3)))
        CFI DPL0 load(1, XDATA, add(CFA_XSP16, literal(-2)))
        CFI DPH0 load(1, XDATA, add(CFA_XSP16, literal(-1)))
        CFI CFA_SP SP+-1
        CFI CFA_XSP16 add(XSP16, 13)
        CFI Block cfiCond17 Using cfiCommon0
        CFI (cfiCond17) NoFunction
        CFI (cfiCond17) Conditional ??CrossCallReturnLabel_16, ??CrossCallReturnLabel_7
        CFI (cfiCond17) R6 load(1, XDATA, add(CFA_XSP16, literal(-12)))
        CFI (cfiCond17) VB load(1, XDATA, add(CFA_XSP16, literal(-11)))
        CFI (cfiCond17) V0 load(1, XDATA, add(CFA_XSP16, literal(-10)))
        CFI (cfiCond17) V1 load(1, XDATA, add(CFA_XSP16, literal(-9)))
        CFI (cfiCond17) V2 load(1, XDATA, add(CFA_XSP16, literal(-8)))
        CFI (cfiCond17) V3 load(1, XDATA, add(CFA_XSP16, literal(-7)))
        CFI (cfiCond17) R7 load(1, XDATA, add(CFA_XSP16, literal(-6)))
        CFI (cfiCond17) ?RET_LOW load(1, XDATA, add(CFA_XSP16, literal(-5)))
        CFI (cfiCond17) ?RET_HIGH load(1, XDATA, add(CFA_XSP16, literal(-4)))
        CFI (cfiCond17) ?BRET_EXT load(1, XDATA, add(CFA_XSP16, literal(-3)))
        CFI (cfiCond17) DPL0 load(1, XDATA, add(CFA_XSP16, literal(-2)))
        CFI (cfiCond17) DPH0 load(1, XDATA, add(CFA_XSP16, literal(-1)))
        CFI (cfiCond17) CFA_SP SP+0
        CFI (cfiCond17) CFA_XSP16 add(XSP16, 17)
        CFI Block cfiCond18 Using cfiCommon0
        CFI (cfiCond18) NoFunction
        CFI (cfiCond18) Conditional ??CrossCallReturnLabel_15, ??CrossCallReturnLabel_4
        CFI (cfiCond18) R6 load(1, XDATA, add(CFA_XSP16, literal(-12)))
        CFI (cfiCond18) VB load(1, XDATA, add(CFA_XSP16, literal(-11)))
        CFI (cfiCond18) V0 load(1, XDATA, add(CFA_XSP16, literal(-10)))
        CFI (cfiCond18) V1 load(1, XDATA, add(CFA_XSP16, literal(-9)))
        CFI (cfiCond18) V2 load(1, XDATA, add(CFA_XSP16, literal(-8)))
        CFI (cfiCond18) V3 load(1, XDATA, add(CFA_XSP16, literal(-7)))
        CFI (cfiCond18) R7 load(1, XDATA, add(CFA_XSP16, literal(-6)))
        CFI (cfiCond18) ?RET_LOW load(1, XDATA, add(CFA_XSP16, literal(-5)))
        CFI (cfiCond18) ?RET_HIGH load(1, XDATA, add(CFA_XSP16, literal(-4)))
        CFI (cfiCond18) ?BRET_EXT load(1, XDATA, add(CFA_XSP16, literal(-3)))
        CFI (cfiCond18) DPL0 load(1, XDATA, add(CFA_XSP16, literal(-2)))
        CFI (cfiCond18) DPH0 load(1, XDATA, add(CFA_XSP16, literal(-1)))
        CFI (cfiCond18) CFA_SP SP+-1
        CFI (cfiCond18) CFA_XSP16 add(XSP16, 13)
        CFI Block cfiCond19 Using cfiCommon0
        CFI (cfiCond19) NoFunction
        CFI (cfiCond19) Conditional ??CrossCallReturnLabel_15, ??CrossCallReturnLabel_5
        CFI (cfiCond19) R6 load(1, XDATA, add(CFA_XSP16, literal(-12)))
        CFI (cfiCond19) VB load(1, XDATA, add(CFA_XSP16, literal(-11)))
        CFI (cfiCond19) V0 load(1, XDATA, add(CFA_XSP16, literal(-10)))
        CFI (cfiCond19) V1 load(1, XDATA, add(CFA_XSP16, literal(-9)))
        CFI (cfiCond19) V2 load(1, XDATA, add(CFA_XSP16, literal(-8)))
        CFI (cfiCond19) V3 load(1, XDATA, add(CFA_XSP16, literal(-7)))
        CFI (cfiCond19) R7 load(1, XDATA, add(CFA_XSP16, literal(-6)))
        CFI (cfiCond19) ?RET_LOW load(1, XDATA, add(CFA_XSP16, literal(-5)))
        CFI (cfiCond19) ?RET_HIGH load(1, XDATA, add(CFA_XSP16, literal(-4)))
        CFI (cfiCond19) ?BRET_EXT load(1, XDATA, add(CFA_XSP16, literal(-3)))
        CFI (cfiCond19) DPL0 load(1, XDATA, add(CFA_XSP16, literal(-2)))
        CFI (cfiCond19) DPH0 load(1, XDATA, add(CFA_XSP16, literal(-1)))
        CFI (cfiCond19) CFA_SP SP+-1
        CFI (cfiCond19) CFA_XSP16 add(XSP16, 13)
        CFI Block cfiPicker20 Using cfiCommon1
        CFI (cfiPicker20) NoFunction
        CFI (cfiPicker20) Picker
        MOV     DPTR,#pMsg
        MOVX    A,@DPTR
        LCALL   ?Subroutine10 & 0xFFFF
??CrossCallReturnLabel_22:
        INC     DPTR
        INC     DPTR
        MOVX    A,@DPTR
        RET
        CFI EndBlock cfiCond16
        CFI EndBlock cfiCond17
        CFI EndBlock cfiCond18
        CFI EndBlock cfiCond19
        CFI EndBlock cfiPicker20

        RSEG BANKED_CODE:CODE:NOROOT(0)
?Subroutine10:
        CFI Block cfiCond21 Using cfiCommon0
        CFI NoFunction
        CFI Conditional ??CrossCallReturnLabel_20
        CFI R6 load(1, XDATA, add(CFA_XSP16, literal(-12)))
        CFI VB load(1, XDATA, add(CFA_XSP16, literal(-11)))
        CFI V0 load(1, XDATA, add(CFA_XSP16, literal(-10)))
        CFI V1 load(1, XDATA, add(CFA_XSP16, literal(-9)))
        CFI V2 load(1, XDATA, add(CFA_XSP16, literal(-8)))
        CFI V3 load(1, XDATA, add(CFA_XSP16, literal(-7)))
        CFI R7 load(1, XDATA, add(CFA_XSP16, literal(-6)))
        CFI ?RET_LOW load(1, XDATA, add(CFA_XSP16, literal(-5)))
        CFI ?RET_HIGH load(1, XDATA, add(CFA_XSP16, literal(-4)))
        CFI ?BRET_EXT load(1, XDATA, add(CFA_XSP16, literal(-3)))
        CFI DPL0 load(1, XDATA, add(CFA_XSP16, literal(-2)))
        CFI DPH0 load(1, XDATA, add(CFA_XSP16, literal(-1)))
        CFI CFA_SP SP+-1
        CFI CFA_XSP16 add(XSP16, 13)
        CFI Block cfiCond22 Using cfiCommon0
        CFI (cfiCond22) NoFunction
        CFI (cfiCond22) Conditional ??CrossCallReturnLabel_22, ??CrossCallReturnLabel_16, ??CrossCallReturnLabel_6
        CFI (cfiCond22) R6 load(1, XDATA, add(CFA_XSP16, literal(-12)))
        CFI (cfiCond22) VB load(1, XDATA, add(CFA_XSP16, literal(-11)))
        CFI (cfiCond22) V0 load(1, XDATA, add(CFA_XSP16, literal(-10)))
        CFI (cfiCond22) V1 load(1, XDATA, add(CFA_XSP16, literal(-9)))
        CFI (cfiCond22) V2 load(1, XDATA, add(CFA_XSP16, literal(-8)))
        CFI (cfiCond22) V3 load(1, XDATA, add(CFA_XSP16, literal(-7)))
        CFI (cfiCond22) R7 load(1, XDATA, add(CFA_XSP16, literal(-6)))
        CFI (cfiCond22) ?RET_LOW load(1, XDATA, add(CFA_XSP16, literal(-5)))
        CFI (cfiCond22) ?RET_HIGH load(1, XDATA, add(CFA_XSP16, literal(-4)))
        CFI (cfiCond22) ?BRET_EXT load(1, XDATA, add(CFA_XSP16, literal(-3)))
        CFI (cfiCond22) DPL0 load(1, XDATA, add(CFA_XSP16, literal(-2)))
        CFI (cfiCond22) DPH0 load(1, XDATA, add(CFA_XSP16, literal(-1)))
        CFI (cfiCond22) CFA_SP SP+-1
        CFI (cfiCond22) CFA_XSP16 add(XSP16, 13)
        CFI Block cfiCond23 Using cfiCommon0
        CFI (cfiCond23) NoFunction
        CFI (cfiCond23) Conditional ??CrossCallReturnLabel_22, ??CrossCallReturnLabel_16, ??CrossCallReturnLabel_7
        CFI (cfiCond23) R6 load(1, XDATA, add(CFA_XSP16, literal(-12)))
        CFI (cfiCond23) VB load(1, XDATA, add(CFA_XSP16, literal(-11)))
        CFI (cfiCond23) V0 load(1, XDATA, add(CFA_XSP16, literal(-10)))
        CFI (cfiCond23) V1 load(1, XDATA, add(CFA_XSP16, literal(-9)))
        CFI (cfiCond23) V2 load(1, XDATA, add(CFA_XSP16, literal(-8)))
        CFI (cfiCond23) V3 load(1, XDATA, add(CFA_XSP16, literal(-7)))
        CFI (cfiCond23) R7 load(1, XDATA, add(CFA_XSP16, literal(-6)))
        CFI (cfiCond23) ?RET_LOW load(1, XDATA, add(CFA_XSP16, literal(-5)))
        CFI (cfiCond23) ?RET_HIGH load(1, XDATA, add(CFA_XSP16, literal(-4)))
        CFI (cfiCond23) ?BRET_EXT load(1, XDATA, add(CFA_XSP16, literal(-3)))
        CFI (cfiCond23) DPL0 load(1, XDATA, add(CFA_XSP16, literal(-2)))
        CFI (cfiCond23) DPH0 load(1, XDATA, add(CFA_XSP16, literal(-1)))
        CFI (cfiCond23) CFA_SP SP+0
        CFI (cfiCond23) CFA_XSP16 add(XSP16, 17)
        CFI Block cfiCond24 Using cfiCommon0
        CFI (cfiCond24) NoFunction
        CFI (cfiCond24) Conditional ??CrossCallReturnLabel_22, ??CrossCallReturnLabel_15, ??CrossCallReturnLabel_4
        CFI (cfiCond24) R6 load(1, XDATA, add(CFA_XSP16, literal(-12)))
        CFI (cfiCond24) VB load(1, XDATA, add(CFA_XSP16, literal(-11)))
        CFI (cfiCond24) V0 load(1, XDATA, add(CFA_XSP16, literal(-10)))
        CFI (cfiCond24) V1 load(1, XDATA, add(CFA_XSP16, literal(-9)))
        CFI (cfiCond24) V2 load(1, XDATA, add(CFA_XSP16, literal(-8)))
        CFI (cfiCond24) V3 load(1, XDATA, add(CFA_XSP16, literal(-7)))
        CFI (cfiCond24) R7 load(1, XDATA, add(CFA_XSP16, literal(-6)))
        CFI (cfiCond24) ?RET_LOW load(1, XDATA, add(CFA_XSP16, literal(-5)))
        CFI (cfiCond24) ?RET_HIGH load(1, XDATA, add(CFA_XSP16, literal(-4)))
        CFI (cfiCond24) ?BRET_EXT load(1, XDATA, add(CFA_XSP16, literal(-3)))
        CFI (cfiCond24) DPL0 load(1, XDATA, add(CFA_XSP16, literal(-2)))
        CFI (cfiCond24) DPH0 load(1, XDATA, add(CFA_XSP16, literal(-1)))
        CFI (cfiCond24) CFA_SP SP+-1
        CFI (cfiCond24) CFA_XSP16 add(XSP16, 13)
        CFI Block cfiCond25 Using cfiCommon0
        CFI (cfiCond25) NoFunction
        CFI (cfiCond25) Conditional ??CrossCallReturnLabel_22, ??CrossCallReturnLabel_15, ??CrossCallReturnLabel_5
        CFI (cfiCond25) R6 load(1, XDATA, add(CFA_XSP16, literal(-12)))
        CFI (cfiCond25) VB load(1, XDATA, add(CFA_XSP16, literal(-11)))
        CFI (cfiCond25) V0 load(1, XDATA, add(CFA_XSP16, literal(-10)))
        CFI (cfiCond25) V1 load(1, XDATA, add(CFA_XSP16, literal(-9)))
        CFI (cfiCond25) V2 load(1, XDATA, add(CFA_XSP16, literal(-8)))
        CFI (cfiCond25) V3 load(1, XDATA, add(CFA_XSP16, literal(-7)))
        CFI (cfiCond25) R7 load(1, XDATA, add(CFA_XSP16, literal(-6)))
        CFI (cfiCond25) ?RET_LOW load(1, XDATA, add(CFA_XSP16, literal(-5)))
        CFI (cfiCond25) ?RET_HIGH load(1, XDATA, add(CFA_XSP16, literal(-4)))
        CFI (cfiCond25) ?BRET_EXT load(1, XDATA, add(CFA_XSP16, literal(-3)))
        CFI (cfiCond25) DPL0 load(1, XDATA, add(CFA_XSP16, literal(-2)))
        CFI (cfiCond25) DPH0 load(1, XDATA, add(CFA_XSP16, literal(-1)))
        CFI (cfiCond25) CFA_SP SP+-1
        CFI (cfiCond25) CFA_XSP16 add(XSP16, 13)
        CFI Block cfiCond26 Using cfiCommon0
        CFI (cfiCond26) NoFunction
        CFI (cfiCond26) Conditional ??CrossCallReturnLabel_21, ??CrossCallReturnLabel_4
        CFI (cfiCond26) R6 load(1, XDATA, add(CFA_XSP16, literal(-12)))
        CFI (cfiCond26) VB load(1, XDATA, add(CFA_XSP16, literal(-11)))
        CFI (cfiCond26) V0 load(1, XDATA, add(CFA_XSP16, literal(-10)))
        CFI (cfiCond26) V1 load(1, XDATA, add(CFA_XSP16, literal(-9)))
        CFI (cfiCond26) V2 load(1, XDATA, add(CFA_XSP16, literal(-8)))
        CFI (cfiCond26) V3 load(1, XDATA, add(CFA_XSP16, literal(-7)))
        CFI (cfiCond26) R7 load(1, XDATA, add(CFA_XSP16, literal(-6)))
        CFI (cfiCond26) ?RET_LOW load(1, XDATA, add(CFA_XSP16, literal(-5)))
        CFI (cfiCond26) ?RET_HIGH load(1, XDATA, add(CFA_XSP16, literal(-4)))
        CFI (cfiCond26) ?BRET_EXT load(1, XDATA, add(CFA_XSP16, literal(-3)))
        CFI (cfiCond26) DPL0 load(1, XDATA, add(CFA_XSP16, literal(-2)))
        CFI (cfiCond26) DPH0 load(1, XDATA, add(CFA_XSP16, literal(-1)))
        CFI (cfiCond26) CFA_SP SP+-1
        CFI (cfiCond26) CFA_XSP16 add(XSP16, 13)
        CFI Block cfiCond27 Using cfiCommon0
        CFI (cfiCond27) NoFunction
        CFI (cfiCond27) Conditional ??CrossCallReturnLabel_21, ??CrossCallReturnLabel_5
        CFI (cfiCond27) R6 load(1, XDATA, add(CFA_XSP16, literal(-12)))
        CFI (cfiCond27) VB load(1, XDATA, add(CFA_XSP16, literal(-11)))
        CFI (cfiCond27) V0 load(1, XDATA, add(CFA_XSP16, literal(-10)))
        CFI (cfiCond27) V1 load(1, XDATA, add(CFA_XSP16, literal(-9)))
        CFI (cfiCond27) V2 load(1, XDATA, add(CFA_XSP16, literal(-8)))
        CFI (cfiCond27) V3 load(1, XDATA, add(CFA_XSP16, literal(-7)))
        CFI (cfiCond27) R7 load(1, XDATA, add(CFA_XSP16, literal(-6)))
        CFI (cfiCond27) ?RET_LOW load(1, XDATA, add(CFA_XSP16, literal(-5)))
        CFI (cfiCond27) ?RET_HIGH load(1, XDATA, add(CFA_XSP16, literal(-4)))
        CFI (cfiCond27) ?BRET_EXT load(1, XDATA, add(CFA_XSP16, literal(-3)))
        CFI (cfiCond27) DPL0 load(1, XDATA, add(CFA_XSP16, literal(-2)))
        CFI (cfiCond27) DPH0 load(1, XDATA, add(CFA_XSP16, literal(-1)))
        CFI (cfiCond27) CFA_SP SP+-1
        CFI (cfiCond27) CFA_XSP16 add(XSP16, 13)
        CFI Block cfiPicker28 Using cfiCommon1
        CFI (cfiPicker28) NoFunction
        CFI (cfiPicker28) Picker
        MOV     R0,A
        INC     DPTR
        CFI EndBlock cfiCond21
        CFI EndBlock cfiCond22
        CFI EndBlock cfiCond23
        CFI EndBlock cfiCond24
        CFI EndBlock cfiCond25
        CFI EndBlock cfiCond26
        CFI EndBlock cfiCond27
        CFI EndBlock cfiPicker28
        REQUIRE ??Subroutine11_0
        ; // Fall through to label ??Subroutine11_0

        RSEG BANKED_CODE:CODE:NOROOT(0)
??Subroutine11_0:
        CFI Block cfiCond29 Using cfiCommon0
        CFI NoFunction
        CFI Conditional ??CrossCallReturnLabel_19
        CFI R6 load(1, XDATA, add(CFA_XSP16, literal(-12)))
        CFI VB load(1, XDATA, add(CFA_XSP16, literal(-11)))
        CFI V0 load(1, XDATA, add(CFA_XSP16, literal(-10)))
        CFI V1 load(1, XDATA, add(CFA_XSP16, literal(-9)))
        CFI V2 load(1, XDATA, add(CFA_XSP16, literal(-8)))
        CFI V3 load(1, XDATA, add(CFA_XSP16, literal(-7)))
        CFI R7 load(1, XDATA, add(CFA_XSP16, literal(-6)))
        CFI ?RET_LOW load(1, XDATA, add(CFA_XSP16, literal(-5)))
        CFI ?RET_HIGH load(1, XDATA, add(CFA_XSP16, literal(-4)))
        CFI ?BRET_EXT load(1, XDATA, add(CFA_XSP16, literal(-3)))
        CFI DPL0 load(1, XDATA, add(CFA_XSP16, literal(-2)))
        CFI DPH0 load(1, XDATA, add(CFA_XSP16, literal(-1)))
        CFI CFA_SP SP+0
        CFI CFA_XSP16 add(XSP16, 13)
        CFI Block cfiCond30 Using cfiCommon0
        CFI (cfiCond30) NoFunction
        CFI (cfiCond30) Conditional ??CrossCallReturnLabel_20
        CFI (cfiCond30) R6 load(1, XDATA, add(CFA_XSP16, literal(-12)))
        CFI (cfiCond30) VB load(1, XDATA, add(CFA_XSP16, literal(-11)))
        CFI (cfiCond30) V0 load(1, XDATA, add(CFA_XSP16, literal(-10)))
        CFI (cfiCond30) V1 load(1, XDATA, add(CFA_XSP16, literal(-9)))
        CFI (cfiCond30) V2 load(1, XDATA, add(CFA_XSP16, literal(-8)))
        CFI (cfiCond30) V3 load(1, XDATA, add(CFA_XSP16, literal(-7)))
        CFI (cfiCond30) R7 load(1, XDATA, add(CFA_XSP16, literal(-6)))
        CFI (cfiCond30) ?RET_LOW load(1, XDATA, add(CFA_XSP16, literal(-5)))
        CFI (cfiCond30) ?RET_HIGH load(1, XDATA, add(CFA_XSP16, literal(-4)))
        CFI (cfiCond30) ?BRET_EXT load(1, XDATA, add(CFA_XSP16, literal(-3)))
        CFI (cfiCond30) DPL0 load(1, XDATA, add(CFA_XSP16, literal(-2)))
        CFI (cfiCond30) DPH0 load(1, XDATA, add(CFA_XSP16, literal(-1)))
        CFI (cfiCond30) CFA_SP SP+-1
        CFI (cfiCond30) CFA_XSP16 add(XSP16, 13)
        CFI Block cfiCond31 Using cfiCommon0
        CFI (cfiCond31) NoFunction
        CFI (cfiCond31) Conditional ??CrossCallReturnLabel_22, ??CrossCallReturnLabel_16, ??CrossCallReturnLabel_6
        CFI (cfiCond31) R6 load(1, XDATA, add(CFA_XSP16, literal(-12)))
        CFI (cfiCond31) VB load(1, XDATA, add(CFA_XSP16, literal(-11)))
        CFI (cfiCond31) V0 load(1, XDATA, add(CFA_XSP16, literal(-10)))
        CFI (cfiCond31) V1 load(1, XDATA, add(CFA_XSP16, literal(-9)))
        CFI (cfiCond31) V2 load(1, XDATA, add(CFA_XSP16, literal(-8)))
        CFI (cfiCond31) V3 load(1, XDATA, add(CFA_XSP16, literal(-7)))
        CFI (cfiCond31) R7 load(1, XDATA, add(CFA_XSP16, literal(-6)))
        CFI (cfiCond31) ?RET_LOW load(1, XDATA, add(CFA_XSP16, literal(-5)))
        CFI (cfiCond31) ?RET_HIGH load(1, XDATA, add(CFA_XSP16, literal(-4)))
        CFI (cfiCond31) ?BRET_EXT load(1, XDATA, add(CFA_XSP16, literal(-3)))
        CFI (cfiCond31) DPL0 load(1, XDATA, add(CFA_XSP16, literal(-2)))
        CFI (cfiCond31) DPH0 load(1, XDATA, add(CFA_XSP16, literal(-1)))
        CFI (cfiCond31) CFA_SP SP+-1
        CFI (cfiCond31) CFA_XSP16 add(XSP16, 13)
        CFI Block cfiCond32 Using cfiCommon0
        CFI (cfiCond32) NoFunction
        CFI (cfiCond32) Conditional ??CrossCallReturnLabel_22, ??CrossCallReturnLabel_16, ??CrossCallReturnLabel_7
        CFI (cfiCond32) R6 load(1, XDATA, add(CFA_XSP16, literal(-12)))
        CFI (cfiCond32) VB load(1, XDATA, add(CFA_XSP16, literal(-11)))
        CFI (cfiCond32) V0 load(1, XDATA, add(CFA_XSP16, literal(-10)))
        CFI (cfiCond32) V1 load(1, XDATA, add(CFA_XSP16, literal(-9)))
        CFI (cfiCond32) V2 load(1, XDATA, add(CFA_XSP16, literal(-8)))
        CFI (cfiCond32) V3 load(1, XDATA, add(CFA_XSP16, literal(-7)))
        CFI (cfiCond32) R7 load(1, XDATA, add(CFA_XSP16, literal(-6)))
        CFI (cfiCond32) ?RET_LOW load(1, XDATA, add(CFA_XSP16, literal(-5)))
        CFI (cfiCond32) ?RET_HIGH load(1, XDATA, add(CFA_XSP16, literal(-4)))
        CFI (cfiCond32) ?BRET_EXT load(1, XDATA, add(CFA_XSP16, literal(-3)))
        CFI (cfiCond32) DPL0 load(1, XDATA, add(CFA_XSP16, literal(-2)))
        CFI (cfiCond32) DPH0 load(1, XDATA, add(CFA_XSP16, literal(-1)))
        CFI (cfiCond32) CFA_SP SP+0
        CFI (cfiCond32) CFA_XSP16 add(XSP16, 17)
        CFI Block cfiCond33 Using cfiCommon0
        CFI (cfiCond33) NoFunction
        CFI (cfiCond33) Conditional ??CrossCallReturnLabel_22, ??CrossCallReturnLabel_15, ??CrossCallReturnLabel_4
        CFI (cfiCond33) R6 load(1, XDATA, add(CFA_XSP16, literal(-12)))
        CFI (cfiCond33) VB load(1, XDATA, add(CFA_XSP16, literal(-11)))
        CFI (cfiCond33) V0 load(1, XDATA, add(CFA_XSP16, literal(-10)))
        CFI (cfiCond33) V1 load(1, XDATA, add(CFA_XSP16, literal(-9)))
        CFI (cfiCond33) V2 load(1, XDATA, add(CFA_XSP16, literal(-8)))
        CFI (cfiCond33) V3 load(1, XDATA, add(CFA_XSP16, literal(-7)))
        CFI (cfiCond33) R7 load(1, XDATA, add(CFA_XSP16, literal(-6)))
        CFI (cfiCond33) ?RET_LOW load(1, XDATA, add(CFA_XSP16, literal(-5)))
        CFI (cfiCond33) ?RET_HIGH load(1, XDATA, add(CFA_XSP16, literal(-4)))
        CFI (cfiCond33) ?BRET_EXT load(1, XDATA, add(CFA_XSP16, literal(-3)))
        CFI (cfiCond33) DPL0 load(1, XDATA, add(CFA_XSP16, literal(-2)))
        CFI (cfiCond33) DPH0 load(1, XDATA, add(CFA_XSP16, literal(-1)))
        CFI (cfiCond33) CFA_SP SP+-1
        CFI (cfiCond33) CFA_XSP16 add(XSP16, 13)
        CFI Block cfiCond34 Using cfiCommon0
        CFI (cfiCond34) NoFunction
        CFI (cfiCond34) Conditional ??CrossCallReturnLabel_22, ??CrossCallReturnLabel_15, ??CrossCallReturnLabel_5
        CFI (cfiCond34) R6 load(1, XDATA, add(CFA_XSP16, literal(-12)))
        CFI (cfiCond34) VB load(1, XDATA, add(CFA_XSP16, literal(-11)))
        CFI (cfiCond34) V0 load(1, XDATA, add(CFA_XSP16, literal(-10)))
        CFI (cfiCond34) V1 load(1, XDATA, add(CFA_XSP16, literal(-9)))
        CFI (cfiCond34) V2 load(1, XDATA, add(CFA_XSP16, literal(-8)))
        CFI (cfiCond34) V3 load(1, XDATA, add(CFA_XSP16, literal(-7)))
        CFI (cfiCond34) R7 load(1, XDATA, add(CFA_XSP16, literal(-6)))
        CFI (cfiCond34) ?RET_LOW load(1, XDATA, add(CFA_XSP16, literal(-5)))
        CFI (cfiCond34) ?RET_HIGH load(1, XDATA, add(CFA_XSP16, literal(-4)))
        CFI (cfiCond34) ?BRET_EXT load(1, XDATA, add(CFA_XSP16, literal(-3)))
        CFI (cfiCond34) DPL0 load(1, XDATA, add(CFA_XSP16, literal(-2)))
        CFI (cfiCond34) DPH0 load(1, XDATA, add(CFA_XSP16, literal(-1)))
        CFI (cfiCond34) CFA_SP SP+-1
        CFI (cfiCond34) CFA_XSP16 add(XSP16, 13)
        CFI Block cfiCond35 Using cfiCommon0
        CFI (cfiCond35) NoFunction
        CFI (cfiCond35) Conditional ??CrossCallReturnLabel_21, ??CrossCallReturnLabel_4
        CFI (cfiCond35) R6 load(1, XDATA, add(CFA_XSP16, literal(-12)))
        CFI (cfiCond35) VB load(1, XDATA, add(CFA_XSP16, literal(-11)))
        CFI (cfiCond35) V0 load(1, XDATA, add(CFA_XSP16, literal(-10)))
        CFI (cfiCond35) V1 load(1, XDATA, add(CFA_XSP16, literal(-9)))
        CFI (cfiCond35) V2 load(1, XDATA, add(CFA_XSP16, literal(-8)))
        CFI (cfiCond35) V3 load(1, XDATA, add(CFA_XSP16, literal(-7)))
        CFI (cfiCond35) R7 load(1, XDATA, add(CFA_XSP16, literal(-6)))
        CFI (cfiCond35) ?RET_LOW load(1, XDATA, add(CFA_XSP16, literal(-5)))
        CFI (cfiCond35) ?RET_HIGH load(1, XDATA, add(CFA_XSP16, literal(-4)))
        CFI (cfiCond35) ?BRET_EXT load(1, XDATA, add(CFA_XSP16, literal(-3)))
        CFI (cfiCond35) DPL0 load(1, XDATA, add(CFA_XSP16, literal(-2)))
        CFI (cfiCond35) DPH0 load(1, XDATA, add(CFA_XSP16, literal(-1)))
        CFI (cfiCond35) CFA_SP SP+-1
        CFI (cfiCond35) CFA_XSP16 add(XSP16, 13)
        CFI Block cfiCond36 Using cfiCommon0
        CFI (cfiCond36) NoFunction
        CFI (cfiCond36) Conditional ??CrossCallReturnLabel_21, ??CrossCallReturnLabel_5
        CFI (cfiCond36) R6 load(1, XDATA, add(CFA_XSP16, literal(-12)))
        CFI (cfiCond36) VB load(1, XDATA, add(CFA_XSP16, literal(-11)))
        CFI (cfiCond36) V0 load(1, XDATA, add(CFA_XSP16, literal(-10)))
        CFI (cfiCond36) V1 load(1, XDATA, add(CFA_XSP16, literal(-9)))
        CFI (cfiCond36) V2 load(1, XDATA, add(CFA_XSP16, literal(-8)))
        CFI (cfiCond36) V3 load(1, XDATA, add(CFA_XSP16, literal(-7)))
        CFI (cfiCond36) R7 load(1, XDATA, add(CFA_XSP16, literal(-6)))
        CFI (cfiCond36) ?RET_LOW load(1, XDATA, add(CFA_XSP16, literal(-5)))
        CFI (cfiCond36) ?RET_HIGH load(1, XDATA, add(CFA_XSP16, literal(-4)))
        CFI (cfiCond36) ?BRET_EXT load(1, XDATA, add(CFA_XSP16, literal(-3)))
        CFI (cfiCond36) DPL0 load(1, XDATA, add(CFA_XSP16, literal(-2)))
        CFI (cfiCond36) DPH0 load(1, XDATA, add(CFA_XSP16, literal(-1)))
        CFI (cfiCond36) CFA_SP SP+-1
        CFI (cfiCond36) CFA_XSP16 add(XSP16, 13)
        CFI Block cfiPicker37 Using cfiCommon1
        CFI (cfiPicker37) NoFunction
        CFI (cfiPicker37) Picker
        MOVX    A,@DPTR
        MOV     DPH,A
        MOV     DPL,R0
        RET
        CFI EndBlock cfiCond29
        CFI EndBlock cfiCond30
        CFI EndBlock cfiCond31
        CFI EndBlock cfiCond32
        CFI EndBlock cfiCond33
        CFI EndBlock cfiCond34
        CFI EndBlock cfiCond35
        CFI EndBlock cfiCond36
        CFI EndBlock cfiPicker37

        RSEG BANKED_CODE:CODE:NOROOT(0)
?Subroutine4:
        CFI Block cfiCond38 Using cfiCommon0
        CFI NoFunction
        CFI Conditional ??CrossCallReturnLabel_4
        CFI R6 load(1, XDATA, add(CFA_XSP16, literal(-12)))
        CFI VB load(1, XDATA, add(CFA_XSP16, literal(-11)))
        CFI V0 load(1, XDATA, add(CFA_XSP16, literal(-10)))
        CFI V1 load(1, XDATA, add(CFA_XSP16, literal(-9)))
        CFI V2 load(1, XDATA, add(CFA_XSP16, literal(-8)))
        CFI V3 load(1, XDATA, add(CFA_XSP16, literal(-7)))
        CFI R7 load(1, XDATA, add(CFA_XSP16, literal(-6)))
        CFI ?RET_LOW load(1, XDATA, add(CFA_XSP16, literal(-5)))
        CFI ?RET_HIGH load(1, XDATA, add(CFA_XSP16, literal(-4)))
        CFI ?BRET_EXT load(1, XDATA, add(CFA_XSP16, literal(-3)))
        CFI DPL0 load(1, XDATA, add(CFA_XSP16, literal(-2)))
        CFI DPH0 load(1, XDATA, add(CFA_XSP16, literal(-1)))
        CFI CFA_SP SP+-1
        CFI CFA_XSP16 add(XSP16, 13)
        CFI Block cfiCond39 Using cfiCommon0
        CFI (cfiCond39) NoFunction
        CFI (cfiCond39) Conditional ??CrossCallReturnLabel_5
        CFI (cfiCond39) R6 load(1, XDATA, add(CFA_XSP16, literal(-12)))
        CFI (cfiCond39) VB load(1, XDATA, add(CFA_XSP16, literal(-11)))
        CFI (cfiCond39) V0 load(1, XDATA, add(CFA_XSP16, literal(-10)))
        CFI (cfiCond39) V1 load(1, XDATA, add(CFA_XSP16, literal(-9)))
        CFI (cfiCond39) V2 load(1, XDATA, add(CFA_XSP16, literal(-8)))
        CFI (cfiCond39) V3 load(1, XDATA, add(CFA_XSP16, literal(-7)))
        CFI (cfiCond39) R7 load(1, XDATA, add(CFA_XSP16, literal(-6)))
        CFI (cfiCond39) ?RET_LOW load(1, XDATA, add(CFA_XSP16, literal(-5)))
        CFI (cfiCond39) ?RET_HIGH load(1, XDATA, add(CFA_XSP16, literal(-4)))
        CFI (cfiCond39) ?BRET_EXT load(1, XDATA, add(CFA_XSP16, literal(-3)))
        CFI (cfiCond39) DPL0 load(1, XDATA, add(CFA_XSP16, literal(-2)))
        CFI (cfiCond39) DPH0 load(1, XDATA, add(CFA_XSP16, literal(-1)))
        CFI (cfiCond39) CFA_SP SP+-1
        CFI (cfiCond39) CFA_XSP16 add(XSP16, 13)
        CFI Block cfiPicker40 Using cfiCommon1
        CFI (cfiPicker40) NoFunction
        CFI (cfiPicker40) Picker
        LCALL   ?Subroutine8 & 0xFFFF
??CrossCallReturnLabel_15:
        LCALL   ?Subroutine10 & 0xFFFF
??CrossCallReturnLabel_21:
        INC     DPTR
        RET
        CFI EndBlock cfiCond38
        CFI EndBlock cfiCond39
        CFI EndBlock cfiPicker40

        RSEG BANKED_CODE:CODE:NOROOT(0)
?Subroutine3:
        CFI Block cfiCond41 Using cfiCommon0
        CFI NoFunction
        CFI Conditional ??CrossCallReturnLabel_2
        CFI R6 load(1, XDATA, add(CFA_XSP16, literal(-12)))
        CFI VB load(1, XDATA, add(CFA_XSP16, literal(-11)))
        CFI V0 load(1, XDATA, add(CFA_XSP16, literal(-10)))
        CFI V1 load(1, XDATA, add(CFA_XSP16, literal(-9)))
        CFI V2 load(1, XDATA, add(CFA_XSP16, literal(-8)))
        CFI V3 load(1, XDATA, add(CFA_XSP16, literal(-7)))
        CFI R7 load(1, XDATA, add(CFA_XSP16, literal(-6)))
        CFI ?RET_LOW load(1, XDATA, add(CFA_XSP16, literal(-5)))
        CFI ?RET_HIGH load(1, XDATA, add(CFA_XSP16, literal(-4)))
        CFI ?BRET_EXT load(1, XDATA, add(CFA_XSP16, literal(-3)))
        CFI DPL0 load(1, XDATA, add(CFA_XSP16, literal(-2)))
        CFI DPH0 load(1, XDATA, add(CFA_XSP16, literal(-1)))
        CFI CFA_SP SP+-1
        CFI CFA_XSP16 add(XSP16, 13)
        CFI Block cfiCond42 Using cfiCommon0
        CFI (cfiCond42) NoFunction
        CFI (cfiCond42) Conditional ??CrossCallReturnLabel_3
        CFI (cfiCond42) R6 load(1, XDATA, add(CFA_XSP16, literal(-12)))
        CFI (cfiCond42) VB load(1, XDATA, add(CFA_XSP16, literal(-11)))
        CFI (cfiCond42) V0 load(1, XDATA, add(CFA_XSP16, literal(-10)))
        CFI (cfiCond42) V1 load(1, XDATA, add(CFA_XSP16, literal(-9)))
        CFI (cfiCond42) V2 load(1, XDATA, add(CFA_XSP16, literal(-8)))
        CFI (cfiCond42) V3 load(1, XDATA, add(CFA_XSP16, literal(-7)))
        CFI (cfiCond42) R7 load(1, XDATA, add(CFA_XSP16, literal(-6)))
        CFI (cfiCond42) ?RET_LOW load(1, XDATA, add(CFA_XSP16, literal(-5)))
        CFI (cfiCond42) ?RET_HIGH load(1, XDATA, add(CFA_XSP16, literal(-4)))
        CFI (cfiCond42) ?BRET_EXT load(1, XDATA, add(CFA_XSP16, literal(-3)))
        CFI (cfiCond42) DPL0 load(1, XDATA, add(CFA_XSP16, literal(-2)))
        CFI (cfiCond42) DPH0 load(1, XDATA, add(CFA_XSP16, literal(-1)))
        CFI (cfiCond42) CFA_SP SP+0
        CFI (cfiCond42) CFA_XSP16 add(XSP16, 17)
        CFI Block cfiPicker43 Using cfiCommon1
        CFI (cfiPicker43) NoFunction
        CFI (cfiPicker43) Picker
        MOV     DPTR,#tempDataLen
        MOVX    A,@DPTR
        MOV     R0,A
        LCALL   ?Subroutine7 & 0xFFFF
??CrossCallReturnLabel_14:
        RET
        CFI EndBlock cfiCond41
        CFI EndBlock cfiCond42
        CFI EndBlock cfiPicker43

        RSEG BANKED_CODE:CODE:NOROOT(0)
?Subroutine7:
        CFI Block cfiCond44 Using cfiCommon0
        CFI NoFunction
        CFI Conditional ??CrossCallReturnLabel_14, ??CrossCallReturnLabel_2
        CFI R6 load(1, XDATA, add(CFA_XSP16, literal(-12)))
        CFI VB load(1, XDATA, add(CFA_XSP16, literal(-11)))
        CFI V0 load(1, XDATA, add(CFA_XSP16, literal(-10)))
        CFI V1 load(1, XDATA, add(CFA_XSP16, literal(-9)))
        CFI V2 load(1, XDATA, add(CFA_XSP16, literal(-8)))
        CFI V3 load(1, XDATA, add(CFA_XSP16, literal(-7)))
        CFI R7 load(1, XDATA, add(CFA_XSP16, literal(-6)))
        CFI ?RET_LOW load(1, XDATA, add(CFA_XSP16, literal(-5)))
        CFI ?RET_HIGH load(1, XDATA, add(CFA_XSP16, literal(-4)))
        CFI ?BRET_EXT load(1, XDATA, add(CFA_XSP16, literal(-3)))
        CFI DPL0 load(1, XDATA, add(CFA_XSP16, literal(-2)))
        CFI DPH0 load(1, XDATA, add(CFA_XSP16, literal(-1)))
        CFI CFA_SP SP+-1
        CFI CFA_XSP16 add(XSP16, 13)
        CFI Block cfiCond45 Using cfiCommon0
        CFI (cfiCond45) NoFunction
        CFI (cfiCond45) Conditional ??CrossCallReturnLabel_14, ??CrossCallReturnLabel_3
        CFI (cfiCond45) R6 load(1, XDATA, add(CFA_XSP16, literal(-12)))
        CFI (cfiCond45) VB load(1, XDATA, add(CFA_XSP16, literal(-11)))
        CFI (cfiCond45) V0 load(1, XDATA, add(CFA_XSP16, literal(-10)))
        CFI (cfiCond45) V1 load(1, XDATA, add(CFA_XSP16, literal(-9)))
        CFI (cfiCond45) V2 load(1, XDATA, add(CFA_XSP16, literal(-8)))
        CFI (cfiCond45) V3 load(1, XDATA, add(CFA_XSP16, literal(-7)))
        CFI (cfiCond45) R7 load(1, XDATA, add(CFA_XSP16, literal(-6)))
        CFI (cfiCond45) ?RET_LOW load(1, XDATA, add(CFA_XSP16, literal(-5)))
        CFI (cfiCond45) ?RET_HIGH load(1, XDATA, add(CFA_XSP16, literal(-4)))
        CFI (cfiCond45) ?BRET_EXT load(1, XDATA, add(CFA_XSP16, literal(-3)))
        CFI (cfiCond45) DPL0 load(1, XDATA, add(CFA_XSP16, literal(-2)))
        CFI (cfiCond45) DPH0 load(1, XDATA, add(CFA_XSP16, literal(-1)))
        CFI (cfiCond45) CFA_SP SP+0
        CFI (cfiCond45) CFA_XSP16 add(XSP16, 17)
        CFI Block cfiCond46 Using cfiCommon0
        CFI (cfiCond46) NoFunction
        CFI (cfiCond46) Conditional ??CrossCallReturnLabel_13, ??CrossCallReturnLabel_0
        CFI (cfiCond46) R6 load(1, XDATA, add(CFA_XSP16, literal(-12)))
        CFI (cfiCond46) VB load(1, XDATA, add(CFA_XSP16, literal(-11)))
        CFI (cfiCond46) V0 load(1, XDATA, add(CFA_XSP16, literal(-10)))
        CFI (cfiCond46) V1 load(1, XDATA, add(CFA_XSP16, literal(-9)))
        CFI (cfiCond46) V2 load(1, XDATA, add(CFA_XSP16, literal(-8)))
        CFI (cfiCond46) V3 load(1, XDATA, add(CFA_XSP16, literal(-7)))
        CFI (cfiCond46) R7 load(1, XDATA, add(CFA_XSP16, literal(-6)))
        CFI (cfiCond46) ?RET_LOW load(1, XDATA, add(CFA_XSP16, literal(-5)))
        CFI (cfiCond46) ?RET_HIGH load(1, XDATA, add(CFA_XSP16, literal(-4)))
        CFI (cfiCond46) ?BRET_EXT load(1, XDATA, add(CFA_XSP16, literal(-3)))
        CFI (cfiCond46) DPL0 load(1, XDATA, add(CFA_XSP16, literal(-2)))
        CFI (cfiCond46) DPH0 load(1, XDATA, add(CFA_XSP16, literal(-1)))
        CFI (cfiCond46) CFA_SP SP+0
        CFI (cfiCond46) CFA_XSP16 add(XSP16, 13)
        CFI Block cfiCond47 Using cfiCommon0
        CFI (cfiCond47) NoFunction
        CFI (cfiCond47) Conditional ??CrossCallReturnLabel_13, ??CrossCallReturnLabel_1
        CFI (cfiCond47) R6 load(1, XDATA, add(CFA_XSP16, literal(-12)))
        CFI (cfiCond47) VB load(1, XDATA, add(CFA_XSP16, literal(-11)))
        CFI (cfiCond47) V0 load(1, XDATA, add(CFA_XSP16, literal(-10)))
        CFI (cfiCond47) V1 load(1, XDATA, add(CFA_XSP16, literal(-9)))
        CFI (cfiCond47) V2 load(1, XDATA, add(CFA_XSP16, literal(-8)))
        CFI (cfiCond47) V3 load(1, XDATA, add(CFA_XSP16, literal(-7)))
        CFI (cfiCond47) R7 load(1, XDATA, add(CFA_XSP16, literal(-6)))
        CFI (cfiCond47) ?RET_LOW load(1, XDATA, add(CFA_XSP16, literal(-5)))
        CFI (cfiCond47) ?RET_HIGH load(1, XDATA, add(CFA_XSP16, literal(-4)))
        CFI (cfiCond47) ?BRET_EXT load(1, XDATA, add(CFA_XSP16, literal(-3)))
        CFI (cfiCond47) DPL0 load(1, XDATA, add(CFA_XSP16, literal(-2)))
        CFI (cfiCond47) DPH0 load(1, XDATA, add(CFA_XSP16, literal(-1)))
        CFI (cfiCond47) CFA_SP SP+0
        CFI (cfiCond47) CFA_XSP16 add(XSP16, 13)
        CFI Block cfiPicker48 Using cfiCommon1
        CFI (cfiPicker48) NoFunction
        CFI (cfiPicker48) Picker
        LCALL   ?Subroutine9 & 0xFFFF
??CrossCallReturnLabel_18:
        MOVX    A,@DPTR
        ADD     A,R0
        MOV     R2,A
        INC     DPTR
        MOVX    A,@DPTR
        ADDC    A,#0x0
        MOV     DPL,R2
        MOV     DPH,A
        INC     DPTR
        INC     DPTR
        INC     DPTR
        RET
        CFI EndBlock cfiCond44
        CFI EndBlock cfiCond45
        CFI EndBlock cfiCond46
        CFI EndBlock cfiCond47
        CFI EndBlock cfiPicker48

        RSEG BANKED_CODE:CODE:NOROOT(0)
?Subroutine9:
        CFI Block cfiCond49 Using cfiCommon0
        CFI NoFunction
        CFI Conditional ??CrossCallReturnLabel_17
        CFI R6 load(1, XDATA, add(CFA_XSP16, literal(-12)))
        CFI VB load(1, XDATA, add(CFA_XSP16, literal(-11)))
        CFI V0 load(1, XDATA, add(CFA_XSP16, literal(-10)))
        CFI V1 load(1, XDATA, add(CFA_XSP16, literal(-9)))
        CFI V2 load(1, XDATA, add(CFA_XSP16, literal(-8)))
        CFI V3 load(1, XDATA, add(CFA_XSP16, literal(-7)))
        CFI R7 load(1, XDATA, add(CFA_XSP16, literal(-6)))
        CFI ?RET_LOW load(1, XDATA, add(CFA_XSP16, literal(-5)))
        CFI ?RET_HIGH load(1, XDATA, add(CFA_XSP16, literal(-4)))
        CFI ?BRET_EXT load(1, XDATA, add(CFA_XSP16, literal(-3)))
        CFI DPL0 load(1, XDATA, add(CFA_XSP16, literal(-2)))
        CFI DPH0 load(1, XDATA, add(CFA_XSP16, literal(-1)))
        CFI CFA_SP SP+0
        CFI CFA_XSP16 add(XSP16, 13)
        CFI Block cfiCond50 Using cfiCommon0
        CFI (cfiCond50) NoFunction
        CFI (cfiCond50) Conditional ??CrossCallReturnLabel_18, ??CrossCallReturnLabel_14, ??CrossCallReturnLabel_2
        CFI (cfiCond50) R6 load(1, XDATA, add(CFA_XSP16, literal(-12)))
        CFI (cfiCond50) VB load(1, XDATA, add(CFA_XSP16, literal(-11)))
        CFI (cfiCond50) V0 load(1, XDATA, add(CFA_XSP16, literal(-10)))
        CFI (cfiCond50) V1 load(1, XDATA, add(CFA_XSP16, literal(-9)))
        CFI (cfiCond50) V2 load(1, XDATA, add(CFA_XSP16, literal(-8)))
        CFI (cfiCond50) V3 load(1, XDATA, add(CFA_XSP16, literal(-7)))
        CFI (cfiCond50) R7 load(1, XDATA, add(CFA_XSP16, literal(-6)))
        CFI (cfiCond50) ?RET_LOW load(1, XDATA, add(CFA_XSP16, literal(-5)))
        CFI (cfiCond50) ?RET_HIGH load(1, XDATA, add(CFA_XSP16, literal(-4)))
        CFI (cfiCond50) ?BRET_EXT load(1, XDATA, add(CFA_XSP16, literal(-3)))
        CFI (cfiCond50) DPL0 load(1, XDATA, add(CFA_XSP16, literal(-2)))
        CFI (cfiCond50) DPH0 load(1, XDATA, add(CFA_XSP16, literal(-1)))
        CFI (cfiCond50) CFA_SP SP+-1
        CFI (cfiCond50) CFA_XSP16 add(XSP16, 13)
        CFI Block cfiCond51 Using cfiCommon0
        CFI (cfiCond51) NoFunction
        CFI (cfiCond51) Conditional ??CrossCallReturnLabel_18, ??CrossCallReturnLabel_14, ??CrossCallReturnLabel_3
        CFI (cfiCond51) R6 load(1, XDATA, add(CFA_XSP16, literal(-12)))
        CFI (cfiCond51) VB load(1, XDATA, add(CFA_XSP16, literal(-11)))
        CFI (cfiCond51) V0 load(1, XDATA, add(CFA_XSP16, literal(-10)))
        CFI (cfiCond51) V1 load(1, XDATA, add(CFA_XSP16, literal(-9)))
        CFI (cfiCond51) V2 load(1, XDATA, add(CFA_XSP16, literal(-8)))
        CFI (cfiCond51) V3 load(1, XDATA, add(CFA_XSP16, literal(-7)))
        CFI (cfiCond51) R7 load(1, XDATA, add(CFA_XSP16, literal(-6)))
        CFI (cfiCond51) ?RET_LOW load(1, XDATA, add(CFA_XSP16, literal(-5)))
        CFI (cfiCond51) ?RET_HIGH load(1, XDATA, add(CFA_XSP16, literal(-4)))
        CFI (cfiCond51) ?BRET_EXT load(1, XDATA, add(CFA_XSP16, literal(-3)))
        CFI (cfiCond51) DPL0 load(1, XDATA, add(CFA_XSP16, literal(-2)))
        CFI (cfiCond51) DPH0 load(1, XDATA, add(CFA_XSP16, literal(-1)))
        CFI (cfiCond51) CFA_SP SP+0
        CFI (cfiCond51) CFA_XSP16 add(XSP16, 17)
        CFI Block cfiCond52 Using cfiCommon0
        CFI (cfiCond52) NoFunction
        CFI (cfiCond52) Conditional ??CrossCallReturnLabel_18, ??CrossCallReturnLabel_13, ??CrossCallReturnLabel_0
        CFI (cfiCond52) R6 load(1, XDATA, add(CFA_XSP16, literal(-12)))
        CFI (cfiCond52) VB load(1, XDATA, add(CFA_XSP16, literal(-11)))
        CFI (cfiCond52) V0 load(1, XDATA, add(CFA_XSP16, literal(-10)))
        CFI (cfiCond52) V1 load(1, XDATA, add(CFA_XSP16, literal(-9)))
        CFI (cfiCond52) V2 load(1, XDATA, add(CFA_XSP16, literal(-8)))
        CFI (cfiCond52) V3 load(1, XDATA, add(CFA_XSP16, literal(-7)))
        CFI (cfiCond52) R7 load(1, XDATA, add(CFA_XSP16, literal(-6)))
        CFI (cfiCond52) ?RET_LOW load(1, XDATA, add(CFA_XSP16, literal(-5)))
        CFI (cfiCond52) ?RET_HIGH load(1, XDATA, add(CFA_XSP16, literal(-4)))
        CFI (cfiCond52) ?BRET_EXT load(1, XDATA, add(CFA_XSP16, literal(-3)))
        CFI (cfiCond52) DPL0 load(1, XDATA, add(CFA_XSP16, literal(-2)))
        CFI (cfiCond52) DPH0 load(1, XDATA, add(CFA_XSP16, literal(-1)))
        CFI (cfiCond52) CFA_SP SP+0
        CFI (cfiCond52) CFA_XSP16 add(XSP16, 13)
        CFI Block cfiCond53 Using cfiCommon0
        CFI (cfiCond53) NoFunction
        CFI (cfiCond53) Conditional ??CrossCallReturnLabel_18, ??CrossCallReturnLabel_13, ??CrossCallReturnLabel_1
        CFI (cfiCond53) R6 load(1, XDATA, add(CFA_XSP16, literal(-12)))
        CFI (cfiCond53) VB load(1, XDATA, add(CFA_XSP16, literal(-11)))
        CFI (cfiCond53) V0 load(1, XDATA, add(CFA_XSP16, literal(-10)))
        CFI (cfiCond53) V1 load(1, XDATA, add(CFA_XSP16, literal(-9)))
        CFI (cfiCond53) V2 load(1, XDATA, add(CFA_XSP16, literal(-8)))
        CFI (cfiCond53) V3 load(1, XDATA, add(CFA_XSP16, literal(-7)))
        CFI (cfiCond53) R7 load(1, XDATA, add(CFA_XSP16, literal(-6)))
        CFI (cfiCond53) ?RET_LOW load(1, XDATA, add(CFA_XSP16, literal(-5)))
        CFI (cfiCond53) ?RET_HIGH load(1, XDATA, add(CFA_XSP16, literal(-4)))
        CFI (cfiCond53) ?BRET_EXT load(1, XDATA, add(CFA_XSP16, literal(-3)))
        CFI (cfiCond53) DPL0 load(1, XDATA, add(CFA_XSP16, literal(-2)))
        CFI (cfiCond53) DPH0 load(1, XDATA, add(CFA_XSP16, literal(-1)))
        CFI (cfiCond53) CFA_SP SP+0
        CFI (cfiCond53) CFA_XSP16 add(XSP16, 13)
        CFI Block cfiPicker54 Using cfiCommon1
        CFI (cfiPicker54) NoFunction
        CFI (cfiPicker54) Picker
        MOV     DPTR,#pMsg
        MOVX    A,@DPTR
        MOV     R2,A
        INC     DPTR
        MOVX    A,@DPTR
        MOV     DPH,A
        MOV     DPL,R2
        INC     DPTR
        INC     DPTR
        RET
        CFI EndBlock cfiCond49
        CFI EndBlock cfiCond50
        CFI EndBlock cfiCond51
        CFI EndBlock cfiCond52
        CFI EndBlock cfiCond53
        CFI EndBlock cfiPicker54

        RSEG BANKED_CODE:CODE:NOROOT(0)
?Subroutine2:
        CFI Block cfiCond55 Using cfiCommon0
        CFI NoFunction
        CFI Conditional ??CrossCallReturnLabel_0
        CFI R6 load(1, XDATA, add(CFA_XSP16, literal(-12)))
        CFI VB load(1, XDATA, add(CFA_XSP16, literal(-11)))
        CFI V0 load(1, XDATA, add(CFA_XSP16, literal(-10)))
        CFI V1 load(1, XDATA, add(CFA_XSP16, literal(-9)))
        CFI V2 load(1, XDATA, add(CFA_XSP16, literal(-8)))
        CFI V3 load(1, XDATA, add(CFA_XSP16, literal(-7)))
        CFI R7 load(1, XDATA, add(CFA_XSP16, literal(-6)))
        CFI ?RET_LOW load(1, XDATA, add(CFA_XSP16, literal(-5)))
        CFI ?RET_HIGH load(1, XDATA, add(CFA_XSP16, literal(-4)))
        CFI ?BRET_EXT load(1, XDATA, add(CFA_XSP16, literal(-3)))
        CFI DPL0 load(1, XDATA, add(CFA_XSP16, literal(-2)))
        CFI DPH0 load(1, XDATA, add(CFA_XSP16, literal(-1)))
        CFI CFA_SP SP+0
        CFI CFA_XSP16 add(XSP16, 13)
        CFI Block cfiCond56 Using cfiCommon0
        CFI (cfiCond56) NoFunction
        CFI (cfiCond56) Conditional ??CrossCallReturnLabel_1
        CFI (cfiCond56) R6 load(1, XDATA, add(CFA_XSP16, literal(-12)))
        CFI (cfiCond56) VB load(1, XDATA, add(CFA_XSP16, literal(-11)))
        CFI (cfiCond56) V0 load(1, XDATA, add(CFA_XSP16, literal(-10)))
        CFI (cfiCond56) V1 load(1, XDATA, add(CFA_XSP16, literal(-9)))
        CFI (cfiCond56) V2 load(1, XDATA, add(CFA_XSP16, literal(-8)))
        CFI (cfiCond56) V3 load(1, XDATA, add(CFA_XSP16, literal(-7)))
        CFI (cfiCond56) R7 load(1, XDATA, add(CFA_XSP16, literal(-6)))
        CFI (cfiCond56) ?RET_LOW load(1, XDATA, add(CFA_XSP16, literal(-5)))
        CFI (cfiCond56) ?RET_HIGH load(1, XDATA, add(CFA_XSP16, literal(-4)))
        CFI (cfiCond56) ?BRET_EXT load(1, XDATA, add(CFA_XSP16, literal(-3)))
        CFI (cfiCond56) DPL0 load(1, XDATA, add(CFA_XSP16, literal(-2)))
        CFI (cfiCond56) DPH0 load(1, XDATA, add(CFA_XSP16, literal(-1)))
        CFI (cfiCond56) CFA_SP SP+0
        CFI (cfiCond56) CFA_XSP16 add(XSP16, 13)
        CFI Block cfiPicker57 Using cfiCommon1
        CFI (cfiPicker57) NoFunction
        CFI (cfiPicker57) Picker
        LCALL   ?Subroutine7 & 0xFFFF
??CrossCallReturnLabel_13:
        MOV     R2,DPL
        MOV     R3,DPH
        MOV     A,R6
        MOV     R1,A
        LCALL   ??HalUARTRead?relay
        RET
        CFI EndBlock cfiCond55
        CFI EndBlock cfiCond56
        CFI EndBlock cfiPicker57

        RSEG XDATA_ROM_C:CONST:REORDER:NOROOT(0)
        DATA32
__Constant_a:
        DD 10

        RSEG XDATA_ROM_C:CONST:REORDER:NOROOT(0)
        DATA32
__Constant_1:
        DD 1

        RSEG BANK_RELAYS:CODE:REORDER:NOROOT(0)
??MT_UartInit?relay:
        LCALL   ?BDISPATCH
        DATA
        DC24    MT_UartInit

        RSEG BANK_RELAYS:CODE:REORDER:NOROOT(0)
??MT_UartRegisterTaskID?relay:
        LCALL   ?BDISPATCH
        DATA
        DC24    MT_UartRegisterTaskID

        RSEG BANK_RELAYS:CODE:REORDER:NOROOT(0)
??MT_UartCalcFCS?relay:
        LCALL   ?BDISPATCH
        DATA
        DC24    MT_UartCalcFCS

        RSEG BANK_RELAYS:CODE:REORDER:NOROOT(0)
??zigLight_uartProcess?relay:
        LCALL   ?BDISPATCH
        DATA
        DC24    zigLight_uartProcess

        RSEG BANK_RELAYS:CODE:REORDER:NOROOT(0)
??MT_UartProcessZToolData?relay:
        LCALL   ?BDISPATCH
        DATA
        DC24    MT_UartProcessZToolData

        END
//  334 
//  335 #if defined (ZAPP_P1) || defined (ZAPP_P2)
//  336 /***************************************************************************************************
//  337  * @fn      MT_UartProcessZAppData
//  338  *
//  339  * @brief   | SOP | CMD  |   Data Length   | FSC  |
//  340  *          |  1  |  2   |       1         |  1   |
//  341  *
//  342  *          Parses the data and determine either is SPI or just simply serial data
//  343  *          then send the data to correct place (MT or APP)
//  344  *
//  345  * @param   port    - UART port
//  346  *          event   - Event that causes the callback
//  347  *
//  348  *
//  349  * @return  None
//  350  ***************************************************************************************************/
//  351 void MT_UartProcessZAppData ( uint8 port, uint8 event )
//  352 {
//  353 
//  354   osal_event_hdr_t  *msg_ptr;
//  355   uint16 length = 0;
//  356   uint16 rxBufLen  = Hal_UART_RxBufLen(MT_UART_DEFAULT_PORT);
//  357 
//  358   /*
//  359      If maxZAppBufferLength is 0 or larger than current length
//  360      the entire length of the current buffer is returned.
//  361   */
//  362   if ((MT_UartMaxZAppBufLen != 0) && (MT_UartMaxZAppBufLen <= rxBufLen))
//  363   {
//  364     length = MT_UartMaxZAppBufLen;
//  365   }
//  366   else
//  367   {
//  368     length = rxBufLen;
//  369   }
//  370 
//  371   /* Verify events */
//  372   if (event == HAL_UART_TX_FULL)
//  373   {
//  374     // Do something when TX if full
//  375     return;
//  376   }
//  377 
//  378   if (event & ( HAL_UART_RX_FULL | HAL_UART_RX_ABOUT_FULL | HAL_UART_RX_TIMEOUT))
//  379   {
//  380     if ( App_TaskID )
//  381     {
//  382       /*
//  383          If Application is ready to receive and there is something
//  384          in the Rx buffer then send it up
//  385       */
//  386       if ((MT_UartZAppRxStatus == MT_UART_ZAPP_RX_READY ) && (length != 0))
//  387       {
//  388         /* Disable App flow control until it processes the current data */
//  389          MT_UartAppFlowControl (MT_UART_ZAPP_RX_NOT_READY);
//  390 
//  391         /* 2 more bytes are added, 1 for CMD type, other for length */
//  392         msg_ptr = (osal_event_hdr_t *)osal_msg_allocate( length + sizeof(osal_event_hdr_t) );
//  393         if ( msg_ptr )
//  394         {
//  395           msg_ptr->event = SPI_INCOMING_ZAPP_DATA;
//  396           msg_ptr->status = length;
//  397 
//  398           /* Read the data of Rx buffer */
//  399           HalUARTRead( MT_UART_DEFAULT_PORT, (uint8 *)(msg_ptr + 1), length );
//  400 
//  401           /* Send the raw data to application...or where ever */
//  402           osal_msg_send( App_TaskID, (uint8 *)msg_ptr );
//  403         }
//  404       }
//  405     }
//  406   }
//  407 }
//  408 
//  409 /***************************************************************************************************
//  410  * @fn      SPIMgr_ZAppBufferLengthRegister
//  411  *
//  412  * @brief
//  413  *
//  414  * @param   maxLen - Max Length that the application wants at a time
//  415  *
//  416  * @return  None
//  417  *
//  418  ***************************************************************************************************/
//  419 void MT_UartZAppBufferLengthRegister ( uint16 maxLen )
//  420 {
//  421   /* If the maxLen is larger than the RX buff, something is not right */
//  422   if (maxLen <= MT_UART_DEFAULT_MAX_RX_BUFF)
//  423     MT_UartMaxZAppBufLen = maxLen;
//  424   else
//  425     MT_UartMaxZAppBufLen = 1; /* default is 1 byte */
//  426 }
//  427 
//  428 /***************************************************************************************************
//  429  * @fn      SPIMgr_AppFlowControl
//  430  *
//  431  * @brief
//  432  *
//  433  * @param   status - ready to send or not
//  434  *
//  435  * @return  None
//  436  *
//  437  ***************************************************************************************************/
//  438 void MT_UartAppFlowControl ( bool status )
//  439 {
//  440 
//  441   /* Make sure only update if needed */
//  442   if (status != MT_UartZAppRxStatus )
//  443   {
//  444     MT_UartZAppRxStatus = status;
//  445   }
//  446 
//  447   /* App is ready to read again, ProcessZAppData have to be triggered too */
//  448   if (status == MT_UART_ZAPP_RX_READY)
//  449   {
//  450     MT_UartProcessZAppData (MT_UART_DEFAULT_PORT, HAL_UART_RX_TIMEOUT );
//  451   }
//  452 
//  453 }
//  454 
//  455 #endif //ZAPP
//  456 
//  457 /***************************************************************************************************
//  458 ***************************************************************************************************/
// 
// 884 bytes in segment BANKED_CODE
//  30 bytes in segment BANK_RELAYS
//   8 bytes in segment XDATA_ROM_C
//   9 bytes in segment XDATA_Z
// 
// 914 bytes of CODE  memory
//   0 bytes of CONST memory (+ 8 bytes shared)
//   9 bytes of XDATA memory
//
//Errors: none
//Warnings: none
