###############################################################################
#                                                                             #
# IAR C/C++ Compiler V8.10.3.10338/W32 for 8051         24/May/2017  10:42:41 #
# Copyright 2004-2011 IAR Systems AB.                                         #
#                                                                             #
#    Core               =  plain                                              #
#    Code model         =  banked                                             #
#    Data model         =  large                                              #
#    Calling convention =  xdata reentrant                                    #
#    Constant location  =  data_rom                                           #
#    Dptr setup         =  1,16                                               #
#    Source file        =  E:\work\smartlight\Zigbee1\Projects\zstack\Samples #
#                          \SD_App\Source\SD_App.c                            #
#    Command line       =  -f E:\work\smartlight\Zigbee1\Projects\zstack\Samp #
#                          les\SD_App\CC2530DB\..\..\..\Tools\CC2530DB\f8wRou #
#                          ter.cfg (-DCPU32MHZ -DROOT=__near_func             #
#                          -DMAC_CFG_APP_PENDING_QUEUE=TRUE                   #
#                          -DMAC_CFG_TX_DATA_MAX=5 -DMAC_CFG_TX_MAX=8         #
#                          -DMAC_CFG_RX_MAX=5 -DRTR_NWK) -f                   #
#                          E:\work\smartlight\Zigbee1\Projects\zstack\Samples #
#                          \SD_App\CC2530DB\..\..\..\Tools\CC2530DB\f8wConfig #
#                          .cfg (-DZIGBEEPRO -DSECURE=0                       #
#                          -DZG_SECURE_DYNAMIC=0 -DREFLECTOR                  #
#                          -DDEFAULT_CHANLIST=0x00000800                      #
#                          -DZDAPP_CONFIG_PAN_ID=0xFF00                       #
#                          -DNWK_START_DELAY=100 -DEXTENDED_JOINING_RANDOM_MA #
#                          SK=0x007F -DBEACON_REQUEST_DELAY=100               #
#                          -DBEACON_REQ_DELAY_MASK=0x00FF                     #
#                          -DLINK_STATUS_JITTER_MASK=0x007F                   #
#                          -DROUTE_EXPIRY_TIME=30 -DAPSC_ACK_WAIT_DURATION_PO #
#                          LLED=3000 -DNWK_INDIRECT_MSG_TIMEOUT=7             #
#                          -DMAX_RREQ_ENTRIES=8 -DAPSC_MAX_FRAME_RETRIES=3    #
#                          -DNWK_MAX_DATA_RETRIES=2                           #
#                          -DMAX_POLL_FAILURE_RETRIES=2 -DMAX_BCAST=9         #
#                          -DAPS_MAX_GROUPS=16 -DMAX_RTG_ENTRIES=40           #
#                          -DNWK_MAX_BINDING_ENTRIES=4                        #
#                          -DMAX_BINDING_CLUSTER_IDS=4 "-DDEFAULT_KEY={0x01,  #
#                          0x03, 0x05, 0x07, 0x09, 0x0B, 0x0D, 0x0F, 0x00,    #
#                          0x02, 0x04, 0x06, 0x08, 0x0A, 0x0C, 0x0D}"         #
#                          -DMAC_MAX_FRAME_SIZE=116                           #
#                          -DZDNWKMGR_MIN_TRANSMISSIONS=20 "-DCONST=const     #
#                          __code" -DGENERIC=__generic                        #
#                          -DRFD_RCVC_ALWAYS_ON=FALSE -DPOLL_RATE=1000        #
#                          -DQUEUED_POLL_RATE=100 -DRESPONSE_POLL_RATE=100)   #
#                          -DREJOIN_POLL_RATE=440 E:\work\smartlight\Zigbee1\ #
#                          Projects\zstack\Samples\SD_App\Source\SD_App.c -D  #
#                          ZTOOL_P1 -D MT_TASK -D MT_SYS_FUNC -D MT_ZDO_FUNC  #
#                          -D LCD_SUPPORTED=DEBUG -lC                         #
#                          E:\work\smartlight\Zigbee1\Projects\zstack\Samples #
#                          \SD_App\CC2530DB\RouterEB\List\ -lA                #
#                          E:\work\smartlight\Zigbee1\Projects\zstack\Samples #
#                          \SD_App\CC2530DB\RouterEB\List\ --diag_suppress    #
#                          Pe001,Pa010 -o E:\work\smartlight\Zigbee1\Projects #
#                          \zstack\Samples\SD_App\CC2530DB\RouterEB\Obj\ -e   #
#                          --no_code_motion --debug --core=plain --dptr=16,1  #
#                          --data_model=large --code_model=banked             #
#                          --calling_convention=xdata_reentrant               #
#                          --place_constants=data_rom --nr_virtual_regs 16    #
#                          -I E:\work\smartlight\Zigbee1\Projects\zstack\Samp #
#                          les\SD_App\CC2530DB\ -I E:\work\smartlight\Zigbee1 #
#                          \Projects\zstack\Samples\SD_App\CC2530DB\..\Source #
#                          \ -I E:\work\smartlight\Zigbee1\Projects\zstack\Sa #
#                          mples\SD_App\CC2530DB\..\..\..\ZMain\TI2530DB\ -I  #
#                          E:\work\smartlight\Zigbee1\Projects\zstack\Samples #
#                          \SD_App\CC2530DB\..\..\..\..\..\Components\hal\inc #
#                          lude\ -I E:\work\smartlight\Zigbee1\Projects\zstac #
#                          k\Samples\SD_App\CC2530DB\..\..\..\..\..\Component #
#                          s\hal\target\CC2530EB\ -I                          #
#                          E:\work\smartlight\Zigbee1\Projects\zstack\Samples #
#                          \SD_App\CC2530DB\..\..\..\..\..\Components\mac\inc #
#                          lude\ -I E:\work\smartlight\Zigbee1\Projects\zstac #
#                          k\Samples\SD_App\CC2530DB\..\..\..\..\..\Component #
#                          s\mac\high_level\ -I E:\work\smartlight\Zigbee1\Pr #
#                          ojects\zstack\Samples\SD_App\CC2530DB\..\..\..\..\ #
#                          ..\Components\mac\low_level\srf04\ -I              #
#                          E:\work\smartlight\Zigbee1\Projects\zstack\Samples #
#                          \SD_App\CC2530DB\..\..\..\..\..\Components\mac\low #
#                          _level\srf04\single_chip\ -I                       #
#                          E:\work\smartlight\Zigbee1\Projects\zstack\Samples #
#                          \SD_App\CC2530DB\..\..\..\..\..\Components\mt\ -I  #
#                          E:\work\smartlight\Zigbee1\Projects\zstack\Samples #
#                          \SD_App\CC2530DB\..\..\..\..\..\Components\osal\in #
#                          clude\ -I E:\work\smartlight\Zigbee1\Projects\zsta #
#                          ck\Samples\SD_App\CC2530DB\..\..\..\..\..\Componen #
#                          ts\services\saddr\ -I E:\work\smartlight\Zigbee1\P #
#                          rojects\zstack\Samples\SD_App\CC2530DB\..\..\..\.. #
#                          \..\Components\services\sdata\ -I                  #
#                          E:\work\smartlight\Zigbee1\Projects\zstack\Samples #
#                          \SD_App\CC2530DB\..\..\..\..\..\Components\stack\a #
#                          f\ -I E:\work\smartlight\Zigbee1\Projects\zstack\S #
#                          amples\SD_App\CC2530DB\..\..\..\..\..\Components\s #
#                          tack\nwk\ -I E:\work\smartlight\Zigbee1\Projects\z #
#                          stack\Samples\SD_App\CC2530DB\..\..\..\..\..\Compo #
#                          nents\stack\sapi\ -I E:\work\smartlight\Zigbee1\Pr #
#                          ojects\zstack\Samples\SD_App\CC2530DB\..\..\..\..\ #
#                          ..\Components\stack\sec\ -I                        #
#                          E:\work\smartlight\Zigbee1\Projects\zstack\Samples #
#                          \SD_App\CC2530DB\..\..\..\..\..\Components\stack\s #
#                          ys\ -I E:\work\smartlight\Zigbee1\Projects\zstack\ #
#                          Samples\SD_App\CC2530DB\..\..\..\..\..\Components\ #
#                          stack\zdo\ -I E:\work\smartlight\Zigbee1\Projects\ #
#                          zstack\Samples\SD_App\CC2530DB\..\..\..\..\..\Comp #
#                          onents\zmac\ -I E:\work\smartlight\Zigbee1\Project #
#                          s\zstack\Samples\SD_App\CC2530DB\..\..\..\..\..\Co #
#                          mponents\zmac\f8w\ -Ohz --require_prototypes       #
#    List file          =  E:\work\smartlight\Zigbee1\Projects\zstack\Samples #
#                          \SD_App\CC2530DB\RouterEB\List\SD_App.lst          #
#    Object file        =  E:\work\smartlight\Zigbee1\Projects\zstack\Samples #
#                          \SD_App\CC2530DB\RouterEB\Obj\SD_App.r51           #
#                                                                             #
#                                                                             #
###############################################################################

E:\work\smartlight\Zigbee1\Projects\zstack\Samples\SD_App\Source\SD_App.c
      1          /**************************************************************************************************
      2            Filename:       SD_App.c
      3            Revised:        $Date: 2009-03-18 15:56:27 -0700 (Wed, 18 Mar 2009) $
      4            Revision:       $Revision: 19453 $
      5          
      6            Description:    Sample Application (no Profile).
      7          
      8          
      9            Copyright 2007 Texas Instruments Incorporated. All rights reserved.
     10          
     11            IMPORTANT: Your use of this Software is limited to those specific rights
     12            granted under the terms of a software license agreement between the user
     13            who downloaded the software, his/her employer (which must be your employer)
     14            and Texas Instruments Incorporated (the "License").  You may not use this
     15            Software unless you agree to abide by the terms of the License. The License
     16            limits your use, and you acknowledge, that the Software may not be modified,
     17            copied or distributed unless embedded on a Texas Instruments microcontroller
     18            or used solely and exclusively in conjunction with a Texas Instruments radio
     19            frequency transceiver, which is integrated into your product.  Other than for
     20            the foregoing purpose, you may not use, reproduce, copy, prepare derivative
     21            works of, modify, distribute, perform, display or sell this Software and/or
     22            its documentation for any purpose.
     23          
     24            YOU FURTHER ACKNOWLEDGE AND AGREE THAT THE SOFTWARE AND DOCUMENTATION ARE
     25            PROVIDED AS IS?WITHOUT WARRANTY OF ANY KIND, EITHER EXPRESS OR IMPLIED,
     26            INCLUDING WITHOUT LIMITATION, ANY WARRANTY OF MERCHANTABILITY, TITLE,
     27            NON-INFRINGEMENT AND FITNESS FOR A PARTICULAR PURPOSE. IN NO EVENT SHALL
     28            TEXAS INSTRUMENTS OR ITS LICENSORS BE LIABLE OR OBLIGATED UNDER CONTRACT,
     29            NEGLIGENCE, STRICT LIABILITY, CONTRIBUTION, BREACH OF WARRANTY, OR OTHER
     30            LEGAL EQUITABLE THEORY ANY DIRECT OR INDIRECT DAMAGES OR EXPENSES
     31            INCLUDING BUT NOT LIMITED TO ANY INCIDENTAL, SPECIAL, INDIRECT, PUNITIVE
     32            OR CONSEQUENTIAL DAMAGES, LOST PROFITS OR LOST DATA, COST OF PROCUREMENT
     33            OF SUBSTITUTE GOODS, TECHNOLOGY, SERVICES, OR ANY CLAIMS BY THIRD PARTIES
     34            (INCLUDING BUT NOT LIMITED TO ANY DEFENSE THEREOF), OR OTHER SIMILAR COSTS.
     35          
     36            Should you have any questions regarding your right to use this Software,
     37            contact Texas Instruments Incorporated at www.TI.com.
     38          **************************************************************************************************/
     39          
     40          /*********************************************************************
     41            This application isn't intended to do anything useful, it is
     42            intended to be a simple example of an application's structure.
     43          
     44            This application sends it's messages either as broadcast or
     45            broadcast filtered group messages.  The other (more normal)
     46            message addressing is unicast.  Most of the other sample
     47            applications are written to support the unicast message model.
     48          
     49            Key control:
     50              SW1:  Sends a flash command to all devices in Group 1.
     51              SW2:  Adds/Removes (toggles) this device in and out
     52                    of Group 1.  This will enable and disable the
     53                    reception of the flash command.
     54          *********************************************************************/
     55          
     56          /*********************************************************************
     57           * INCLUDES
     58           */
     59          #include "OSAL.h"
     60          #include "ZGlobals.h"
     61          #include "AF.h"
     62          #include "aps_groups.h"
     63          #include "ZDApp.h"
     64          
     65          #include "SD_App.h"
     66          #include "SD_AppHw.h"
     67          
     68          #include "OnBoard.h"
     69          
     70          /* HAL */
     71          #include "hal_lcd.h"
     72          #include "hal_led.h"
     73          #include "hal_key.h"
     74          
     75          #include  "MT_UART.h" //此处用于串口
     76          
     77          /*********************************************************************
     78           * MACROS
     79           */
     80          
     81          /*********************************************************************
     82           * CONSTANTS
     83           */
     84          
     85          /*********************************************************************
     86           * TYPEDEFS
     87           */
     88          
     89          /*********************************************************************
     90           * GLOBAL VARIABLES
     91           */
     92          
     93          // This list should be filled with Application specific Cluster IDs.

   \                                 In  segment XDATA_ROM_C, align 1
     94          const cId_t SD_App_ClusterList[SD_App_MAX_CLUSTERS] =
   \                     SD_App_ClusterList:
   \   000000   0100         DW 1
   \   000002   0200         DW 2
   \   000004   0000         DW 0
     95          {
     96            SD_App_PERIODIC_CLUSTERID,
     97            SD_App_FLASH_CLUSTERID
     98          };
     99          

   \                                 In  segment XDATA_ROM_C, align 1
    100          const SimpleDescriptionFormat_t SD_App_SimpleDesc =
   \                     SD_App_SimpleDesc:
   \   000000   14           DB 20
   \   000001   080F         DW 3848
   \   000003   0100         DW 1
   \   000005   00           DB 0
   \   000006   03           DB 3
   \   000007   ....         DW SD_App_ClusterList
   \   000009   03           DB 3
   \   00000A   ....         DW SD_App_ClusterList
    101          {
    102            SD_App_ENDPOINT,              //  int Endpoint;
    103            SD_App_PROFID,                //  uint16 AppProfId[2];
    104            SD_App_DEVICEID,              //  uint16 AppDeviceId[2];
    105            SD_App_DEVICE_VERSION,        //  int   AppDevVer:4;
    106            SD_App_FLAGS,                 //  int   AppFlags:4;
    107            SD_App_MAX_CLUSTERS,          //  uint8  AppNumInClusters;
    108            (cId_t *)SD_App_ClusterList,  //  uint8 *pAppInClusterList;
    109            SD_App_MAX_CLUSTERS,          //  uint8  AppNumInClusters;
    110            (cId_t *)SD_App_ClusterList   //  uint8 *pAppInClusterList;
    111          };
    112          
    113          // This is the Endpoint/Interface description.  It is defined here, but
    114          // filled-in in SD_App_Init().  Another way to go would be to fill
    115          // in the structure here and make it a "const" (in code space).  The
    116          // way it's defined in this sample app it is define in RAM.

   \                                 In  segment XDATA_Z, align 1, keep-with-next
    117          endPointDesc_t SD_App_epDesc;
   \                     SD_App_epDesc:
   \   000000                DS 6
   \   000006                REQUIRE __INIT_XDATA_Z
    118          
    119          /*********************************************************************
    120           * EXTERNAL VARIABLES
    121           */
    122          
    123          /*********************************************************************
    124           * EXTERNAL FUNCTIONS
    125           */
    126          
    127          /*********************************************************************
    128           * LOCAL VARIABLES
    129           */

   \                                 In  segment XDATA_Z, align 1, keep-with-next
    130          uint8 SD_App_TaskID;   // Task ID for internal task/event processing
   \                     SD_App_TaskID:
   \   000000                DS 1
   \   000001                REQUIRE __INIT_XDATA_Z
    131                                    // This variable will be received when
    132                                    // SD_App_Init() is called.

   \                                 In  segment XDATA_Z, align 1, keep-with-next
    133          devStates_t SD_App_NwkState;
   \                     SD_App_NwkState:
   \   000000                DS 1
   \   000001                REQUIRE __INIT_XDATA_Z
    134          

   \                                 In  segment XDATA_Z, align 1, keep-with-next
    135          uint8 SD_App_TransID;  // This is the unique message ID (counter)
   \                     SD_App_TransID:
   \   000000                DS 1
   \   000001                REQUIRE __INIT_XDATA_Z
    136          

   \                                 In  segment XDATA_Z, align 1, keep-with-next
    137          afAddrType_t SD_App_Periodic_DstAddr;
   \                     SD_App_Periodic_DstAddr:
   \   000000                DS 12
   \   00000C                REQUIRE __INIT_XDATA_Z

   \                                 In  segment XDATA_Z, align 1, keep-with-next
    138          afAddrType_t SD_App_Flash_DstAddr;
   \                     SD_App_Flash_DstAddr:
   \   000000                DS 12
   \   00000C                REQUIRE __INIT_XDATA_Z
    139          

   \                                 In  segment XDATA_Z, align 1, keep-with-next
    140          afAddrType_t Point_To_Point_DstAddr;//网蜂点对点通信定义
   \                     Point_To_Point_DstAddr:
   \   000000                DS 12
   \   00000C                REQUIRE __INIT_XDATA_Z
    141          

   \                                 In  segment XDATA_Z, align 1, keep-with-next
    142          aps_Group_t SD_App_Group;
   \                     SD_App_Group:
   \   000000                DS 18
   \   000012                REQUIRE __INIT_XDATA_Z
    143          

   \                                 In  segment XDATA_Z, align 1, keep-with-next
    144          uint8 SD_AppPeriodicCounter = 0;
   \                     SD_AppPeriodicCounter:
   \   000000                DS 1
   \   000001                REQUIRE __INIT_XDATA_Z

   \                                 In  segment XDATA_Z, align 1, keep-with-next
    145          uint8 SD_AppFlashCounter = 0;
   \                     SD_AppFlashCounter:
   \   000000                DS 1
   \   000001                REQUIRE __INIT_XDATA_Z
    146          
    147          /*********************************************************************
    148           * LOCAL FUNCTIONS
    149           */
    150          void SD_App_HandleKeys( uint8 shift, uint8 keys );
    151          void SD_App_MessageMSGCB( afIncomingMSGPacket_t *pckt );
    152          void SD_App_SendPeriodicMessage( void );
    153          void SD_App_SendFlashMessage( uint16 flashTime );
    154          void SD_App_SendPointToPointMessage(void );
    155          
    156          /*********************************************************************
    157           * NETWORK LAYER CALLBACKS
    158           */
    159          
    160          /*********************************************************************
    161           * PUBLIC FUNCTIONS
    162           */
    163          
    164          /*********************************************************************
    165           * @fn      SD_App_Init
    166           *
    167           * @brief   Initialization function for the Generic App Task.
    168           *          This is called during initialization and should contain
    169           *          any application specific initialization (ie. hardware
    170           *          initialization/setup, table initialization, power up
    171           *          notificaiton ... ).
    172           *
    173           * @param   task_id - the ID assigned by OSAL.  This ID should be
    174           *                    used to send messages and set timers.
    175           *
    176           * @return  none
    177           */

   \                                 In  segment BANKED_CODE, align 1, keep-with-next
    178          void SD_App_Init( uint8 task_id )
   \                     SD_App_Init:
    179          {
   \   000000   74F5         MOV     A,#-0xb
   \   000002   12....       LCALL   ?BANKED_ENTER_XDATA
   \   000005                ; Saved register size: 11
   \   000005                ; Auto size: 0
   \   000005   E9           MOV     A,R1
   \   000006   FE           MOV     R6,A
    180            SD_App_TaskID = task_id;
   \   000007   90....       MOV     DPTR,#SD_App_TaskID
   \   00000A   F0           MOVX    @DPTR,A
    181            SD_App_NwkState = DEV_INIT;
   \   00000B   90....       MOV     DPTR,#SD_App_NwkState
   \   00000E   7401         MOV     A,#0x1
   \   000010   F0           MOVX    @DPTR,A
    182            SD_App_TransID = 0;
   \   000011   90....       MOV     DPTR,#SD_App_TransID
   \   000014   E4           CLR     A
   \   000015   F0           MOVX    @DPTR,A
    183            
    184            MT_UartInit();//串口初始化
   \   000016                ; Setup parameters for call to function MT_UartInit
   \   000016   12....       LCALL   ??MT_UartInit?relay
    185            MT_UartRegisterTaskID(task_id);//登记任务号
   \   000019                ; Setup parameters for call to function MT_UartRegisterTaskID
   \   000019   EE           MOV     A,R6
   \   00001A   F9           MOV     R1,A
   \   00001B   12....       LCALL   ??MT_UartRegisterTaskID?relay
    186            HalUARTWrite(0,"Hello World\n",12); //（串口0，'字符'，字符个数。）
   \   00001E                ; Setup parameters for call to function HalUARTWrite
   \   00001E   7C0C         MOV     R4,#0xc
   \   000020   7D00         MOV     R5,#0x0
   \   000022   7A..         MOV     R2,#`?<Constant "Hello World\\n">` & 0xff
   \   000024   7B..         MOV     R3,#(`?<Constant "Hello World\\n">` >> 8) & 0xff
   \   000026   7900         MOV     R1,#0x0
   \   000028   12....       LCALL   ??HalUARTWrite?relay
    187            
    188            // Device hardware initialization can be added here or in main() (Zmain.c).
    189            // If the hardware is application specific - add it here.
    190            // If the hardware is other parts of the device add it in main().
    191          
    192           #if defined ( BUILD_ALL_DEVICES )
    193            // The "Demo" target is setup to have BUILD_ALL_DEVICES and HOLD_AUTO_START
    194            // We are looking at a jumper (defined in SD_AppHw.c) to be jumpered
    195            // together - if they are - we will start up a coordinator. Otherwise,
    196            // the device will start as a router.
    197            if ( readCoordinatorJumper() )
    198              zgDeviceLogicalType = ZG_DEVICETYPE_COORDINATOR;
    199            else
    200              zgDeviceLogicalType = ZG_DEVICETYPE_ROUTER;
    201          #endif // BUILD_ALL_DEVICES
    202          
    203          #if defined ( HOLD_AUTO_START )
    204            // HOLD_AUTO_START is a compile option that will surpress ZDApp
    205            //  from starting the device and wait for the application to
    206            //  start the device.
    207            ZDOInitDevice(0);
    208          #endif
    209          
    210            // Setup for the periodic message's destination address
    211            // Broadcast to everyone
    212            SD_App_Periodic_DstAddr.addrMode = (afAddrMode_t)AddrBroadcast;
   \   00002B   90....       MOV     DPTR,#SD_App_Periodic_DstAddr + 8
   \   00002E   740F         MOV     A,#0xf
   \   000030   F0           MOVX    @DPTR,A
    213            SD_App_Periodic_DstAddr.endPoint = SD_App_ENDPOINT;
   \   000031   A3           INC     DPTR
   \   000032   7414         MOV     A,#0x14
   \   000034   F0           MOVX    @DPTR,A
    214            SD_App_Periodic_DstAddr.addr.shortAddr = 0xFFFF;
   \   000035   90....       MOV     DPTR,#SD_App_Periodic_DstAddr
   \   000038   74FF         MOV     A,#-0x1
   \   00003A   F0           MOVX    @DPTR,A
   \   00003B   A3           INC     DPTR
   \   00003C   F0           MOVX    @DPTR,A
    215          
    216            // Setup for the flash command's destination address - Group 1
    217            SD_App_Flash_DstAddr.addrMode = (afAddrMode_t)afAddrGroup;
   \   00003D   90....       MOV     DPTR,#SD_App_Flash_DstAddr + 8
   \   000040   7401         MOV     A,#0x1
   \   000042   F0           MOVX    @DPTR,A
    218            SD_App_Flash_DstAddr.endPoint = SD_App_ENDPOINT;
   \   000043   A3           INC     DPTR
   \   000044   7414         MOV     A,#0x14
   \   000046   F0           MOVX    @DPTR,A
    219            SD_App_Flash_DstAddr.addr.shortAddr = SD_App_FLASH_GROUP;
   \   000047   90....       MOV     DPTR,#SD_App_Flash_DstAddr
   \   00004A   7401         MOV     A,#0x1
   \   00004C   F0           MOVX    @DPTR,A
   \   00004D   A3           INC     DPTR
   \   00004E   E4           CLR     A
   \   00004F   F0           MOVX    @DPTR,A
    220            
    221            // 网蜂点对点通讯定义
    222              Point_To_Point_DstAddr.addrMode = (afAddrMode_t)Addr16Bit;//点播
   \   000050   90....       MOV     DPTR,#Point_To_Point_DstAddr + 8
   \   000053   7402         MOV     A,#0x2
   \   000055   F0           MOVX    @DPTR,A
    223              Point_To_Point_DstAddr.endPoint = SD_App_ENDPOINT;
   \   000056   A3           INC     DPTR
   \   000057   7414         MOV     A,#0x14
   \   000059   F0           MOVX    @DPTR,A
    224              Point_To_Point_DstAddr.addr.shortAddr = 0x0000; //发给协调器
   \   00005A   90....       MOV     DPTR,#Point_To_Point_DstAddr
   \   00005D   E4           CLR     A
   \   00005E   F0           MOVX    @DPTR,A
   \   00005F   A3           INC     DPTR
   \   000060   F0           MOVX    @DPTR,A
    225          
    226          
    227            // Fill out the endpoint description.
    228            SD_App_epDesc.endPoint = SD_App_ENDPOINT;
   \   000061   90....       MOV     DPTR,#SD_App_epDesc
   \   000064   7414         MOV     A,#0x14
   \   000066   F0           MOVX    @DPTR,A
    229            SD_App_epDesc.task_id = &SD_App_TaskID;
   \   000067   A3           INC     DPTR
   \   000068   74..         MOV     A,#SD_App_TaskID & 0xff
   \   00006A   F0           MOVX    @DPTR,A
   \   00006B   A3           INC     DPTR
   \   00006C   74..         MOV     A,#(SD_App_TaskID >> 8) & 0xff
   \   00006E   F0           MOVX    @DPTR,A
    230            SD_App_epDesc.simpleDesc
    231                      = (SimpleDescriptionFormat_t *)&SD_App_SimpleDesc;
   \   00006F   A3           INC     DPTR
   \   000070   74..         MOV     A,#SD_App_SimpleDesc & 0xff
   \   000072   F0           MOVX    @DPTR,A
   \   000073   A3           INC     DPTR
   \   000074   74..         MOV     A,#(SD_App_SimpleDesc >> 8) & 0xff
   \   000076   F0           MOVX    @DPTR,A
    232            SD_App_epDesc.latencyReq = noLatencyReqs;
   \   000077   A3           INC     DPTR
   \   000078   E4           CLR     A
   \   000079   F0           MOVX    @DPTR,A
    233          
    234            // Register the endpoint description with the AF
    235            afRegister( &SD_App_epDesc );
   \   00007A                ; Setup parameters for call to function afRegister
   \   00007A   7A..         MOV     R2,#SD_App_epDesc & 0xff
   \   00007C   7B..         MOV     R3,#(SD_App_epDesc >> 8) & 0xff
   \   00007E   12....       LCALL   ??afRegister?relay
    236          
    237            // Register for all key events - This app will handle all key events
    238            RegisterForKeys( SD_App_TaskID );
   \   000081                ; Setup parameters for call to function RegisterForKeys
   \   000081   90....       MOV     DPTR,#SD_App_TaskID
   \   000084   E0           MOVX    A,@DPTR
   \   000085   F9           MOV     R1,A
   \   000086   12....       LCALL   ??RegisterForKeys?relay
    239          
    240            // By default, all devices start out in Group 1
    241            SD_App_Group.ID = 0x0001;
   \   000089   90....       MOV     DPTR,#SD_App_Group
   \   00008C   7401         MOV     A,#0x1
   \   00008E   F0           MOVX    @DPTR,A
   \   00008F   A3           INC     DPTR
   \   000090   E4           CLR     A
   \   000091   F0           MOVX    @DPTR,A
    242            osal_memcpy( SD_App_Group.name, "Group 1", 7  );
   \   000092                ; Setup parameters for call to function osal_memcpy
   \   000092   75....       MOV     ?V0 + 0,#`?<Constant "Group 1">` & 0xff
   \   000095   75....       MOV     ?V0 + 1,#(`?<Constant "Group 1">` >> 8) & 0xff
   \   000098   F5..         MOV     ?V0 + 2,A
   \   00009A   78..         MOV     R0,#?V0 + 0
   \   00009C   12....       LCALL   ?PUSH_XSTACK_I_THREE
   \   00009F   7C07         MOV     R4,#0x7
   \   0000A1   7D00         MOV     R5,#0x0
   \   0000A3   7A..         MOV     R2,#(SD_App_Group + 2) & 0xff
   \   0000A5   7B..         MOV     R3,#((SD_App_Group + 2) >> 8) & 0xff
   \   0000A7   12....       LCALL   ??osal_memcpy?relay
   \   0000AA   7403         MOV     A,#0x3
   \   0000AC   12....       LCALL   ?DEALLOC_XSTACK8
    243            aps_AddGroup( SD_App_ENDPOINT, &SD_App_Group );
   \   0000AF                ; Setup parameters for call to function aps_AddGroup
   \   0000AF   7A..         MOV     R2,#SD_App_Group & 0xff
   \   0000B1   7B..         MOV     R3,#(SD_App_Group >> 8) & 0xff
   \   0000B3   7914         MOV     R1,#0x14
   \   0000B5   12....       LCALL   ??aps_AddGroup?relay
    244          
    245          #if defined ( LCD_SUPPORTED )
    246            HalLcdWriteString( "SD_App", HAL_LCD_LINE_1 );
   \   0000B8                ; Setup parameters for call to function HalLcdWriteString
   \   0000B8   7901         MOV     R1,#0x1
   \   0000BA   7A..         MOV     R2,#`?<Constant "SD_App">` & 0xff
   \   0000BC   7B..         MOV     R3,#(`?<Constant "SD_App">` >> 8) & 0xff
   \   0000BE   12....       LCALL   ??HalLcdWriteString?relay
    247          #endif
    248          }
   \   0000C1   7F03         MOV     R7,#0x3
   \   0000C3   02....       LJMP    ?BANKED_LEAVE_XDATA
    249          
    250          /*********************************************************************
    251           * @fn      SD_App_ProcessEvent
    252           *
    253           * @brief   Generic Application Task event processor.  This function
    254           *          is called to process all events for the task.  Events
    255           *          include timers, messages and any other user defined events.
    256           *
    257           * @param   task_id  - The OSAL assigned task ID.
    258           * @param   events - events to process.  This is a bit map and can
    259           *                   contain more than one event.
    260           *
    261           * @return  none
    262           */

   \                                 In  segment BANKED_CODE, align 1, keep-with-next
    263          uint16 SD_App_ProcessEvent( uint8 task_id, uint16 events )
   \                     SD_App_ProcessEvent:
    264          {
   \   000000   74F4         MOV     A,#-0xc
   \   000002   12....       LCALL   ?BANKED_ENTER_XDATA
   \   000005                ; Saved register size: 12
   \   000005                ; Auto size: 0
   \   000005   EA           MOV     A,R2
   \   000006   FE           MOV     R6,A
   \   000007   EB           MOV     A,R3
   \   000008   FF           MOV     R7,A
    265            afIncomingMSGPacket_t *MSGpkt;
    266            (void)task_id;  // Intentionally unreferenced parameter
    267          
    268            if ( events & SYS_EVENT_MSG )
   \   000009   5480         ANL     A,#0x80
   \   00000B   6074         JZ      ??SD_App_ProcessEvent_0
    269            {
    270              MSGpkt = (afIncomingMSGPacket_t *)osal_msg_receive( SD_App_TaskID );
   \   00000D                ; Setup parameters for call to function osal_msg_receive
   \   00000D   8026         SJMP    ??SD_App_ProcessEvent_1
    271              while ( MSGpkt )
    272              {
    273                switch ( MSGpkt->hdr.event )
    274                {
    275                  // Received when a key is pressed
    276                  case KEY_CHANGE:
    277                    SD_App_HandleKeys( ((keyChange_t *)MSGpkt)->state, ((keyChange_t *)MSGpkt)->keys );
    278                    break;
    279          
    280                  // Received when a messages is received (OTA) for this endpoint
    281                  case AF_INCOMING_MSG_CMD:
    282                    SD_App_MessageMSGCB( MSGpkt );
    283                    break;
    284          
    285                  // Received whenever the device changes state in the network
    286                  case ZDO_STATE_CHANGE:
    287                    SD_App_NwkState = (devStates_t)(MSGpkt->hdr.status);
   \                     ??SD_App_ProcessEvent_2:
   \   00000F   A3           INC     DPTR
   \   000010   E0           MOVX    A,@DPTR
   \   000011   90....       MOV     DPTR,#SD_App_NwkState
   \   000014   F0           MOVX    @DPTR,A
    288                    if ( //(SD_App_NwkState == DEV_ZB_COORD)|| //协调器不给自己点播
    289                         (SD_App_NwkState == DEV_ROUTER)
    290                        || (SD_App_NwkState == DEV_END_DEVICE) )
   \   000015   6407         XRL     A,#0x7
   \   000017   6005         JZ      ??SD_App_ProcessEvent_3
   \   000019   E0           MOVX    A,@DPTR
   \   00001A   6406         XRL     A,#0x6
   \   00001C   7010         JNZ     ??SD_App_ProcessEvent_4
    291                    {
    292                      // Start sending the periodic message in a regular interval.
    293                      osal_start_timerEx( SD_App_TaskID,
    294                                        SD_App_SEND_PERIODIC_MSG_EVT,
    295                                        SD_App_SEND_PERIODIC_MSG_TIMEOUT );
   \                     ??SD_App_ProcessEvent_3:
   \   00001E                ; Setup parameters for call to function osal_start_timerEx
   \   00001E   7C88         MOV     R4,#-0x78
   \   000020   7D13         MOV     R5,#0x13
   \   000022   7A01         MOV     R2,#0x1
   \   000024   7B00         MOV     R3,#0x0
   \   000026   90....       MOV     DPTR,#SD_App_TaskID
   \   000029   E0           MOVX    A,@DPTR
   \   00002A   F9           MOV     R1,A
   \   00002B   12....       LCALL   ??osal_start_timerEx?relay
    296                    }
    297                    else
    298                    {
    299                      // Device is no longer in the network
    300                    }
    301                    break;
    302          
    303                  default:
    304                    break;
    305                }
    306          
    307                // Release the memory
    308                osal_msg_deallocate( (uint8 *)MSGpkt );
   \                     ??SD_App_ProcessEvent_4:
   \   00002E                ; Setup parameters for call to function osal_msg_deallocate
   \   00002E   AA..         MOV     R2,?V0 + 0
   \   000030   AB..         MOV     R3,?V0 + 1
   \   000032   12....       LCALL   ??osal_msg_deallocate?relay
    309          
    310                // Next - if one is available
    311                MSGpkt = (afIncomingMSGPacket_t *)osal_msg_receive( SD_App_TaskID );
   \   000035                ; Setup parameters for call to function osal_msg_receive
   \                     ??SD_App_ProcessEvent_1:
   \   000035   90....       MOV     DPTR,#SD_App_TaskID
   \   000038   E0           MOVX    A,@DPTR
   \   000039   F9           MOV     R1,A
   \   00003A   12....       LCALL   ??osal_msg_receive?relay
   \   00003D   8A..         MOV     ?V0 + 0,R2
   \   00003F   8B..         MOV     ?V0 + 1,R3
   \   000041   E5..         MOV     A,?V0 + 0
   \   000043   45..         ORL     A,?V0 + 1
   \   000045   6032         JZ      ??SD_App_ProcessEvent_5
   \   000047   85..82       MOV     DPL,?V0 + 0
   \   00004A   85..83       MOV     DPH,?V0 + 1
   \   00004D   E0           MOVX    A,@DPTR
   \   00004E   24E6         ADD     A,#-0x1a
   \   000050   601E         JZ      ??SD_App_ProcessEvent_6
   \   000052   245A         ADD     A,#0x5a
   \   000054   6006         JZ      ??SD_App_ProcessEvent_7
   \   000056   24EF         ADD     A,#-0x11
   \   000058   60B5         JZ      ??SD_App_ProcessEvent_2
   \   00005A   80D2         SJMP    ??SD_App_ProcessEvent_4
   \                     ??SD_App_ProcessEvent_7:
   \   00005C                ; Setup parameters for call to function SD_App_HandleKeys
   \   00005C   A3           INC     DPTR
   \   00005D   A3           INC     DPTR
   \   00005E   A3           INC     DPTR
   \   00005F   E0           MOVX    A,@DPTR
   \   000060   FA           MOV     R2,A
   \   000061   85..82       MOV     DPL,?V0 + 0
   \   000064   85..83       MOV     DPH,?V0 + 1
   \   000067   A3           INC     DPTR
   \   000068   A3           INC     DPTR
   \   000069   E0           MOVX    A,@DPTR
   \   00006A   F9           MOV     R1,A
   \   00006B   12....       LCALL   ??SD_App_HandleKeys?relay
   \   00006E   80BE         SJMP    ??SD_App_ProcessEvent_4
   \                     ??SD_App_ProcessEvent_6:
   \   000070                ; Setup parameters for call to function SD_App_MessageMSGCB
   \   000070   AA..         MOV     R2,?V0 + 0
   \   000072   AB..         MOV     R3,?V0 + 1
   \   000074   12....       LCALL   ??SD_App_MessageMSGCB?relay
   \   000077   80B5         SJMP    ??SD_App_ProcessEvent_4
    312              }
    313          
    314              // return unprocessed events
    315              return (events ^ SYS_EVENT_MSG);
   \                     ??SD_App_ProcessEvent_5:
   \   000079   EE           MOV     A,R6
   \   00007A   FA           MOV     R2,A
   \   00007B   EF           MOV     A,R7
   \   00007C   6480         XRL     A,#0x80
   \                     ??SD_App_ProcessEvent_8:
   \   00007E   FB           MOV     R3,A
   \   00007F   802A         SJMP    ??SD_App_ProcessEvent_9
    316            }
    317          
    318            // Send a message out - This event is generated by a timer
    319            //  (setup in SD_App_Init()).
    320            if ( events & SD_App_SEND_PERIODIC_MSG_EVT )
   \                     ??SD_App_ProcessEvent_0:
   \   000081   EE           MOV     A,R6
   \   000082   A2E0         MOV     C,0xE0 /* A   */.0
   \   000084   5021         JNC     ??SD_App_ProcessEvent_10
    321            {
    322              // Send the periodic message
    323              //SD_App_SendPeriodicMessage();//周期性发送函数
    324               SD_App_SendPointToPointMessage();//此处替换成点播函数
   \   000086                ; Setup parameters for call to function SD_App_SendPointToPointMessage
   \   000086   12....       LCALL   ??SD_App_SendPointToPointMessage?relay
    325               
    326              // Setup to send message again in normal period (+ a little jitter)
    327              osal_start_timerEx( SD_App_TaskID, SD_App_SEND_PERIODIC_MSG_EVT,
    328                  (SD_App_SEND_PERIODIC_MSG_TIMEOUT + (osal_rand() & 0x00FF)) );
   \   000089                ; Setup parameters for call to function osal_rand
   \   000089   12....       LCALL   ??osal_rand?relay
   \   00008C                ; Setup parameters for call to function osal_start_timerEx
   \   00008C   EA           MOV     A,R2
   \   00008D   2488         ADD     A,#-0x78
   \   00008F   FC           MOV     R4,A
   \   000090   E4           CLR     A
   \   000091   3413         ADDC    A,#0x13
   \   000093   FD           MOV     R5,A
   \   000094   7A01         MOV     R2,#0x1
   \   000096   7B00         MOV     R3,#0x0
   \   000098   90....       MOV     DPTR,#SD_App_TaskID
   \   00009B   E0           MOVX    A,@DPTR
   \   00009C   F9           MOV     R1,A
   \   00009D   12....       LCALL   ??osal_start_timerEx?relay
    329          
    330              // return unprocessed events
    331              return (events ^ SD_App_SEND_PERIODIC_MSG_EVT);
   \   0000A0   EE           MOV     A,R6
   \   0000A1   6401         XRL     A,#0x1
   \   0000A3   FA           MOV     R2,A
   \   0000A4   EF           MOV     A,R7
   \   0000A5   80D7         SJMP    ??SD_App_ProcessEvent_8
    332            }
    333          
    334            // Discard unknown events
    335            return 0;
   \                     ??SD_App_ProcessEvent_10:
   \   0000A7   7A00         MOV     R2,#0x0
   \   0000A9   7B00         MOV     R3,#0x0
   \                     ??SD_App_ProcessEvent_9:
   \   0000AB                REQUIRE ?Subroutine0
   \   0000AB                ; // Fall through to label ?Subroutine0
    336          }

   \                                 In  segment BANKED_CODE, align 1, keep-with-next
   \                     ?Subroutine0:
   \   000000   7F04         MOV     R7,#0x4
   \   000002   02....       LJMP    ?BANKED_LEAVE_XDATA
    337          
    338          /*********************************************************************
    339           * Event Generation Functions
    340           */
    341          /*********************************************************************
    342           * @fn      SD_App_HandleKeys
    343           *
    344           * @brief   Handles all key events for this device.
    345           *
    346           * @param   shift - true if in shift/alt.
    347           * @param   keys - bit field for key events. Valid entries:
    348           *                 HAL_KEY_SW_2
    349           *                 HAL_KEY_SW_1
    350           *
    351           * @return  none
    352           */

   \                                 In  segment BANKED_CODE, align 1, keep-with-next
    353          void SD_App_HandleKeys( uint8 shift, uint8 keys )
   \                     SD_App_HandleKeys:
    354          {
   \   000000   74F6         MOV     A,#-0xa
   \   000002   12....       LCALL   ?BANKED_ENTER_XDATA
   \   000005                ; Saved register size: 10
   \   000005                ; Auto size: 0
   \   000005   EA           MOV     A,R2
   \   000006   FE           MOV     R6,A
    355            (void)shift;  // Intentionally unreferenced parameter
    356            
    357            if ( keys & HAL_KEY_SW_1 )
   \   000007   A2E0         MOV     C,0xE0 /* A   */.0
   \   000009   5007         JNC     ??SD_App_HandleKeys_0
    358            {
    359              /* This key sends the Flash Command is sent to Group 1.
    360               * This device will not receive the Flash Command from this
    361               * device (even if it belongs to group 1).
    362               */
    363              SD_App_SendFlashMessage( SD_App_FLASH_DURATION );
   \   00000B                ; Setup parameters for call to function SD_App_SendFlashMessage
   \   00000B   7AE8         MOV     R2,#-0x18
   \   00000D   7B03         MOV     R3,#0x3
   \   00000F   12....       LCALL   ??SD_App_SendFlashMessage?relay
    364            }
    365          
    366            if ( keys & HAL_KEY_SW_2 )
   \                     ??SD_App_HandleKeys_0:
   \   000012   EE           MOV     A,R6
   \   000013   A2E1         MOV     C,0xE0 /* A   */.1
   \   000015   5024         JNC     ??SD_App_HandleKeys_1
    367            {
    368              /* The Flashr Command is sent to Group 1.
    369               * This key toggles this device in and out of group 1.
    370               * If this device doesn't belong to group 1, this application
    371               * will not receive the Flash command sent to group 1.
    372               */
    373              aps_Group_t *grp;
    374              grp = aps_FindGroup( SD_App_ENDPOINT, SD_App_FLASH_GROUP );
    375              if ( grp )
   \   000017                ; Setup parameters for call to function aps_FindGroup
   \   000017   7A01         MOV     R2,#0x1
   \   000019   7B00         MOV     R3,#0x0
   \   00001B   7914         MOV     R1,#0x14
   \   00001D   12....       LCALL   ??aps_FindGroup?relay
   \   000020   8B..         MOV     ?V0 + 1,R3
   \   000022   EA           MOV     A,R2
   \   000023   45..         ORL     A,?V0 + 1
   \   000025   600B         JZ      ??SD_App_HandleKeys_2
    376              {
    377                // Remove from the group
    378                aps_RemoveGroup( SD_App_ENDPOINT, SD_App_FLASH_GROUP );
   \   000027                ; Setup parameters for call to function aps_RemoveGroup
   \   000027   7A01         MOV     R2,#0x1
   \   000029   7B00         MOV     R3,#0x0
   \   00002B   7914         MOV     R1,#0x14
   \   00002D   12....       LCALL   ??aps_RemoveGroup?relay
   \   000030   8009         SJMP    ??SD_App_HandleKeys_1
    379              }
    380              else
    381              {
    382                // Add to the flash group
    383                aps_AddGroup( SD_App_ENDPOINT, &SD_App_Group );
   \                     ??SD_App_HandleKeys_2:
   \   000032                ; Setup parameters for call to function aps_AddGroup
   \   000032   7A..         MOV     R2,#SD_App_Group & 0xff
   \   000034   7B..         MOV     R3,#(SD_App_Group >> 8) & 0xff
   \   000036   7914         MOV     R1,#0x14
   \   000038   12....       LCALL   ??aps_AddGroup?relay
    384              }
    385            }
    386          }
   \                     ??SD_App_HandleKeys_1:
   \   00003B   02....       LJMP    ??Subroutine7_0 & 0xFFFF

   \                                 In  segment BANKED_CODE, align 1, keep-with-next
   \                     ??Subroutine7_0:
   \   000000   7F02         MOV     R7,#0x2
   \   000002   02....       LJMP    ?BANKED_LEAVE_XDATA
    387          
    388          /*********************************************************************
    389           * LOCAL FUNCTIONS
    390           */
    391          
    392          /*********************************************************************
    393           * @fn      SD_App_MessageMSGCB
    394           *
    395           * @brief   Data message processor callback.  This function processes
    396           *          any incoming data - probably from other devices.  So, based
    397           *          on cluster ID, perform the intended action.
    398           *
    399           * @param   none
    400           *
    401           * @return  none
    402           */

   \                                 In  segment BANKED_CODE, align 1, keep-with-next
    403          void SD_App_MessageMSGCB( afIncomingMSGPacket_t *pkt )
   \                     SD_App_MessageMSGCB:
    404          {
   \   000000   74F4         MOV     A,#-0xc
   \   000002   12....       LCALL   ?BANKED_ENTER_XDATA
   \   000005                ; Saved register size: 12
   \   000005                ; Auto size: 16
   \   000005   74F0         MOV     A,#-0x10
   \   000007   12....       LCALL   ?ALLOC_XSTACK8
   \   00000A   8A..         MOV     ?V0 + 0,R2
   \   00000C   8B..         MOV     ?V0 + 1,R3
    405            uint16 flashTime,temp;  
    406            
    407            //网蜂16进制转ASCII码表
    408              uint8 asc_16[16]={'0','1','2','3','4','5','6','7','8','9','A','B','C','D','E','F'};
   \   00000E   85..82       MOV     DPL,?XSP + 0
   \   000011   85..83       MOV     DPH,?XSP + 1
   \   000014   AC82         MOV     R4,DPL
   \   000016   AD83         MOV     R5,DPH
   \   000018   7583..       MOV     DPH,#(`?<Constant {48, 49, 50, 51, 52, 53, 54, 55, 56` >> 8) & 0xff
   \   00001B   7582..       MOV     DPL,#`?<Constant {48, 49, 50, 51, 52, 53, 54, 55, 56` & 0xff
   \   00001E   7410         MOV     A,#0x10
   \   000020   12....       LCALL   ?MOVE_LONG8_XDATA_XDATA
    409                               
    410            switch ( pkt->clusterId )
   \   000023   8A82         MOV     DPL,R2
   \   000025   8B83         MOV     DPH,R3
   \   000027   A3           INC     DPTR
   \   000028   A3           INC     DPTR
   \   000029   A3           INC     DPTR
   \   00002A   A3           INC     DPTR
   \   00002B   E0           MOVX    A,@DPTR
   \   00002C   F5..         MOV     ?V0 + 2,A
   \   00002E   A3           INC     DPTR
   \   00002F   E0           MOVX    A,@DPTR
   \   000030   F5..         MOV     ?V0 + 3,A
   \   000032   78..         MOV     R0,#?V0 + 2
   \   000034   12....       LCALL   ?US_SWITCH_DENSE
   \                     `?<Jumptable for SD_App_MessageMSGCB>_0`:
   \   000037   0200         DW        2
   \   000039   01           DB        1
   \   00003A   ....         DW        ??SD_App_MessageMSGCB_0
   \   00003C   ....         DW        ??SD_App_MessageMSGCB_1
   \   00003E   ....         DW        ??SD_App_MessageMSGCB_2
    411            {
    412              case SD_App_POINT_TO_POINT_CLUSTERID:  
    413              
    414                temp=pkt->srcAddr.addr.shortAddr; //读出数据包的16位短地址
   \                     ??SD_App_MessageMSGCB_2:
   \   000040   8A82         MOV     DPL,R2
   \   000042   8B83         MOV     DPH,R3
   \   000044   A3           INC     DPTR
   \   000045   A3           INC     DPTR
   \   000046   A3           INC     DPTR
   \   000047   A3           INC     DPTR
   \   000048   A3           INC     DPTR
   \   000049   A3           INC     DPTR
   \   00004A   E0           MOVX    A,@DPTR
   \   00004B   FE           MOV     R6,A
   \   00004C   A3           INC     DPTR
   \   00004D   E0           MOVX    A,@DPTR
   \   00004E   FF           MOV     R7,A
    415                
    416               if( pkt->cmd.Data[0]==1 ) //路由器        
   \   00004F   12....       LCALL   ?Subroutine3 & 0xFFFF
   \                     ??CrossCallReturnLabel_2:
   \   000052   F583         MOV     DPH,A
   \   000054   8882         MOV     DPL,R0
   \   000056   E0           MOVX    A,@DPTR
   \   000057   6401         XRL     A,#0x1
   \   000059   700D         JNZ     ??SD_App_MessageMSGCB_3
    417                 HalUARTWrite(0,"ROUTER ShortAddr:0x",19); //提示接收到数据
   \   00005B                ; Setup parameters for call to function HalUARTWrite
   \   00005B   7C13         MOV     R4,#0x13
   \   00005D   7D00         MOV     R5,#0x0
   \   00005F   7A..         MOV     R2,#`?<Constant "ROUTER ShortAddr:0x">` & 0xff
   \   000061   7B..         MOV     R3,#(`?<Constant "ROUTER ShortAddr:0x">` >> 8) & 0xff
   \   000063   7900         MOV     R1,#0x0
   \   000065   12....       LCALL   ??HalUARTWrite?relay
    418               if( pkt->cmd.Data[0]==2 ) //终端
   \                     ??SD_App_MessageMSGCB_3:
   \   000068   E5..         MOV     A,?V0 + 0
   \   00006A   2422         ADD     A,#0x22
   \   00006C   F582         MOV     DPL,A
   \   00006E   E5..         MOV     A,?V0 + 1
   \   000070   12....       LCALL   ?Subroutine6 & 0xFFFF
   \                     ??CrossCallReturnLabel_9:
   \   000073   F583         MOV     DPH,A
   \   000075   8882         MOV     DPL,R0
   \   000077   E0           MOVX    A,@DPTR
   \   000078   6402         XRL     A,#0x2
   \   00007A   700D         JNZ     ??SD_App_MessageMSGCB_4
    419                 HalUARTWrite(0,"ENDDEVICE ShortAddr:0x",22); //提示接收到数据
   \   00007C                ; Setup parameters for call to function HalUARTWrite
   \   00007C   7C16         MOV     R4,#0x16
   \   00007E   7D00         MOV     R5,#0x0
   \   000080   7A..         MOV     R2,#`?<Constant "ENDDEVICE ShortAddr:0x">` & 0xff
   \   000082   7B..         MOV     R3,#(`?<Constant "ENDDEVICE ShortAddr:0x">` >> 8) & 0xff
   \   000084   7900         MOV     R1,#0x0
   \   000086   12....       LCALL   ??HalUARTWrite?relay
    420                
    421                /****将短地址分解，ASC码打印*****/
    422                HalUARTWrite(0,&asc_16[temp/4096],1);
   \                     ??SD_App_MessageMSGCB_4:
   \   000089                ; Setup parameters for call to function HalUARTWrite
   \   000089   7C01         MOV     R4,#0x1
   \   00008B   7D00         MOV     R5,#0x0
   \   00008D   8E..         MOV     ?V0 + 0,R6
   \   00008F   8F..         MOV     ?V0 + 1,R7
   \   000091   740C         MOV     A,#0xc
   \   000093   78..         MOV     R0,#?V0 + 0
   \   000095   12....       LCALL   ?US_SHR
   \   000098   85..82       MOV     DPL,?XSP + 0
   \   00009B   85..83       MOV     DPH,?XSP + 1
   \   00009E   E582         MOV     A,DPL
   \   0000A0   25..         ADD     A,?V0 + 0
   \   0000A2   FA           MOV     R2,A
   \   0000A3   E583         MOV     A,DPH
   \   0000A5   3400         ADDC    A,#0x0
   \   0000A7   FB           MOV     R3,A
   \   0000A8   7900         MOV     R1,#0x0
   \   0000AA   12....       LCALL   ?Subroutine5 & 0xFFFF
    423                HalUARTWrite(0,&asc_16[temp%4096/256],1);
   \                     ??CrossCallReturnLabel_6:
   \   0000AD   EF           MOV     A,R7
   \   0000AE   F9           MOV     R1,A
   \   0000AF   E4           CLR     A
   \   0000B0   C9           XCH     A,R1
   \   0000B1   12....       LCALL   ?Subroutine2 & 0xFFFF
   \                     ??CrossCallReturnLabel_0:
   \   0000B4   12....       LCALL   ?Subroutine4 & 0xFFFF
    424                HalUARTWrite(0,&asc_16[temp%256/16],1);
   \                     ??CrossCallReturnLabel_4:
   \   0000B7   C4           SWAP    A
   \   0000B8   12....       LCALL   ?Subroutine2 & 0xFFFF
   \                     ??CrossCallReturnLabel_1:
   \   0000BB   7900         MOV     R1,#0x0
   \   0000BD   12....       LCALL   ?Subroutine4 & 0xFFFF
    425                HalUARTWrite(0,&asc_16[temp%16],1);      
   \                     ??CrossCallReturnLabel_5:
   \   0000C0   540F         ANL     A,#0xf
   \   0000C2   F8           MOV     R0,A
   \   0000C3   7900         MOV     R1,#0x0
   \   0000C5   85..82       MOV     DPL,?XSP + 0
   \   0000C8   85..83       MOV     DPH,?XSP + 1
   \   0000CB   E582         MOV     A,DPL
   \   0000CD   28           ADD     A,R0
   \   0000CE   FA           MOV     R2,A
   \   0000CF   E583         MOV     A,DPH
   \   0000D1   3400         ADDC    A,#0x0
   \   0000D3   FB           MOV     R3,A
   \   0000D4   12....       LCALL   ?Subroutine5 & 0xFFFF
    426                HalUARTWrite(0,"\n",1);               // 回车换行
   \                     ??CrossCallReturnLabel_7:
   \   0000D7   7A..         MOV     R2,#`?<Constant "\\n">` & 0xff
   \   0000D9   7B..         MOV     R3,#(`?<Constant "\\n">` >> 8) & 0xff
   \   0000DB   7900         MOV     R1,#0x0
   \   0000DD   12....       LCALL   ??HalUARTWrite?relay
    427          
    428                break;
   \   0000E0   8030         SJMP    ??SD_App_MessageMSGCB_0
   \                     ??SD_App_MessageMSGCB_1:
   \   0000E2   12....       LCALL   ?Subroutine3 & 0xFFFF
   \                     ??CrossCallReturnLabel_3:
   \   0000E5   F9           MOV     R1,A
   \   0000E6                ; Setup parameters for call to function HalLedBlink
   \   0000E6   8882         MOV     DPL,R0
   \   0000E8   8983         MOV     DPH,R1
   \   0000EA   A3           INC     DPTR
   \   0000EB   E0           MOVX    A,@DPTR
   \   0000EC   FA           MOV     R2,A
   \   0000ED   8882         MOV     DPL,R0
   \   0000EF   8983         MOV     DPH,R1
   \   0000F1   A3           INC     DPTR
   \   0000F2   A3           INC     DPTR
   \   0000F3   E0           MOVX    A,@DPTR
   \   0000F4   F9           MOV     R1,A
   \   0000F5   EA           MOV     A,R2
   \   0000F6   2400         ADD     A,#0x0
   \   0000F8   F5..         MOV     ?V0 + 0,A
   \   0000FA   E4           CLR     A
   \   0000FB   39           ADDC    A,R1
   \   0000FC   F5..         MOV     ?V0 + 1,A
   \   0000FE   7402         MOV     A,#0x2
   \   000100   78..         MOV     R0,#?V0 + 0
   \   000102   12....       LCALL   ?US_SHR
   \   000105   AC..         MOV     R4,?V0 + 0
   \   000107   AD..         MOV     R5,?V0 + 1
   \   000109   7B32         MOV     R3,#0x32
   \   00010B   7A04         MOV     R2,#0x4
   \   00010D   7908         MOV     R1,#0x8
    429          
    430              case SD_App_FLASH_CLUSTERID:
    431                flashTime = BUILD_UINT16(pkt->cmd.Data[1], pkt->cmd.Data[2] );
    432                HalLedBlink( HAL_LED_4, 4, 50, (flashTime / 4) );
   \   00010F   12....       LCALL   ??HalLedBlink?relay
    433                break;
    434            }
    435          }
   \                     ??SD_App_MessageMSGCB_0:
   \   000112   7410         MOV     A,#0x10
   \   000114   12....       LCALL   ?DEALLOC_XSTACK8
   \   000117   02....       LJMP    ?Subroutine0 & 0xFFFF

   \                                 In  segment BANKED_CODE, align 1, keep-with-next
   \                     ?Subroutine4:
   \   000000   12....       LCALL   ?Subroutine5 & 0xFFFF
   \                     ??CrossCallReturnLabel_8:
   \   000003   EE           MOV     A,R6
   \   000004   22           RET

   \                                 In  segment BANKED_CODE, align 1, keep-with-next
   \                     ?Subroutine5:
   \   000000   12....       LCALL   ??HalUARTWrite?relay
   \   000003                ; Setup parameters for call to function HalUARTWrite
   \   000003                ; Setup parameters for call to function HalUARTWrite
   \   000003                ; Setup parameters for call to function HalUARTWrite
   \   000003                ; Setup parameters for call to function HalUARTWrite
   \   000003   7C01         MOV     R4,#0x1
   \   000005   7D00         MOV     R5,#0x0
   \   000007   22           RET

   \                                 In  segment BANKED_CODE, align 1, keep-with-next
   \                     ?Subroutine3:
   \   000000   EA           MOV     A,R2
   \   000001   2422         ADD     A,#0x22
   \   000003   F582         MOV     DPL,A
   \   000005   EB           MOV     A,R3
   \   000006   12....       LCALL   ?Subroutine6 & 0xFFFF
   \                     ??CrossCallReturnLabel_10:
   \   000009   22           RET

   \                                 In  segment BANKED_CODE, align 1, keep-with-next
   \                     ?Subroutine6:
   \   000000   3400         ADDC    A,#0x0
   \   000002   F583         MOV     DPH,A
   \   000004   E0           MOVX    A,@DPTR
   \   000005   F8           MOV     R0,A
   \   000006   A3           INC     DPTR
   \   000007   E0           MOVX    A,@DPTR
   \   000008   22           RET

   \                                 In  segment BANKED_CODE, align 1, keep-with-next
   \                     ?Subroutine2:
   \   000000   540F         ANL     A,#0xf
   \   000002   F8           MOV     R0,A
   \   000003   85..82       MOV     DPL,?XSP + 0
   \   000006   85..83       MOV     DPH,?XSP + 1
   \   000009   E582         MOV     A,DPL
   \   00000B   28           ADD     A,R0
   \   00000C   FA           MOV     R2,A
   \   00000D   E583         MOV     A,DPH
   \   00000F   3400         ADDC    A,#0x0
   \   000011   FB           MOV     R3,A
   \   000012   22           RET
    436          
    437          /*********************************************************************
    438           * @fn      SD_App_SendPeriodicMessage
    439           *
    440           * @brief   Send the periodic message.
    441           *
    442           * @param   none
    443           *
    444           * @return  none
    445           */

   \                                 In  segment BANKED_CODE, align 1, keep-with-next
    446          void SD_App_SendPeriodicMessage( void )
   \                     SD_App_SendPeriodicMessage:
    447          {
   \   000000   74F6         MOV     A,#-0xa
   \   000002   12....       LCALL   ?BANKED_ENTER_XDATA
   \   000005                ; Saved register size: 10
   \   000005                ; Auto size: 10
   \   000005   74F6         MOV     A,#-0xa
   \   000007   12....       LCALL   ?ALLOC_XSTACK8
    448            uint8 data[10]={'0','1','2','3','4','5','6','7','8','9'};//自定义数据
   \   00000A   85..82       MOV     DPL,?XSP + 0
   \   00000D   85..83       MOV     DPH,?XSP + 1
   \   000010   AC82         MOV     R4,DPL
   \   000012   AD83         MOV     R5,DPH
   \   000014   7583..       MOV     DPH,#(`?<Constant {48, 49, 50, 51, 52, 53, 54, 55, 56_1` >> 8) & 0xff
   \   000017   7582..       MOV     DPL,#`?<Constant {48, 49, 50, 51, 52, 53, 54, 55, 56_1` & 0xff
   \   00001A   740A         MOV     A,#0xa
   \   00001C   12....       LCALL   ?MOVE_LONG8_XDATA_XDATA
    449            if ( AF_DataRequest( &SD_App_Periodic_DstAddr, &SD_App_epDesc,
    450                                 SD_App_PERIODIC_CLUSTERID,
    451                                 10,//字节数
    452                                 data,//指针头
    453                                 &SD_App_TransID,
    454                                 AF_DISCV_ROUTE,
    455                                 AF_DEFAULT_RADIUS ) == afStatus_SUCCESS )
   \   00001F                ; Setup parameters for call to function AF_DataRequest
   \   00001F   75..1E       MOV     ?V0 + 0,#0x1e
   \   000022   78..         MOV     R0,#?V0 + 0
   \   000024   12....       LCALL   ?PUSH_XSTACK_I_ONE
   \   000027   75....       MOV     ?V0 + 0,#SD_App_TransID & 0xff
   \   00002A   75....       MOV     ?V0 + 1,#(SD_App_TransID >> 8) & 0xff
   \   00002D   78..         MOV     R0,#?V0 + 0
   \   00002F   12....       LCALL   ?PUSH_XSTACK_I_TWO
   \   000032   7403         MOV     A,#0x3
   \   000034   12....       LCALL   ?XSTACK_DISP0_8
   \   000037   8582..       MOV     ?V0 + 0,DPL
   \   00003A   8583..       MOV     ?V0 + 1,DPH
   \   00003D   78..         MOV     R0,#?V0 + 0
   \   00003F   12....       LCALL   ?PUSH_XSTACK_I_TWO
   \   000042   75..0A       MOV     ?V0 + 0,#0xa
   \   000045   75..00       MOV     ?V0 + 1,#0x0
   \   000048   78..         MOV     R0,#?V0 + 0
   \   00004A   12....       LCALL   ?PUSH_XSTACK_I_TWO
   \   00004D   75..01       MOV     ?V0 + 0,#0x1
   \   000050   78..         MOV     R0,#?V0 + 0
   \   000052   12....       LCALL   ?PUSH_XSTACK_I_TWO
   \   000055   7920         MOV     R1,#0x20
   \   000057   7C..         MOV     R4,#SD_App_epDesc & 0xff
   \   000059   7D..         MOV     R5,#(SD_App_epDesc >> 8) & 0xff
   \   00005B   7A..         MOV     R2,#SD_App_Periodic_DstAddr & 0xff
   \   00005D   7B..         MOV     R3,#(SD_App_Periodic_DstAddr >> 8) & 0xff
   \   00005F   12....       LCALL   ??AF_DataRequest?relay
   \   000062   7409         MOV     A,#0x9
   \   000064   12....       LCALL   ?DEALLOC_XSTACK8
    456            {
    457            }
    458            else
    459            {
    460              // Error occurred in request to send.
    461            }
    462          }
   \   000067   740A         MOV     A,#0xa
   \   000069   02....       LJMP    ?Subroutine1 & 0xFFFF

   \                                 In  segment BANKED_CODE, align 1, keep-with-next
   \                     ?Subroutine1:
   \   000000   12....       LCALL   ?DEALLOC_XSTACK8
   \   000003                REQUIRE ??Subroutine7_0
   \   000003                ; // Fall through to label ??Subroutine7_0
    463          
    464          /*********************************************************************
    465           * @fn      SD_App_SendFlashMessage
    466           *
    467           * @brief   Send the flash message to group 1.
    468           *
    469           * @param   flashTime - in milliseconds
    470           *
    471           * @return  none
    472           */

   \                                 In  segment BANKED_CODE, align 1, keep-with-next
    473          void SD_App_SendFlashMessage( uint16 flashTime )
   \                     SD_App_SendFlashMessage:
    474          {
   \   000000   74F6         MOV     A,#-0xa
   \   000002   12....       LCALL   ?BANKED_ENTER_XDATA
   \   000005                ; Saved register size: 10
   \   000005                ; Auto size: 3
   \   000005   74FD         MOV     A,#-0x3
   \   000007   12....       LCALL   ?ALLOC_XSTACK8
    475            uint8 buffer[3];
    476            buffer[0] = (uint8)(SD_AppFlashCounter++);
   \   00000A   90....       MOV     DPTR,#SD_AppFlashCounter
   \   00000D   E0           MOVX    A,@DPTR
   \   00000E   85..82       MOV     DPL,?XSP + 0
   \   000011   85..83       MOV     DPH,?XSP + 1
   \   000014   F0           MOVX    @DPTR,A
   \   000015   90....       MOV     DPTR,#SD_AppFlashCounter
   \   000018   E0           MOVX    A,@DPTR
   \   000019   04           INC     A
   \   00001A   F0           MOVX    @DPTR,A
    477            buffer[1] = LO_UINT16( flashTime );
   \   00001B   7401         MOV     A,#0x1
   \   00001D   12....       LCALL   ?XSTACK_DISP0_8
   \   000020   EA           MOV     A,R2
   \   000021   F0           MOVX    @DPTR,A
    478            buffer[2] = HI_UINT16( flashTime );
   \   000022   7402         MOV     A,#0x2
   \   000024   12....       LCALL   ?XSTACK_DISP0_8
   \   000027   EB           MOV     A,R3
   \   000028   F0           MOVX    @DPTR,A
    479          
    480            if ( AF_DataRequest( &SD_App_Flash_DstAddr, &SD_App_epDesc,
    481                                 SD_App_FLASH_CLUSTERID,
    482                                 3,
    483                                 buffer,
    484                                 &SD_App_TransID,
    485                                 AF_DISCV_ROUTE,
    486                                 AF_DEFAULT_RADIUS ) == afStatus_SUCCESS )
   \   000029                ; Setup parameters for call to function AF_DataRequest
   \   000029   75..1E       MOV     ?V0 + 0,#0x1e
   \   00002C   78..         MOV     R0,#?V0 + 0
   \   00002E   12....       LCALL   ?PUSH_XSTACK_I_ONE
   \   000031   75....       MOV     ?V0 + 0,#SD_App_TransID & 0xff
   \   000034   75....       MOV     ?V0 + 1,#(SD_App_TransID >> 8) & 0xff
   \   000037   78..         MOV     R0,#?V0 + 0
   \   000039   12....       LCALL   ?PUSH_XSTACK_I_TWO
   \   00003C   7403         MOV     A,#0x3
   \   00003E   12....       LCALL   ?XSTACK_DISP0_8
   \   000041   8582..       MOV     ?V0 + 0,DPL
   \   000044   8583..       MOV     ?V0 + 1,DPH
   \   000047   78..         MOV     R0,#?V0 + 0
   \   000049   12....       LCALL   ?PUSH_XSTACK_I_TWO
   \   00004C   75..03       MOV     ?V0 + 0,#0x3
   \   00004F   75..00       MOV     ?V0 + 1,#0x0
   \   000052   78..         MOV     R0,#?V0 + 0
   \   000054   12....       LCALL   ?PUSH_XSTACK_I_TWO
   \   000057   75..02       MOV     ?V0 + 0,#0x2
   \   00005A   78..         MOV     R0,#?V0 + 0
   \   00005C   12....       LCALL   ?PUSH_XSTACK_I_TWO
   \   00005F   7920         MOV     R1,#0x20
   \   000061   7C..         MOV     R4,#SD_App_epDesc & 0xff
   \   000063   7D..         MOV     R5,#(SD_App_epDesc >> 8) & 0xff
   \   000065   7A..         MOV     R2,#SD_App_Flash_DstAddr & 0xff
   \   000067   7B..         MOV     R3,#(SD_App_Flash_DstAddr >> 8) & 0xff
   \   000069   12....       LCALL   ??AF_DataRequest?relay
   \   00006C   7409         MOV     A,#0x9
   \   00006E   12....       LCALL   ?DEALLOC_XSTACK8
    487            {
    488            }
    489            else
    490            {
    491              // Error occurred in request to send.
    492            }
    493          }
   \   000071   7403         MOV     A,#0x3
   \   000073   80..         SJMP    ?Subroutine1
    494          
    495          /*********************************************************************
    496          *********************************************************************/

   \                                 In  segment BANKED_CODE, align 1, keep-with-next
    497          void SD_App_SendPointToPointMessage( void )
   \                     SD_App_SendPointToPointMessage:
    498          {
   \   000000   74F6         MOV     A,#-0xa
   \   000002   12....       LCALL   ?BANKED_ENTER_XDATA
   \   000005                ; Saved register size: 10
   \   000005                ; Auto size: 1
   \   000005   74FF         MOV     A,#-0x1
   \   000007   12....       LCALL   ?ALLOC_XSTACK8
    499            uint8 device;      //设备类型变量
    500            if ( SD_App_NwkState == DEV_ROUTER )
   \   00000A   90....       MOV     DPTR,#SD_App_NwkState
   \   00000D   E0           MOVX    A,@DPTR
   \   00000E   6407         XRL     A,#0x7
   \   000010   700A         JNZ     ??SD_App_SendPointToPointMessage_0
    501                device=0x01;  //编号1表示路由器  
   \   000012   85..82       MOV     DPL,?XSP + 0
   \   000015   85..83       MOV     DPH,?XSP + 1
   \   000018   7401         MOV     A,#0x1
   \   00001A   8011         SJMP    ??SD_App_SendPointToPointMessage_1
    502            else if (SD_App_NwkState == DEV_END_DEVICE)
   \                     ??SD_App_SendPointToPointMessage_0:
   \   00001C   E0           MOVX    A,@DPTR
   \   00001D   6406         XRL     A,#0x6
   \   00001F   85..82       MOV     DPL,?XSP + 0
   \   000022   85..83       MOV     DPH,?XSP + 1
   \   000025   7004         JNZ     ??SD_App_SendPointToPointMessage_2
    503                device=0x02;  //编号2表示终端  
   \   000027   7402         MOV     A,#0x2
   \   000029   8002         SJMP    ??SD_App_SendPointToPointMessage_1
    504            else
    505                device=0x03;  //编号3表示出错
   \                     ??SD_App_SendPointToPointMessage_2:
   \   00002B   7403         MOV     A,#0x3
   \                     ??SD_App_SendPointToPointMessage_1:
   \   00002D   F0           MOVX    @DPTR,A
    506            
    507            if ( AF_DataRequest( &Point_To_Point_DstAddr,  //发送设备类型编号
    508                                 &SD_App_epDesc,
    509                                 SD_App_POINT_TO_POINT_CLUSTERID,
    510                                 1,
    511                                 &device,
    512                                 &SD_App_TransID,
    513                                 AF_DISCV_ROUTE,
    514                                 AF_DEFAULT_RADIUS ) == afStatus_SUCCESS )
   \   00002E                ; Setup parameters for call to function AF_DataRequest
   \   00002E   75..1E       MOV     ?V0 + 0,#0x1e
   \   000031   78..         MOV     R0,#?V0 + 0
   \   000033   12....       LCALL   ?PUSH_XSTACK_I_ONE
   \   000036   75....       MOV     ?V0 + 0,#SD_App_TransID & 0xff
   \   000039   75....       MOV     ?V0 + 1,#(SD_App_TransID >> 8) & 0xff
   \   00003C   78..         MOV     R0,#?V0 + 0
   \   00003E   12....       LCALL   ?PUSH_XSTACK_I_TWO
   \   000041   7403         MOV     A,#0x3
   \   000043   12....       LCALL   ?XSTACK_DISP0_8
   \   000046   8582..       MOV     ?V0 + 0,DPL
   \   000049   8583..       MOV     ?V0 + 1,DPH
   \   00004C   78..         MOV     R0,#?V0 + 0
   \   00004E   12....       LCALL   ?PUSH_XSTACK_I_TWO
   \   000051   75..01       MOV     ?V0 + 0,#0x1
   \   000054   75..00       MOV     ?V0 + 1,#0x0
   \   000057   78..         MOV     R0,#?V0 + 0
   \   000059   12....       LCALL   ?PUSH_XSTACK_I_TWO
   \   00005C   75..03       MOV     ?V0 + 0,#0x3
   \   00005F   78..         MOV     R0,#?V0 + 0
   \   000061   12....       LCALL   ?PUSH_XSTACK_I_TWO
   \   000064   7920         MOV     R1,#0x20
   \   000066   7C..         MOV     R4,#SD_App_epDesc & 0xff
   \   000068   7D..         MOV     R5,#(SD_App_epDesc >> 8) & 0xff
   \   00006A   7A..         MOV     R2,#Point_To_Point_DstAddr & 0xff
   \   00006C   7B..         MOV     R3,#(Point_To_Point_DstAddr >> 8) & 0xff
   \   00006E   12....       LCALL   ??AF_DataRequest?relay
   \   000071   7409         MOV     A,#0x9
   \   000073   12....       LCALL   ?DEALLOC_XSTACK8
    515            {
    516            }
    517            else
    518            {
    519              // Error occurred in request to send.
    520            }
    521          
    522          }
   \   000076   7401         MOV     A,#0x1
   \   000078                REQUIRE ?Subroutine1
   \   000078                ; // Fall through to label ?Subroutine1

   \                                 In  segment BANK_RELAYS, align 1
   \                     ??SD_App_Init?relay:
   \   000000   12....       LCALL   ?BDISPATCH
   \   000003   ......       DC24    SD_App_Init

   \                                 In  segment BANK_RELAYS, align 1
   \                     ??SD_App_ProcessEvent?relay:
   \   000000   12....       LCALL   ?BDISPATCH
   \   000003   ......       DC24    SD_App_ProcessEvent

   \                                 In  segment BANK_RELAYS, align 1
   \                     ??SD_App_HandleKeys?relay:
   \   000000   12....       LCALL   ?BDISPATCH
   \   000003   ......       DC24    SD_App_HandleKeys

   \                                 In  segment BANK_RELAYS, align 1
   \                     ??SD_App_MessageMSGCB?relay:
   \   000000   12....       LCALL   ?BDISPATCH
   \   000003   ......       DC24    SD_App_MessageMSGCB

   \                                 In  segment BANK_RELAYS, align 1
   \                     ??SD_App_SendPeriodicMessage?relay:
   \   000000   12....       LCALL   ?BDISPATCH
   \   000003   ......       DC24    SD_App_SendPeriodicMessage

   \                                 In  segment BANK_RELAYS, align 1
   \                     ??SD_App_SendFlashMessage?relay:
   \   000000   12....       LCALL   ?BDISPATCH
   \   000003   ......       DC24    SD_App_SendFlashMessage

   \                                 In  segment BANK_RELAYS, align 1
   \                     ??SD_App_SendPointToPointMessage?relay:
   \   000000   12....       LCALL   ?BDISPATCH
   \   000003   ......       DC24    SD_App_SendPointToPointMessage

   \                                 In  segment XDATA_ROM_C, align 1
   \                     `?<Constant "Hello World\\n">`:
   \   000000   48656C6C     DB "Hello World\012"
   \            6F20576F
   \            726C640A
   \            00      

   \                                 In  segment XDATA_ROM_C, align 1
   \                     `?<Constant "Group 1">`:
   \   000000   47726F75     DB "Group 1"
   \            70203100

   \                                 In  segment XDATA_ROM_C, align 1
   \                     `?<Constant "SD_App">`:
   \   000000   53445F41     DB "SD_App"
   \            707000  

   \                                 In  segment XDATA_ROM_C, align 1
   \                     `?<Constant {48, 49, 50, 51, 52, 53, 54, 55, 56`:
   \   000000   30           DB 48
   \   000001   31           DB 49
   \   000002   32           DB 50
   \   000003   33           DB 51
   \   000004   34           DB 52
   \   000005   35           DB 53
   \   000006   36           DB 54
   \   000007   37           DB 55
   \   000008   38           DB 56
   \   000009   39           DB 57
   \   00000A   41           DB 65
   \   00000B   42           DB 66
   \   00000C   43           DB 67
   \   00000D   44           DB 68
   \   00000E   45           DB 69
   \   00000F   46           DB 70

   \                                 In  segment XDATA_ROM_C, align 1
   \                     `?<Constant "ROUTER ShortAddr:0x">`:
   \   000000   524F5554     DB "ROUTER ShortAddr:0x"
   \            45522053
   \            686F7274
   \            41646472
   \            3A307800

   \                                 In  segment XDATA_ROM_C, align 1
   \                     `?<Constant "ENDDEVICE ShortAddr:0x">`:
   \   000000   454E4444     DB "ENDDEVICE ShortAddr:0x"
   \            45564943
   \            45205368
   \            6F727441
   \            6464723A
   \            307800  

   \                                 In  segment XDATA_ROM_C, align 1
   \                     `?<Constant "\\n">`:
   \   000000   0A00         DB "\012"

   \                                 In  segment XDATA_ROM_C, align 1
   \                     `?<Constant {48, 49, 50, 51, 52, 53, 54, 55, 56_1`:
   \   000000   30           DB 48
   \   000001   31           DB 49
   \   000002   32           DB 50
   \   000003   33           DB 51
   \   000004   34           DB 52
   \   000005   35           DB 53
   \   000006   36           DB 54
   \   000007   37           DB 55
   \   000008   38           DB 56
   \   000009   39           DB 57

   Maximum stack usage in bytes:

     Function                       ISTACK PSTACK XSTACK
     --------                       ------ ------ ------
     SD_App_HandleKeys                  0      0     22
       -> SD_App_SendFlashMessage       0      0     20
       -> aps_FindGroup                 0      0     20
       -> aps_RemoveGroup               0      0     20
       -> aps_AddGroup                  0      0     20
     SD_App_Init                        0      0     14
       -> MT_UartInit                   0      0     22
       -> MT_UartRegisterTaskID         0      0     22
       -> HalUARTWrite                  0      0     22
       -> afRegister                    0      0     22
       -> RegisterForKeys               0      0     22
       -> osal_memcpy                   0      0     28
       -> aps_AddGroup                  0      0     22
       -> HalLcdWriteString             0      0     22
     SD_App_MessageMSGCB                2      0     40
       -> HalUARTWrite                  0      0     56
       -> HalUARTWrite                  0      0     56
       -> HalUARTWrite                  0      0     56
       -> HalUARTWrite                  0      0     56
       -> HalUARTWrite                  0      0     56
       -> HalUARTWrite                  0      0     56
       -> HalUARTWrite                  0      0     56
       -> HalLedBlink                   0      0     56
     SD_App_ProcessEvent                0      0     12
       -> osal_msg_receive              0      0     24
       -> osal_start_timerEx            0      0     24
       -> osal_msg_deallocate           0      0     24
       -> osal_msg_receive              0      0     24
       -> SD_App_HandleKeys             0      0     24
       -> SD_App_MessageMSGCB           0      0     24
       -> SD_App_SendPointToPointMessage
                                        0      0     24
       -> osal_rand                     0      0     24
       -> osal_start_timerEx            0      0     24
     SD_App_SendFlashMessage            1      0     32
       -> AF_DataRequest                0      0     44
     SD_App_SendPeriodicMessage         2      0     29
       -> AF_DataRequest                0      0     58
     SD_App_SendPointToPointMessage     0      0     32
       -> AF_DataRequest                0      0     40


   Segment part sizes:

     Function/Label                                   Bytes
     --------------                                   -----
     SD_App_ClusterList                                  6
     SD_App_SimpleDesc                                  12
     SD_App_epDesc                                       6
     SD_App_TaskID                                       1
     SD_App_NwkState                                     1
     SD_App_TransID                                      1
     SD_App_Periodic_DstAddr                            12
     SD_App_Flash_DstAddr                               12
     Point_To_Point_DstAddr                             12
     SD_App_Group                                       18
     SD_AppPeriodicCounter                               1
     SD_AppFlashCounter                                  1
     SD_App_Init                                       198
     SD_App_ProcessEvent                               171
     ?Subroutine0                                        5
     SD_App_HandleKeys                                  62
     ??Subroutine7_0                                     5
     SD_App_MessageMSGCB                               282
     ?Subroutine4                                        5
     ?Subroutine5                                        8
     ?Subroutine3                                       10
     ?Subroutine6                                        9
     ?Subroutine2                                       19
     SD_App_SendPeriodicMessage                        108
     ?Subroutine1                                        3
     SD_App_SendFlashMessage                           117
     SD_App_SendPointToPointMessage                    120
     ??SD_App_Init?relay                                 6
     ??SD_App_ProcessEvent?relay                         6
     ??SD_App_HandleKeys?relay                           6
     ??SD_App_MessageMSGCB?relay                         6
     ??SD_App_SendPeriodicMessage?relay                  6
     ??SD_App_SendFlashMessage?relay                     6
     ??SD_App_SendPointToPointMessage?relay              6
     ?<Constant "Hello World\n">                        13
     ?<Constant "Group 1">                               8
     ?<Constant "SD_App">                                7
     ?<Constant {48, 49, 50, 51, 52, 53, 54, 55, 56     16
     ?<Constant "ROUTER ShortAddr:0x">                  20
     ?<Constant "ENDDEVICE ShortAddr:0x">               23
     ?<Constant "\n">                                    2
     ?<Constant {48, 49, 50, 51, 52, 53, 54, 55, 56_1   10

 
 1 122 bytes in segment BANKED_CODE
    42 bytes in segment BANK_RELAYS
   117 bytes in segment XDATA_ROM_C
    65 bytes in segment XDATA_Z
 
 1 164 bytes of CODE  memory
   117 bytes of CONST memory
    65 bytes of XDATA memory

Errors: none
Warnings: none
